
obj/STM32F4_Test.elf:     file format elf32-littlearm

Sections:
Idx Name          Size      VMA       LMA       File off  Algn
  0 .isr_vector   00000188  08000000  08000000  00008000  2**0
                  CONTENTS, ALLOC, LOAD, READONLY, DATA
  1 .text         00007ce4  08000188  08000188  00008188  2**2
                  CONTENTS, ALLOC, LOAD, READONLY, CODE
  2 .init_array   00000008  08007e6c  08007e6c  0000fe6c  2**2
                  CONTENTS, ALLOC, LOAD, DATA
  3 .fini_array   00000004  08007e74  08007e74  0000fe74  2**2
                  CONTENTS, ALLOC, LOAD, DATA
  4 .data         00000460  20000000  08007e78  00010000  2**3
                  CONTENTS, ALLOC, LOAD, DATA
  5 .bss          00013dfc  20000460  080082d8  00010460  2**2
                  ALLOC
  6 ._user_heap_stack 00000400  2001425c  0801c0d4  00010460  2**0
                  ALLOC
  7 .ARM.attributes 0000002e  00000000  00000000  00010460  2**0
                  CONTENTS, READONLY
  8 .debug_info   0000b5ac  00000000  00000000  0001048e  2**0
                  CONTENTS, READONLY, DEBUGGING
  9 .debug_abbrev 0000246f  00000000  00000000  0001ba3a  2**0
                  CONTENTS, READONLY, DEBUGGING
 10 .debug_loc    000046ab  00000000  00000000  0001dea9  2**0
                  CONTENTS, READONLY, DEBUGGING
 11 .debug_aranges 00000c80  00000000  00000000  00022554  2**0
                  CONTENTS, READONLY, DEBUGGING
 12 .debug_ranges 00000b20  00000000  00000000  000231d4  2**0
                  CONTENTS, READONLY, DEBUGGING
 13 .debug_line   00005f01  00000000  00000000  00023cf4  2**0
                  CONTENTS, READONLY, DEBUGGING
 14 .debug_str    00004325  00000000  00000000  00029bf5  2**0
                  CONTENTS, READONLY, DEBUGGING
 15 .comment      00000070  00000000  00000000  0002df1a  2**0
                  CONTENTS, READONLY
 16 .debug_frame  00002c94  00000000  00000000  0002df8c  2**2
                  CONTENTS, READONLY, DEBUGGING

Disassembly of section .text:

08000188 <__do_global_dtors_aux>:
 8000188:	b510      	push	{r4, lr}
 800018a:	4c05      	ldr	r4, [pc, #20]	; (80001a0 <__do_global_dtors_aux+0x18>)
 800018c:	7823      	ldrb	r3, [r4, #0]
 800018e:	b933      	cbnz	r3, 800019e <__do_global_dtors_aux+0x16>
 8000190:	4b04      	ldr	r3, [pc, #16]	; (80001a4 <__do_global_dtors_aux+0x1c>)
 8000192:	b113      	cbz	r3, 800019a <__do_global_dtors_aux+0x12>
 8000194:	4804      	ldr	r0, [pc, #16]	; (80001a8 <__do_global_dtors_aux+0x20>)
 8000196:	f3af 8000 	nop.w
 800019a:	2301      	movs	r3, #1
 800019c:	7023      	strb	r3, [r4, #0]
 800019e:	bd10      	pop	{r4, pc}
 80001a0:	20000460 	.word	0x20000460
 80001a4:	00000000 	.word	0x00000000
 80001a8:	08007e54 	.word	0x08007e54

080001ac <frame_dummy>:
 80001ac:	b508      	push	{r3, lr}
 80001ae:	4b06      	ldr	r3, [pc, #24]	; (80001c8 <frame_dummy+0x1c>)
 80001b0:	b11b      	cbz	r3, 80001ba <frame_dummy+0xe>
 80001b2:	4806      	ldr	r0, [pc, #24]	; (80001cc <frame_dummy+0x20>)
 80001b4:	4906      	ldr	r1, [pc, #24]	; (80001d0 <frame_dummy+0x24>)
 80001b6:	f3af 8000 	nop.w
 80001ba:	4806      	ldr	r0, [pc, #24]	; (80001d4 <frame_dummy+0x28>)
 80001bc:	6803      	ldr	r3, [r0, #0]
 80001be:	b113      	cbz	r3, 80001c6 <frame_dummy+0x1a>
 80001c0:	4b05      	ldr	r3, [pc, #20]	; (80001d8 <frame_dummy+0x2c>)
 80001c2:	b103      	cbz	r3, 80001c6 <frame_dummy+0x1a>
 80001c4:	4798      	blx	r3
 80001c6:	bd08      	pop	{r3, pc}
 80001c8:	00000000 	.word	0x00000000
 80001cc:	08007e54 	.word	0x08007e54
 80001d0:	20000464 	.word	0x20000464
 80001d4:	20000460 	.word	0x20000460
 80001d8:	00000000 	.word	0x00000000

080001dc <memcpy>:
 80001dc:	4684      	mov	ip, r0
 80001de:	ea41 0300 	orr.w	r3, r1, r0
 80001e2:	f013 0303 	ands.w	r3, r3, #3
 80001e6:	d16d      	bne.n	80002c4 <memcpy+0xe8>
 80001e8:	3a40      	subs	r2, #64	; 0x40
 80001ea:	d341      	bcc.n	8000270 <memcpy+0x94>
 80001ec:	f851 3b04 	ldr.w	r3, [r1], #4
 80001f0:	f840 3b04 	str.w	r3, [r0], #4
 80001f4:	f851 3b04 	ldr.w	r3, [r1], #4
 80001f8:	f840 3b04 	str.w	r3, [r0], #4
 80001fc:	f851 3b04 	ldr.w	r3, [r1], #4
 8000200:	f840 3b04 	str.w	r3, [r0], #4
 8000204:	f851 3b04 	ldr.w	r3, [r1], #4
 8000208:	f840 3b04 	str.w	r3, [r0], #4
 800020c:	f851 3b04 	ldr.w	r3, [r1], #4
 8000210:	f840 3b04 	str.w	r3, [r0], #4
 8000214:	f851 3b04 	ldr.w	r3, [r1], #4
 8000218:	f840 3b04 	str.w	r3, [r0], #4
 800021c:	f851 3b04 	ldr.w	r3, [r1], #4
 8000220:	f840 3b04 	str.w	r3, [r0], #4
 8000224:	f851 3b04 	ldr.w	r3, [r1], #4
 8000228:	f840 3b04 	str.w	r3, [r0], #4
 800022c:	f851 3b04 	ldr.w	r3, [r1], #4
 8000230:	f840 3b04 	str.w	r3, [r0], #4
 8000234:	f851 3b04 	ldr.w	r3, [r1], #4
 8000238:	f840 3b04 	str.w	r3, [r0], #4
 800023c:	f851 3b04 	ldr.w	r3, [r1], #4
 8000240:	f840 3b04 	str.w	r3, [r0], #4
 8000244:	f851 3b04 	ldr.w	r3, [r1], #4
 8000248:	f840 3b04 	str.w	r3, [r0], #4
 800024c:	f851 3b04 	ldr.w	r3, [r1], #4
 8000250:	f840 3b04 	str.w	r3, [r0], #4
 8000254:	f851 3b04 	ldr.w	r3, [r1], #4
 8000258:	f840 3b04 	str.w	r3, [r0], #4
 800025c:	f851 3b04 	ldr.w	r3, [r1], #4
 8000260:	f840 3b04 	str.w	r3, [r0], #4
 8000264:	f851 3b04 	ldr.w	r3, [r1], #4
 8000268:	f840 3b04 	str.w	r3, [r0], #4
 800026c:	3a40      	subs	r2, #64	; 0x40
 800026e:	d2bd      	bcs.n	80001ec <memcpy+0x10>
 8000270:	3230      	adds	r2, #48	; 0x30
 8000272:	d311      	bcc.n	8000298 <memcpy+0xbc>
 8000274:	f851 3b04 	ldr.w	r3, [r1], #4
 8000278:	f840 3b04 	str.w	r3, [r0], #4
 800027c:	f851 3b04 	ldr.w	r3, [r1], #4
 8000280:	f840 3b04 	str.w	r3, [r0], #4
 8000284:	f851 3b04 	ldr.w	r3, [r1], #4
 8000288:	f840 3b04 	str.w	r3, [r0], #4
 800028c:	f851 3b04 	ldr.w	r3, [r1], #4
 8000290:	f840 3b04 	str.w	r3, [r0], #4
 8000294:	3a10      	subs	r2, #16
 8000296:	d2ed      	bcs.n	8000274 <memcpy+0x98>
 8000298:	320c      	adds	r2, #12
 800029a:	d305      	bcc.n	80002a8 <memcpy+0xcc>
 800029c:	f851 3b04 	ldr.w	r3, [r1], #4
 80002a0:	f840 3b04 	str.w	r3, [r0], #4
 80002a4:	3a04      	subs	r2, #4
 80002a6:	d2f9      	bcs.n	800029c <memcpy+0xc0>
 80002a8:	3204      	adds	r2, #4
 80002aa:	d008      	beq.n	80002be <memcpy+0xe2>
 80002ac:	07d2      	lsls	r2, r2, #31
 80002ae:	bf1c      	itt	ne
 80002b0:	f811 3b01 	ldrbne.w	r3, [r1], #1
 80002b4:	f800 3b01 	strbne.w	r3, [r0], #1
 80002b8:	d301      	bcc.n	80002be <memcpy+0xe2>
 80002ba:	880b      	ldrh	r3, [r1, #0]
 80002bc:	8003      	strh	r3, [r0, #0]
 80002be:	4660      	mov	r0, ip
 80002c0:	4770      	bx	lr
 80002c2:	bf00      	nop
 80002c4:	2a08      	cmp	r2, #8
 80002c6:	d313      	bcc.n	80002f0 <memcpy+0x114>
 80002c8:	078b      	lsls	r3, r1, #30
 80002ca:	d08d      	beq.n	80001e8 <memcpy+0xc>
 80002cc:	f010 0303 	ands.w	r3, r0, #3
 80002d0:	d08a      	beq.n	80001e8 <memcpy+0xc>
 80002d2:	f1c3 0304 	rsb	r3, r3, #4
 80002d6:	1ad2      	subs	r2, r2, r3
 80002d8:	07db      	lsls	r3, r3, #31
 80002da:	bf1c      	itt	ne
 80002dc:	f811 3b01 	ldrbne.w	r3, [r1], #1
 80002e0:	f800 3b01 	strbne.w	r3, [r0], #1
 80002e4:	d380      	bcc.n	80001e8 <memcpy+0xc>
 80002e6:	f831 3b02 	ldrh.w	r3, [r1], #2
 80002ea:	f820 3b02 	strh.w	r3, [r0], #2
 80002ee:	e77b      	b.n	80001e8 <memcpy+0xc>
 80002f0:	3a04      	subs	r2, #4
 80002f2:	d3d9      	bcc.n	80002a8 <memcpy+0xcc>
 80002f4:	3a01      	subs	r2, #1
 80002f6:	f811 3b01 	ldrb.w	r3, [r1], #1
 80002fa:	f800 3b01 	strb.w	r3, [r0], #1
 80002fe:	d2f9      	bcs.n	80002f4 <memcpy+0x118>
 8000300:	780b      	ldrb	r3, [r1, #0]
 8000302:	7003      	strb	r3, [r0, #0]
 8000304:	784b      	ldrb	r3, [r1, #1]
 8000306:	7043      	strb	r3, [r0, #1]
 8000308:	788b      	ldrb	r3, [r1, #2]
 800030a:	7083      	strb	r3, [r0, #2]
 800030c:	4660      	mov	r0, ip
 800030e:	4770      	bx	lr

08000310 <init_SPIx>:
#define pdTrue 	1

/*============================================================================
 * 	func void init_SPIx(void)
 *===========================================================================*/ 
void init_SPIx(void){
 8000310:	b580      	push	{r7, lr}
 8000312:	b09a      	sub	sp, #104	; 0x68
 8000314:	af00      	add	r7, sp, #0
	NVIC_InitTypeDef NVIC_InitStruct;

	
	
	// enable clock for used IO pins
	RCC_AHB1PeriphClockCmd(SPIx_MOSI_GPIO_CLK, ENABLE);
 8000316:	2001      	movs	r0, #1
 8000318:	2101      	movs	r1, #1
 800031a:	f006 f975 	bl	8006608 <RCC_AHB1PeriphClockCmd>
	RCC_AHB1PeriphClockCmd(SPIx_MISO_GPIO_CLK, ENABLE);
 800031e:	2001      	movs	r0, #1
 8000320:	2101      	movs	r1, #1
 8000322:	f006 f971 	bl	8006608 <RCC_AHB1PeriphClockCmd>
	RCC_AHB1PeriphClockCmd(SPIx_SCK_GPIO_CLK, ENABLE);
 8000326:	2001      	movs	r0, #1
 8000328:	2101      	movs	r1, #1
 800032a:	f006 f96d 	bl	8006608 <RCC_AHB1PeriphClockCmd>
	 * PA5 = SCK
	 * PA6 = MISO
	 * PA7 = MOSI
	 */
	// MOSI PA7
	GPIO_InitStruct.GPIO_Pin = SPIx_MOSI_PIN ;
 800032e:	2380      	movs	r3, #128	; 0x80
 8000330:	663b      	str	r3, [r7, #96]	; 0x60
	GPIO_InitStruct.GPIO_Mode = GPIO_Mode_AF;
 8000332:	2302      	movs	r3, #2
 8000334:	f887 3064 	strb.w	r3, [r7, #100]	; 0x64
	GPIO_InitStruct.GPIO_OType = GPIO_OType_PP;
 8000338:	2300      	movs	r3, #0
 800033a:	f887 3066 	strb.w	r3, [r7, #102]	; 0x66
	GPIO_InitStruct.GPIO_Speed = GPIO_Speed_100MHz;
 800033e:	2303      	movs	r3, #3
 8000340:	f887 3065 	strb.w	r3, [r7, #101]	; 0x65
	GPIO_InitStruct.GPIO_PuPd = GPIO_PuPd_DOWN;
 8000344:	2302      	movs	r3, #2
 8000346:	f887 3067 	strb.w	r3, [r7, #103]	; 0x67
	GPIO_Init(SPIx_MOSI_GPIO_PORT, &GPIO_InitStruct);
 800034a:	f107 0360 	add.w	r3, r7, #96	; 0x60
 800034e:	48b1      	ldr	r0, [pc, #708]	; (8000614 <init_SPIx+0x304>)
 8000350:	4619      	mov	r1, r3
 8000352:	f005 fe71 	bl	8006038 <GPIO_Init>
	// SCK PA5
	GPIO_InitStruct.GPIO_Pin = SPIx_SCK_PIN;
 8000356:	2320      	movs	r3, #32
 8000358:	663b      	str	r3, [r7, #96]	; 0x60
	GPIO_InitStruct.GPIO_Mode = GPIO_Mode_AF;
 800035a:	2302      	movs	r3, #2
 800035c:	f887 3064 	strb.w	r3, [r7, #100]	; 0x64
	GPIO_InitStruct.GPIO_OType = GPIO_OType_PP;
 8000360:	2300      	movs	r3, #0
 8000362:	f887 3066 	strb.w	r3, [r7, #102]	; 0x66
	GPIO_InitStruct.GPIO_Speed = GPIO_Speed_100MHz;
 8000366:	2303      	movs	r3, #3
 8000368:	f887 3065 	strb.w	r3, [r7, #101]	; 0x65
	GPIO_InitStruct.GPIO_PuPd = GPIO_PuPd_DOWN;
 800036c:	2302      	movs	r3, #2
 800036e:	f887 3067 	strb.w	r3, [r7, #103]	; 0x67
	GPIO_Init(SPIx_SCK_GPIO_PORT, &GPIO_InitStruct);
 8000372:	f107 0360 	add.w	r3, r7, #96	; 0x60
 8000376:	48a7      	ldr	r0, [pc, #668]	; (8000614 <init_SPIx+0x304>)
 8000378:	4619      	mov	r1, r3
 800037a:	f005 fe5d 	bl	8006038 <GPIO_Init>
	// MISO PA6
	GPIO_InitStruct.GPIO_Pin = SPIx_MISO_PIN;
 800037e:	2340      	movs	r3, #64	; 0x40
 8000380:	663b      	str	r3, [r7, #96]	; 0x60
	GPIO_InitStruct.GPIO_Mode = GPIO_Mode_AF;
 8000382:	2302      	movs	r3, #2
 8000384:	f887 3064 	strb.w	r3, [r7, #100]	; 0x64
	GPIO_InitStruct.GPIO_OType = GPIO_OType_OD;
 8000388:	2301      	movs	r3, #1
 800038a:	f887 3066 	strb.w	r3, [r7, #102]	; 0x66
	GPIO_InitStruct.GPIO_Speed = GPIO_Speed_100MHz;
 800038e:	2303      	movs	r3, #3
 8000390:	f887 3065 	strb.w	r3, [r7, #101]	; 0x65
	GPIO_InitStruct.GPIO_PuPd = GPIO_PuPd_NOPULL;
 8000394:	2300      	movs	r3, #0
 8000396:	f887 3067 	strb.w	r3, [r7, #103]	; 0x67
	GPIO_Init(SPIx_MISO_GPIO_PORT, &GPIO_InitStruct);
 800039a:	f107 0360 	add.w	r3, r7, #96	; 0x60
 800039e:	489d      	ldr	r0, [pc, #628]	; (8000614 <init_SPIx+0x304>)
 80003a0:	4619      	mov	r1, r3
 80003a2:	f005 fe49 	bl	8006038 <GPIO_Init>
	
	// connect SPI1 pins to SPI alternate function
	GPIO_PinAFConfig(SPIx_MISO_GPIO_PORT, SPIx_MISO_SOURCE, SPIx_MISO_AF);
 80003a6:	489b      	ldr	r0, [pc, #620]	; (8000614 <init_SPIx+0x304>)
 80003a8:	2106      	movs	r1, #6
 80003aa:	2205      	movs	r2, #5
 80003ac:	f005 ff5a 	bl	8006264 <GPIO_PinAFConfig>
	GPIO_PinAFConfig(SPIx_MOSI_GPIO_PORT, SPIx_MOSI_SOURCE, SPIx_MOSI_AF);
 80003b0:	4898      	ldr	r0, [pc, #608]	; (8000614 <init_SPIx+0x304>)
 80003b2:	2107      	movs	r1, #7
 80003b4:	2205      	movs	r2, #5
 80003b6:	f005 ff55 	bl	8006264 <GPIO_PinAFConfig>
	GPIO_PinAFConfig(SPIx_SCK_GPIO_PORT,  SPIx_SCK_SOURCE,  SPIx_SCK_AF);
 80003ba:	4896      	ldr	r0, [pc, #600]	; (8000614 <init_SPIx+0x304>)
 80003bc:	2105      	movs	r1, #5
 80003be:	2205      	movs	r2, #5
 80003c0:	f005 ff50 	bl	8006264 <GPIO_PinAFConfig>


	RCC_AHB1PeriphClockCmd(WIZ_HR_GPIO_CLK, ENABLE);
 80003c4:	2004      	movs	r0, #4
 80003c6:	2101      	movs	r1, #1
 80003c8:	f006 f91e 	bl	8006608 <RCC_AHB1PeriphClockCmd>
	RCC_AHB1PeriphClockCmd(WIZ_IT_GPIO_CLK, ENABLE);
 80003cc:	2004      	movs	r0, #4
 80003ce:	2101      	movs	r1, #1
 80003d0:	f006 f91a 	bl	8006608 <RCC_AHB1PeriphClockCmd>
	
		
	/* Configure the chip select pin
	   in this case we will use PA4 */
	GPIO_InitStruct.GPIO_Pin = SPIx_CS_PIN;
 80003d4:	2310      	movs	r3, #16
 80003d6:	663b      	str	r3, [r7, #96]	; 0x60
	GPIO_InitStruct.GPIO_Mode = GPIO_Mode_OUT;
 80003d8:	2301      	movs	r3, #1
 80003da:	f887 3064 	strb.w	r3, [r7, #100]	; 0x64
	GPIO_InitStruct.GPIO_OType = GPIO_OType_PP;
 80003de:	2300      	movs	r3, #0
 80003e0:	f887 3066 	strb.w	r3, [r7, #102]	; 0x66
	GPIO_InitStruct.GPIO_Speed = GPIO_Speed_100MHz;
 80003e4:	2303      	movs	r3, #3
 80003e6:	f887 3065 	strb.w	r3, [r7, #101]	; 0x65
	GPIO_InitStruct.GPIO_PuPd = GPIO_PuPd_UP;
 80003ea:	2301      	movs	r3, #1
 80003ec:	f887 3067 	strb.w	r3, [r7, #103]	; 0x67
	GPIO_Init(SPIx_CS_GPIO_PORT, &GPIO_InitStruct);
 80003f0:	f107 0360 	add.w	r3, r7, #96	; 0x60
 80003f4:	4887      	ldr	r0, [pc, #540]	; (8000614 <init_SPIx+0x304>)
 80003f6:	4619      	mov	r1, r3
 80003f8:	f005 fe1e 	bl	8006038 <GPIO_Init>
	
	CSOFF(); // set PA4 high
 80003fc:	4b85      	ldr	r3, [pc, #532]	; (8000614 <init_SPIx+0x304>)
 80003fe:	4a85      	ldr	r2, [pc, #532]	; (8000614 <init_SPIx+0x304>)
 8000400:	8b12      	ldrh	r2, [r2, #24]
 8000402:	b292      	uxth	r2, r2
 8000404:	f042 0210 	orr.w	r2, r2, #16
 8000408:	b292      	uxth	r2, r2
 800040a:	831a      	strh	r2, [r3, #24]

	/* Configure the hard reset pin
	   in this case we will use PA3 */
	GPIO_InitStruct.GPIO_Pin = WIZ_HR_PIN;
 800040c:	2320      	movs	r3, #32
 800040e:	663b      	str	r3, [r7, #96]	; 0x60
	GPIO_InitStruct.GPIO_Mode = GPIO_Mode_OUT;
 8000410:	2301      	movs	r3, #1
 8000412:	f887 3064 	strb.w	r3, [r7, #100]	; 0x64
	GPIO_InitStruct.GPIO_OType = GPIO_OType_PP;
 8000416:	2300      	movs	r3, #0
 8000418:	f887 3066 	strb.w	r3, [r7, #102]	; 0x66
	GPIO_InitStruct.GPIO_Speed = GPIO_Speed_100MHz;
 800041c:	2303      	movs	r3, #3
 800041e:	f887 3065 	strb.w	r3, [r7, #101]	; 0x65
	GPIO_InitStruct.GPIO_PuPd = GPIO_PuPd_UP;
 8000422:	2301      	movs	r3, #1
 8000424:	f887 3067 	strb.w	r3, [r7, #103]	; 0x67
	GPIO_Init(WIZ_HR_GPIO_PORT, &GPIO_InitStruct);
 8000428:	f107 0360 	add.w	r3, r7, #96	; 0x60
 800042c:	487a      	ldr	r0, [pc, #488]	; (8000618 <init_SPIx+0x308>)
 800042e:	4619      	mov	r1, r3
 8000430:	f005 fe02 	bl	8006038 <GPIO_Init>
	
	RESET_LOW(); // set PA3 high
 8000434:	4b78      	ldr	r3, [pc, #480]	; (8000618 <init_SPIx+0x308>)
 8000436:	4a78      	ldr	r2, [pc, #480]	; (8000618 <init_SPIx+0x308>)
 8000438:	8b12      	ldrh	r2, [r2, #24]
 800043a:	b292      	uxth	r2, r2
 800043c:	f042 0220 	orr.w	r2, r2, #32
 8000440:	b292      	uxth	r2, r2
 8000442:	831a      	strh	r2, [r3, #24]

	// enable peripheral clock
	RCC_APB2PeriphClockCmd(SPIx_CLK, ENABLE);
 8000444:	f44f 5080 	mov.w	r0, #4096	; 0x1000
 8000448:	2101      	movs	r1, #1
 800044a:	f006 f915 	bl	8006678 <RCC_APB2PeriphClockCmd>
	
	/* configure SPI1 in Mode 0 
	 * CPOL = 0 --> clock is low when idle
	 * CPHA = 0 --> data is sampled at the first edge
	 */
	SPI_InitStruct.SPI_Direction = SPI_Direction_2Lines_FullDuplex; // set to full duplex mode, seperate MOSI and MISO lines
 800044e:	2300      	movs	r3, #0
 8000450:	f8a7 304c 	strh.w	r3, [r7, #76]	; 0x4c
	SPI_InitStruct.SPI_Mode = SPI_Mode_Master;     // transmit in master mode, NSS pin has to be always high
 8000454:	f44f 7382 	mov.w	r3, #260	; 0x104
 8000458:	f8a7 304e 	strh.w	r3, [r7, #78]	; 0x4e
	SPI_InitStruct.SPI_DataSize = SPI_DataSize_8b; // one packet of data is 8 bits wide
 800045c:	2300      	movs	r3, #0
 800045e:	f8a7 3050 	strh.w	r3, [r7, #80]	; 0x50
	SPI_InitStruct.SPI_CPOL = SPI_CPOL_Low;        // clock is low when idle
 8000462:	2300      	movs	r3, #0
 8000464:	f8a7 3052 	strh.w	r3, [r7, #82]	; 0x52
	SPI_InitStruct.SPI_CPHA = SPI_CPHA_1Edge;      // data sampled at second edge
 8000468:	2300      	movs	r3, #0
 800046a:	f8a7 3054 	strh.w	r3, [r7, #84]	; 0x54
	SPI_InitStruct.SPI_NSS = SPI_NSS_Soft | SPI_NSSInternalSoft_Set; // set the NSS management to internal and pull internal NSS high
 800046e:	f44f 7340 	mov.w	r3, #768	; 0x300
 8000472:	f8a7 3056 	strh.w	r3, [r7, #86]	; 0x56
	SPI_InitStruct.SPI_BaudRatePrescaler = SPI_BaudRatePrescaler_4; // SPI frequency is APB2 frequency / 4
 8000476:	2308      	movs	r3, #8
 8000478:	f8a7 3058 	strh.w	r3, [r7, #88]	; 0x58
	SPI_InitStruct.SPI_FirstBit = SPI_FirstBit_MSB;// data is transmitted MSB first
 800047c:	2300      	movs	r3, #0
 800047e:	f8a7 305a 	strh.w	r3, [r7, #90]	; 0x5a
	SPI_Init(SPIx, &SPI_InitStruct); 
 8000482:	f107 034c 	add.w	r3, r7, #76	; 0x4c
 8000486:	4865      	ldr	r0, [pc, #404]	; (800061c <init_SPIx+0x30c>)
 8000488:	4619      	mov	r1, r3
 800048a:	f006 f92d 	bl	80066e8 <SPI_Init>
	
	SPI_Cmd(SPIx, ENABLE);			
 800048e:	4863      	ldr	r0, [pc, #396]	; (800061c <init_SPIx+0x30c>)
 8000490:	2101      	movs	r1, #1
 8000492:	f006 fa1b 	bl	80068cc <SPI_Cmd>
	

	/* setup DMA */

	// enable clock 
	RCC_AHB1PeriphClockCmd (SPIx_DMA_CLK, ENABLE); 
 8000496:	f44f 0080 	mov.w	r0, #4194304	; 0x400000
 800049a:	2101      	movs	r1, #1
 800049c:	f006 f8b4 	bl	8006608 <RCC_AHB1PeriphClockCmd>
	
	// start with blank DMA configuration
	DMA_DeInit (SPIx_TX_DMA_STREAM);
 80004a0:	485f      	ldr	r0, [pc, #380]	; (8000620 <init_SPIx+0x310>)
 80004a2:	f004 fce1 	bl	8004e68 <DMA_DeInit>
	DMA_DeInit (SPIx_RX_DMA_STREAM);
 80004a6:	485f      	ldr	r0, [pc, #380]	; (8000624 <init_SPIx+0x314>)
 80004a8:	f004 fcde 	bl	8004e68 <DMA_DeInit>

	// check if DMA stream is disabled before enabling 
	// this is useful when stream is enabled and disabled multiple times. 
	while (DMA_GetCmdStatus (SPIx_TX_DMA_STREAM) != DISABLE);
 80004ac:	bf00      	nop
 80004ae:	485c      	ldr	r0, [pc, #368]	; (8000620 <init_SPIx+0x310>)
 80004b0:	f005 f8ea 	bl	8005688 <DMA_GetCmdStatus>
 80004b4:	4603      	mov	r3, r0
 80004b6:	2b00      	cmp	r3, #0
 80004b8:	d1f9      	bne.n	80004ae <init_SPIx+0x19e>
	while (DMA_GetCmdStatus (SPIx_RX_DMA_STREAM) != DISABLE);
 80004ba:	bf00      	nop
 80004bc:	4859      	ldr	r0, [pc, #356]	; (8000624 <init_SPIx+0x314>)
 80004be:	f005 f8e3 	bl	8005688 <DMA_GetCmdStatus>
 80004c2:	4603      	mov	r3, r0
 80004c4:	2b00      	cmp	r3, #0
 80004c6:	d1f9      	bne.n	80004bc <init_SPIx+0x1ac>
	
	
	DMA_StructInit(&DMA_InitStruct);
 80004c8:	f107 0310 	add.w	r3, r7, #16
 80004cc:	4618      	mov	r0, r3
 80004ce:	f004 ffa5 	bl	800541c <DMA_StructInit>
  	//Configure DMA Initialization Structure
	//DMA_InitStruct.DMA_FIFOMode = DMA_FIFOMode_Disable ;
 	//DMA_InitStruct.DMA_FIFOThreshold = DMA_FIFOThreshold_HalfFull ;
  	//DMA_InitStruct.DMA_MemoryBurst = DMA_MemoryBurst_Single ;
  	DMA_InitStruct.DMA_MemoryDataSize = DMA_MemoryDataSize_Byte;
 80004d2:	2300      	movs	r3, #0
 80004d4:	633b      	str	r3, [r7, #48]	; 0x30
  	DMA_InitStruct.DMA_MemoryInc = DMA_MemoryInc_Enable;
 80004d6:	f44f 6380 	mov.w	r3, #1024	; 0x400
 80004da:	62bb      	str	r3, [r7, #40]	; 0x28
  	DMA_InitStruct.DMA_Mode = DMA_Mode_Normal;
 80004dc:	2300      	movs	r3, #0
 80004de:	637b      	str	r3, [r7, #52]	; 0x34
  	DMA_InitStruct.DMA_PeripheralBaseAddr =(uint32_t) (&(SPIx->DR)) ;
 80004e0:	4b51      	ldr	r3, [pc, #324]	; (8000628 <init_SPIx+0x318>)
 80004e2:	617b      	str	r3, [r7, #20]
  	DMA_InitStruct.DMA_PeripheralBurst = DMA_PeripheralBurst_Single;
 80004e4:	2300      	movs	r3, #0
 80004e6:	64bb      	str	r3, [r7, #72]	; 0x48
  	DMA_InitStruct.DMA_PeripheralDataSize = DMA_PeripheralDataSize_Byte;
 80004e8:	2300      	movs	r3, #0
 80004ea:	62fb      	str	r3, [r7, #44]	; 0x2c
  	DMA_InitStruct.DMA_PeripheralInc = DMA_PeripheralInc_Disable;
 80004ec:	2300      	movs	r3, #0
 80004ee:	627b      	str	r3, [r7, #36]	; 0x24
  	DMA_InitStruct.DMA_Priority = DMA_Priority_High;
 80004f0:	f44f 3300 	mov.w	r3, #131072	; 0x20000
 80004f4:	63bb      	str	r3, [r7, #56]	; 0x38
  	// Configure TX DMA 
  	DMA_InitStruct.DMA_Channel = SPIx_TX_DMA_CHANNEL ;
 80004f6:	f04f 63c0 	mov.w	r3, #100663296	; 0x6000000
 80004fa:	613b      	str	r3, [r7, #16]
  	DMA_InitStruct.DMA_DIR = DMA_DIR_MemoryToPeripheral ;
 80004fc:	2340      	movs	r3, #64	; 0x40
 80004fe:	61fb      	str	r3, [r7, #28]
  	DMA_InitStruct.DMA_Memory0BaseAddr = (uint32_t) &bufferTX ;
 8000500:	4b4a      	ldr	r3, [pc, #296]	; (800062c <init_SPIx+0x31c>)
 8000502:	61bb      	str	r3, [r7, #24]
	DMA_InitStruct.DMA_BufferSize = MAX_BUFFER_LENGTH;
 8000504:	f44f 63fa 	mov.w	r3, #2000	; 0x7d0
 8000508:	623b      	str	r3, [r7, #32]
  	DMA_Init(SPIx_TX_DMA_STREAM, &DMA_InitStruct);
 800050a:	f107 0310 	add.w	r3, r7, #16
 800050e:	4844      	ldr	r0, [pc, #272]	; (8000620 <init_SPIx+0x310>)
 8000510:	4619      	mov	r1, r3
 8000512:	f004 fdbf 	bl	8005094 <DMA_Init>
	// Configure RX DMA 
  	DMA_InitStruct.DMA_Channel = SPIx_RX_DMA_CHANNEL ;
 8000516:	f04f 63c0 	mov.w	r3, #100663296	; 0x6000000
 800051a:	613b      	str	r3, [r7, #16]
	DMA_InitStruct.DMA_DIR = DMA_DIR_PeripheralToMemory ;
 800051c:	2300      	movs	r3, #0
 800051e:	61fb      	str	r3, [r7, #28]
	DMA_InitStruct.DMA_Memory0BaseAddr = (uint32_t)&bufferRX; 
 8000520:	4b43      	ldr	r3, [pc, #268]	; (8000630 <init_SPIx+0x320>)
 8000522:	61bb      	str	r3, [r7, #24]
	DMA_InitStruct.DMA_BufferSize = MAX_BUFFER_LENGTH;
 8000524:	f44f 63fa 	mov.w	r3, #2000	; 0x7d0
 8000528:	623b      	str	r3, [r7, #32]
	DMA_Init(SPIx_RX_DMA_STREAM, &DMA_InitStruct);	
 800052a:	f107 0310 	add.w	r3, r7, #16
 800052e:	483d      	ldr	r0, [pc, #244]	; (8000624 <init_SPIx+0x314>)
 8000530:	4619      	mov	r1, r3
 8000532:	f004 fdaf 	bl	8005094 <DMA_Init>
	
	DMA_ITConfig(SPIx_TX_DMA_STREAM, DMA_IT_TC, ENABLE); 
 8000536:	483a      	ldr	r0, [pc, #232]	; (8000620 <init_SPIx+0x310>)
 8000538:	2110      	movs	r1, #16
 800053a:	2201      	movs	r2, #1
 800053c:	f005 f922 	bl	8005784 <DMA_ITConfig>
	DMA_ITConfig(SPIx_RX_DMA_STREAM, DMA_IT_TC, ENABLE); 
 8000540:	4838      	ldr	r0, [pc, #224]	; (8000624 <init_SPIx+0x314>)
 8000542:	2110      	movs	r1, #16
 8000544:	2201      	movs	r2, #1
 8000546:	f005 f91d 	bl	8005784 <DMA_ITConfig>
  
	SPI_I2S_ClearFlag(SPIx, SPI_I2S_FLAG_TXE);
 800054a:	4834      	ldr	r0, [pc, #208]	; (800061c <init_SPIx+0x30c>)
 800054c:	2102      	movs	r1, #2
 800054e:	f006 fabb 	bl	8006ac8 <SPI_I2S_ClearFlag>
	SPI_I2S_ClearFlag(SPIx, SPI_I2S_FLAG_RXNE);
 8000552:	4832      	ldr	r0, [pc, #200]	; (800061c <init_SPIx+0x30c>)
 8000554:	2101      	movs	r1, #1
 8000556:	f006 fab7 	bl	8006ac8 <SPI_I2S_ClearFlag>
  	
	// enable the interrupt in the NVIC
 	NVIC_InitStruct.NVIC_IRQChannel = SPIx_TX_DMA_IRQn;
 800055a:	233b      	movs	r3, #59	; 0x3b
 800055c:	733b      	strb	r3, [r7, #12]
  	NVIC_InitStruct.NVIC_IRQChannelPreemptionPriority = configLIBRARY_MAX_SYSCALL_INTERRUPT_PRIORITY + 1;;
 800055e:	2306      	movs	r3, #6
 8000560:	737b      	strb	r3, [r7, #13]
 	NVIC_InitStruct.NVIC_IRQChannelSubPriority = 0x1;
 8000562:	2301      	movs	r3, #1
 8000564:	73bb      	strb	r3, [r7, #14]
  	NVIC_InitStruct.NVIC_IRQChannelCmd = ENABLE;
 8000566:	2301      	movs	r3, #1
 8000568:	73fb      	strb	r3, [r7, #15]
  	NVIC_Init (&NVIC_InitStruct);
 800056a:	f107 030c 	add.w	r3, r7, #12
 800056e:	4618      	mov	r0, r3
 8000570:	f004 fc00 	bl	8004d74 <NVIC_Init>
	// enable the interrupt in the NVIC
 	NVIC_InitStruct.NVIC_IRQChannel = SPIx_RX_DMA_IRQn;
 8000574:	233a      	movs	r3, #58	; 0x3a
 8000576:	733b      	strb	r3, [r7, #12]
   	NVIC_InitStruct.NVIC_IRQChannelPreemptionPriority = configLIBRARY_MAX_SYSCALL_INTERRUPT_PRIORITY + 1;
 8000578:	2306      	movs	r3, #6
 800057a:	737b      	strb	r3, [r7, #13]
 	NVIC_InitStruct.NVIC_IRQChannelSubPriority = 0x2;
 800057c:	2302      	movs	r3, #2
 800057e:	73bb      	strb	r3, [r7, #14]
  	NVIC_InitStruct.NVIC_IRQChannelCmd = ENABLE;
 8000580:	2301      	movs	r3, #1
 8000582:	73fb      	strb	r3, [r7, #15]
  	NVIC_Init (&NVIC_InitStruct);
 8000584:	f107 030c 	add.w	r3, r7, #12
 8000588:	4618      	mov	r0, r3
 800058a:	f004 fbf3 	bl	8004d74 <NVIC_Init>
  	// Enable dma tx and rx request
	SPI_I2S_DMACmd (SPIx, SPI_I2S_DMAReq_Tx, ENABLE);	
 800058e:	4823      	ldr	r0, [pc, #140]	; (800061c <init_SPIx+0x30c>)
 8000590:	2102      	movs	r1, #2
 8000592:	2201      	movs	r2, #1
 8000594:	f006 f9dc 	bl	8006950 <SPI_I2S_DMACmd>
	SPI_I2S_DMACmd (SPIx, SPI_I2S_DMAReq_Rx, ENABLE);	
 8000598:	4820      	ldr	r0, [pc, #128]	; (800061c <init_SPIx+0x30c>)
 800059a:	2101      	movs	r1, #1
 800059c:	2201      	movs	r2, #1
 800059e:	f006 f9d7 	bl	8006950 <SPI_I2S_DMACmd>
	

	/* Configure interrupt pin */
	GPIO_InitStruct.GPIO_Pin = WIZ_IT_PIN;
 80005a2:	2310      	movs	r3, #16
 80005a4:	663b      	str	r3, [r7, #96]	; 0x60
	GPIO_InitStruct.GPIO_Mode = GPIO_Mode_IN;
 80005a6:	2300      	movs	r3, #0
 80005a8:	f887 3064 	strb.w	r3, [r7, #100]	; 0x64
	GPIO_InitStruct.GPIO_OType = GPIO_OType_PP;
 80005ac:	2300      	movs	r3, #0
 80005ae:	f887 3066 	strb.w	r3, [r7, #102]	; 0x66
	GPIO_InitStruct.GPIO_PuPd = GPIO_PuPd_NOPULL;
 80005b2:	2300      	movs	r3, #0
 80005b4:	f887 3067 	strb.w	r3, [r7, #103]	; 0x67
	GPIO_InitStruct.GPIO_Speed = GPIO_Speed_100MHz;
 80005b8:	2303      	movs	r3, #3
 80005ba:	f887 3065 	strb.w	r3, [r7, #101]	; 0x65
	GPIO_Init(WIZ_IT_GPIO_PORT, &GPIO_InitStruct);	
 80005be:	f107 0360 	add.w	r3, r7, #96	; 0x60
 80005c2:	4815      	ldr	r0, [pc, #84]	; (8000618 <init_SPIx+0x308>)
 80005c4:	4619      	mov	r1, r3
 80005c6:	f005 fd37 	bl	8006038 <GPIO_Init>
	
	EXTI_InitTypeDef EXTI_InitStruct;
	NVIC_InitTypeDef NVIC_InitStruct1;
	/* Connect EXTI Line to appropriate GPIO Pin */ 
	
	RCC_APB2PeriphClockCmd(RCC_APB2Periph_SYSCFG, ENABLE);
 80005ca:	f44f 4080 	mov.w	r0, #16384	; 0x4000
 80005ce:	2101      	movs	r1, #1
 80005d0:	f006 f852 	bl	8006678 <RCC_APB2PeriphClockCmd>

	SYSCFG_EXTILineConfig(WIZ_IT_EXTI_PORT_SOURCE, WIZ_IT_EXTI_PIN_SOURCE);
 80005d4:	2002      	movs	r0, #2
 80005d6:	2104      	movs	r1, #4
 80005d8:	f006 fab0 	bl	8006b3c <SYSCFG_EXTILineConfig>
	
	/* Configure EXTI Line */
	EXTI_InitStruct.EXTI_Line = WIZ_IT_EXTI_LINE;
 80005dc:	2310      	movs	r3, #16
 80005de:	607b      	str	r3, [r7, #4]
 	EXTI_InitStruct.EXTI_Mode = EXTI_Mode_Interrupt;
 80005e0:	2300      	movs	r3, #0
 80005e2:	723b      	strb	r3, [r7, #8]
	EXTI_InitStruct.EXTI_Trigger = EXTI_Trigger_Falling;
 80005e4:	230c      	movs	r3, #12
 80005e6:	727b      	strb	r3, [r7, #9]
	EXTI_InitStruct.EXTI_LineCmd = ENABLE;
 80005e8:	2301      	movs	r3, #1
 80005ea:	72bb      	strb	r3, [r7, #10]
	EXTI_Init(&EXTI_InitStruct);
 80005ec:	1d3b      	adds	r3, r7, #4
 80005ee:	4618      	mov	r0, r3
 80005f0:	f005 fbe6 	bl	8005dc0 <EXTI_Init>
 	
 	/* Enable and set EXTI Line Interrupt */
	NVIC_InitStruct1.NVIC_IRQChannel = WIZ_IT_EXTI_IRQn;
 80005f4:	230a      	movs	r3, #10
 80005f6:	703b      	strb	r3, [r7, #0]
 	NVIC_InitStruct1.NVIC_IRQChannelPreemptionPriority = configLIBRARY_MAX_SYSCALL_INTERRUPT_PRIORITY + 5;
 80005f8:	230a      	movs	r3, #10
 80005fa:	707b      	strb	r3, [r7, #1]
	NVIC_InitStruct1.NVIC_IRQChannelSubPriority = 0x3;
 80005fc:	2303      	movs	r3, #3
 80005fe:	70bb      	strb	r3, [r7, #2]
 	NVIC_InitStruct1.NVIC_IRQChannelCmd = ENABLE;
 8000600:	2301      	movs	r3, #1
 8000602:	70fb      	strb	r3, [r7, #3]
	NVIC_Init(&NVIC_InitStruct1);
 8000604:	463b      	mov	r3, r7
 8000606:	4618      	mov	r0, r3
 8000608:	f004 fbb4 	bl	8004d74 <NVIC_Init>


	
}
 800060c:	3768      	adds	r7, #104	; 0x68
 800060e:	46bd      	mov	sp, r7
 8000610:	bd80      	pop	{r7, pc}
 8000612:	bf00      	nop
 8000614:	40020000 	.word	0x40020000
 8000618:	40020800 	.word	0x40020800
 800061c:	40013000 	.word	0x40013000
 8000620:	40026458 	.word	0x40026458
 8000624:	40026440 	.word	0x40026440
 8000628:	4001300c 	.word	0x4001300c
 800062c:	200139d8 	.word	0x200139d8
 8000630:	20013204 	.word	0x20013204

08000634 <DMA2_Stream2_IRQHandler>:

void DMA2_Stream2_IRQHandler()
{
 8000634:	b580      	push	{r7, lr}
 8000636:	af00      	add	r7, sp, #0
  // Test if DMA Stream Transfer Complete interrupt
  if (DMA_GetITStatus (SPIx_RX_DMA_STREAM, DMA_IT_TCIF2)) {
 8000638:	481d      	ldr	r0, [pc, #116]	; (80006b0 <DMA2_Stream2_IRQHandler+0x7c>)
 800063a:	491e      	ldr	r1, [pc, #120]	; (80006b4 <DMA2_Stream2_IRQHandler+0x80>)
 800063c:	f005 f958 	bl	80058f0 <DMA_GetITStatus>
 8000640:	4603      	mov	r3, r0
 8000642:	2b00      	cmp	r3, #0
 8000644:	d02a      	beq.n	800069c <DMA2_Stream2_IRQHandler+0x68>
    
	DMA_ClearITPendingBit (SPIx_RX_DMA_STREAM, DMA_IT_TCIF2);
 8000646:	481a      	ldr	r0, [pc, #104]	; (80006b0 <DMA2_Stream2_IRQHandler+0x7c>)
 8000648:	491a      	ldr	r1, [pc, #104]	; (80006b4 <DMA2_Stream2_IRQHandler+0x80>)
 800064a:	f005 fb0d 	bl	8005c68 <DMA_ClearITPendingBit>
	
	while (SPI_I2S_GetFlagStatus (SPIx, SPI_I2S_FLAG_BSY) == SET);
 800064e:	bf00      	nop
 8000650:	4819      	ldr	r0, [pc, #100]	; (80006b8 <DMA2_Stream2_IRQHandler+0x84>)
 8000652:	2180      	movs	r1, #128	; 0x80
 8000654:	f006 f9da 	bl	8006a0c <SPI_I2S_GetFlagStatus>
 8000658:	4603      	mov	r3, r0
 800065a:	2b01      	cmp	r3, #1
 800065c:	d0f8      	beq.n	8000650 <DMA2_Stream2_IRQHandler+0x1c>
     * Now we can deselect the display. If more than one peripheral was being run
     * on this SPI peripheral, we would have to do both/all of them, or work out
     * which one was active and deselect that one.i
	
     */
	CSOFF();
 800065e:	4b17      	ldr	r3, [pc, #92]	; (80006bc <DMA2_Stream2_IRQHandler+0x88>)
 8000660:	4a16      	ldr	r2, [pc, #88]	; (80006bc <DMA2_Stream2_IRQHandler+0x88>)
 8000662:	8b12      	ldrh	r2, [r2, #24]
 8000664:	b292      	uxth	r2, r2
 8000666:	f042 0210 	orr.w	r2, r2, #16
 800066a:	b292      	uxth	r2, r2
 800066c:	831a      	strh	r2, [r3, #24]
	DMA_Cmd(SPIx_TX_DMA_STREAM, DISABLE);		
 800066e:	4814      	ldr	r0, [pc, #80]	; (80006c0 <DMA2_Stream2_IRQHandler+0x8c>)
 8000670:	2100      	movs	r1, #0
 8000672:	f004 ff09 	bl	8005488 <DMA_Cmd>
	DMA_Cmd(SPIx_RX_DMA_STREAM, DISABLE);		
 8000676:	480e      	ldr	r0, [pc, #56]	; (80006b0 <DMA2_Stream2_IRQHandler+0x7c>)
 8000678:	2100      	movs	r1, #0
 800067a:	f004 ff05 	bl	8005488 <DMA_Cmd>
 
	taskENTER_CRITICAL(); 
 800067e:	f003 fd2f 	bl	80040e0 <vPortEnterCritical>
//       xSemaphoreGive( xSemaphoreDMASPI);
	xHigherPriorityTaskWoken = pdFalse;
 8000682:	4b10      	ldr	r3, [pc, #64]	; (80006c4 <DMA2_Stream2_IRQHandler+0x90>)
 8000684:	2200      	movs	r2, #0
 8000686:	601a      	str	r2, [r3, #0]
	xSemaphoreGiveFromISR( xSemaphoreDMASPI, &xHigherPriorityTaskWoken );
 8000688:	4b0f      	ldr	r3, [pc, #60]	; (80006c8 <DMA2_Stream2_IRQHandler+0x94>)
 800068a:	681b      	ldr	r3, [r3, #0]
 800068c:	4618      	mov	r0, r3
 800068e:	2100      	movs	r1, #0
 8000690:	4a0c      	ldr	r2, [pc, #48]	; (80006c4 <DMA2_Stream2_IRQHandler+0x90>)
 8000692:	2300      	movs	r3, #0
 8000694:	f003 f936 	bl	8003904 <xQueueGenericSendFromISR>
	taskEXIT_CRITICAL(); //
 8000698:	f003 fd32 	bl	8004100 <vPortExitCritical>
  }	

  portYIELD_FROM_ISR( xHigherPriorityTaskWoken );
 800069c:	4b09      	ldr	r3, [pc, #36]	; (80006c4 <DMA2_Stream2_IRQHandler+0x90>)
 800069e:	681b      	ldr	r3, [r3, #0]
 80006a0:	2b00      	cmp	r3, #0
 80006a2:	d003      	beq.n	80006ac <DMA2_Stream2_IRQHandler+0x78>
 80006a4:	4b09      	ldr	r3, [pc, #36]	; (80006cc <DMA2_Stream2_IRQHandler+0x98>)
 80006a6:	f04f 5280 	mov.w	r2, #268435456	; 0x10000000
 80006aa:	601a      	str	r2, [r3, #0]
}
 80006ac:	bd80      	pop	{r7, pc}
 80006ae:	bf00      	nop
 80006b0:	40026440 	.word	0x40026440
 80006b4:	10208000 	.word	0x10208000
 80006b8:	40013000 	.word	0x40013000
 80006bc:	40020000 	.word	0x40020000
 80006c0:	40026458 	.word	0x40026458
 80006c4:	2000047c 	.word	0x2000047c
 80006c8:	200131ec 	.word	0x200131ec
 80006cc:	e000ed04 	.word	0xe000ed04

080006d0 <DMA2_Stream3_IRQHandler>:
void DMA2_Stream3_IRQHandler()
{
 80006d0:	b580      	push	{r7, lr}
 80006d2:	af00      	add	r7, sp, #0
  // Test if DMA Stream Transfer Complete interrupt
  if (DMA_GetITStatus (SPIx_TX_DMA_STREAM, DMA_IT_TCIF3)) {
 80006d4:	481d      	ldr	r0, [pc, #116]	; (800074c <DMA2_Stream3_IRQHandler+0x7c>)
 80006d6:	491e      	ldr	r1, [pc, #120]	; (8000750 <DMA2_Stream3_IRQHandler+0x80>)
 80006d8:	f005 f90a 	bl	80058f0 <DMA_GetITStatus>
 80006dc:	4603      	mov	r3, r0
 80006de:	2b00      	cmp	r3, #0
 80006e0:	d02a      	beq.n	8000738 <DMA2_Stream3_IRQHandler+0x68>
    
	DMA_ClearITPendingBit (SPIx_TX_DMA_STREAM, DMA_IT_TCIF3);
 80006e2:	481a      	ldr	r0, [pc, #104]	; (800074c <DMA2_Stream3_IRQHandler+0x7c>)
 80006e4:	491a      	ldr	r1, [pc, #104]	; (8000750 <DMA2_Stream3_IRQHandler+0x80>)
 80006e6:	f005 fabf 	bl	8005c68 <DMA_ClearITPendingBit>
	
	while (SPI_I2S_GetFlagStatus (SPIx, SPI_I2S_FLAG_BSY) == SET);
 80006ea:	bf00      	nop
 80006ec:	4819      	ldr	r0, [pc, #100]	; (8000754 <DMA2_Stream3_IRQHandler+0x84>)
 80006ee:	2180      	movs	r1, #128	; 0x80
 80006f0:	f006 f98c 	bl	8006a0c <SPI_I2S_GetFlagStatus>
 80006f4:	4603      	mov	r3, r0
 80006f6:	2b01      	cmp	r3, #1
 80006f8:	d0f8      	beq.n	80006ec <DMA2_Stream3_IRQHandler+0x1c>
     * Now we can deselect the display. If more than one peripheral was being run
     * on this SPI peripheral, we would have to do both/all of them, or work out
     * which one was active and deselect that one.i
	
     */
	CSOFF();
 80006fa:	4b17      	ldr	r3, [pc, #92]	; (8000758 <DMA2_Stream3_IRQHandler+0x88>)
 80006fc:	4a16      	ldr	r2, [pc, #88]	; (8000758 <DMA2_Stream3_IRQHandler+0x88>)
 80006fe:	8b12      	ldrh	r2, [r2, #24]
 8000700:	b292      	uxth	r2, r2
 8000702:	f042 0210 	orr.w	r2, r2, #16
 8000706:	b292      	uxth	r2, r2
 8000708:	831a      	strh	r2, [r3, #24]
	DMA_Cmd(SPIx_TX_DMA_STREAM, DISABLE);		
 800070a:	4810      	ldr	r0, [pc, #64]	; (800074c <DMA2_Stream3_IRQHandler+0x7c>)
 800070c:	2100      	movs	r1, #0
 800070e:	f004 febb 	bl	8005488 <DMA_Cmd>
	DMA_Cmd(SPIx_RX_DMA_STREAM, DISABLE);		
 8000712:	4812      	ldr	r0, [pc, #72]	; (800075c <DMA2_Stream3_IRQHandler+0x8c>)
 8000714:	2100      	movs	r1, #0
 8000716:	f004 feb7 	bl	8005488 <DMA_Cmd>
       
	taskENTER_CRITICAL(); 
 800071a:	f003 fce1 	bl	80040e0 <vPortEnterCritical>
//	 xSemaphoreGive( xSemaphoreDMASPI );
	xHigherPriorityTaskWoken = pdFalse;
 800071e:	4b10      	ldr	r3, [pc, #64]	; (8000760 <DMA2_Stream3_IRQHandler+0x90>)
 8000720:	2200      	movs	r2, #0
 8000722:	601a      	str	r2, [r3, #0]
	xSemaphoreGiveFromISR( xSemaphoreDMASPI, &xHigherPriorityTaskWoken );
 8000724:	4b0f      	ldr	r3, [pc, #60]	; (8000764 <DMA2_Stream3_IRQHandler+0x94>)
 8000726:	681b      	ldr	r3, [r3, #0]
 8000728:	4618      	mov	r0, r3
 800072a:	2100      	movs	r1, #0
 800072c:	4a0c      	ldr	r2, [pc, #48]	; (8000760 <DMA2_Stream3_IRQHandler+0x90>)
 800072e:	2300      	movs	r3, #0
 8000730:	f003 f8e8 	bl	8003904 <xQueueGenericSendFromISR>
 	taskEXIT_CRITICAL();  
 8000734:	f003 fce4 	bl	8004100 <vPortExitCritical>
 }
  portYIELD_FROM_ISR( xHigherPriorityTaskWoken );
 8000738:	4b09      	ldr	r3, [pc, #36]	; (8000760 <DMA2_Stream3_IRQHandler+0x90>)
 800073a:	681b      	ldr	r3, [r3, #0]
 800073c:	2b00      	cmp	r3, #0
 800073e:	d003      	beq.n	8000748 <DMA2_Stream3_IRQHandler+0x78>
 8000740:	4b09      	ldr	r3, [pc, #36]	; (8000768 <DMA2_Stream3_IRQHandler+0x98>)
 8000742:	f04f 5280 	mov.w	r2, #268435456	; 0x10000000
 8000746:	601a      	str	r2, [r3, #0]
}
 8000748:	bd80      	pop	{r7, pc}
 800074a:	bf00      	nop
 800074c:	40026458 	.word	0x40026458
 8000750:	18008000 	.word	0x18008000
 8000754:	40013000 	.word	0x40013000
 8000758:	40020000 	.word	0x40020000
 800075c:	40026440 	.word	0x40026440
 8000760:	2000047c 	.word	0x2000047c
 8000764:	200131ec 	.word	0x200131ec
 8000768:	e000ed04 	.word	0xe000ed04

0800076c <spi_dma_send>:


/*---------------------------- Matic Knap 25 Jun 2014 ---------------------*/

void spi_dma_send(uint16_t address, uint16_t data_len, uint8_t *data_buf)
{
 800076c:	e92d 43f0 	stmdb	sp!, {r4, r5, r6, r7, r8, r9, lr}
 8000770:	b087      	sub	sp, #28
 8000772:	af00      	add	r7, sp, #0
 8000774:	460b      	mov	r3, r1
 8000776:	603a      	str	r2, [r7, #0]
 8000778:	4602      	mov	r2, r0
 800077a:	80fa      	strh	r2, [r7, #6]
 800077c:	80bb      	strh	r3, [r7, #4]
 800077e:	466b      	mov	r3, sp
 8000780:	461e      	mov	r6, r3
		uint8_t buffer[data_len+4];
 8000782:	88bb      	ldrh	r3, [r7, #4]
 8000784:	1d19      	adds	r1, r3, #4
 8000786:	1e4b      	subs	r3, r1, #1
 8000788:	613b      	str	r3, [r7, #16]
 800078a:	460b      	mov	r3, r1
 800078c:	461a      	mov	r2, r3
 800078e:	f04f 0300 	mov.w	r3, #0
 8000792:	ea4f 09c3 	mov.w	r9, r3, lsl #3
 8000796:	ea49 7952 	orr.w	r9, r9, r2, lsr #29
 800079a:	ea4f 08c2 	mov.w	r8, r2, lsl #3
 800079e:	460b      	mov	r3, r1
 80007a0:	461a      	mov	r2, r3
 80007a2:	f04f 0300 	mov.w	r3, #0
 80007a6:	00dd      	lsls	r5, r3, #3
 80007a8:	ea45 7552 	orr.w	r5, r5, r2, lsr #29
 80007ac:	00d4      	lsls	r4, r2, #3
 80007ae:	460b      	mov	r3, r1
 80007b0:	3307      	adds	r3, #7
 80007b2:	08db      	lsrs	r3, r3, #3
 80007b4:	00db      	lsls	r3, r3, #3
 80007b6:	ebad 0d03 	sub.w	sp, sp, r3
 80007ba:	466b      	mov	r3, sp
 80007bc:	3300      	adds	r3, #0
 80007be:	60fb      	str	r3, [r7, #12]
		buffer[0] = ((address & 0xff00) >> 8); // addres byte 1 
 80007c0:	88fb      	ldrh	r3, [r7, #6]
 80007c2:	0a1b      	lsrs	r3, r3, #8
 80007c4:	b29b      	uxth	r3, r3
 80007c6:	b2da      	uxtb	r2, r3
 80007c8:	68fb      	ldr	r3, [r7, #12]
 80007ca:	701a      	strb	r2, [r3, #0]
		buffer[1] = ((address & 0x00ff)); //address byte 2 
 80007cc:	88fb      	ldrh	r3, [r7, #6]
 80007ce:	b2da      	uxtb	r2, r3
 80007d0:	68fb      	ldr	r3, [r7, #12]
 80007d2:	705a      	strb	r2, [r3, #1]
		buffer[2] = ((0x80 | (data_len & 0x7f00) >> 8 ));
 80007d4:	88bb      	ldrh	r3, [r7, #4]
 80007d6:	f403 43fe 	and.w	r3, r3, #32512	; 0x7f00
 80007da:	121b      	asrs	r3, r3, #8
 80007dc:	b2db      	uxtb	r3, r3
 80007de:	f063 037f 	orn	r3, r3, #127	; 0x7f
 80007e2:	b2db      	uxtb	r3, r3
 80007e4:	b2da      	uxtb	r2, r3
 80007e6:	68fb      	ldr	r3, [r7, #12]
 80007e8:	709a      	strb	r2, [r3, #2]
		buffer[3] = (data_len & 0x00ff);
 80007ea:	88bb      	ldrh	r3, [r7, #4]
 80007ec:	b2da      	uxtb	r2, r3
 80007ee:	68fb      	ldr	r3, [r7, #12]
 80007f0:	70da      	strb	r2, [r3, #3]

		int i;
		for (i = 4 ; i < data_len+4; i++) 
 80007f2:	2304      	movs	r3, #4
 80007f4:	617b      	str	r3, [r7, #20]
 80007f6:	e00b      	b.n	8000810 <spi_dma_send+0xa4>
			buffer[i] = (data_buf[i-4]);
 80007f8:	697b      	ldr	r3, [r7, #20]
 80007fa:	3b04      	subs	r3, #4
 80007fc:	683a      	ldr	r2, [r7, #0]
 80007fe:	4413      	add	r3, r2
 8000800:	781a      	ldrb	r2, [r3, #0]
 8000802:	68f9      	ldr	r1, [r7, #12]
 8000804:	697b      	ldr	r3, [r7, #20]
 8000806:	440b      	add	r3, r1
 8000808:	701a      	strb	r2, [r3, #0]
		buffer[1] = ((address & 0x00ff)); //address byte 2 
		buffer[2] = ((0x80 | (data_len & 0x7f00) >> 8 ));
		buffer[3] = (data_len & 0x00ff);

		int i;
		for (i = 4 ; i < data_len+4; i++) 
 800080a:	697b      	ldr	r3, [r7, #20]
 800080c:	3301      	adds	r3, #1
 800080e:	617b      	str	r3, [r7, #20]
 8000810:	88bb      	ldrh	r3, [r7, #4]
 8000812:	1d1a      	adds	r2, r3, #4
 8000814:	697b      	ldr	r3, [r7, #20]
 8000816:	429a      	cmp	r2, r3
 8000818:	dcee      	bgt.n	80007f8 <spi_dma_send+0x8c>
			buffer[i] = (data_buf[i-4]);
		DMA_SetCurrDataCounter(SPIx_TX_DMA_STREAM, data_len + 4);
 800081a:	88bb      	ldrh	r3, [r7, #4]
 800081c:	3304      	adds	r3, #4
 800081e:	b29b      	uxth	r3, r3
 8000820:	4812      	ldr	r0, [pc, #72]	; (800086c <spi_dma_send+0x100>)
 8000822:	4619      	mov	r1, r3
 8000824:	f004 febc 	bl	80055a0 <DMA_SetCurrDataCounter>
		SPIx_TX_DMA_STREAM->M0AR =(uint32_t) &buffer;	
 8000828:	4b10      	ldr	r3, [pc, #64]	; (800086c <spi_dma_send+0x100>)
 800082a:	68fa      	ldr	r2, [r7, #12]
 800082c:	60da      	str	r2, [r3, #12]
		CSON(); // chip select 
 800082e:	4b10      	ldr	r3, [pc, #64]	; (8000870 <spi_dma_send+0x104>)
 8000830:	4a0f      	ldr	r2, [pc, #60]	; (8000870 <spi_dma_send+0x104>)
 8000832:	8b52      	ldrh	r2, [r2, #26]
 8000834:	b292      	uxth	r2, r2
 8000836:	f042 0210 	orr.w	r2, r2, #16
 800083a:	b292      	uxth	r2, r2
 800083c:	835a      	strh	r2, [r3, #26]
		DMA_Cmd(SPIx_TX_DMA_STREAM, ENABLE);		
 800083e:	480b      	ldr	r0, [pc, #44]	; (800086c <spi_dma_send+0x100>)
 8000840:	2101      	movs	r1, #1
 8000842:	f004 fe21 	bl	8005488 <DMA_Cmd>
		DMA_Cmd(SPIx_RX_DMA_STREAM, ENABLE);	
 8000846:	480b      	ldr	r0, [pc, #44]	; (8000874 <spi_dma_send+0x108>)
 8000848:	2101      	movs	r1, #1
 800084a:	f004 fe1d 	bl	8005488 <DMA_Cmd>
		/* Block until the semaphore is given */
        	 xSemaphoreTake(xSemaphoreDMASPI, portMAX_DELAY);
 800084e:	4b0a      	ldr	r3, [pc, #40]	; (8000878 <spi_dma_send+0x10c>)
 8000850:	681b      	ldr	r3, [r3, #0]
 8000852:	4618      	mov	r0, r3
 8000854:	2100      	movs	r1, #0
 8000856:	f04f 32ff 	mov.w	r2, #4294967295	; 0xffffffff
 800085a:	2300      	movs	r3, #0
 800085c:	f003 f8bc 	bl	80039d8 <xQueueGenericReceive>
 8000860:	46b5      	mov	sp, r6

	//	CSOFF(); // chip deselect 
			
	
}
 8000862:	371c      	adds	r7, #28
 8000864:	46bd      	mov	sp, r7
 8000866:	e8bd 83f0 	ldmia.w	sp!, {r4, r5, r6, r7, r8, r9, pc}
 800086a:	bf00      	nop
 800086c:	40026458 	.word	0x40026458
 8000870:	40020000 	.word	0x40020000
 8000874:	40026440 	.word	0x40026440
 8000878:	200131ec 	.word	0x200131ec

0800087c <spi_dma_send2B>:

void spi_dma_send2B(uint16_t address,  uint16_t data_buf)
{
 800087c:	b580      	push	{r7, lr}
 800087e:	b084      	sub	sp, #16
 8000880:	af00      	add	r7, sp, #0
 8000882:	4602      	mov	r2, r0
 8000884:	460b      	mov	r3, r1
 8000886:	80fa      	strh	r2, [r7, #6]
 8000888:	80bb      	strh	r3, [r7, #4]
	uint8_t buffer[6];
	uint16_t data_len = 2;
 800088a:	2302      	movs	r3, #2
 800088c:	81fb      	strh	r3, [r7, #14]
	buffer[0] = ((address & 0xff00) >> 8); // addres byte 1 
 800088e:	88fb      	ldrh	r3, [r7, #6]
 8000890:	0a1b      	lsrs	r3, r3, #8
 8000892:	b29b      	uxth	r3, r3
 8000894:	b2db      	uxtb	r3, r3
 8000896:	723b      	strb	r3, [r7, #8]
	buffer[1] = ((address & 0x00ff)); //address byte 2 
 8000898:	88fb      	ldrh	r3, [r7, #6]
 800089a:	b2db      	uxtb	r3, r3
 800089c:	727b      	strb	r3, [r7, #9]
	buffer[2] = ((0x80 | (data_len & 0x7f00) >> 8 ));
 800089e:	89fb      	ldrh	r3, [r7, #14]
 80008a0:	f403 43fe 	and.w	r3, r3, #32512	; 0x7f00
 80008a4:	121b      	asrs	r3, r3, #8
 80008a6:	b2db      	uxtb	r3, r3
 80008a8:	f063 037f 	orn	r3, r3, #127	; 0x7f
 80008ac:	b2db      	uxtb	r3, r3
 80008ae:	b2db      	uxtb	r3, r3
 80008b0:	72bb      	strb	r3, [r7, #10]
	 buffer[3] = (data_len & 0x00ff);
 80008b2:	89fb      	ldrh	r3, [r7, #14]
 80008b4:	b2db      	uxtb	r3, r3
 80008b6:	72fb      	strb	r3, [r7, #11]
	 buffer[4] = ((data_buf & 0xff00) >> 8);
 80008b8:	88bb      	ldrh	r3, [r7, #4]
 80008ba:	0a1b      	lsrs	r3, r3, #8
 80008bc:	b29b      	uxth	r3, r3
 80008be:	b2db      	uxtb	r3, r3
 80008c0:	733b      	strb	r3, [r7, #12]
	 buffer[5] = (data_buf & 0x00ff);
 80008c2:	88bb      	ldrh	r3, [r7, #4]
 80008c4:	b2db      	uxtb	r3, r3
 80008c6:	737b      	strb	r3, [r7, #13]
	DMA_SetCurrDataCounter(SPIx_TX_DMA_STREAM, 6);
 80008c8:	4811      	ldr	r0, [pc, #68]	; (8000910 <spi_dma_send2B+0x94>)
 80008ca:	2106      	movs	r1, #6
 80008cc:	f004 fe68 	bl	80055a0 <DMA_SetCurrDataCounter>
	SPIx_TX_DMA_STREAM->M0AR =(uint32_t) &buffer;	
 80008d0:	4b0f      	ldr	r3, [pc, #60]	; (8000910 <spi_dma_send2B+0x94>)
 80008d2:	f107 0208 	add.w	r2, r7, #8
 80008d6:	60da      	str	r2, [r3, #12]
	CSON(); // chip select 
 80008d8:	4b0e      	ldr	r3, [pc, #56]	; (8000914 <spi_dma_send2B+0x98>)
 80008da:	4a0e      	ldr	r2, [pc, #56]	; (8000914 <spi_dma_send2B+0x98>)
 80008dc:	8b52      	ldrh	r2, [r2, #26]
 80008de:	b292      	uxth	r2, r2
 80008e0:	f042 0210 	orr.w	r2, r2, #16
 80008e4:	b292      	uxth	r2, r2
 80008e6:	835a      	strh	r2, [r3, #26]
	DMA_Cmd(SPIx_TX_DMA_STREAM, ENABLE);		
 80008e8:	4809      	ldr	r0, [pc, #36]	; (8000910 <spi_dma_send2B+0x94>)
 80008ea:	2101      	movs	r1, #1
 80008ec:	f004 fdcc 	bl	8005488 <DMA_Cmd>
	DMA_Cmd(SPIx_RX_DMA_STREAM, ENABLE);	
 80008f0:	4809      	ldr	r0, [pc, #36]	; (8000918 <spi_dma_send2B+0x9c>)
 80008f2:	2101      	movs	r1, #1
 80008f4:	f004 fdc8 	bl	8005488 <DMA_Cmd>
	/* Block until the semaphore is given */
        xSemaphoreTake(xSemaphoreDMASPI, portMAX_DELAY);	
 80008f8:	4b08      	ldr	r3, [pc, #32]	; (800091c <spi_dma_send2B+0xa0>)
 80008fa:	681b      	ldr	r3, [r3, #0]
 80008fc:	4618      	mov	r0, r3
 80008fe:	2100      	movs	r1, #0
 8000900:	f04f 32ff 	mov.w	r2, #4294967295	; 0xffffffff
 8000904:	2300      	movs	r3, #0
 8000906:	f003 f867 	bl	80039d8 <xQueueGenericReceive>
	
//	CSOFF(); // chip deselect 
			
}
 800090a:	3710      	adds	r7, #16
 800090c:	46bd      	mov	sp, r7
 800090e:	bd80      	pop	{r7, pc}
 8000910:	40026458 	.word	0x40026458
 8000914:	40020000 	.word	0x40020000
 8000918:	40026440 	.word	0x40026440
 800091c:	200131ec 	.word	0x200131ec

08000920 <spi_dma_sendByte>:

void spi_dma_sendByte(uint16_t address,  uint8_t data_buf)
{
 8000920:	b580      	push	{r7, lr}
 8000922:	b084      	sub	sp, #16
 8000924:	af00      	add	r7, sp, #0
 8000926:	4602      	mov	r2, r0
 8000928:	460b      	mov	r3, r1
 800092a:	80fa      	strh	r2, [r7, #6]
 800092c:	717b      	strb	r3, [r7, #5]
		uint8_t buffer[5];
		uint16_t data_len=0x1;
 800092e:	2301      	movs	r3, #1
 8000930:	81fb      	strh	r3, [r7, #14]
		buffer[0] = ((address & 0xff00) >> 8); // addres byte 1 
 8000932:	88fb      	ldrh	r3, [r7, #6]
 8000934:	0a1b      	lsrs	r3, r3, #8
 8000936:	b29b      	uxth	r3, r3
 8000938:	b2db      	uxtb	r3, r3
 800093a:	723b      	strb	r3, [r7, #8]
		buffer[1] = ((address & 0x00ff)); //address byte 2 
 800093c:	88fb      	ldrh	r3, [r7, #6]
 800093e:	b2db      	uxtb	r3, r3
 8000940:	727b      	strb	r3, [r7, #9]
		buffer[2] = ((0x80 | (data_len & 0x7f00) >> 8 ));
 8000942:	89fb      	ldrh	r3, [r7, #14]
 8000944:	f403 43fe 	and.w	r3, r3, #32512	; 0x7f00
 8000948:	121b      	asrs	r3, r3, #8
 800094a:	b2db      	uxtb	r3, r3
 800094c:	f063 037f 	orn	r3, r3, #127	; 0x7f
 8000950:	b2db      	uxtb	r3, r3
 8000952:	b2db      	uxtb	r3, r3
 8000954:	72bb      	strb	r3, [r7, #10]
		buffer[3] = (data_len & 0x00ff);
 8000956:	89fb      	ldrh	r3, [r7, #14]
 8000958:	b2db      	uxtb	r3, r3
 800095a:	72fb      	strb	r3, [r7, #11]
		buffer[4] = data_buf ; 
 800095c:	797b      	ldrb	r3, [r7, #5]
 800095e:	733b      	strb	r3, [r7, #12]
		DMA_SetCurrDataCounter(SPIx_TX_DMA_STREAM, 5);
 8000960:	4811      	ldr	r0, [pc, #68]	; (80009a8 <spi_dma_sendByte+0x88>)
 8000962:	2105      	movs	r1, #5
 8000964:	f004 fe1c 	bl	80055a0 <DMA_SetCurrDataCounter>
		SPIx_TX_DMA_STREAM->M0AR =(uint32_t) &buffer;	
 8000968:	4b0f      	ldr	r3, [pc, #60]	; (80009a8 <spi_dma_sendByte+0x88>)
 800096a:	f107 0208 	add.w	r2, r7, #8
 800096e:	60da      	str	r2, [r3, #12]
		CSON(); // chip select 
 8000970:	4b0e      	ldr	r3, [pc, #56]	; (80009ac <spi_dma_sendByte+0x8c>)
 8000972:	4a0e      	ldr	r2, [pc, #56]	; (80009ac <spi_dma_sendByte+0x8c>)
 8000974:	8b52      	ldrh	r2, [r2, #26]
 8000976:	b292      	uxth	r2, r2
 8000978:	f042 0210 	orr.w	r2, r2, #16
 800097c:	b292      	uxth	r2, r2
 800097e:	835a      	strh	r2, [r3, #26]
		DMA_Cmd(SPIx_TX_DMA_STREAM, ENABLE);		
 8000980:	4809      	ldr	r0, [pc, #36]	; (80009a8 <spi_dma_sendByte+0x88>)
 8000982:	2101      	movs	r1, #1
 8000984:	f004 fd80 	bl	8005488 <DMA_Cmd>
		DMA_Cmd(SPIx_RX_DMA_STREAM, ENABLE);
 8000988:	4809      	ldr	r0, [pc, #36]	; (80009b0 <spi_dma_sendByte+0x90>)
 800098a:	2101      	movs	r1, #1
 800098c:	f004 fd7c 	bl	8005488 <DMA_Cmd>
		/* Block until the semaphore is given */
	        xSemaphoreTake(xSemaphoreDMASPI, portMAX_DELAY);	
 8000990:	4b08      	ldr	r3, [pc, #32]	; (80009b4 <spi_dma_sendByte+0x94>)
 8000992:	681b      	ldr	r3, [r3, #0]
 8000994:	4618      	mov	r0, r3
 8000996:	2100      	movs	r1, #0
 8000998:	f04f 32ff 	mov.w	r2, #4294967295	; 0xffffffff
 800099c:	2300      	movs	r3, #0
 800099e:	f003 f81b 	bl	80039d8 <xQueueGenericReceive>
				
//		CSOFF(); // chip deselect 
			
}
 80009a2:	3710      	adds	r7, #16
 80009a4:	46bd      	mov	sp, r7
 80009a6:	bd80      	pop	{r7, pc}
 80009a8:	40026458 	.word	0x40026458
 80009ac:	40020000 	.word	0x40020000
 80009b0:	40026440 	.word	0x40026440
 80009b4:	200131ec 	.word	0x200131ec

080009b8 <spi_dma_read>:

		return (data_buf[0] << 8) | data_buf[1];

}
void spi_dma_read(uint16_t address, uint16_t data_len)
{
 80009b8:	e92d 41f0 	stmdb	sp!, {r4, r5, r6, r7, r8, lr}
 80009bc:	b086      	sub	sp, #24
 80009be:	af00      	add	r7, sp, #0
 80009c0:	80f8      	strh	r0, [r7, #6]
 80009c2:	80b9      	strh	r1, [r7, #4]
 80009c4:	4669      	mov	r1, sp
 80009c6:	4688      	mov	r8, r1
		
		/*! spi_dma_read it has to be used with \n
		 * memcpy from bufferRX right after it has recieve \n
		 * data on SPI. */
		
		uint8_t buffer[data_len+4];
 80009c8:	88b9      	ldrh	r1, [r7, #4]
 80009ca:	1d0e      	adds	r6, r1, #4
 80009cc:	1e71      	subs	r1, r6, #1
 80009ce:	6139      	str	r1, [r7, #16]
 80009d0:	4631      	mov	r1, r6
 80009d2:	4608      	mov	r0, r1
 80009d4:	f04f 0100 	mov.w	r1, #0
 80009d8:	00cd      	lsls	r5, r1, #3
 80009da:	ea45 7550 	orr.w	r5, r5, r0, lsr #29
 80009de:	00c4      	lsls	r4, r0, #3
 80009e0:	4631      	mov	r1, r6
 80009e2:	4608      	mov	r0, r1
 80009e4:	f04f 0100 	mov.w	r1, #0
 80009e8:	00cb      	lsls	r3, r1, #3
 80009ea:	ea43 7350 	orr.w	r3, r3, r0, lsr #29
 80009ee:	00c2      	lsls	r2, r0, #3
 80009f0:	4633      	mov	r3, r6
 80009f2:	3307      	adds	r3, #7
 80009f4:	08db      	lsrs	r3, r3, #3
 80009f6:	00db      	lsls	r3, r3, #3
 80009f8:	ebad 0d03 	sub.w	sp, sp, r3
 80009fc:	466b      	mov	r3, sp
 80009fe:	3300      	adds	r3, #0
 8000a00:	60fb      	str	r3, [r7, #12]
		buffer[0] = ((address & 0xff00) >> 8); // addres byte 1 
 8000a02:	88fb      	ldrh	r3, [r7, #6]
 8000a04:	0a1b      	lsrs	r3, r3, #8
 8000a06:	b29b      	uxth	r3, r3
 8000a08:	b2da      	uxtb	r2, r3
 8000a0a:	68fb      	ldr	r3, [r7, #12]
 8000a0c:	701a      	strb	r2, [r3, #0]
		buffer[1] = ((address & 0x00ff)); //address byte 2 
 8000a0e:	88fb      	ldrh	r3, [r7, #6]
 8000a10:	b2da      	uxtb	r2, r3
 8000a12:	68fb      	ldr	r3, [r7, #12]
 8000a14:	705a      	strb	r2, [r3, #1]
		buffer[2] = ((0x00 | (data_len & 0x7f00) >> 8 ));
 8000a16:	88bb      	ldrh	r3, [r7, #4]
 8000a18:	f403 43fe 	and.w	r3, r3, #32512	; 0x7f00
 8000a1c:	121b      	asrs	r3, r3, #8
 8000a1e:	b2da      	uxtb	r2, r3
 8000a20:	68fb      	ldr	r3, [r7, #12]
 8000a22:	709a      	strb	r2, [r3, #2]
		buffer[3] = (data_len & 0x00ff);
 8000a24:	88bb      	ldrh	r3, [r7, #4]
 8000a26:	b2da      	uxtb	r2, r3
 8000a28:	68fb      	ldr	r3, [r7, #12]
 8000a2a:	70da      	strb	r2, [r3, #3]

		int i;
		for (i = 4 ; i < data_len+4; i++) buffer[i] = 0x0;
 8000a2c:	2304      	movs	r3, #4
 8000a2e:	617b      	str	r3, [r7, #20]
 8000a30:	e007      	b.n	8000a42 <spi_dma_read+0x8a>
 8000a32:	68fa      	ldr	r2, [r7, #12]
 8000a34:	697b      	ldr	r3, [r7, #20]
 8000a36:	4413      	add	r3, r2
 8000a38:	2200      	movs	r2, #0
 8000a3a:	701a      	strb	r2, [r3, #0]
 8000a3c:	697b      	ldr	r3, [r7, #20]
 8000a3e:	3301      	adds	r3, #1
 8000a40:	617b      	str	r3, [r7, #20]
 8000a42:	88bb      	ldrh	r3, [r7, #4]
 8000a44:	1d1a      	adds	r2, r3, #4
 8000a46:	697b      	ldr	r3, [r7, #20]
 8000a48:	429a      	cmp	r2, r3
 8000a4a:	dcf2      	bgt.n	8000a32 <spi_dma_read+0x7a>

		DMA_SetCurrDataCounter(SPIx_RX_DMA_STREAM, data_len+4);
 8000a4c:	88bb      	ldrh	r3, [r7, #4]
 8000a4e:	3304      	adds	r3, #4
 8000a50:	b29b      	uxth	r3, r3
 8000a52:	4817      	ldr	r0, [pc, #92]	; (8000ab0 <spi_dma_read+0xf8>)
 8000a54:	4619      	mov	r1, r3
 8000a56:	f004 fda3 	bl	80055a0 <DMA_SetCurrDataCounter>
		DMA_SetCurrDataCounter(SPIx_TX_DMA_STREAM, 4+data_len);
 8000a5a:	88bb      	ldrh	r3, [r7, #4]
 8000a5c:	3304      	adds	r3, #4
 8000a5e:	b29b      	uxth	r3, r3
 8000a60:	4814      	ldr	r0, [pc, #80]	; (8000ab4 <spi_dma_read+0xfc>)
 8000a62:	4619      	mov	r1, r3
 8000a64:	f004 fd9c 	bl	80055a0 <DMA_SetCurrDataCounter>
		SPIx_TX_DMA_STREAM->M0AR =(uint32_t) &buffer;	
 8000a68:	4b12      	ldr	r3, [pc, #72]	; (8000ab4 <spi_dma_read+0xfc>)
 8000a6a:	68fa      	ldr	r2, [r7, #12]
 8000a6c:	60da      	str	r2, [r3, #12]
		SPIx_RX_DMA_STREAM->M0AR =(uint32_t)&bufferRX;	
 8000a6e:	4b10      	ldr	r3, [pc, #64]	; (8000ab0 <spi_dma_read+0xf8>)
 8000a70:	4a11      	ldr	r2, [pc, #68]	; (8000ab8 <spi_dma_read+0x100>)
 8000a72:	60da      	str	r2, [r3, #12]

		CSON(); // chip select 
 8000a74:	4b11      	ldr	r3, [pc, #68]	; (8000abc <spi_dma_read+0x104>)
 8000a76:	4a11      	ldr	r2, [pc, #68]	; (8000abc <spi_dma_read+0x104>)
 8000a78:	8b52      	ldrh	r2, [r2, #26]
 8000a7a:	b292      	uxth	r2, r2
 8000a7c:	f042 0210 	orr.w	r2, r2, #16
 8000a80:	b292      	uxth	r2, r2
 8000a82:	835a      	strh	r2, [r3, #26]
		DMA_Cmd(SPIx_TX_DMA_STREAM, ENABLE);		
 8000a84:	480b      	ldr	r0, [pc, #44]	; (8000ab4 <spi_dma_read+0xfc>)
 8000a86:	2101      	movs	r1, #1
 8000a88:	f004 fcfe 	bl	8005488 <DMA_Cmd>
		DMA_Cmd(SPIx_RX_DMA_STREAM, ENABLE);
 8000a8c:	4808      	ldr	r0, [pc, #32]	; (8000ab0 <spi_dma_read+0xf8>)
 8000a8e:	2101      	movs	r1, #1
 8000a90:	f004 fcfa 	bl	8005488 <DMA_Cmd>
		/* Block until the semaphore is given */
        	xSemaphoreTake(xSemaphoreDMASPI, portMAX_DELAY);	
 8000a94:	4b0a      	ldr	r3, [pc, #40]	; (8000ac0 <spi_dma_read+0x108>)
 8000a96:	681b      	ldr	r3, [r3, #0]
 8000a98:	4618      	mov	r0, r3
 8000a9a:	2100      	movs	r1, #0
 8000a9c:	f04f 32ff 	mov.w	r2, #4294967295	; 0xffffffff
 8000aa0:	2300      	movs	r3, #0
 8000aa2:	f002 ff99 	bl	80039d8 <xQueueGenericReceive>
 8000aa6:	46c5      	mov	sp, r8
		//CSOFF(); // chip deselect		

}	
 8000aa8:	3718      	adds	r7, #24
 8000aaa:	46bd      	mov	sp, r7
 8000aac:	e8bd 81f0 	ldmia.w	sp!, {r4, r5, r6, r7, r8, pc}
 8000ab0:	40026440 	.word	0x40026440
 8000ab4:	40026458 	.word	0x40026458
 8000ab8:	20013204 	.word	0x20013204
 8000abc:	40020000 	.word	0x40020000
 8000ac0:	200131ec 	.word	0x200131ec

08000ac4 <init_W5200>:
//==================================================================================//
//===	func 	init_W5200							 ===//
//==================================================================================//

void init_W5200(void)
{
 8000ac4:	b580      	push	{r7, lr}
 8000ac6:	b08a      	sub	sp, #40	; 0x28
 8000ac8:	af00      	add	r7, sp, #0
	 *
	 * */


	// mac address
	uint8_t address[6] =	{0xdd, 0xaa, 0xbb, 0xcc, 0x11, 0x22}; 
 8000aca:	4a58      	ldr	r2, [pc, #352]	; (8000c2c <init_W5200+0x168>)
 8000acc:	f107 0318 	add.w	r3, r7, #24
 8000ad0:	6810      	ldr	r0, [r2, #0]
 8000ad2:	6018      	str	r0, [r3, #0]
 8000ad4:	8892      	ldrh	r2, [r2, #4]
 8000ad6:	809a      	strh	r2, [r3, #4]
	
	// ip 
	const  uint8_t ip[4] = {0xc0, 0xa8, 0x0, 0x08};
 8000ad8:	4a55      	ldr	r2, [pc, #340]	; (8000c30 <init_W5200+0x16c>)
 8000ada:	f107 0314 	add.w	r3, r7, #20
 8000ade:	6810      	ldr	r0, [r2, #0]
 8000ae0:	6018      	str	r0, [r3, #0]
	// subnet 
	const uint8_t subnet[4] = {0xff,0xff,0xff,0x0};
 8000ae2:	4a54      	ldr	r2, [pc, #336]	; (8000c34 <init_W5200+0x170>)
 8000ae4:	f107 0310 	add.w	r3, r7, #16
 8000ae8:	6810      	ldr	r0, [r2, #0]
 8000aea:	6018      	str	r0, [r3, #0]
	// gateway
	const uint8_t gw[4] = {0xc0, 0xa8, 0x0, 0x01};
 8000aec:	4a52      	ldr	r2, [pc, #328]	; (8000c38 <init_W5200+0x174>)
 8000aee:	f107 030c 	add.w	r3, r7, #12
 8000af2:	6810      	ldr	r0, [r2, #0]
 8000af4:	6018      	str	r0, [r3, #0]
	
	portTickType xLastWakeTime;	
	
	xSemaphoreDMASPI = xSemaphoreCreateBinary();
 8000af6:	2001      	movs	r0, #1
 8000af8:	2100      	movs	r1, #0
 8000afa:	2203      	movs	r2, #3
 8000afc:	f002 fe10 	bl	8003720 <xQueueGenericCreate>
 8000b00:	4602      	mov	r2, r0
 8000b02:	4b4e      	ldr	r3, [pc, #312]	; (8000c3c <init_W5200+0x178>)
 8000b04:	601a      	str	r2, [r3, #0]

//	vTaskSuspend(set_macTaskHandle);
	
	xLastWakeTime = xTaskGetTickCount();
 8000b06:	f002 f911 	bl	8002d2c <xTaskGetTickCount>
 8000b0a:	4603      	mov	r3, r0
 8000b0c:	60bb      	str	r3, [r7, #8]

	RESET_HIGH();
 8000b0e:	4b4c      	ldr	r3, [pc, #304]	; (8000c40 <init_W5200+0x17c>)
 8000b10:	4a4b      	ldr	r2, [pc, #300]	; (8000c40 <init_W5200+0x17c>)
 8000b12:	8b52      	ldrh	r2, [r2, #26]
 8000b14:	b292      	uxth	r2, r2
 8000b16:	f042 0220 	orr.w	r2, r2, #32
 8000b1a:	b292      	uxth	r2, r2
 8000b1c:	835a      	strh	r2, [r3, #26]
	RESET_LOW();	
 8000b1e:	4b48      	ldr	r3, [pc, #288]	; (8000c40 <init_W5200+0x17c>)
 8000b20:	4a47      	ldr	r2, [pc, #284]	; (8000c40 <init_W5200+0x17c>)
 8000b22:	8b12      	ldrh	r2, [r2, #24]
 8000b24:	b292      	uxth	r2, r2
 8000b26:	f042 0220 	orr.w	r2, r2, #32
 8000b2a:	b292      	uxth	r2, r2
 8000b2c:	831a      	strh	r2, [r3, #24]

	vTaskDelay( 500/portTICK_RATE_MS );		
 8000b2e:	f44f 70fa 	mov.w	r0, #500	; 0x1f4
 8000b32:	f001 ff3f 	bl	80029b4 <vTaskDelay>
	const portTickType xFrequency = 1;
 8000b36:	2301      	movs	r3, #1
 8000b38:	623b      	str	r3, [r7, #32]
	
	// ===================================================//
	//SW reset 
	spi_dma_sendByte(W5200_MR, W5200_MR_RST);
 8000b3a:	2000      	movs	r0, #0
 8000b3c:	2180      	movs	r1, #128	; 0x80
 8000b3e:	f7ff feef 	bl	8000920 <spi_dma_sendByte>
	// wait until reset complete
	uint8_t data = W5200_MR_RST; 
 8000b42:	2380      	movs	r3, #128	; 0x80
 8000b44:	71fb      	strb	r3, [r7, #7]
	while((data  && W5200_MR_RST) == W5200_MR_RST)
 8000b46:	bf00      	nop
		spi_dma_read(W5200_MR, 1);
		memcpy(&data, bufferRX+4, 1);
	}
		
	// PING enable, PPPoE disable 
	spi_dma_sendByte(W5200_MR, 0);
 8000b48:	2000      	movs	r0, #0
 8000b4a:	2100      	movs	r1, #0
 8000b4c:	f7ff fee8 	bl	8000920 <spi_dma_sendByte>
	// all socket interrupts sets to nonmask. set '1' is interrupt enable. 
	spi_dma_sendByte(W5200_IMR, 0xff);
 8000b50:	2016      	movs	r0, #22
 8000b52:	21ff      	movs	r1, #255	; 0xff
 8000b54:	f7ff fee4 	bl	8000920 <spi_dma_sendByte>
	// IP-confilict, PPPoE Close are mask. set '0' interupt disable. 
	spi_dma_sendByte(W5200_IMR2, 0);
 8000b58:	2036      	movs	r0, #54	; 0x36
 8000b5a:	2100      	movs	r1, #0
 8000b5c:	f7ff fee0 	bl	8000920 <spi_dma_sendByte>
	// set timeoput to 200msec
	spi_dma_sendByte(W5200_RTR, 200);
 8000b60:	2017      	movs	r0, #23
 8000b62:	21c8      	movs	r1, #200	; 0xc8
 8000b64:	f7ff fedc 	bl	8000920 <spi_dma_sendByte>
	// set retry count register to 3rd
	spi_dma_sendByte(W5200_RCR, 3);
 8000b68:	2019      	movs	r0, #25
 8000b6a:	2103      	movs	r1, #3
 8000b6c:	f7ff fed8 	bl	8000920 <spi_dma_sendByte>

	int n = 0; 
 8000b70:	2300      	movs	r3, #0
 8000b72:	627b      	str	r3, [r7, #36]	; 0x24

	for (n = 0; n < 8; n++)
 8000b74:	2300      	movs	r3, #0
 8000b76:	627b      	str	r3, [r7, #36]	; 0x24
 8000b78:	e02b      	b.n	8000bd2 <init_W5200+0x10e>
	{
		spi_dma_sendByte(W5200_Sn_RXMEM_SIZE(n), 0x2);
 8000b7a:	6a7b      	ldr	r3, [r7, #36]	; 0x24
 8000b7c:	b29b      	uxth	r3, r3
 8000b7e:	021b      	lsls	r3, r3, #8
 8000b80:	b29b      	uxth	r3, r3
 8000b82:	f503 4380 	add.w	r3, r3, #16384	; 0x4000
 8000b86:	331e      	adds	r3, #30
 8000b88:	b29b      	uxth	r3, r3
 8000b8a:	4618      	mov	r0, r3
 8000b8c:	2102      	movs	r1, #2
 8000b8e:	f7ff fec7 	bl	8000920 <spi_dma_sendByte>
		spi_dma_sendByte(W5200_Sn_TXMEM_SIZE(n),0x2);
 8000b92:	6a7b      	ldr	r3, [r7, #36]	; 0x24
 8000b94:	b29b      	uxth	r3, r3
 8000b96:	021b      	lsls	r3, r3, #8
 8000b98:	b29b      	uxth	r3, r3
 8000b9a:	f503 4380 	add.w	r3, r3, #16384	; 0x4000
 8000b9e:	331f      	adds	r3, #31
 8000ba0:	b29b      	uxth	r3, r3
 8000ba2:	4618      	mov	r0, r3
 8000ba4:	2102      	movs	r1, #2
 8000ba6:	f7ff febb 	bl	8000920 <spi_dma_sendByte>
		spi_dma_sendByte(W5200_Sn_IMR(n), 0xff);	
 8000baa:	6a7b      	ldr	r3, [r7, #36]	; 0x24
 8000bac:	b29b      	uxth	r3, r3
 8000bae:	021b      	lsls	r3, r3, #8
 8000bb0:	b29b      	uxth	r3, r3
 8000bb2:	f503 4380 	add.w	r3, r3, #16384	; 0x4000
 8000bb6:	332c      	adds	r3, #44	; 0x2c
 8000bb8:	b29b      	uxth	r3, r3
 8000bba:	4618      	mov	r0, r3
 8000bbc:	21ff      	movs	r1, #255	; 0xff
 8000bbe:	f7ff feaf 	bl	8000920 <spi_dma_sendByte>
		socket_flg[n] = 0;
 8000bc2:	4a20      	ldr	r2, [pc, #128]	; (8000c44 <init_W5200+0x180>)
 8000bc4:	6a7b      	ldr	r3, [r7, #36]	; 0x24
 8000bc6:	4413      	add	r3, r2
 8000bc8:	2200      	movs	r2, #0
 8000bca:	701a      	strb	r2, [r3, #0]
	// set retry count register to 3rd
	spi_dma_sendByte(W5200_RCR, 3);

	int n = 0; 

	for (n = 0; n < 8; n++)
 8000bcc:	6a7b      	ldr	r3, [r7, #36]	; 0x24
 8000bce:	3301      	adds	r3, #1
 8000bd0:	627b      	str	r3, [r7, #36]	; 0x24
 8000bd2:	6a7b      	ldr	r3, [r7, #36]	; 0x24
 8000bd4:	2b07      	cmp	r3, #7
 8000bd6:	ddd0      	ble.n	8000b7a <init_W5200+0xb6>
		socket_flg[n] = 0;
			
	}	
	// =========================================================//
		
	vTaskDelayUntil(&xLastWakeTime, 500/portTICK_RATE_MS );		
 8000bd8:	f107 0308 	add.w	r3, r7, #8
 8000bdc:	4618      	mov	r0, r3
 8000bde:	f44f 71fa 	mov.w	r1, #500	; 0x1f4
 8000be2:	f001 fe8f 	bl	8002904 <vTaskDelayUntil>

	W5200_configure_network(ip, subnet, gw);
 8000be6:	f107 0114 	add.w	r1, r7, #20
 8000bea:	f107 0210 	add.w	r2, r7, #16
 8000bee:	f107 030c 	add.w	r3, r7, #12
 8000bf2:	4608      	mov	r0, r1
 8000bf4:	4611      	mov	r1, r2
 8000bf6:	461a      	mov	r2, r3
 8000bf8:	f000 f834 	bl	8000c64 <W5200_configure_network>
	W5200_set_hardware_address(address);
 8000bfc:	f107 0318 	add.w	r3, r7, #24
 8000c00:	4618      	mov	r0, r3
 8000c02:	f000 f823 	bl	8000c4c <W5200_set_hardware_address>
	
	vTaskDelayUntil(&xLastWakeTime, 500/portTICK_RATE_MS );		
 8000c06:	f107 0308 	add.w	r3, r7, #8
 8000c0a:	4618      	mov	r0, r3
 8000c0c:	f44f 71fa 	mov.w	r1, #500	; 0x1f4
 8000c10:	f001 fe78 	bl	8002904 <vTaskDelayUntil>
	// end of initialization W5200 
	// delete task

	// unblock set_macTask
	
	vTaskResume( set_macTaskHandle); 
 8000c14:	4b0c      	ldr	r3, [pc, #48]	; (8000c48 <init_W5200+0x184>)
 8000c16:	681b      	ldr	r3, [r3, #0]
 8000c18:	4618      	mov	r0, r3
 8000c1a:	f001 ff6d 	bl	8002af8 <vTaskResume>

	vTaskDelete ( NULL );
 8000c1e:	2000      	movs	r0, #0
 8000c20:	f001 fe2a 	bl	8002878 <vTaskDelete>
	
	
	
	
}
 8000c24:	3728      	adds	r7, #40	; 0x28
 8000c26:	46bd      	mov	sp, r7
 8000c28:	bd80      	pop	{r7, pc}
 8000c2a:	bf00      	nop
 8000c2c:	080077ec 	.word	0x080077ec
 8000c30:	080077f4 	.word	0x080077f4
 8000c34:	080077f8 	.word	0x080077f8
 8000c38:	080077fc 	.word	0x080077fc
 8000c3c:	200131ec 	.word	0x200131ec
 8000c40:	40020800 	.word	0x40020800
 8000c44:	20000480 	.word	0x20000480
 8000c48:	200141b8 	.word	0x200141b8

08000c4c <W5200_set_hardware_address>:

//==================================================================================//
//===	func W5200_set_hardware_address
//==================================================================================//
void  W5200_set_hardware_address(const macaddress_t address)
{
 8000c4c:	b580      	push	{r7, lr}
 8000c4e:	b082      	sub	sp, #8
 8000c50:	af00      	add	r7, sp, #0
 8000c52:	6078      	str	r0, [r7, #4]

	/*! Function set wiznet register to address via SPI DMA
	 */

	spi_dma_send(W5200_SHAR, 6, address);
 8000c54:	2009      	movs	r0, #9
 8000c56:	2106      	movs	r1, #6
 8000c58:	687a      	ldr	r2, [r7, #4]
 8000c5a:	f7ff fd87 	bl	800076c <spi_dma_send>
}
 8000c5e:	3708      	adds	r7, #8
 8000c60:	46bd      	mov	sp, r7
 8000c62:	bd80      	pop	{r7, pc}

08000c64 <W5200_configure_network>:


void  W5200_configure_network(const ipv4address_t address,
                             const ipv4address_t subnet,
                             const ipv4address_t gateway)
{
 8000c64:	b580      	push	{r7, lr}
 8000c66:	b084      	sub	sp, #16
 8000c68:	af00      	add	r7, sp, #0
 8000c6a:	60f8      	str	r0, [r7, #12]
 8000c6c:	60b9      	str	r1, [r7, #8]
 8000c6e:	607a      	str	r2, [r7, #4]
	/*! It configures ip, subnet and gateway */
	spi_dma_send(W5200_SIPR, 4, address);
 8000c70:	200f      	movs	r0, #15
 8000c72:	2104      	movs	r1, #4
 8000c74:	68fa      	ldr	r2, [r7, #12]
 8000c76:	f7ff fd79 	bl	800076c <spi_dma_send>
	spi_dma_send(W5200_SUBR, 4, subnet);
 8000c7a:	2005      	movs	r0, #5
 8000c7c:	2104      	movs	r1, #4
 8000c7e:	68ba      	ldr	r2, [r7, #8]
 8000c80:	f7ff fd74 	bl	800076c <spi_dma_send>
	spi_dma_send(W5200_GAR, 4 , gateway);
 8000c84:	2001      	movs	r0, #1
 8000c86:	2104      	movs	r1, #4
 8000c88:	687a      	ldr	r2, [r7, #4]
 8000c8a:	f7ff fd6f 	bl	800076c <spi_dma_send>
}
 8000c8e:	3710      	adds	r7, #16
 8000c90:	46bd      	mov	sp, r7
 8000c92:	bd80      	pop	{r7, pc}

08000c94 <get_CRStatus>:
//==================================================================================//



static uint8_t get_CRStatus(uint8_t sck_fd)
{
 8000c94:	b580      	push	{r7, lr}
 8000c96:	b084      	sub	sp, #16
 8000c98:	af00      	add	r7, sp, #0
 8000c9a:	4603      	mov	r3, r0
 8000c9c:	71fb      	strb	r3, [r7, #7]
	uint8_t var; 
	spi_dma_read(W5200_Sn_CR(sck_fd),1);
 8000c9e:	79fb      	ldrb	r3, [r7, #7]
 8000ca0:	b29b      	uxth	r3, r3
 8000ca2:	021b      	lsls	r3, r3, #8
 8000ca4:	b29b      	uxth	r3, r3
 8000ca6:	f503 4380 	add.w	r3, r3, #16384	; 0x4000
 8000caa:	3301      	adds	r3, #1
 8000cac:	b29b      	uxth	r3, r3
 8000cae:	4618      	mov	r0, r3
 8000cb0:	2101      	movs	r1, #1
 8000cb2:	f7ff fe81 	bl	80009b8 <spi_dma_read>
	memcpy(&var, bufferRX+4, 1);
 8000cb6:	4b04      	ldr	r3, [pc, #16]	; (8000cc8 <get_CRStatus+0x34>)
 8000cb8:	781b      	ldrb	r3, [r3, #0]
 8000cba:	73fb      	strb	r3, [r7, #15]
	return var;
 8000cbc:	7bfb      	ldrb	r3, [r7, #15]
}
 8000cbe:	4618      	mov	r0, r3
 8000cc0:	3710      	adds	r7, #16
 8000cc2:	46bd      	mov	sp, r7
 8000cc4:	bd80      	pop	{r7, pc}
 8000cc6:	bf00      	nop
 8000cc8:	20013208 	.word	0x20013208

08000ccc <get_SRStatus>:


static uint8_t get_SRStatus(uint8_t sck_fd)
{
 8000ccc:	b580      	push	{r7, lr}
 8000cce:	b084      	sub	sp, #16
 8000cd0:	af00      	add	r7, sp, #0
 8000cd2:	4603      	mov	r3, r0
 8000cd4:	71fb      	strb	r3, [r7, #7]
	uint8_t var; 
	spi_dma_read(W5200_Sn_SR(sck_fd), 1);
 8000cd6:	79fb      	ldrb	r3, [r7, #7]
 8000cd8:	b29b      	uxth	r3, r3
 8000cda:	021b      	lsls	r3, r3, #8
 8000cdc:	b29b      	uxth	r3, r3
 8000cde:	f503 4380 	add.w	r3, r3, #16384	; 0x4000
 8000ce2:	3303      	adds	r3, #3
 8000ce4:	b29b      	uxth	r3, r3
 8000ce6:	4618      	mov	r0, r3
 8000ce8:	2101      	movs	r1, #1
 8000cea:	f7ff fe65 	bl	80009b8 <spi_dma_read>
	memcpy(&var, bufferRX+4, 1);
 8000cee:	4b04      	ldr	r3, [pc, #16]	; (8000d00 <get_SRStatus+0x34>)
 8000cf0:	781b      	ldrb	r3, [r3, #0]
 8000cf2:	73fb      	strb	r3, [r7, #15]
	return var;
 8000cf4:	7bfb      	ldrb	r3, [r7, #15]
}
 8000cf6:	4618      	mov	r0, r3
 8000cf8:	3710      	adds	r7, #16
 8000cfa:	46bd      	mov	sp, r7
 8000cfc:	bd80      	pop	{r7, pc}
 8000cfe:	bf00      	nop
 8000d00:	20013208 	.word	0x20013208

08000d04 <get_TXFSRStatus>:

static uint16_t get_TXFSRStatus(uint8_t sck_fd)
{
 8000d04:	b580      	push	{r7, lr}
 8000d06:	b084      	sub	sp, #16
 8000d08:	af00      	add	r7, sp, #0
 8000d0a:	4603      	mov	r3, r0
 8000d0c:	71fb      	strb	r3, [r7, #7]
	uint8_t var[2]; 
	spi_dma_read(W5200_Sn_TX_FSR(sck_fd), 2);
 8000d0e:	79fb      	ldrb	r3, [r7, #7]
 8000d10:	b29b      	uxth	r3, r3
 8000d12:	021b      	lsls	r3, r3, #8
 8000d14:	b29b      	uxth	r3, r3
 8000d16:	f503 4380 	add.w	r3, r3, #16384	; 0x4000
 8000d1a:	3320      	adds	r3, #32
 8000d1c:	b29b      	uxth	r3, r3
 8000d1e:	4618      	mov	r0, r3
 8000d20:	2102      	movs	r1, #2
 8000d22:	f7ff fe49 	bl	80009b8 <spi_dma_read>
	memcpy(&var, bufferRX+4, 2);
 8000d26:	4a08      	ldr	r2, [pc, #32]	; (8000d48 <get_TXFSRStatus+0x44>)
 8000d28:	f107 030c 	add.w	r3, r7, #12
 8000d2c:	8812      	ldrh	r2, [r2, #0]
 8000d2e:	801a      	strh	r2, [r3, #0]
	
	return ((var[0] << 8) | var[1] );
 8000d30:	7b3b      	ldrb	r3, [r7, #12]
 8000d32:	021b      	lsls	r3, r3, #8
 8000d34:	b29a      	uxth	r2, r3
 8000d36:	7b7b      	ldrb	r3, [r7, #13]
 8000d38:	4313      	orrs	r3, r2
 8000d3a:	b29b      	uxth	r3, r3
 8000d3c:	b29b      	uxth	r3, r3
	
}
 8000d3e:	4618      	mov	r0, r3
 8000d40:	3710      	adds	r7, #16
 8000d42:	46bd      	mov	sp, r7
 8000d44:	bd80      	pop	{r7, pc}
 8000d46:	bf00      	nop
 8000d48:	20013208 	.word	0x20013208

08000d4c <get_TXWRStatus>:

static uint16_t get_TXWRStatus(uint8_t sck_fd)
{
 8000d4c:	b580      	push	{r7, lr}
 8000d4e:	b084      	sub	sp, #16
 8000d50:	af00      	add	r7, sp, #0
 8000d52:	4603      	mov	r3, r0
 8000d54:	71fb      	strb	r3, [r7, #7]
	uint8_t var[2]; 
	spi_dma_read(W5200_Sn_TX_WR(sck_fd), 2 );
 8000d56:	79fb      	ldrb	r3, [r7, #7]
 8000d58:	b29b      	uxth	r3, r3
 8000d5a:	021b      	lsls	r3, r3, #8
 8000d5c:	b29b      	uxth	r3, r3
 8000d5e:	f503 4380 	add.w	r3, r3, #16384	; 0x4000
 8000d62:	3324      	adds	r3, #36	; 0x24
 8000d64:	b29b      	uxth	r3, r3
 8000d66:	4618      	mov	r0, r3
 8000d68:	2102      	movs	r1, #2
 8000d6a:	f7ff fe25 	bl	80009b8 <spi_dma_read>
	memcpy(&var, bufferRX+4, 2);
 8000d6e:	4a08      	ldr	r2, [pc, #32]	; (8000d90 <get_TXWRStatus+0x44>)
 8000d70:	f107 030c 	add.w	r3, r7, #12
 8000d74:	8812      	ldrh	r2, [r2, #0]
 8000d76:	801a      	strh	r2, [r3, #0]
	
	return ((var[0] << 8) | var[1] );
 8000d78:	7b3b      	ldrb	r3, [r7, #12]
 8000d7a:	021b      	lsls	r3, r3, #8
 8000d7c:	b29a      	uxth	r2, r3
 8000d7e:	7b7b      	ldrb	r3, [r7, #13]
 8000d80:	4313      	orrs	r3, r2
 8000d82:	b29b      	uxth	r3, r3
 8000d84:	b29b      	uxth	r3, r3

	
}
 8000d86:	4618      	mov	r0, r3
 8000d88:	3710      	adds	r7, #16
 8000d8a:	46bd      	mov	sp, r7
 8000d8c:	bd80      	pop	{r7, pc}
 8000d8e:	bf00      	nop
 8000d90:	20013208 	.word	0x20013208

08000d94 <get_TXRD>:
static uint16_t get_TXRD(uint8_t sck_fd)
{
 8000d94:	b580      	push	{r7, lr}
 8000d96:	b084      	sub	sp, #16
 8000d98:	af00      	add	r7, sp, #0
 8000d9a:	4603      	mov	r3, r0
 8000d9c:	71fb      	strb	r3, [r7, #7]
	uint8_t var[2]; 
	spi_dma_read(W5200_Sn_TX_RD(sck_fd), 2);
 8000d9e:	79fb      	ldrb	r3, [r7, #7]
 8000da0:	b29b      	uxth	r3, r3
 8000da2:	021b      	lsls	r3, r3, #8
 8000da4:	b29b      	uxth	r3, r3
 8000da6:	f503 4380 	add.w	r3, r3, #16384	; 0x4000
 8000daa:	3322      	adds	r3, #34	; 0x22
 8000dac:	b29b      	uxth	r3, r3
 8000dae:	4618      	mov	r0, r3
 8000db0:	2102      	movs	r1, #2
 8000db2:	f7ff fe01 	bl	80009b8 <spi_dma_read>
	memcpy(&var, bufferRX+4, 2);
 8000db6:	4a08      	ldr	r2, [pc, #32]	; (8000dd8 <get_TXRD+0x44>)
 8000db8:	f107 030c 	add.w	r3, r7, #12
 8000dbc:	8812      	ldrh	r2, [r2, #0]
 8000dbe:	801a      	strh	r2, [r3, #0]
	
	return ((var[0] << 8) | var[1] );
 8000dc0:	7b3b      	ldrb	r3, [r7, #12]
 8000dc2:	021b      	lsls	r3, r3, #8
 8000dc4:	b29a      	uxth	r2, r3
 8000dc6:	7b7b      	ldrb	r3, [r7, #13]
 8000dc8:	4313      	orrs	r3, r2
 8000dca:	b29b      	uxth	r3, r3
 8000dcc:	b29b      	uxth	r3, r3
	
}
 8000dce:	4618      	mov	r0, r3
 8000dd0:	3710      	adds	r7, #16
 8000dd2:	46bd      	mov	sp, r7
 8000dd4:	bd80      	pop	{r7, pc}
 8000dd6:	bf00      	nop
 8000dd8:	20013208 	.word	0x20013208

08000ddc <set_TXWR>:

static void  set_TXWR(uint8_t sck_fd, uint16_t val)
{
 8000ddc:	b580      	push	{r7, lr}
 8000dde:	b082      	sub	sp, #8
 8000de0:	af00      	add	r7, sp, #0
 8000de2:	4602      	mov	r2, r0
 8000de4:	460b      	mov	r3, r1
 8000de6:	71fa      	strb	r2, [r7, #7]
 8000de8:	80bb      	strh	r3, [r7, #4]
 	spi_dma_send2B(W5200_Sn_TX_WR(sck_fd), val);
 8000dea:	79fb      	ldrb	r3, [r7, #7]
 8000dec:	b29b      	uxth	r3, r3
 8000dee:	021b      	lsls	r3, r3, #8
 8000df0:	b29b      	uxth	r3, r3
 8000df2:	f503 4380 	add.w	r3, r3, #16384	; 0x4000
 8000df6:	3324      	adds	r3, #36	; 0x24
 8000df8:	b29a      	uxth	r2, r3
 8000dfa:	88bb      	ldrh	r3, [r7, #4]
 8000dfc:	4610      	mov	r0, r2
 8000dfe:	4619      	mov	r1, r3
 8000e00:	f7ff fd3c 	bl	800087c <spi_dma_send2B>
}
 8000e04:	3708      	adds	r7, #8
 8000e06:	46bd      	mov	sp, r7
 8000e08:	bd80      	pop	{r7, pc}
 8000e0a:	bf00      	nop

08000e0c <get_RXRSR>:

static uint16_t get_RXRSR(uint8_t sck_fd)
{
 8000e0c:	b580      	push	{r7, lr}
 8000e0e:	b084      	sub	sp, #16
 8000e10:	af00      	add	r7, sp, #0
 8000e12:	4603      	mov	r3, r0
 8000e14:	71fb      	strb	r3, [r7, #7]
	uint8_t var[2]; 
	spi_dma_read(W5200_Sn_RX_RSR(sck_fd), 2);
 8000e16:	79fb      	ldrb	r3, [r7, #7]
 8000e18:	b29b      	uxth	r3, r3
 8000e1a:	021b      	lsls	r3, r3, #8
 8000e1c:	b29b      	uxth	r3, r3
 8000e1e:	f503 4380 	add.w	r3, r3, #16384	; 0x4000
 8000e22:	3326      	adds	r3, #38	; 0x26
 8000e24:	b29b      	uxth	r3, r3
 8000e26:	4618      	mov	r0, r3
 8000e28:	2102      	movs	r1, #2
 8000e2a:	f7ff fdc5 	bl	80009b8 <spi_dma_read>
	memcpy(&var, bufferRX+4, 2);
 8000e2e:	4a08      	ldr	r2, [pc, #32]	; (8000e50 <get_RXRSR+0x44>)
 8000e30:	f107 030c 	add.w	r3, r7, #12
 8000e34:	8812      	ldrh	r2, [r2, #0]
 8000e36:	801a      	strh	r2, [r3, #0]
	
	return ((var[0] << 8) | var[1] );
 8000e38:	7b3b      	ldrb	r3, [r7, #12]
 8000e3a:	021b      	lsls	r3, r3, #8
 8000e3c:	b29a      	uxth	r2, r3
 8000e3e:	7b7b      	ldrb	r3, [r7, #13]
 8000e40:	4313      	orrs	r3, r2
 8000e42:	b29b      	uxth	r3, r3
 8000e44:	b29b      	uxth	r3, r3

}
 8000e46:	4618      	mov	r0, r3
 8000e48:	3710      	adds	r7, #16
 8000e4a:	46bd      	mov	sp, r7
 8000e4c:	bd80      	pop	{r7, pc}
 8000e4e:	bf00      	nop
 8000e50:	20013208 	.word	0x20013208

08000e54 <get_RXRD>:

static uint16_t get_RXRD(uint8_t sck_fd)
{
 8000e54:	b580      	push	{r7, lr}
 8000e56:	b084      	sub	sp, #16
 8000e58:	af00      	add	r7, sp, #0
 8000e5a:	4603      	mov	r3, r0
 8000e5c:	71fb      	strb	r3, [r7, #7]
	uint8_t var[2]; 
	spi_dma_read(W5200_Sn_RX_RD(sck_fd), 2 );
 8000e5e:	79fb      	ldrb	r3, [r7, #7]
 8000e60:	b29b      	uxth	r3, r3
 8000e62:	021b      	lsls	r3, r3, #8
 8000e64:	b29b      	uxth	r3, r3
 8000e66:	f503 4380 	add.w	r3, r3, #16384	; 0x4000
 8000e6a:	3328      	adds	r3, #40	; 0x28
 8000e6c:	b29b      	uxth	r3, r3
 8000e6e:	4618      	mov	r0, r3
 8000e70:	2102      	movs	r1, #2
 8000e72:	f7ff fda1 	bl	80009b8 <spi_dma_read>
	memcpy(&var, bufferRX+4, 2);
 8000e76:	4a08      	ldr	r2, [pc, #32]	; (8000e98 <get_RXRD+0x44>)
 8000e78:	f107 030c 	add.w	r3, r7, #12
 8000e7c:	8812      	ldrh	r2, [r2, #0]
 8000e7e:	801a      	strh	r2, [r3, #0]
	
	return ((var[0] << 8) | var[1] );
 8000e80:	7b3b      	ldrb	r3, [r7, #12]
 8000e82:	021b      	lsls	r3, r3, #8
 8000e84:	b29a      	uxth	r2, r3
 8000e86:	7b7b      	ldrb	r3, [r7, #13]
 8000e88:	4313      	orrs	r3, r2
 8000e8a:	b29b      	uxth	r3, r3
 8000e8c:	b29b      	uxth	r3, r3
}
 8000e8e:	4618      	mov	r0, r3
 8000e90:	3710      	adds	r7, #16
 8000e92:	46bd      	mov	sp, r7
 8000e94:	bd80      	pop	{r7, pc}
 8000e96:	bf00      	nop
 8000e98:	20013208 	.word	0x20013208

08000e9c <set_RXRD>:

static void set_RXRD(uint8_t sck_fd, uint16_t val)
{
 8000e9c:	b580      	push	{r7, lr}
 8000e9e:	b082      	sub	sp, #8
 8000ea0:	af00      	add	r7, sp, #0
 8000ea2:	4602      	mov	r2, r0
 8000ea4:	460b      	mov	r3, r1
 8000ea6:	71fa      	strb	r2, [r7, #7]
 8000ea8:	80bb      	strh	r3, [r7, #4]
	spi_dma_send2B(W5200_Sn_RX_RD(sck_fd), val);
 8000eaa:	79fb      	ldrb	r3, [r7, #7]
 8000eac:	b29b      	uxth	r3, r3
 8000eae:	021b      	lsls	r3, r3, #8
 8000eb0:	b29b      	uxth	r3, r3
 8000eb2:	f503 4380 	add.w	r3, r3, #16384	; 0x4000
 8000eb6:	3328      	adds	r3, #40	; 0x28
 8000eb8:	b29a      	uxth	r2, r3
 8000eba:	88bb      	ldrh	r3, [r7, #4]
 8000ebc:	4610      	mov	r0, r2
 8000ebe:	4619      	mov	r1, r3
 8000ec0:	f7ff fcdc 	bl	800087c <spi_dma_send2B>
}
 8000ec4:	3708      	adds	r7, #8
 8000ec6:	46bd      	mov	sp, r7
 8000ec8:	bd80      	pop	{r7, pc}
 8000eca:	bf00      	nop

08000ecc <write_memory>:
//		func write_memory 
//===============================================================================================//


void write_memory(uint8_t sck_fd, uint16_t write_ptr, uint8_t *buf, uint16_t len)
{
 8000ecc:	b580      	push	{r7, lr}
 8000ece:	b086      	sub	sp, #24
 8000ed0:	af00      	add	r7, sp, #0
 8000ed2:	60ba      	str	r2, [r7, #8]
 8000ed4:	4602      	mov	r2, r0
 8000ed6:	73fa      	strb	r2, [r7, #15]
 8000ed8:	460a      	mov	r2, r1
 8000eda:	81ba      	strh	r2, [r7, #12]
 8000edc:	80fb      	strh	r3, [r7, #6]
	*/
	uint16_t	memory_addr, offset;
	uint16_t	upper_size, left_size;

	// calculate offset address 
	offset = write_ptr & 0x07ff;
 8000ede:	89bb      	ldrh	r3, [r7, #12]
 8000ee0:	f3c3 030a 	ubfx	r3, r3, #0, #11
 8000ee4:	82fb      	strh	r3, [r7, #22]

	// calculate physical memory start address
	memory_addr = W5200_SOCKET_TX_BASE(sck_fd)  + offset;
 8000ee6:	7bfb      	ldrb	r3, [r7, #15]
 8000ee8:	b29b      	uxth	r3, r3
 8000eea:	00db      	lsls	r3, r3, #3
 8000eec:	b29b      	uxth	r3, r3
 8000eee:	021b      	lsls	r3, r3, #8
 8000ef0:	b29a      	uxth	r2, r3
 8000ef2:	8afb      	ldrh	r3, [r7, #22]
 8000ef4:	4413      	add	r3, r2
 8000ef6:	b29b      	uxth	r3, r3
 8000ef8:	f5a3 4300 	sub.w	r3, r3, #32768	; 0x8000
 8000efc:	82bb      	strh	r3, [r7, #20]

	// if overflow socket TX memory ?
	if(offset + len > W5200_Sn_TXMEM_SIZE(sck_fd) +1 ){
 8000efe:	8afa      	ldrh	r2, [r7, #22]
 8000f00:	88fb      	ldrh	r3, [r7, #6]
 8000f02:	441a      	add	r2, r3
 8000f04:	7bfb      	ldrb	r3, [r7, #15]
 8000f06:	021b      	lsls	r3, r3, #8
 8000f08:	f503 4380 	add.w	r3, r3, #16384	; 0x4000
 8000f0c:	3320      	adds	r3, #32
 8000f0e:	429a      	cmp	r2, r3
 8000f10:	dd2a      	ble.n	8000f68 <write_memory+0x9c>

		// copy upper_size bytes
		upper_size = W5200_SOCKET_TX_BASE(sck_fd) - offset;
 8000f12:	7bfb      	ldrb	r3, [r7, #15]
 8000f14:	b29b      	uxth	r3, r3
 8000f16:	00db      	lsls	r3, r3, #3
 8000f18:	b29b      	uxth	r3, r3
 8000f1a:	021b      	lsls	r3, r3, #8
 8000f1c:	b29a      	uxth	r2, r3
 8000f1e:	8afb      	ldrh	r3, [r7, #22]
 8000f20:	1ad3      	subs	r3, r2, r3
 8000f22:	b29b      	uxth	r3, r3
 8000f24:	f5a3 4300 	sub.w	r3, r3, #32768	; 0x8000
 8000f28:	827b      	strh	r3, [r7, #18]
		spi_dma_send( memory_addr,upper_size, buf);
 8000f2a:	8aba      	ldrh	r2, [r7, #20]
 8000f2c:	8a7b      	ldrh	r3, [r7, #18]
 8000f2e:	4610      	mov	r0, r2
 8000f30:	4619      	mov	r1, r3
 8000f32:	68ba      	ldr	r2, [r7, #8]
 8000f34:	f7ff fc1a 	bl	800076c <spi_dma_send>
		buf += upper_size;
 8000f38:	8a7b      	ldrh	r3, [r7, #18]
 8000f3a:	68ba      	ldr	r2, [r7, #8]
 8000f3c:	4413      	add	r3, r2
 8000f3e:	60bb      	str	r3, [r7, #8]

		// copy left size bytes
		left_size = len - upper_size;
 8000f40:	88fa      	ldrh	r2, [r7, #6]
 8000f42:	8a7b      	ldrh	r3, [r7, #18]
 8000f44:	1ad3      	subs	r3, r2, r3
 8000f46:	823b      	strh	r3, [r7, #16]
		spi_dma_send( W5200_SOCKET_TX_BASE(sck_fd),
 8000f48:	7bfb      	ldrb	r3, [r7, #15]
 8000f4a:	b29b      	uxth	r3, r3
 8000f4c:	00db      	lsls	r3, r3, #3
 8000f4e:	b29b      	uxth	r3, r3
 8000f50:	021b      	lsls	r3, r3, #8
 8000f52:	b29b      	uxth	r3, r3
 8000f54:	f5a3 4300 	sub.w	r3, r3, #32768	; 0x8000
 8000f58:	b29a      	uxth	r2, r3
 8000f5a:	8a3b      	ldrh	r3, [r7, #16]
 8000f5c:	4610      	mov	r0, r2
 8000f5e:	4619      	mov	r1, r3
 8000f60:	68ba      	ldr	r2, [r7, #8]
 8000f62:	f7ff fc03 	bl	800076c <spi_dma_send>
 8000f66:	e006      	b.n	8000f76 <write_memory+0xaa>
		left_size,  buf);

	}else{

		// copy len size bytes
		spi_dma_send( memory_addr,len,  buf);
 8000f68:	8aba      	ldrh	r2, [r7, #20]
 8000f6a:	88fb      	ldrh	r3, [r7, #6]
 8000f6c:	4610      	mov	r0, r2
 8000f6e:	4619      	mov	r1, r3
 8000f70:	68ba      	ldr	r2, [r7, #8]
 8000f72:	f7ff fbfb 	bl	800076c <spi_dma_send>
	}
}
 8000f76:	3718      	adds	r7, #24
 8000f78:	46bd      	mov	sp, r7
 8000f7a:	bd80      	pop	{r7, pc}

08000f7c <read_memory>:
// 			func read_memory
//==================================================================================//


void	read_memory(uint8_t sck_fd, uint16_t read_ptr, uint8_t *buf, uint16_t len)
{
 8000f7c:	b580      	push	{r7, lr}
 8000f7e:	b086      	sub	sp, #24
 8000f80:	af00      	add	r7, sp, #0
 8000f82:	60ba      	str	r2, [r7, #8]
 8000f84:	4602      	mov	r2, r0
 8000f86:	73fa      	strb	r2, [r7, #15]
 8000f88:	460a      	mov	r2, r1
 8000f8a:	81ba      	strh	r2, [r7, #12]
 8000f8c:	80fb      	strh	r3, [r7, #6]

	uint16_t	memory_addr, offset;
	uint16_t	upper_size, left_size;

	// calculate offset address 
	offset = read_ptr & 0x07ff;
 8000f8e:	89bb      	ldrh	r3, [r7, #12]
 8000f90:	f3c3 030a 	ubfx	r3, r3, #0, #11
 8000f94:	82fb      	strh	r3, [r7, #22]

	// calculate physical memory start address
	memory_addr = W5200_SOCKET_RX_BASE(sck_fd)  + offset;
 8000f96:	7bfb      	ldrb	r3, [r7, #15]
 8000f98:	b29b      	uxth	r3, r3
 8000f9a:	00db      	lsls	r3, r3, #3
 8000f9c:	b29b      	uxth	r3, r3
 8000f9e:	021b      	lsls	r3, r3, #8
 8000fa0:	b29a      	uxth	r2, r3
 8000fa2:	8afb      	ldrh	r3, [r7, #22]
 8000fa4:	4413      	add	r3, r2
 8000fa6:	b29b      	uxth	r3, r3
 8000fa8:	f5a3 4380 	sub.w	r3, r3, #16384	; 0x4000
 8000fac:	82bb      	strh	r3, [r7, #20]

	// if overflow socket RX memory ?
	if(offset + len > 0x0800){
 8000fae:	8afa      	ldrh	r2, [r7, #22]
 8000fb0:	88fb      	ldrh	r3, [r7, #6]
 8000fb2:	4413      	add	r3, r2
 8000fb4:	f5b3 6f00 	cmp.w	r3, #2048	; 0x800
 8000fb8:	dd2f      	ble.n	800101a <read_memory+0x9e>

		// copy upper_size bytes
		upper_size = 0x0800 - offset;
 8000fba:	8afb      	ldrh	r3, [r7, #22]
 8000fbc:	f5c3 6300 	rsb	r3, r3, #2048	; 0x800
 8000fc0:	827b      	strh	r3, [r7, #18]
		spi_dma_read( memory_addr,upper_size);
 8000fc2:	8aba      	ldrh	r2, [r7, #20]
 8000fc4:	8a7b      	ldrh	r3, [r7, #18]
 8000fc6:	4610      	mov	r0, r2
 8000fc8:	4619      	mov	r1, r3
 8000fca:	f7ff fcf5 	bl	80009b8 <spi_dma_read>
		memcpy(buf, bufferRX+4, upper_size);
 8000fce:	8a7b      	ldrh	r3, [r7, #18]
 8000fd0:	68b8      	ldr	r0, [r7, #8]
 8000fd2:	4919      	ldr	r1, [pc, #100]	; (8001038 <read_memory+0xbc>)
 8000fd4:	461a      	mov	r2, r3
 8000fd6:	f7ff f901 	bl	80001dc <memcpy>

		buf += upper_size;
 8000fda:	8a7b      	ldrh	r3, [r7, #18]
 8000fdc:	68ba      	ldr	r2, [r7, #8]
 8000fde:	4413      	add	r3, r2
 8000fe0:	60bb      	str	r3, [r7, #8]

		// copy left size bytes
		left_size = len - upper_size;
 8000fe2:	88fa      	ldrh	r2, [r7, #6]
 8000fe4:	8a7b      	ldrh	r3, [r7, #18]
 8000fe6:	1ad3      	subs	r3, r2, r3
 8000fe8:	823b      	strh	r3, [r7, #16]
		spi_dma_read(W5200_SOCKET_RX_BASE(sck_fd), left_size);
 8000fea:	7bfb      	ldrb	r3, [r7, #15]
 8000fec:	b29b      	uxth	r3, r3
 8000fee:	00db      	lsls	r3, r3, #3
 8000ff0:	b29b      	uxth	r3, r3
 8000ff2:	021b      	lsls	r3, r3, #8
 8000ff4:	b29b      	uxth	r3, r3
 8000ff6:	f5a3 4380 	sub.w	r3, r3, #16384	; 0x4000
 8000ffa:	b29a      	uxth	r2, r3
 8000ffc:	8a3b      	ldrh	r3, [r7, #16]
 8000ffe:	4610      	mov	r0, r2
 8001000:	4619      	mov	r1, r3
 8001002:	f7ff fcd9 	bl	80009b8 <spi_dma_read>
		memcpy(buf+upper_size, bufferRX+4, left_size);
 8001006:	8a7b      	ldrh	r3, [r7, #18]
 8001008:	68ba      	ldr	r2, [r7, #8]
 800100a:	441a      	add	r2, r3
 800100c:	8a3b      	ldrh	r3, [r7, #16]
 800100e:	4610      	mov	r0, r2
 8001010:	4909      	ldr	r1, [pc, #36]	; (8001038 <read_memory+0xbc>)
 8001012:	461a      	mov	r2, r3
 8001014:	f7ff f8e2 	bl	80001dc <memcpy>
 8001018:	e00b      	b.n	8001032 <read_memory+0xb6>
	}else{

		// copy len size bytes
		spi_dma_read( memory_addr,len);
 800101a:	8aba      	ldrh	r2, [r7, #20]
 800101c:	88fb      	ldrh	r3, [r7, #6]
 800101e:	4610      	mov	r0, r2
 8001020:	4619      	mov	r1, r3
 8001022:	f7ff fcc9 	bl	80009b8 <spi_dma_read>
		memcpy(buf, bufferRX+4, len);
 8001026:	88fb      	ldrh	r3, [r7, #6]
 8001028:	68b8      	ldr	r0, [r7, #8]
 800102a:	4903      	ldr	r1, [pc, #12]	; (8001038 <read_memory+0xbc>)
 800102c:	461a      	mov	r2, r3
 800102e:	f7ff f8d5 	bl	80001dc <memcpy>
	}
}
 8001032:	3718      	adds	r7, #24
 8001034:	46bd      	mov	sp, r7
 8001036:	bd80      	pop	{r7, pc}
 8001038:	20013208 	.word	0x20013208

0800103c <socket>:
	socket()	create socket, handle open
		ip_proto, RAW mode only.
===========================================================================*/

uint8_t	socket(uint8_t  mode, uint16_t  port, uint8_t ip_proto)
{
 800103c:	b580      	push	{r7, lr}
 800103e:	b084      	sub	sp, #16
 8001040:	af00      	add	r7, sp, #0
 8001042:	4613      	mov	r3, r2
 8001044:	4602      	mov	r2, r0
 8001046:	71fa      	strb	r2, [r7, #7]
 8001048:	460a      	mov	r2, r1
 800104a:	80ba      	strh	r2, [r7, #4]
 800104c:	71bb      	strb	r3, [r7, #6]
	uint8_t	sck_fd;
	uint8_t	stat;

	// check free socket exists? 
	for(sck_fd = 0; sck_fd < W5200_MAX_SOCKETS; sck_fd++){
 800104e:	2300      	movs	r3, #0
 8001050:	73fb      	strb	r3, [r7, #15]
 8001052:	e00c      	b.n	800106e <socket+0x32>
		if(socket_flg[sck_fd] == 0){
 8001054:	7bfb      	ldrb	r3, [r7, #15]
 8001056:	4a4c      	ldr	r2, [pc, #304]	; (8001188 <socket+0x14c>)
 8001058:	5cd3      	ldrb	r3, [r2, r3]
 800105a:	2b00      	cmp	r3, #0
 800105c:	d104      	bne.n	8001068 <socket+0x2c>
			socket_flg[sck_fd] = 1;
 800105e:	7bfb      	ldrb	r3, [r7, #15]
 8001060:	4a49      	ldr	r2, [pc, #292]	; (8001188 <socket+0x14c>)
 8001062:	2101      	movs	r1, #1
 8001064:	54d1      	strb	r1, [r2, r3]
			break;
 8001066:	e005      	b.n	8001074 <socket+0x38>
{
	uint8_t	sck_fd;
	uint8_t	stat;

	// check free socket exists? 
	for(sck_fd = 0; sck_fd < W5200_MAX_SOCKETS; sck_fd++){
 8001068:	7bfb      	ldrb	r3, [r7, #15]
 800106a:	3301      	adds	r3, #1
 800106c:	73fb      	strb	r3, [r7, #15]
 800106e:	7bfb      	ldrb	r3, [r7, #15]
 8001070:	2b07      	cmp	r3, #7
 8001072:	d9ef      	bls.n	8001054 <socket+0x18>
		if(socket_flg[sck_fd] == 0){
			socket_flg[sck_fd] = 1;
			break;
		}
	}
	if(sck_fd >= W5200_MAX_SOCKETS) return -1;	// no more sockets.
 8001074:	7bfb      	ldrb	r3, [r7, #15]
 8001076:	2b07      	cmp	r3, #7
 8001078:	d901      	bls.n	800107e <socket+0x42>
 800107a:	23ff      	movs	r3, #255	; 0xff
 800107c:	e07f      	b.n	800117e <socket+0x142>
	// check mode parameter
	if((mode & 0x0f) > W5200_MR_PPPOE_ENABLE) return -1;	// mode error.
 800107e:	79fb      	ldrb	r3, [r7, #7]
 8001080:	f003 030f 	and.w	r3, r3, #15
 8001084:	2b08      	cmp	r3, #8
 8001086:	dd01      	ble.n	800108c <socket+0x50>
 8001088:	23ff      	movs	r3, #255	; 0xff
 800108a:	e078      	b.n	800117e <socket+0x142>
	if(((mode & 0x0f) != W5200_Sn_MR_UDP) && (mode & W5200_Sn_MR_MULTI)) return -1; // MULTI is UDP only.
 800108c:	79fb      	ldrb	r3, [r7, #7]
 800108e:	f003 030f 	and.w	r3, r3, #15
 8001092:	2b02      	cmp	r3, #2
 8001094:	d005      	beq.n	80010a2 <socket+0x66>
 8001096:	79fb      	ldrb	r3, [r7, #7]
 8001098:	b25b      	sxtb	r3, r3
 800109a:	2b00      	cmp	r3, #0
 800109c:	da01      	bge.n	80010a2 <socket+0x66>
 800109e:	23ff      	movs	r3, #255	; 0xff
 80010a0:	e06d      	b.n	800117e <socket+0x142>
	if(((mode & 0x0f) != W5200_Sn_MR_TCP) && (mode & W5200_Sn_MR_ND)) return -1; // ND is TCP only.
 80010a2:	79fb      	ldrb	r3, [r7, #7]
 80010a4:	f003 030f 	and.w	r3, r3, #15
 80010a8:	2b01      	cmp	r3, #1
 80010aa:	d006      	beq.n	80010ba <socket+0x7e>
 80010ac:	79fb      	ldrb	r3, [r7, #7]
 80010ae:	f003 0320 	and.w	r3, r3, #32
 80010b2:	2b00      	cmp	r3, #0
 80010b4:	d001      	beq.n	80010ba <socket+0x7e>
 80010b6:	23ff      	movs	r3, #255	; 0xff
 80010b8:	e061      	b.n	800117e <socket+0x142>

	// set MODE register
	spi_dma_sendByte(W5200_Sn_MR(sck_fd) , mode);
 80010ba:	7bfb      	ldrb	r3, [r7, #15]
 80010bc:	b29b      	uxth	r3, r3
 80010be:	021b      	lsls	r3, r3, #8
 80010c0:	b29b      	uxth	r3, r3
 80010c2:	f503 4380 	add.w	r3, r3, #16384	; 0x4000
 80010c6:	b29a      	uxth	r2, r3
 80010c8:	79fb      	ldrb	r3, [r7, #7]
 80010ca:	4610      	mov	r0, r2
 80010cc:	4619      	mov	r1, r3
 80010ce:	f7ff fc27 	bl	8000920 <spi_dma_sendByte>
	//socket_mode[sck_fd] = mode & 0x0f;	// omitting ND/MULTICAST
	mode &= 0x0f;
 80010d2:	79fb      	ldrb	r3, [r7, #7]
 80010d4:	f003 030f 	and.w	r3, r3, #15
 80010d8:	71fb      	strb	r3, [r7, #7]

	uint8_t prt[2];

	// set PORT, PROTOCOL 
	switch(mode){
 80010da:	79fb      	ldrb	r3, [r7, #7]
 80010dc:	2b01      	cmp	r3, #1
 80010de:	db29      	blt.n	8001134 <socket+0xf8>
 80010e0:	2b02      	cmp	r3, #2
 80010e2:	dd02      	ble.n	80010ea <socket+0xae>
 80010e4:	2b03      	cmp	r3, #3
 80010e6:	d018      	beq.n	800111a <socket+0xde>
 80010e8:	e024      	b.n	8001134 <socket+0xf8>
	case W5200_Sn_MR_TCP:
	case W5200_Sn_MR_UDP:

		// split port for sending on two 8bits
		prt[0] = (port & 0xff00) >> 8;
 80010ea:	88bb      	ldrh	r3, [r7, #4]
 80010ec:	0a1b      	lsrs	r3, r3, #8
 80010ee:	b29b      	uxth	r3, r3
 80010f0:	b2db      	uxtb	r3, r3
 80010f2:	733b      	strb	r3, [r7, #12]
		prt[1] =  (port & 0x00ff);
 80010f4:	88bb      	ldrh	r3, [r7, #4]
 80010f6:	b2db      	uxtb	r3, r3
 80010f8:	737b      	strb	r3, [r7, #13]
		spi_dma_send(W5200_Sn_PORT(sck_fd), 2 , prt);
 80010fa:	7bfb      	ldrb	r3, [r7, #15]
 80010fc:	b29b      	uxth	r3, r3
 80010fe:	021b      	lsls	r3, r3, #8
 8001100:	b29b      	uxth	r3, r3
 8001102:	f503 4380 	add.w	r3, r3, #16384	; 0x4000
 8001106:	3304      	adds	r3, #4
 8001108:	b29a      	uxth	r2, r3
 800110a:	f107 030c 	add.w	r3, r7, #12
 800110e:	4610      	mov	r0, r2
 8001110:	2102      	movs	r1, #2
 8001112:	461a      	mov	r2, r3
 8001114:	f7ff fb2a 	bl	800076c <spi_dma_send>
		
		break;
 8001118:	e00c      	b.n	8001134 <socket+0xf8>
	case W5200_Sn_MR_IPRAW:
		spi_dma_sendByte(W5200_Sn_PROTO(sck_fd), ip_proto);
 800111a:	7bfb      	ldrb	r3, [r7, #15]
 800111c:	b29b      	uxth	r3, r3
 800111e:	021b      	lsls	r3, r3, #8
 8001120:	b29b      	uxth	r3, r3
 8001122:	f503 4380 	add.w	r3, r3, #16384	; 0x4000
 8001126:	3314      	adds	r3, #20
 8001128:	b29a      	uxth	r2, r3
 800112a:	79bb      	ldrb	r3, [r7, #6]
 800112c:	4610      	mov	r0, r2
 800112e:	4619      	mov	r1, r3
 8001130:	f7ff fbf6 	bl	8000920 <spi_dma_sendByte>
	}

	// execute socket open
	spi_dma_sendByte(W5200_Sn_CR(sck_fd), W5200_Sn_CR_OPEN);
 8001134:	7bfb      	ldrb	r3, [r7, #15]
 8001136:	b29b      	uxth	r3, r3
 8001138:	021b      	lsls	r3, r3, #8
 800113a:	b29b      	uxth	r3, r3
 800113c:	f503 4380 	add.w	r3, r3, #16384	; 0x4000
 8001140:	3301      	adds	r3, #1
 8001142:	b29b      	uxth	r3, r3
 8001144:	4618      	mov	r0, r3
 8001146:	2101      	movs	r1, #1
 8001148:	f7ff fbea 	bl	8000920 <spi_dma_sendByte>
	// wait command complete.
	while(get_CRStatus(sck_fd)  != 0);	// 0 value is command complete. 
 800114c:	bf00      	nop
 800114e:	7bfb      	ldrb	r3, [r7, #15]
 8001150:	4618      	mov	r0, r3
 8001152:	f7ff fd9f 	bl	8000c94 <get_CRStatus>
 8001156:	4603      	mov	r3, r0
 8001158:	2b00      	cmp	r3, #0
 800115a:	d1f8      	bne.n	800114e <socket+0x112>

	// check status
	if(stat = get_SRStatus(sck_fd) != W5200_Sn_SR_SOCK_INIT) return -1;
 800115c:	7bfb      	ldrb	r3, [r7, #15]
 800115e:	4618      	mov	r0, r3
 8001160:	f7ff fdb4 	bl	8000ccc <get_SRStatus>
 8001164:	4603      	mov	r3, r0
 8001166:	2b13      	cmp	r3, #19
 8001168:	bf0c      	ite	eq
 800116a:	2300      	moveq	r3, #0
 800116c:	2301      	movne	r3, #1
 800116e:	b2db      	uxtb	r3, r3
 8001170:	73bb      	strb	r3, [r7, #14]
 8001172:	7bbb      	ldrb	r3, [r7, #14]
 8001174:	2b00      	cmp	r3, #0
 8001176:	d001      	beq.n	800117c <socket+0x140>
 8001178:	23ff      	movs	r3, #255	; 0xff
 800117a:	e000      	b.n	800117e <socket+0x142>

	// success return
	return sck_fd;
 800117c:	7bfb      	ldrb	r3, [r7, #15]
}
 800117e:	4618      	mov	r0, r3
 8001180:	3710      	adds	r7, #16
 8001182:	46bd      	mov	sp, r7
 8001184:	bd80      	pop	{r7, pc}
 8001186:	bf00      	nop
 8001188:	20000480 	.word	0x20000480

0800118c <send>:
/*==========================================================================
	send()	send *buf to  (TCP only)
===========================================================================*/

int	send(uint8_t sck_fd, uint8_t *buf, uint16_t len, uint16_t flag)
{
 800118c:	e92d 43f0 	stmdb	sp!, {r4, r5, r6, r7, r8, r9, lr}
 8001190:	b08b      	sub	sp, #44	; 0x2c
 8001192:	af00      	add	r7, sp, #0
 8001194:	60b9      	str	r1, [r7, #8]
 8001196:	4601      	mov	r1, r0
 8001198:	73f9      	strb	r1, [r7, #15]
 800119a:	81ba      	strh	r2, [r7, #12]
 800119c:	80fb      	strh	r3, [r7, #6]
	uint16_t	send_size;
	uint16_t	write_ptr;
	uint16_t status = get_SRStatus(sck_fd);
 800119e:	7bfb      	ldrb	r3, [r7, #15]
 80011a0:	4618      	mov	r0, r3
 80011a2:	f7ff fd93 	bl	8000ccc <get_SRStatus>
 80011a6:	4603      	mov	r3, r0
 80011a8:	84bb      	strh	r3, [r7, #36]	; 0x24
	// check socket asign flag
	if(sck_fd < 0 || sck_fd >= W5200_MAX_SOCKETS ||  socket_flg[sck_fd] != 1) return -1;
 80011aa:	7bfb      	ldrb	r3, [r7, #15]
 80011ac:	2b07      	cmp	r3, #7
 80011ae:	d804      	bhi.n	80011ba <send+0x2e>
 80011b0:	7bfb      	ldrb	r3, [r7, #15]
 80011b2:	4a56      	ldr	r2, [pc, #344]	; (800130c <send+0x180>)
 80011b4:	5cd3      	ldrb	r3, [r2, r3]
 80011b6:	2b01      	cmp	r3, #1
 80011b8:	d002      	beq.n	80011c0 <send+0x34>
 80011ba:	f04f 33ff 	mov.w	r3, #4294967295	; 0xffffffff
 80011be:	e0a0      	b.n	8001302 <send+0x176>

	// check parameter
	if(buf == NULL || len == 0) return -1;
 80011c0:	68bb      	ldr	r3, [r7, #8]
 80011c2:	2b00      	cmp	r3, #0
 80011c4:	d002      	beq.n	80011cc <send+0x40>
 80011c6:	89bb      	ldrh	r3, [r7, #12]
 80011c8:	2b00      	cmp	r3, #0
 80011ca:	d102      	bne.n	80011d2 <send+0x46>
 80011cc:	f04f 33ff 	mov.w	r3, #4294967295	; 0xffffffff
 80011d0:	e097      	b.n	8001302 <send+0x176>
	
	// check status
	if(get_SRStatus(sck_fd) != W5200_Sn_SR_SOCK_ESTABLISHED) return 0; // closing or fin close wait.
 80011d2:	7bfb      	ldrb	r3, [r7, #15]
 80011d4:	4618      	mov	r0, r3
 80011d6:	f7ff fd79 	bl	8000ccc <get_SRStatus>
 80011da:	4603      	mov	r3, r0
 80011dc:	2b17      	cmp	r3, #23
 80011de:	d001      	beq.n	80011e4 <send+0x58>
 80011e0:	2300      	movs	r3, #0
 80011e2:	e08e      	b.n	8001302 <send+0x176>

	// check TX memory free size?
	while((send_size = get_TXFSRStatus(sck_fd)) == 0){
 80011e4:	e004      	b.n	80011f0 <send+0x64>
		if(flag == 1) return 0;	// NONE BLOCKING
 80011e6:	88fb      	ldrh	r3, [r7, #6]
 80011e8:	2b01      	cmp	r3, #1
 80011ea:	d101      	bne.n	80011f0 <send+0x64>
 80011ec:	2300      	movs	r3, #0
 80011ee:	e088      	b.n	8001302 <send+0x176>
	
	// check status
	if(get_SRStatus(sck_fd) != W5200_Sn_SR_SOCK_ESTABLISHED) return 0; // closing or fin close wait.

	// check TX memory free size?
	while((send_size = get_TXFSRStatus(sck_fd)) == 0){
 80011f0:	7bfb      	ldrb	r3, [r7, #15]
 80011f2:	4618      	mov	r0, r3
 80011f4:	f7ff fd86 	bl	8000d04 <get_TXFSRStatus>
 80011f8:	4603      	mov	r3, r0
 80011fa:	84fb      	strh	r3, [r7, #38]	; 0x26
 80011fc:	8cfb      	ldrh	r3, [r7, #38]	; 0x26
 80011fe:	2b00      	cmp	r3, #0
 8001200:	d0f1      	beq.n	80011e6 <send+0x5a>
		if(flag == 1) return 0;	// NONE BLOCKING
	}

	// get write pointer
	write_ptr = get_TXWRStatus(sck_fd);
 8001202:	7bfb      	ldrb	r3, [r7, #15]
 8001204:	4618      	mov	r0, r3
 8001206:	f7ff fda1 	bl	8000d4c <get_TXWRStatus>
 800120a:	4603      	mov	r3, r0
 800120c:	847b      	strh	r3, [r7, #34]	; 0x22

	// check write length
	if(send_size > len) send_size = len;
 800120e:	8cfa      	ldrh	r2, [r7, #38]	; 0x26
 8001210:	89bb      	ldrh	r3, [r7, #12]
 8001212:	429a      	cmp	r2, r3
 8001214:	d901      	bls.n	800121a <send+0x8e>
 8001216:	89bb      	ldrh	r3, [r7, #12]
 8001218:	84fb      	strh	r3, [r7, #38]	; 0x26

	// data write to memory
	write_memory(sck_fd, write_ptr, buf, send_size);
 800121a:	7bf9      	ldrb	r1, [r7, #15]
 800121c:	8c7a      	ldrh	r2, [r7, #34]	; 0x22
 800121e:	8cfb      	ldrh	r3, [r7, #38]	; 0x26
 8001220:	4608      	mov	r0, r1
 8001222:	4611      	mov	r1, r2
 8001224:	68ba      	ldr	r2, [r7, #8]
 8001226:	f7ff fe51 	bl	8000ecc <write_memory>

	// pointer update
	write_ptr += send_size;
 800122a:	8c7a      	ldrh	r2, [r7, #34]	; 0x22
 800122c:	8cfb      	ldrh	r3, [r7, #38]	; 0x26
 800122e:	4413      	add	r3, r2
 8001230:	847b      	strh	r3, [r7, #34]	; 0x22
	set_TXWR(sck_fd, write_ptr);
 8001232:	7bfa      	ldrb	r2, [r7, #15]
 8001234:	8c7b      	ldrh	r3, [r7, #34]	; 0x22
 8001236:	4610      	mov	r0, r2
 8001238:	4619      	mov	r1, r3
 800123a:	f7ff fdcf 	bl	8000ddc <set_TXWR>
		
	// test function 
	

	uint16_t start = get_TXRD(sck_fd);
 800123e:	7bfb      	ldrb	r3, [r7, #15]
 8001240:	4618      	mov	r0, r3
 8001242:	f7ff fda7 	bl	8000d94 <get_TXRD>
 8001246:	4603      	mov	r3, r0
 8001248:	843b      	strh	r3, [r7, #32]
	uint16_t end   = get_TXWRStatus(sck_fd); 
 800124a:	7bfb      	ldrb	r3, [r7, #15]
 800124c:	4618      	mov	r0, r3
 800124e:	f7ff fd7d 	bl	8000d4c <get_TXWRStatus>
 8001252:	4603      	mov	r3, r0
 8001254:	83fb      	strh	r3, [r7, #30]
	uint8_t data [write_ptr-start]; 	
 8001256:	8c7a      	ldrh	r2, [r7, #34]	; 0x22
 8001258:	8c3b      	ldrh	r3, [r7, #32]
 800125a:	1ad1      	subs	r1, r2, r3
 800125c:	466b      	mov	r3, sp
 800125e:	461e      	mov	r6, r3
 8001260:	1e4b      	subs	r3, r1, #1
 8001262:	61bb      	str	r3, [r7, #24]
 8001264:	460b      	mov	r3, r1
 8001266:	461a      	mov	r2, r3
 8001268:	f04f 0300 	mov.w	r3, #0
 800126c:	ea4f 09c3 	mov.w	r9, r3, lsl #3
 8001270:	ea49 7952 	orr.w	r9, r9, r2, lsr #29
 8001274:	ea4f 08c2 	mov.w	r8, r2, lsl #3
 8001278:	460b      	mov	r3, r1
 800127a:	461a      	mov	r2, r3
 800127c:	f04f 0300 	mov.w	r3, #0
 8001280:	00dd      	lsls	r5, r3, #3
 8001282:	ea45 7552 	orr.w	r5, r5, r2, lsr #29
 8001286:	00d4      	lsls	r4, r2, #3
 8001288:	460b      	mov	r3, r1
 800128a:	3307      	adds	r3, #7
 800128c:	08db      	lsrs	r3, r3, #3
 800128e:	00db      	lsls	r3, r3, #3
 8001290:	ebad 0d03 	sub.w	sp, sp, r3
 8001294:	466b      	mov	r3, sp
 8001296:	3300      	adds	r3, #0
 8001298:	617b      	str	r3, [r7, #20]
	spi_dma_read(start+0x8000, write_ptr-start );
 800129a:	8c3b      	ldrh	r3, [r7, #32]
 800129c:	f5a3 4300 	sub.w	r3, r3, #32768	; 0x8000
 80012a0:	b29a      	uxth	r2, r3
 80012a2:	8c79      	ldrh	r1, [r7, #34]	; 0x22
 80012a4:	8c3b      	ldrh	r3, [r7, #32]
 80012a6:	1acb      	subs	r3, r1, r3
 80012a8:	b29b      	uxth	r3, r3
 80012aa:	4610      	mov	r0, r2
 80012ac:	4619      	mov	r1, r3
 80012ae:	f7ff fb83 	bl	80009b8 <spi_dma_read>
	memcpy(data, bufferRX +4, write_ptr-start);
 80012b2:	697a      	ldr	r2, [r7, #20]
 80012b4:	8c79      	ldrh	r1, [r7, #34]	; 0x22
 80012b6:	8c3b      	ldrh	r3, [r7, #32]
 80012b8:	1acb      	subs	r3, r1, r3
 80012ba:	4610      	mov	r0, r2
 80012bc:	4914      	ldr	r1, [pc, #80]	; (8001310 <send+0x184>)
 80012be:	461a      	mov	r2, r3
 80012c0:	f7fe ff8c 	bl	80001dc <memcpy>

	
	// test function 
	
	// send command
	spi_dma_sendByte(W5200_Sn_CR(sck_fd), W5200_Sn_CR_SEND);
 80012c4:	7bfb      	ldrb	r3, [r7, #15]
 80012c6:	b29b      	uxth	r3, r3
 80012c8:	021b      	lsls	r3, r3, #8
 80012ca:	b29b      	uxth	r3, r3
 80012cc:	f503 4380 	add.w	r3, r3, #16384	; 0x4000
 80012d0:	3301      	adds	r3, #1
 80012d2:	b29b      	uxth	r3, r3
 80012d4:	4618      	mov	r0, r3
 80012d6:	2120      	movs	r1, #32
 80012d8:	f7ff fb22 	bl	8000920 <spi_dma_sendByte>
	// wait command complete.
	while(get_CRStatus(sck_fd) != 0);	// 0 value is command complete. 
 80012dc:	bf00      	nop
 80012de:	7bfb      	ldrb	r3, [r7, #15]
 80012e0:	4618      	mov	r0, r3
 80012e2:	f7ff fcd7 	bl	8000c94 <get_CRStatus>
 80012e6:	4603      	mov	r3, r0
 80012e8:	2b00      	cmp	r3, #0
 80012ea:	d1f8      	bne.n	80012de <send+0x152>

	// wait sending complete
	while(get_TXRD(sck_fd) != write_ptr);
 80012ec:	bf00      	nop
 80012ee:	7bfb      	ldrb	r3, [r7, #15]
 80012f0:	4618      	mov	r0, r3
 80012f2:	f7ff fd4f 	bl	8000d94 <get_TXRD>
 80012f6:	4603      	mov	r3, r0
 80012f8:	8c7a      	ldrh	r2, [r7, #34]	; 0x22
 80012fa:	429a      	cmp	r2, r3
 80012fc:	d1f7      	bne.n	80012ee <send+0x162>

	return send_size;
 80012fe:	8cfb      	ldrh	r3, [r7, #38]	; 0x26
 8001300:	46b5      	mov	sp, r6
}
 8001302:	4618      	mov	r0, r3
 8001304:	372c      	adds	r7, #44	; 0x2c
 8001306:	46bd      	mov	sp, r7
 8001308:	e8bd 83f0 	ldmia.w	sp!, {r4, r5, r6, r7, r8, r9, pc}
 800130c:	20000480 	.word	0x20000480
 8001310:	20013208 	.word	0x20013208

08001314 <recv>:
	return code is received data size.
	if received disconnect@from peer, size was set to Zero, 
===========================================================================*/

int	recv(uint8_t sck_fd, uint8_t *buf, uint16_t len, uint16_t flag)
{
 8001314:	b580      	push	{r7, lr}
 8001316:	b086      	sub	sp, #24
 8001318:	af00      	add	r7, sp, #0
 800131a:	60b9      	str	r1, [r7, #8]
 800131c:	4601      	mov	r1, r0
 800131e:	73f9      	strb	r1, [r7, #15]
 8001320:	81ba      	strh	r2, [r7, #12]
 8001322:	80fb      	strh	r3, [r7, #6]
	uint16_t	read_len;
	uint16_t	read_ptr;

	// check asign flag
	if(sck_fd < 0 || sck_fd >= W5200_MAX_SOCKETS ||  socket_flg[sck_fd] != 1) return -1;
 8001324:	7bfb      	ldrb	r3, [r7, #15]
 8001326:	2b07      	cmp	r3, #7
 8001328:	d804      	bhi.n	8001334 <recv+0x20>
 800132a:	7bfb      	ldrb	r3, [r7, #15]
 800132c:	4a31      	ldr	r2, [pc, #196]	; (80013f4 <recv+0xe0>)
 800132e:	5cd3      	ldrb	r3, [r2, r3]
 8001330:	2b01      	cmp	r3, #1
 8001332:	d002      	beq.n	800133a <recv+0x26>
 8001334:	f04f 33ff 	mov.w	r3, #4294967295	; 0xffffffff
 8001338:	e057      	b.n	80013ea <recv+0xd6>

	// check parameter
	if(buf == NULL || len == 0) return -1;
 800133a:	68bb      	ldr	r3, [r7, #8]
 800133c:	2b00      	cmp	r3, #0
 800133e:	d002      	beq.n	8001346 <recv+0x32>
 8001340:	89bb      	ldrh	r3, [r7, #12]
 8001342:	2b00      	cmp	r3, #0
 8001344:	d102      	bne.n	800134c <recv+0x38>
 8001346:	f04f 33ff 	mov.w	r3, #4294967295	; 0xffffffff
 800134a:	e04e      	b.n	80013ea <recv+0xd6>

	// check status
	if(get_SRStatus(sck_fd) != W5200_Sn_SR_SOCK_ESTABLISHED) return 0;	// closing or fin close wait.
 800134c:	7bfb      	ldrb	r3, [r7, #15]
 800134e:	4618      	mov	r0, r3
 8001350:	f7ff fcbc 	bl	8000ccc <get_SRStatus>
 8001354:	4603      	mov	r3, r0
 8001356:	2b17      	cmp	r3, #23
 8001358:	d001      	beq.n	800135e <recv+0x4a>
 800135a:	2300      	movs	r3, #0
 800135c:	e045      	b.n	80013ea <recv+0xd6>

	// received data exists?
	while((read_len = get_RXRSR(sck_fd)) == 0){
 800135e:	e004      	b.n	800136a <recv+0x56>
		if(flag == 1) return 0;	// NONE BLOCKING
 8001360:	88fb      	ldrh	r3, [r7, #6]
 8001362:	2b01      	cmp	r3, #1
 8001364:	d101      	bne.n	800136a <recv+0x56>
 8001366:	2300      	movs	r3, #0
 8001368:	e03f      	b.n	80013ea <recv+0xd6>

	// check status
	if(get_SRStatus(sck_fd) != W5200_Sn_SR_SOCK_ESTABLISHED) return 0;	// closing or fin close wait.

	// received data exists?
	while((read_len = get_RXRSR(sck_fd)) == 0){
 800136a:	7bfb      	ldrb	r3, [r7, #15]
 800136c:	4618      	mov	r0, r3
 800136e:	f7ff fd4d 	bl	8000e0c <get_RXRSR>
 8001372:	4603      	mov	r3, r0
 8001374:	82fb      	strh	r3, [r7, #22]
 8001376:	8afb      	ldrh	r3, [r7, #22]
 8001378:	2b00      	cmp	r3, #0
 800137a:	d0f1      	beq.n	8001360 <recv+0x4c>

	// set read length
	//if(read_len > len) read_len = len;

	// get read pointer
	read_ptr = get_RXRD(sck_fd);
 800137c:	7bfb      	ldrb	r3, [r7, #15]
 800137e:	4618      	mov	r0, r3
 8001380:	f7ff fd68 	bl	8000e54 <get_RXRD>
 8001384:	4603      	mov	r3, r0
 8001386:	82bb      	strh	r3, [r7, #20]

	// read from RX memory
	read_memory(sck_fd, read_ptr, buf, read_len < len ? read_len: len);
 8001388:	89ba      	ldrh	r2, [r7, #12]
 800138a:	8afb      	ldrh	r3, [r7, #22]
 800138c:	429a      	cmp	r2, r3
 800138e:	bf38      	it	cc
 8001390:	4613      	movcc	r3, r2
 8001392:	b29b      	uxth	r3, r3
 8001394:	7bf9      	ldrb	r1, [r7, #15]
 8001396:	8aba      	ldrh	r2, [r7, #20]
 8001398:	4608      	mov	r0, r1
 800139a:	4611      	mov	r1, r2
 800139c:	68ba      	ldr	r2, [r7, #8]
 800139e:	f7ff fded 	bl	8000f7c <read_memory>

	// update pointer
	read_ptr += read_len;
 80013a2:	8aba      	ldrh	r2, [r7, #20]
 80013a4:	8afb      	ldrh	r3, [r7, #22]
 80013a6:	4413      	add	r3, r2
 80013a8:	82bb      	strh	r3, [r7, #20]
	set_RXRD(sck_fd, read_ptr);
 80013aa:	7bfa      	ldrb	r2, [r7, #15]
 80013ac:	8abb      	ldrh	r3, [r7, #20]
 80013ae:	4610      	mov	r0, r2
 80013b0:	4619      	mov	r1, r3
 80013b2:	f7ff fd73 	bl	8000e9c <set_RXRD>

	// recive command
	spi_dma_sendByte(W5200_Sn_CR(sck_fd), W5200_Sn_CR_RECV);
 80013b6:	7bfb      	ldrb	r3, [r7, #15]
 80013b8:	b29b      	uxth	r3, r3
 80013ba:	021b      	lsls	r3, r3, #8
 80013bc:	b29b      	uxth	r3, r3
 80013be:	f503 4380 	add.w	r3, r3, #16384	; 0x4000
 80013c2:	3301      	adds	r3, #1
 80013c4:	b29b      	uxth	r3, r3
 80013c6:	4618      	mov	r0, r3
 80013c8:	2140      	movs	r1, #64	; 0x40
 80013ca:	f7ff faa9 	bl	8000920 <spi_dma_sendByte>
	// wait command complete.
	while(get_CRStatus(sck_fd) != 0);	// 0 value is command complete. 
 80013ce:	bf00      	nop
 80013d0:	7bfb      	ldrb	r3, [r7, #15]
 80013d2:	4618      	mov	r0, r3
 80013d4:	f7ff fc5e 	bl	8000c94 <get_CRStatus>
 80013d8:	4603      	mov	r3, r0
 80013da:	2b00      	cmp	r3, #0
 80013dc:	d1f8      	bne.n	80013d0 <recv+0xbc>
	

 	return	(read_len < len ? read_len: len);
 80013de:	89ba      	ldrh	r2, [r7, #12]
 80013e0:	8afb      	ldrh	r3, [r7, #22]
 80013e2:	429a      	cmp	r2, r3
 80013e4:	bf38      	it	cc
 80013e6:	4613      	movcc	r3, r2
 80013e8:	b29b      	uxth	r3, r3
}
 80013ea:	4618      	mov	r0, r3
 80013ec:	3718      	adds	r7, #24
 80013ee:	46bd      	mov	sp, r7
 80013f0:	bd80      	pop	{r7, pc}
 80013f2:	bf00      	nop
 80013f4:	20000480 	.word	0x20000480

080013f8 <listen>:
//	func listen 
//==================================================================================//


int	listen(int sck_fd)
{
 80013f8:	b580      	push	{r7, lr}
 80013fa:	b084      	sub	sp, #16
 80013fc:	af00      	add	r7, sp, #0
 80013fe:	6078      	str	r0, [r7, #4]
	// check socket asign flag
	if(sck_fd < 0 || sck_fd >=W5200_MAX_SOCKETS||  socket_flg[sck_fd] != 1) return -1;
 8001400:	687b      	ldr	r3, [r7, #4]
 8001402:	2b00      	cmp	r3, #0
 8001404:	db08      	blt.n	8001418 <listen+0x20>
 8001406:	687b      	ldr	r3, [r7, #4]
 8001408:	2b07      	cmp	r3, #7
 800140a:	dc05      	bgt.n	8001418 <listen+0x20>
 800140c:	4a22      	ldr	r2, [pc, #136]	; (8001498 <listen+0xa0>)
 800140e:	687b      	ldr	r3, [r7, #4]
 8001410:	4413      	add	r3, r2
 8001412:	781b      	ldrb	r3, [r3, #0]
 8001414:	2b01      	cmp	r3, #1
 8001416:	d002      	beq.n	800141e <listen+0x26>
 8001418:	f04f 33ff 	mov.w	r3, #4294967295	; 0xffffffff
 800141c:	e038      	b.n	8001490 <listen+0x98>

	// LISTEN start from INIT only.
	if(get_SRStatus(sck_fd)  != W5200_Sn_SR_SOCK_INIT) return -1;
 800141e:	687b      	ldr	r3, [r7, #4]
 8001420:	b2db      	uxtb	r3, r3
 8001422:	4618      	mov	r0, r3
 8001424:	f7ff fc52 	bl	8000ccc <get_SRStatus>
 8001428:	4603      	mov	r3, r0
 800142a:	2b13      	cmp	r3, #19
 800142c:	d002      	beq.n	8001434 <listen+0x3c>
 800142e:	f04f 33ff 	mov.w	r3, #4294967295	; 0xffffffff
 8001432:	e02d      	b.n	8001490 <listen+0x98>


	uint8_t b;
	spi_dma_read(W5200_Sn_IR(sck_fd), 1);
 8001434:	687b      	ldr	r3, [r7, #4]
 8001436:	b29b      	uxth	r3, r3
 8001438:	021b      	lsls	r3, r3, #8
 800143a:	b29b      	uxth	r3, r3
 800143c:	f503 4380 	add.w	r3, r3, #16384	; 0x4000
 8001440:	3302      	adds	r3, #2
 8001442:	b29b      	uxth	r3, r3
 8001444:	4618      	mov	r0, r3
 8001446:	2101      	movs	r1, #1
 8001448:	f7ff fab6 	bl	80009b8 <spi_dma_read>
	memcpy(&b, bufferRX + 4, 1);
 800144c:	4b13      	ldr	r3, [pc, #76]	; (800149c <listen+0xa4>)
 800144e:	781b      	ldrb	r3, [r3, #0]
 8001450:	73fb      	strb	r3, [r7, #15]

	// CONNECT command
	spi_dma_sendByte(W5200_Sn_CR(sck_fd), W5200_Sn_CR_LISTEN);
 8001452:	687b      	ldr	r3, [r7, #4]
 8001454:	b29b      	uxth	r3, r3
 8001456:	021b      	lsls	r3, r3, #8
 8001458:	b29b      	uxth	r3, r3
 800145a:	f503 4380 	add.w	r3, r3, #16384	; 0x4000
 800145e:	3301      	adds	r3, #1
 8001460:	b29b      	uxth	r3, r3
 8001462:	4618      	mov	r0, r3
 8001464:	2102      	movs	r1, #2
 8001466:	f7ff fa5b 	bl	8000920 <spi_dma_sendByte>
	while(get_CRStatus(sck_fd) != 0);	// 0 value is command complete. 
 800146a:	bf00      	nop
 800146c:	687b      	ldr	r3, [r7, #4]
 800146e:	b2db      	uxtb	r3, r3
 8001470:	4618      	mov	r0, r3
 8001472:	f7ff fc0f 	bl	8000c94 <get_CRStatus>
 8001476:	4603      	mov	r3, r0
 8001478:	2b00      	cmp	r3, #0
 800147a:	d1f7      	bne.n	800146c <listen+0x74>

	// wait for status change to LISTEN
	while(get_SRStatus(sck_fd) != W5200_Sn_SR_SOCK_LISTEN);
 800147c:	bf00      	nop
 800147e:	687b      	ldr	r3, [r7, #4]
 8001480:	b2db      	uxtb	r3, r3
 8001482:	4618      	mov	r0, r3
 8001484:	f7ff fc22 	bl	8000ccc <get_SRStatus>
 8001488:	4603      	mov	r3, r0
 800148a:	2b14      	cmp	r3, #20
 800148c:	d1f7      	bne.n	800147e <listen+0x86>
	 
	return 0;	// listen success complete
 800148e:	2300      	movs	r3, #0
}
 8001490:	4618      	mov	r0, r3
 8001492:	3710      	adds	r7, #16
 8001494:	46bd      	mov	sp, r7
 8001496:	bd80      	pop	{r7, pc}
 8001498:	20000480 	.word	0x20000480
 800149c:	20013208 	.word	0x20013208

080014a0 <locate_interrupt>:

//==================================================================================
////	func locate_interrupt
//==================================================================================
void locate_interrupt()
{
 80014a0:	b580      	push	{r7, lr}
 80014a2:	b082      	sub	sp, #8
 80014a4:	af00      	add	r7, sp, #0
	*  Function used by interrupt service routine. \n
	* Reads wiznet interrupt registers and identify 
	* interupt plus on which socket interrupt occured. \n
	* It depends on interrupt what follows
	* ****************************************************** */
	uint8_t code = 0x4; 
 80014a6:	2304      	movs	r3, #4
 80014a8:	71fb      	strb	r3, [r7, #7]
	spi_dma_read(W5200_IMR2, 1);
 80014aa:	2036      	movs	r0, #54	; 0x36
 80014ac:	2101      	movs	r1, #1
 80014ae:	f7ff fa83 	bl	80009b8 <spi_dma_read>
	memcpy(&code, bufferRX + 4, 1);
 80014b2:	4b15      	ldr	r3, [pc, #84]	; (8001508 <locate_interrupt+0x68>)
 80014b4:	781b      	ldrb	r3, [r3, #0]
 80014b6:	71fb      	strb	r3, [r7, #7]
	spi_dma_read(W5200_Sn_IR(code), 1);
 80014b8:	79fb      	ldrb	r3, [r7, #7]
 80014ba:	021b      	lsls	r3, r3, #8
 80014bc:	b29b      	uxth	r3, r3
 80014be:	f503 4380 	add.w	r3, r3, #16384	; 0x4000
 80014c2:	3302      	adds	r3, #2
 80014c4:	b29b      	uxth	r3, r3
 80014c6:	4618      	mov	r0, r3
 80014c8:	2101      	movs	r1, #1
 80014ca:	f7ff fa75 	bl	80009b8 <spi_dma_read>
	memcpy(&code, bufferRX +4 , 1);
 80014ce:	4b0e      	ldr	r3, [pc, #56]	; (8001508 <locate_interrupt+0x68>)
 80014d0:	781b      	ldrb	r3, [r3, #0]
 80014d2:	71fb      	strb	r3, [r7, #7]
       
	
	spi_dma_sendByte(W5200_Sn_IR(0x0), 0xff);
 80014d4:	f244 0002 	movw	r0, #16386	; 0x4002
 80014d8:	21ff      	movs	r1, #255	; 0xff
 80014da:	f7ff fa21 	bl	8000920 <spi_dma_sendByte>
	switch (code )
 80014de:	79fb      	ldrb	r3, [r7, #7]
 80014e0:	2b02      	cmp	r3, #2
 80014e2:	d00a      	beq.n	80014fa <locate_interrupt+0x5a>
 80014e4:	2b04      	cmp	r3, #4
 80014e6:	d002      	beq.n	80014ee <locate_interrupt+0x4e>
 80014e8:	2b01      	cmp	r3, #1
 80014ea:	d008      	beq.n	80014fe <locate_interrupt+0x5e>
			break;
		case 0x4:
			vTaskResume(set_macTaskHandle); 
			break;
		default:
			break;		
 80014ec:	e008      	b.n	8001500 <locate_interrupt+0x60>
			// do nothing wait for input. 
			break;
		case 0x2:
			break;
		case 0x4:
			vTaskResume(set_macTaskHandle); 
 80014ee:	4b07      	ldr	r3, [pc, #28]	; (800150c <locate_interrupt+0x6c>)
 80014f0:	681b      	ldr	r3, [r3, #0]
 80014f2:	4618      	mov	r0, r3
 80014f4:	f001 fb00 	bl	8002af8 <vTaskResume>
			break;
 80014f8:	e002      	b.n	8001500 <locate_interrupt+0x60>
		case 0x1: 
			// connection established 
			// do nothing wait for input. 
			break;
		case 0x2:
			break;
 80014fa:	bf00      	nop
 80014fc:	e000      	b.n	8001500 <locate_interrupt+0x60>
	switch (code )
	{
		case 0x1: 
			// connection established 
			// do nothing wait for input. 
			break;
 80014fe:	bf00      	nop
			vTaskResume(set_macTaskHandle); 
			break;
		default:
			break;		
	}
}
 8001500:	3708      	adds	r7, #8
 8001502:	46bd      	mov	sp, r7
 8001504:	bd80      	pop	{r7, pc}
 8001506:	bf00      	nop
 8001508:	20013208 	.word	0x20013208
 800150c:	200141b8 	.word	0x200141b8

08001510 <EXTI4_IRQHandler>:

//==================================================================================
//// EXTI4_IRQHandler
//==================================================================================
void EXTI4_IRQHandler(void) //EXTI0 ISR
{
 8001510:	b580      	push	{r7, lr}
 8001512:	af00      	add	r7, sp, #0
	 * Interuppt service routine for wiznet it locates interrupt and resets 
	 * interrupt line. 
	 * *******************************************************************/
	
	
	if(EXTI_GetITStatus(WIZ_IT_EXTI_LINE) != RESET) //check if EXTI line is asserted
 8001514:	2010      	movs	r0, #16
 8001516:	f004 fd11 	bl	8005f3c <EXTI_GetITStatus>
 800151a:	4603      	mov	r3, r0
 800151c:	2b00      	cmp	r3, #0
 800151e:	d004      	beq.n	800152a <EXTI4_IRQHandler+0x1a>
	{
		locate_interrupt();	
 8001520:	f7ff ffbe 	bl	80014a0 <locate_interrupt>
		EXTI_ClearFlag(WIZ_IT_EXTI_LINE); //clear interrupt
 8001524:	2010      	movs	r0, #16
 8001526:	f004 fcef 	bl	8005f08 <EXTI_ClearFlag>
 	
	}
}
 800152a:	bd80      	pop	{r7, pc}

0800152c <set_macTask>:
//============================================================================/
// func set_macTask 
//==================================================================================

void set_macTask(void *pvParameters)
{
 800152c:	b580      	push	{r7, lr}
 800152e:	b0b6      	sub	sp, #216	; 0xd8
 8001530:	af00      	add	r7, sp, #0
 8001532:	6078      	str	r0, [r7, #4]
	 * **********************************************************************/


	/* suspend task until init_W5200 is finished */
	//vTaskSuspend(set_macTaskHandle);
	vTaskSuspend(NULL);
 8001534:	2000      	movs	r0, #0
 8001536:	f001 fa65 	bl	8002a04 <vTaskSuspend>
	uint8_t	buf[100], buf1[100]; 
	int len; 
		/*create socket and send byte */
	socket_0 = socket(W5200_Sn_MR_TCP, 80, 0);
 800153a:	2001      	movs	r0, #1
 800153c:	2150      	movs	r1, #80	; 0x50
 800153e:	2200      	movs	r2, #0
 8001540:	f7ff fd7c 	bl	800103c <socket>
 8001544:	4603      	mov	r3, r0
 8001546:	461a      	mov	r2, r3
 8001548:	4b10      	ldr	r3, [pc, #64]	; (800158c <set_macTask+0x60>)
 800154a:	601a      	str	r2, [r3, #0]
	listen(socket_0);
 800154c:	4b0f      	ldr	r3, [pc, #60]	; (800158c <set_macTask+0x60>)
 800154e:	681b      	ldr	r3, [r3, #0]
 8001550:	4618      	mov	r0, r3
 8001552:	f7ff ff51 	bl	80013f8 <listen>
        {

	
		/*we are now listening
		suspend task set_macTask()*/
		vTaskSuspend(NULL);
 8001556:	2000      	movs	r0, #0
 8001558:	f001 fa54 	bl	8002a04 <vTaskSuspend>
		
		// interrupt on W5200 occured 
		// receive data 
		len = recv(socket_0, buf, 100, 0);
 800155c:	4b0b      	ldr	r3, [pc, #44]	; (800158c <set_macTask+0x60>)
 800155e:	681b      	ldr	r3, [r3, #0]
 8001560:	b2da      	uxtb	r2, r3
 8001562:	f107 0370 	add.w	r3, r7, #112	; 0x70
 8001566:	4610      	mov	r0, r2
 8001568:	4619      	mov	r1, r3
 800156a:	2264      	movs	r2, #100	; 0x64
 800156c:	2300      	movs	r3, #0
 800156e:	f7ff fed1 	bl	8001314 <recv>
 8001572:	f8c7 00d4 	str.w	r0, [r7, #212]	; 0xd4
		
		// proces data with CLI 
		
		FreeRTOS_CLIProcessCommand ( buf, buf1, 100);
 8001576:	f107 0270 	add.w	r2, r7, #112	; 0x70
 800157a:	f107 030c 	add.w	r3, r7, #12
 800157e:	4610      	mov	r0, r2
 8001580:	4619      	mov	r1, r3
 8001582:	2264      	movs	r2, #100	; 0x64
 8001584:	f003 f912 	bl	80047ac <FreeRTOS_CLIProcessCommand>

		

		
	}	
 8001588:	e7e5      	b.n	8001556 <set_macTask+0x2a>
 800158a:	bf00      	nop
 800158c:	200131f8 	.word	0x200131f8

08001590 <init_USARTx>:
#define pdFalse 0
#define pdTrue 	1


void init_USARTx(void)
{
 8001590:	b580      	push	{r7, lr}
 8001592:	b088      	sub	sp, #32
 8001594:	af00      	add	r7, sp, #0
	
	/* enable APB2 peripheral clock for USART1 
	 * note that only USART1 and USART6 are connected to APB2
	 * the other USARTs are connected to APB1
	 */
	RCC_APB2PeriphClockCmd(USARTx_CLK, ENABLE);
 8001596:	2020      	movs	r0, #32
 8001598:	2101      	movs	r1, #1
 800159a:	f005 f86d 	bl	8006678 <RCC_APB2PeriphClockCmd>
	
	/* enable the peripheral clock for the pins used by 
	 * USART1, PB6 for TX and PB7 for RX 
	 */
	RCC_AHB1PeriphClockCmd(USARTx_TX_GPIO_CLK, ENABLE);
 800159e:	2004      	movs	r0, #4
 80015a0:	2101      	movs	r1, #1
 80015a2:	f005 f831 	bl	8006608 <RCC_AHB1PeriphClockCmd>
	RCC_AHB1PeriphClockCmd(USARTx_RX_GPIO_CLK, ENABLE);
 80015a6:	2004      	movs	r0, #4
 80015a8:	2101      	movs	r1, #1
 80015aa:	f005 f82d 	bl	8006608 <RCC_AHB1PeriphClockCmd>
	RCC_AHB1PeriphClockCmd(USARTx_CS_GPIO_CLK, ENABLE);
 80015ae:	2040      	movs	r0, #64	; 0x40
 80015b0:	2101      	movs	r1, #1
 80015b2:	f005 f829 	bl	8006608 <RCC_AHB1PeriphClockCmd>

	
	/* This sequence sets up the TX and RX pins 
	 * so they work correctly with the USART1 peripheral
	 */
	GPIO_InitStruct.GPIO_Pin = USARTx_RX_GPIO_PIN | USARTx_TX_GPIO_PIN; // Pins 6 (TX) and 7 (RX) are used
 80015b6:	23c0      	movs	r3, #192	; 0xc0
 80015b8:	61bb      	str	r3, [r7, #24]
	GPIO_InitStruct.GPIO_Mode = GPIO_Mode_AF; 			// the pins are configured as alternate function so the USART peripheral has access to them
 80015ba:	2302      	movs	r3, #2
 80015bc:	773b      	strb	r3, [r7, #28]
	GPIO_InitStruct.GPIO_Speed = GPIO_Speed_100MHz;		// this defines the IO speed and has nothing to do with the baudrate!
 80015be:	2303      	movs	r3, #3
 80015c0:	777b      	strb	r3, [r7, #29]
	GPIO_InitStruct.GPIO_OType = GPIO_OType_PP;			// this defines the output type as push pull mode (as opposed to open drain)
 80015c2:	2300      	movs	r3, #0
 80015c4:	77bb      	strb	r3, [r7, #30]
	GPIO_InitStruct.GPIO_PuPd = GPIO_PuPd_UP;			// this activates the pullup resistors on the IO pins
 80015c6:	2301      	movs	r3, #1
 80015c8:	77fb      	strb	r3, [r7, #31]
	GPIO_Init(USARTx_TX_GPIO_PORT, &GPIO_InitStruct);					// now all the values are passed to the GPIO_Init() function which sets the GPIO registers
 80015ca:	f107 0318 	add.w	r3, r7, #24
 80015ce:	4829      	ldr	r0, [pc, #164]	; (8001674 <init_USARTx+0xe4>)
 80015d0:	4619      	mov	r1, r3
 80015d2:	f004 fd31 	bl	8006038 <GPIO_Init>
	
	
	
	/* Configure the chip select pin in this case we will use PG8 */
	GPIO_InitStruct.GPIO_Pin = USARTx_CS_GPIO_PIN;
 80015d6:	f44f 7380 	mov.w	r3, #256	; 0x100
 80015da:	61bb      	str	r3, [r7, #24]
	GPIO_InitStruct.GPIO_Mode = GPIO_Mode_OUT;
 80015dc:	2301      	movs	r3, #1
 80015de:	773b      	strb	r3, [r7, #28]
	GPIO_InitStruct.GPIO_OType = GPIO_OType_PP;
 80015e0:	2300      	movs	r3, #0
 80015e2:	77bb      	strb	r3, [r7, #30]
	GPIO_InitStruct.GPIO_Speed = GPIO_Speed_100MHz;
 80015e4:	2303      	movs	r3, #3
 80015e6:	777b      	strb	r3, [r7, #29]
	GPIO_InitStruct.GPIO_PuPd = GPIO_PuPd_UP;
 80015e8:	2301      	movs	r3, #1
 80015ea:	77fb      	strb	r3, [r7, #31]
	GPIO_Init(USARTx_CS_GPIO_PORT, &GPIO_InitStruct);
 80015ec:	f107 0318 	add.w	r3, r7, #24
 80015f0:	4821      	ldr	r0, [pc, #132]	; (8001678 <init_USARTx+0xe8>)
 80015f2:	4619      	mov	r1, r3
 80015f4:	f004 fd20 	bl	8006038 <GPIO_Init>

	DD() // set PG8 high
 80015f8:	4b1f      	ldr	r3, [pc, #124]	; (8001678 <init_USARTx+0xe8>)
 80015fa:	4a1f      	ldr	r2, [pc, #124]	; (8001678 <init_USARTx+0xe8>)
 80015fc:	8b12      	ldrh	r2, [r2, #24]
 80015fe:	b292      	uxth	r2, r2
 8001600:	f442 7280 	orr.w	r2, r2, #256	; 0x100
 8001604:	b292      	uxth	r2, r2
 8001606:	831a      	strh	r2, [r3, #24]
	
	/* The RX and TX pins are now connected to their AF
	 * so that the USART1 can take over control of the 
	 * pins
	 */
	GPIO_PinAFConfig(GPIOC, GPIO_PinSource6, GPIO_AF_USART6); //
 8001608:	481a      	ldr	r0, [pc, #104]	; (8001674 <init_USARTx+0xe4>)
 800160a:	2106      	movs	r1, #6
 800160c:	2208      	movs	r2, #8
 800160e:	f004 fe29 	bl	8006264 <GPIO_PinAFConfig>
	GPIO_PinAFConfig(GPIOC, GPIO_PinSource7, GPIO_AF_USART6);
 8001612:	4818      	ldr	r0, [pc, #96]	; (8001674 <init_USARTx+0xe4>)
 8001614:	2107      	movs	r1, #7
 8001616:	2208      	movs	r2, #8
 8001618:	f004 fe24 	bl	8006264 <GPIO_PinAFConfig>
	
	/* Now the USART_InitStruct is used to define the 
	 * properties of USART1 
	 */
	USART_InitStruct.USART_BaudRate = 38400;				// the baudrate is set to the value we passed into this init function
 800161c:	f44f 4316 	mov.w	r3, #38400	; 0x9600
 8001620:	60bb      	str	r3, [r7, #8]
	USART_InitStruct.USART_WordLength = USART_WordLength_8b;// we want the data frame size to be 8 bits (standard)
 8001622:	2300      	movs	r3, #0
 8001624:	81bb      	strh	r3, [r7, #12]
	USART_InitStruct.USART_StopBits = USART_StopBits_1;		// we want 1 stop bit (standard)
 8001626:	2300      	movs	r3, #0
 8001628:	81fb      	strh	r3, [r7, #14]
	USART_InitStruct.USART_Parity = USART_Parity_No;		// we don't want a parity bit (standard)
 800162a:	2300      	movs	r3, #0
 800162c:	823b      	strh	r3, [r7, #16]
	USART_InitStruct.USART_HardwareFlowControl = USART_HardwareFlowControl_None; // we don't want flow control (standard)
 800162e:	2300      	movs	r3, #0
 8001630:	82bb      	strh	r3, [r7, #20]
	USART_InitStruct.USART_Mode = USART_Mode_Tx | USART_Mode_Rx; // we want to enable the transmitter and the receiver
 8001632:	230c      	movs	r3, #12
 8001634:	827b      	strh	r3, [r7, #18]
	USART_Init(USART6, &USART_InitStruct);					// again all the properties are passed to the USART_Init function which takes care of all the bit setting
 8001636:	f107 0308 	add.w	r3, r7, #8
 800163a:	4810      	ldr	r0, [pc, #64]	; (800167c <init_USARTx+0xec>)
 800163c:	4619      	mov	r1, r3
 800163e:	f005 fb0f 	bl	8006c60 <USART_Init>
	/* Here the USART1 receive interrupt is enabled
	 * and the interrupt controller is configured 
	 * to jump to the USART1_IRQHandler() function
	 * if the USART1 receive interrupt occurs
	 */
	USART_ITConfig(USART6, USART_IT_RXNE, ENABLE); // enable the USART1 receive interrupt 
 8001642:	480e      	ldr	r0, [pc, #56]	; (800167c <init_USARTx+0xec>)
 8001644:	f240 5125 	movw	r1, #1317	; 0x525
 8001648:	2201      	movs	r2, #1
 800164a:	f005 fcc3 	bl	8006fd4 <USART_ITConfig>
	
	NVIC_InitStructure.NVIC_IRQChannel = USART6_IRQn;		 // we want to configure the USART interrupts
 800164e:	2347      	movs	r3, #71	; 0x47
 8001650:	713b      	strb	r3, [r7, #4]
	NVIC_InitStructure.NVIC_IRQChannelPreemptionPriority = configLIBRARY_MAX_SYSCALL_INTERRUPT_PRIORITY + 4;;// this sets the priority group of the USART1 interrupts
 8001652:	2309      	movs	r3, #9
 8001654:	717b      	strb	r3, [r7, #5]
	NVIC_InitStructure.NVIC_IRQChannelSubPriority = 0x6;		 // this sets the subpriority inside the group
 8001656:	2306      	movs	r3, #6
 8001658:	71bb      	strb	r3, [r7, #6]
	NVIC_InitStructure.NVIC_IRQChannelCmd = ENABLE;			 // the USART1 interrupts are globally enabled
 800165a:	2301      	movs	r3, #1
 800165c:	71fb      	strb	r3, [r7, #7]
	NVIC_Init(&NVIC_InitStructure);	 // the properties are passed to the NVIC_Init function which takes care of the low level stuff	
 800165e:	1d3b      	adds	r3, r7, #4
 8001660:	4618      	mov	r0, r3
 8001662:	f003 fb87 	bl	8004d74 <NVIC_Init>

	// finally this enables the complete USART1 peripheral
	USART_Cmd(USART6, ENABLE);
 8001666:	4805      	ldr	r0, [pc, #20]	; (800167c <init_USARTx+0xec>)
 8001668:	2101      	movs	r1, #1
 800166a:	f005 fc5f 	bl	8006f2c <USART_Cmd>
}
 800166e:	3720      	adds	r7, #32
 8001670:	46bd      	mov	sp, r7
 8001672:	bd80      	pop	{r7, pc}
 8001674:	40020800 	.word	0x40020800
 8001678:	40021800 	.word	0x40021800
 800167c:	40011400 	.word	0x40011400

08001680 <USART6_IRQHandler>:
	
	
}

// this is the interrupt request handler (IRQ) for ALL USART6 interrupts
void USART6_IRQHandler(void){
 8001680:	b580      	push	{r7, lr}
 8001682:	b082      	sub	sp, #8
 8001684:	af00      	add	r7, sp, #0
	
	

	// check if the USART1 receive interrupt flag was set
	if( USART_GetITStatus(USARTx, USART_IT_RXNE) ){
 8001686:	4823      	ldr	r0, [pc, #140]	; (8001714 <USART6_IRQHandler+0x94>)
 8001688:	f240 5125 	movw	r1, #1317	; 0x525
 800168c:	f005 fd60 	bl	8007150 <USART_GetITStatus>
 8001690:	4603      	mov	r3, r0
 8001692:	2b00      	cmp	r3, #0
 8001694:	d033      	beq.n	80016fe <USART6_IRQHandler+0x7e>
		
		
		static uint8_t cnt = 0; // this counter is used to determine the string length
		char t = USARTx->DR; // the character from the USART1 data register is saved in t
 8001696:	4b1f      	ldr	r3, [pc, #124]	; (8001714 <USART6_IRQHandler+0x94>)
 8001698:	889b      	ldrh	r3, [r3, #4]
 800169a:	b29b      	uxth	r3, r3
 800169c:	71fb      	strb	r3, [r7, #7]
		
		/* check if the received character is not the LF character (used to determine end of string) 
		 * or the if the maximum string length has been been reached 
		 */
		xHigherPriorityTaskWoken_usart = pdFalse;
 800169e:	4b1e      	ldr	r3, [pc, #120]	; (8001718 <USART6_IRQHandler+0x98>)
 80016a0:	2200      	movs	r2, #0
 80016a2:	601a      	str	r2, [r3, #0]

		
		if( (cnt < rx_length  ) && (cnt < MAX_STRLEN) ){ 
 80016a4:	4b1d      	ldr	r3, [pc, #116]	; (800171c <USART6_IRQHandler+0x9c>)
 80016a6:	781b      	ldrb	r3, [r3, #0]
 80016a8:	461a      	mov	r2, r3
 80016aa:	4b1d      	ldr	r3, [pc, #116]	; (8001720 <USART6_IRQHandler+0xa0>)
 80016ac:	681b      	ldr	r3, [r3, #0]
 80016ae:	429a      	cmp	r2, r3
 80016b0:	da11      	bge.n	80016d6 <USART6_IRQHandler+0x56>
 80016b2:	4b1a      	ldr	r3, [pc, #104]	; (800171c <USART6_IRQHandler+0x9c>)
 80016b4:	781b      	ldrb	r3, [r3, #0]
 80016b6:	b2db      	uxtb	r3, r3
 80016b8:	b25b      	sxtb	r3, r3
 80016ba:	2b00      	cmp	r3, #0
 80016bc:	db0b      	blt.n	80016d6 <USART6_IRQHandler+0x56>
			received_string[cnt] = t;
 80016be:	4b17      	ldr	r3, [pc, #92]	; (800171c <USART6_IRQHandler+0x9c>)
 80016c0:	781b      	ldrb	r3, [r3, #0]
 80016c2:	4a18      	ldr	r2, [pc, #96]	; (8001724 <USART6_IRQHandler+0xa4>)
 80016c4:	79f9      	ldrb	r1, [r7, #7]
 80016c6:	54d1      	strb	r1, [r2, r3]
			cnt++;
 80016c8:	4b14      	ldr	r3, [pc, #80]	; (800171c <USART6_IRQHandler+0x9c>)
 80016ca:	781b      	ldrb	r3, [r3, #0]
 80016cc:	3301      	adds	r3, #1
 80016ce:	b2da      	uxtb	r2, r3
 80016d0:	4b12      	ldr	r3, [pc, #72]	; (800171c <USART6_IRQHandler+0x9c>)
 80016d2:	701a      	strb	r2, [r3, #0]
 80016d4:	e013      	b.n	80016fe <USART6_IRQHandler+0x7e>
		}
		else{ // otherwise reset the character counter and print the received string
			received_string[cnt] = t; 
 80016d6:	4b11      	ldr	r3, [pc, #68]	; (800171c <USART6_IRQHandler+0x9c>)
 80016d8:	781b      	ldrb	r3, [r3, #0]
 80016da:	4a12      	ldr	r2, [pc, #72]	; (8001724 <USART6_IRQHandler+0xa4>)
 80016dc:	79f9      	ldrb	r1, [r7, #7]
 80016de:	54d1      	strb	r1, [r2, r3]
			cnt = 0;
 80016e0:	4b0e      	ldr	r3, [pc, #56]	; (800171c <USART6_IRQHandler+0x9c>)
 80016e2:	2200      	movs	r2, #0
 80016e4:	701a      	strb	r2, [r3, #0]
		//	USART_ITConfig(USART6, USART_IT_RXNE, DISABLE); 
		taskENTER_CRITICAL();
 80016e6:	f002 fcfb 	bl	80040e0 <vPortEnterCritical>
			xSemaphoreGiveFromISR(xSmphrUSART,&xHigherPriorityTaskWoken_usart );
 80016ea:	4b0f      	ldr	r3, [pc, #60]	; (8001728 <USART6_IRQHandler+0xa8>)
 80016ec:	681b      	ldr	r3, [r3, #0]
 80016ee:	4618      	mov	r0, r3
 80016f0:	2100      	movs	r1, #0
 80016f2:	4a09      	ldr	r2, [pc, #36]	; (8001718 <USART6_IRQHandler+0x98>)
 80016f4:	2300      	movs	r3, #0
 80016f6:	f002 f905 	bl	8003904 <xQueueGenericSendFromISR>
		taskEXIT_CRITICAL();
 80016fa:	f002 fd01 	bl	8004100 <vPortExitCritical>
			//USART_puts(USART1, received_string);
		}


	}
 portYIELD_FROM_ISR( xHigherPriorityTaskWoken_usart );
 80016fe:	4b06      	ldr	r3, [pc, #24]	; (8001718 <USART6_IRQHandler+0x98>)
 8001700:	681b      	ldr	r3, [r3, #0]
 8001702:	2b00      	cmp	r3, #0
 8001704:	d003      	beq.n	800170e <USART6_IRQHandler+0x8e>
 8001706:	4b09      	ldr	r3, [pc, #36]	; (800172c <USART6_IRQHandler+0xac>)
 8001708:	f04f 5280 	mov.w	r2, #268435456	; 0x10000000
 800170c:	601a      	str	r2, [r3, #0]
	
}
 800170e:	3708      	adds	r7, #8
 8001710:	46bd      	mov	sp, r7
 8001712:	bd80      	pop	{r7, pc}
 8001714:	40011400 	.word	0x40011400
 8001718:	20000488 	.word	0x20000488
 800171c:	2000048c 	.word	0x2000048c
 8001720:	200141d4 	.word	0x200141d4
 8001724:	200141d8 	.word	0x200141d8
 8001728:	200141a8 	.word	0x200141a8
 800172c:	e000ed04 	.word	0xe000ed04

08001730 <motorControl_task>:


}

void motorControl_task(void * pvParameters)
{
 8001730:	b580      	push	{r7, lr}
 8001732:	b09c      	sub	sp, #112	; 0x70
 8001734:	af00      	add	r7, sp, #0
 8001736:	6078      	str	r0, [r7, #4]
	uint8_t stop[4]; 
	uint16_t tab_reg[10];
	uint16_t spd[5]; 
	

	stop[0] = 0; stop[1] = 0; stop[2] = 0; stop[3] = 0; 
 8001738:	2300      	movs	r3, #0
 800173a:	f887 3064 	strb.w	r3, [r7, #100]	; 0x64
 800173e:	2300      	movs	r3, #0
 8001740:	f887 3065 	strb.w	r3, [r7, #101]	; 0x65
 8001744:	2300      	movs	r3, #0
 8001746:	f887 3066 	strb.w	r3, [r7, #102]	; 0x66
 800174a:	2300      	movs	r3, #0
 800174c:	f887 3067 	strb.w	r3, [r7, #103]	; 0x67

	src[0]=1; src[1]=1; src[2]=1; src[3]=1;
 8001750:	2301      	movs	r3, #1
 8001752:	f887 3068 	strb.w	r3, [r7, #104]	; 0x68
 8001756:	2301      	movs	r3, #1
 8001758:	f887 3069 	strb.w	r3, [r7, #105]	; 0x69
 800175c:	2301      	movs	r3, #1
 800175e:	f887 306a 	strb.w	r3, [r7, #106]	; 0x6a
 8001762:	2301      	movs	r3, #1
 8001764:	f887 306b 	strb.w	r3, [r7, #107]	; 0x6b
	
	spd[0]=1500;spd[1]=0;spd[2]=2250;spd[3]=10;spd[4]=10;
 8001768:	f240 53dc 	movw	r3, #1500	; 0x5dc
 800176c:	f8a7 3044 	strh.w	r3, [r7, #68]	; 0x44
 8001770:	2300      	movs	r3, #0
 8001772:	f8a7 3046 	strh.w	r3, [r7, #70]	; 0x46
 8001776:	f640 03ca 	movw	r3, #2250	; 0x8ca
 800177a:	f8a7 3048 	strh.w	r3, [r7, #72]	; 0x48
 800177e:	230a      	movs	r3, #10
 8001780:	f8a7 304a 	strh.w	r3, [r7, #74]	; 0x4a
 8001784:	230a      	movs	r3, #10
 8001786:	f8a7 304c 	strh.w	r3, [r7, #76]	; 0x4c
	
	// create usart semaphore 
	xSmphrUSART = xSemaphoreCreateBinary();	
 800178a:	2001      	movs	r0, #1
 800178c:	2100      	movs	r1, #0
 800178e:	2203      	movs	r2, #3
 8001790:	f001 ffc6 	bl	8003720 <xQueueGenericCreate>
 8001794:	4602      	mov	r2, r0
 8001796:	4b36      	ldr	r3, [pc, #216]	; (8001870 <motorControl_task+0x140>)
 8001798:	601a      	str	r2, [r3, #0]
	
	portTickType xDelay = 100 / portTICK_RATE_MS;	
 800179a:	2364      	movs	r3, #100	; 0x64
 800179c:	66fb      	str	r3, [r7, #108]	; 0x6c
	QueueTelegram telegramR, telegramS; 
	
	while (1)
	{
	
		if (xQueueReceive(QSpd_handle, (void *)&telegramR, 500 ) == pdPASS)
 800179e:	4b35      	ldr	r3, [pc, #212]	; (8001874 <motorControl_task+0x144>)
 80017a0:	681a      	ldr	r2, [r3, #0]
 80017a2:	f107 0328 	add.w	r3, r7, #40	; 0x28
 80017a6:	4610      	mov	r0, r2
 80017a8:	4619      	mov	r1, r3
 80017aa:	f44f 72fa 	mov.w	r2, #500	; 0x1f4
 80017ae:	2300      	movs	r3, #0
 80017b0:	f002 f912 	bl	80039d8 <xQueueGenericReceive>
 80017b4:	4603      	mov	r3, r0
 80017b6:	2b01      	cmp	r3, #1
 80017b8:	d158      	bne.n	800186c <motorControl_task+0x13c>
		{
			switch ( telegramR.Qcmd )
 80017ba:	f897 3028 	ldrb.w	r3, [r7, #40]	; 0x28
 80017be:	2b05      	cmp	r3, #5
 80017c0:	d846      	bhi.n	8001850 <motorControl_task+0x120>
 80017c2:	a201      	add	r2, pc, #4	; (adr r2, 80017c8 <motorControl_task+0x98>)
 80017c4:	f852 f023 	ldr.w	pc, [r2, r3, lsl #2]
 80017c8:	080017e1 	.word	0x080017e1
 80017cc:	080017fd 	.word	0x080017fd
 80017d0:	08001851 	.word	0x08001851
 80017d4:	08001851 	.word	0x08001851
 80017d8:	08001819 	.word	0x08001819
 80017dc:	08001835 	.word	0x08001835
					// write to modbus 
//					modbus_WIB ( 0 , 3, src);
//					modbus_WR(0, telegramR.size, telegramR.data);
					
					// send response to CLI 
					telegramS.Qcmd = SUCCSESS;
 80017e0:	2306      	movs	r3, #6
 80017e2:	733b      	strb	r3, [r7, #12]
					xQueueSend(QSpd_handle, &telegramS, 500);
 80017e4:	4b23      	ldr	r3, [pc, #140]	; (8001874 <motorControl_task+0x144>)
 80017e6:	681a      	ldr	r2, [r3, #0]
 80017e8:	f107 030c 	add.w	r3, r7, #12
 80017ec:	4610      	mov	r0, r2
 80017ee:	4619      	mov	r1, r3
 80017f0:	f44f 72fa 	mov.w	r2, #500	; 0x1f4
 80017f4:	2300      	movs	r3, #0
 80017f6:	f001 ffd5 	bl	80037a4 <xQueueGenericSend>

					break;
 80017fa:	e037      	b.n	800186c <motorControl_task+0x13c>
				
				case GETDATA:
//					modbus_RR(0, 10, telegramS.data);

					// send response to CLI 
					telegramS.Qcmd = SUCCSESS;
 80017fc:	2306      	movs	r3, #6
 80017fe:	733b      	strb	r3, [r7, #12]
					xQueueSend(QSpd_handle, &telegramS, 500);
 8001800:	4b1c      	ldr	r3, [pc, #112]	; (8001874 <motorControl_task+0x144>)
 8001802:	681a      	ldr	r2, [r3, #0]
 8001804:	f107 030c 	add.w	r3, r7, #12
 8001808:	4610      	mov	r0, r2
 800180a:	4619      	mov	r1, r3
 800180c:	f44f 72fa 	mov.w	r2, #500	; 0x1f4
 8001810:	2300      	movs	r3, #0
 8001812:	f001 ffc7 	bl	80037a4 <xQueueGenericSend>

					break;
 8001816:	e029      	b.n	800186c <motorControl_task+0x13c>
					// set motor speed to 10% 
//					modbus_WIB( 0 , 3, src); 
//					modbus_WR( 0, 5, spd);
					
					// send response to CLI 
					telegramS.Qcmd = SUCCSESS;
 8001818:	2306      	movs	r3, #6
 800181a:	733b      	strb	r3, [r7, #12]
					xQueueSend(QSpd_handle, &telegramS, 500);
 800181c:	4b15      	ldr	r3, [pc, #84]	; (8001874 <motorControl_task+0x144>)
 800181e:	681a      	ldr	r2, [r3, #0]
 8001820:	f107 030c 	add.w	r3, r7, #12
 8001824:	4610      	mov	r0, r2
 8001826:	4619      	mov	r1, r3
 8001828:	f44f 72fa 	mov.w	r2, #500	; 0x1f4
 800182c:	2300      	movs	r3, #0
 800182e:	f001 ffb9 	bl	80037a4 <xQueueGenericSend>

					break;
 8001832:	e01b      	b.n	800186c <motorControl_task+0x13c>
					
					// send stop bits to motor 
//					modbus_WIB ( 0 , 3 , stop);

					// send response to CLI 
					telegramS.Qcmd = SUCCSESS;
 8001834:	2306      	movs	r3, #6
 8001836:	733b      	strb	r3, [r7, #12]
					xQueueSend(QSpd_handle, &telegramS, 500);
 8001838:	4b0e      	ldr	r3, [pc, #56]	; (8001874 <motorControl_task+0x144>)
 800183a:	681a      	ldr	r2, [r3, #0]
 800183c:	f107 030c 	add.w	r3, r7, #12
 8001840:	4610      	mov	r0, r2
 8001842:	4619      	mov	r1, r3
 8001844:	f44f 72fa 	mov.w	r2, #500	; 0x1f4
 8001848:	2300      	movs	r3, #0
 800184a:	f001 ffab 	bl	80037a4 <xQueueGenericSend>

					break; 
 800184e:	e00d      	b.n	800186c <motorControl_task+0x13c>

				default:

					telegramS.Qcmd = ERROR_MODBUS;
 8001850:	2307      	movs	r3, #7
 8001852:	733b      	strb	r3, [r7, #12]
					xQueueSend(QSpd_handle, &telegramS, 500);
 8001854:	4b07      	ldr	r3, [pc, #28]	; (8001874 <motorControl_task+0x144>)
 8001856:	681a      	ldr	r2, [r3, #0]
 8001858:	f107 030c 	add.w	r3, r7, #12
 800185c:	4610      	mov	r0, r2
 800185e:	4619      	mov	r1, r3
 8001860:	f44f 72fa 	mov.w	r2, #500	; 0x1f4
 8001864:	2300      	movs	r3, #0
 8001866:	f001 ff9d 	bl	80037a4 <xQueueGenericSend>
					break;
 800186a:	bf00      	nop
			}
		}

	//	modbus_RR(0, 10, tab_reg);		
	
	}
 800186c:	e797      	b.n	800179e <motorControl_task+0x6e>
 800186e:	bf00      	nop
 8001870:	200141a8 	.word	0x200141a8
 8001874:	200131fc 	.word	0x200131fc

08001878 <handleVariable_set>:
				int xParamLength,
				xQueueHandle Qhandle,
				uint8_t * Value,
				int xValueLength,
				int socket )
{
 8001878:	b084      	sub	sp, #16
 800187a:	e92d 4f90 	stmdb	sp!, {r4, r7, r8, r9, sl, fp, lr}
 800187e:	b0a3      	sub	sp, #140	; 0x8c
 8001880:	af00      	add	r7, sp, #0
 8001882:	f107 0ca8 	add.w	ip, r7, #168	; 0xa8
 8001886:	e88c 000f 	stmia.w	ip, {r0, r1, r2, r3}

	//================================================================================//
	//		CASE PARAMETER speed [value]
	//================================================================================//

	if ( !strncmp ( Param, "speed", 5))
 800188a:	f8d7 00c4 	ldr.w	r0, [r7, #196]	; 0xc4
 800188e:	499f      	ldr	r1, [pc, #636]	; (8001b0c <handleVariable_set+0x294>)
 8001890:	2205      	movs	r2, #5
 8001892:	f005 fe0d 	bl	80074b0 <strncmp>
 8001896:	4603      	mov	r3, r0
 8001898:	2b00      	cmp	r3, #0
 800189a:	f040 80cb 	bne.w	8001a34 <handleVariable_set+0x1bc>
	{	
	
	
		
		// now convert parameter to proper value and check if it is in range 
        	Value[xValueLength-2] = '\0'; 	
 800189e:	f8d7 30d4 	ldr.w	r3, [r7, #212]	; 0xd4
 80018a2:	3b02      	subs	r3, #2
 80018a4:	f8d7 20d0 	ldr.w	r2, [r7, #208]	; 0xd0
 80018a8:	4413      	add	r3, r2
 80018aa:	2200      	movs	r2, #0
 80018ac:	701a      	strb	r2, [r3, #0]
		uint16_t s1 = atoi ( Value ); 
 80018ae:	f8d7 00d0 	ldr.w	r0, [r7, #208]	; 0xd0
 80018b2:	f005 fd23 	bl	80072fc <atoi>
 80018b6:	4603      	mov	r3, r0
 80018b8:	f8a7 3086 	strh.w	r3, [r7, #134]	; 0x86
		// if speed is in range
		if(s1 < 10 ||  s1 > 100 )
 80018bc:	f8b7 3086 	ldrh.w	r3, [r7, #134]	; 0x86
 80018c0:	2b09      	cmp	r3, #9
 80018c2:	d903      	bls.n	80018cc <handleVariable_set+0x54>
 80018c4:	f8b7 3086 	ldrh.w	r3, [r7, #134]	; 0x86
 80018c8:	2b64      	cmp	r3, #100	; 0x64
 80018ca:	d94a      	bls.n	8001962 <handleVariable_set+0xea>
 80018cc:	466b      	mov	r3, sp
 80018ce:	461c      	mov	r4, r3
		{
			// send error via TCP
			//
			int len = strlen ( Value ) + 11 ; 
 80018d0:	f8d7 00d0 	ldr.w	r0, [r7, #208]	; 0xd0
 80018d4:	f005 fdbc 	bl	8007450 <strlen>
 80018d8:	4603      	mov	r3, r0
 80018da:	330b      	adds	r3, #11
 80018dc:	66bb      	str	r3, [r7, #104]	; 0x68
			uint8_t buf [len]; //= "Error: speed is out of range!\n\n";
 80018de:	6eb9      	ldr	r1, [r7, #104]	; 0x68
 80018e0:	1e4b      	subs	r3, r1, #1
 80018e2:	667b      	str	r3, [r7, #100]	; 0x64
 80018e4:	460b      	mov	r3, r1
 80018e6:	461a      	mov	r2, r3
 80018e8:	f04f 0300 	mov.w	r3, #0
 80018ec:	00d8      	lsls	r0, r3, #3
 80018ee:	61f8      	str	r0, [r7, #28]
 80018f0:	f8d7 c01c 	ldr.w	ip, [r7, #28]
 80018f4:	ea4c 7c52 	orr.w	ip, ip, r2, lsr #29
 80018f8:	f8c7 c01c 	str.w	ip, [r7, #28]
 80018fc:	00d0      	lsls	r0, r2, #3
 80018fe:	460b      	mov	r3, r1
 8001900:	461a      	mov	r2, r3
 8001902:	f04f 0300 	mov.w	r3, #0
 8001906:	ea4f 0cc3 	mov.w	ip, r3, lsl #3
 800190a:	f8c7 c014 	str.w	ip, [r7, #20]
 800190e:	6978      	ldr	r0, [r7, #20]
 8001910:	ea40 7052 	orr.w	r0, r0, r2, lsr #29
 8001914:	6178      	str	r0, [r7, #20]
 8001916:	ea4f 0cc2 	mov.w	ip, r2, lsl #3
 800191a:	460b      	mov	r3, r1
 800191c:	3307      	adds	r3, #7
 800191e:	08db      	lsrs	r3, r3, #3
 8001920:	00db      	lsls	r3, r3, #3
 8001922:	ebad 0d03 	sub.w	sp, sp, r3
 8001926:	466b      	mov	r3, sp
 8001928:	3300      	adds	r3, #0
 800192a:	663b      	str	r3, [r7, #96]	; 0x60
			sprintf(buf, "Errror : %d\n\n", s1);
 800192c:	6e3a      	ldr	r2, [r7, #96]	; 0x60
 800192e:	f8b7 3086 	ldrh.w	r3, [r7, #134]	; 0x86
 8001932:	4610      	mov	r0, r2
 8001934:	4976      	ldr	r1, [pc, #472]	; (8001b10 <handleVariable_set+0x298>)
 8001936:	461a      	mov	r2, r3
 8001938:	f000 fd08 	bl	800234c <sprintf>
			buf[11+ 3] = "\0"; 
 800193c:	4b75      	ldr	r3, [pc, #468]	; (8001b14 <handleVariable_set+0x29c>)
 800193e:	b2da      	uxtb	r2, r3
 8001940:	6e3b      	ldr	r3, [r7, #96]	; 0x60
 8001942:	739a      	strb	r2, [r3, #14]
			send( socket_0, buf, len, 0);
 8001944:	4b74      	ldr	r3, [pc, #464]	; (8001b18 <handleVariable_set+0x2a0>)
 8001946:	681b      	ldr	r3, [r3, #0]
 8001948:	b2d9      	uxtb	r1, r3
 800194a:	6e3a      	ldr	r2, [r7, #96]	; 0x60
 800194c:	6ebb      	ldr	r3, [r7, #104]	; 0x68
 800194e:	b29b      	uxth	r3, r3
 8001950:	4608      	mov	r0, r1
 8001952:	4611      	mov	r1, r2
 8001954:	461a      	mov	r2, r3
 8001956:	2300      	movs	r3, #0
 8001958:	f7ff fc18 	bl	800118c <send>

	       		return pdFALSE; 	
 800195c:	2300      	movs	r3, #0
 800195e:	46a5      	mov	sp, r4
 8001960:	e1f1      	b.n	8001d46 <handleVariable_set+0x4ce>
		}	
	
		// convert to correct value ( * 100 ) 
		s1 *= 100; 
 8001962:	f8b7 3086 	ldrh.w	r3, [r7, #134]	; 0x86
 8001966:	461a      	mov	r2, r3
 8001968:	0092      	lsls	r2, r2, #2
 800196a:	4413      	add	r3, r2
 800196c:	461a      	mov	r2, r3
 800196e:	0091      	lsls	r1, r2, #2
 8001970:	461a      	mov	r2, r3
 8001972:	460b      	mov	r3, r1
 8001974:	4413      	add	r3, r2
 8001976:	009b      	lsls	r3, r3, #2
 8001978:	f8a7 3086 	strh.w	r3, [r7, #134]	; 0x86
		
		
		// setup telegram 
		
		telegram.data[0] = s1; 
 800197c:	f8b7 3086 	ldrh.w	r3, [r7, #134]	; 0x86
 8001980:	f8a7 30b0 	strh.w	r3, [r7, #176]	; 0xb0
		telegram.size = 1; 
 8001984:	2301      	movs	r3, #1
 8001986:	f8c7 30ac 	str.w	r3, [r7, #172]	; 0xac
		telegram.Qcmd = SETDATA;
 800198a:	2300      	movs	r3, #0
 800198c:	f887 30a8 	strb.w	r3, [r7, #168]	; 0xa8
		
	
		// send value to setSpeed_task via Queue 
		if ( xQueueSend ( QSpd_handle, (void *)&telegram, portMAX_DELAY ) == pdPASS )
 8001990:	4b62      	ldr	r3, [pc, #392]	; (8001b1c <handleVariable_set+0x2a4>)
 8001992:	681b      	ldr	r3, [r3, #0]
 8001994:	4618      	mov	r0, r3
 8001996:	f107 01a8 	add.w	r1, r7, #168	; 0xa8
 800199a:	f04f 32ff 	mov.w	r2, #4294967295	; 0xffffffff
 800199e:	2300      	movs	r3, #0
 80019a0:	f001 ff00 	bl	80037a4 <xQueueGenericSend>
 80019a4:	4603      	mov	r3, r0
 80019a6:	2b01      	cmp	r3, #1
 80019a8:	d133      	bne.n	8001a12 <handleVariable_set+0x19a>
		{	
					
			if (  xQueueReceive ( QSpd_handle, &telegram, portMAX_DELAY)== pdPASS)
 80019aa:	4b5c      	ldr	r3, [pc, #368]	; (8001b1c <handleVariable_set+0x2a4>)
 80019ac:	681b      	ldr	r3, [r3, #0]
 80019ae:	4618      	mov	r0, r3
 80019b0:	f107 01a8 	add.w	r1, r7, #168	; 0xa8
 80019b4:	f04f 32ff 	mov.w	r2, #4294967295	; 0xffffffff
 80019b8:	2300      	movs	r3, #0
 80019ba:	f002 f80d 	bl	80039d8 <xQueueGenericReceive>
 80019be:	4603      	mov	r3, r0
 80019c0:	2b01      	cmp	r3, #1
 80019c2:	d115      	bne.n	80019f0 <handleVariable_set+0x178>
			{
				if ( telegram.Qcmd = SUCCSESS) 
 80019c4:	2306      	movs	r3, #6
 80019c6:	f887 30a8 	strb.w	r3, [r7, #168]	; 0xa8
				{	
					uint8_t * buf = "Speed succsesfully set.\n\n";
 80019ca:	4b55      	ldr	r3, [pc, #340]	; (8001b20 <handleVariable_set+0x2a8>)
 80019cc:	f8c7 3080 	str.w	r3, [r7, #128]	; 0x80
					int len = 25; 	
 80019d0:	2319      	movs	r3, #25
 80019d2:	67fb      	str	r3, [r7, #124]	; 0x7c
					send( socket, buf, len, 0);
 80019d4:	f8d7 30d8 	ldr.w	r3, [r7, #216]	; 0xd8
 80019d8:	b2da      	uxtb	r2, r3
 80019da:	6ffb      	ldr	r3, [r7, #124]	; 0x7c
 80019dc:	b29b      	uxth	r3, r3
 80019de:	4610      	mov	r0, r2
 80019e0:	f8d7 1080 	ldr.w	r1, [r7, #128]	; 0x80
 80019e4:	461a      	mov	r2, r3
 80019e6:	2300      	movs	r3, #0
 80019e8:	f7ff fbd0 	bl	800118c <send>


					return pdPASS;
 80019ec:	2301      	movs	r3, #1
 80019ee:	e1aa      	b.n	8001d46 <handleVariable_set+0x4ce>
			else
			{
					// send to Queue was unsuccsessful
				// send error via TCP 
		
				uint8_t * buf = "Error recieving response!\n\n";
 80019f0:	4b4c      	ldr	r3, [pc, #304]	; (8001b24 <handleVariable_set+0x2ac>)
 80019f2:	67bb      	str	r3, [r7, #120]	; 0x78
	 			int len = 27; 	
 80019f4:	231b      	movs	r3, #27
 80019f6:	677b      	str	r3, [r7, #116]	; 0x74
				send( socket_0, buf, len, 0);
 80019f8:	4b47      	ldr	r3, [pc, #284]	; (8001b18 <handleVariable_set+0x2a0>)
 80019fa:	681b      	ldr	r3, [r3, #0]
 80019fc:	b2da      	uxtb	r2, r3
 80019fe:	6f7b      	ldr	r3, [r7, #116]	; 0x74
 8001a00:	b29b      	uxth	r3, r3
 8001a02:	4610      	mov	r0, r2
 8001a04:	6fb9      	ldr	r1, [r7, #120]	; 0x78
 8001a06:	461a      	mov	r2, r3
 8001a08:	2300      	movs	r3, #0
 8001a0a:	f7ff fbbf 	bl	800118c <send>

				return pdFALSE; 	
 8001a0e:	2300      	movs	r3, #0
 8001a10:	e199      	b.n	8001d46 <handleVariable_set+0x4ce>
		else
		{
			// send to Queue was unsuccsessful
			// send error via TCP 
		
			uint8_t * buf = "Error sending Queue!\n\n";
 8001a12:	4b45      	ldr	r3, [pc, #276]	; (8001b28 <handleVariable_set+0x2b0>)
 8001a14:	673b      	str	r3, [r7, #112]	; 0x70
	 		int len = 22; 	
 8001a16:	2316      	movs	r3, #22
 8001a18:	66fb      	str	r3, [r7, #108]	; 0x6c
			send( socket, buf, len, 0);
 8001a1a:	f8d7 30d8 	ldr.w	r3, [r7, #216]	; 0xd8
 8001a1e:	b2da      	uxtb	r2, r3
 8001a20:	6efb      	ldr	r3, [r7, #108]	; 0x6c
 8001a22:	b29b      	uxth	r3, r3
 8001a24:	4610      	mov	r0, r2
 8001a26:	6f39      	ldr	r1, [r7, #112]	; 0x70
 8001a28:	461a      	mov	r2, r3
 8001a2a:	2300      	movs	r3, #0
 8001a2c:	f7ff fbae 	bl	800118c <send>

			return pdFALSE; 	
 8001a30:	2300      	movs	r3, #0
 8001a32:	e188      	b.n	8001d46 <handleVariable_set+0x4ce>
	
	//================================================================================//
	//		CASE PARAMETER upramp [value]
	//================================================================================//

	if ( !strncmp ( Param, "upramp", 6))
 8001a34:	f8d7 00c4 	ldr.w	r0, [r7, #196]	; 0xc4
 8001a38:	493c      	ldr	r1, [pc, #240]	; (8001b2c <handleVariable_set+0x2b4>)
 8001a3a:	2206      	movs	r2, #6
 8001a3c:	f005 fd38 	bl	80074b0 <strncmp>
 8001a40:	4603      	mov	r3, r0
 8001a42:	2b00      	cmp	r3, #0
 8001a44:	f040 80ca 	bne.w	8001bdc <handleVariable_set+0x364>
	{	
	
	
		
		// now convert parameter to proper value and check if it is in range 
        	Value[xValueLength-2] = '\0'; 	
 8001a48:	f8d7 30d4 	ldr.w	r3, [r7, #212]	; 0xd4
 8001a4c:	3b02      	subs	r3, #2
 8001a4e:	f8d7 20d0 	ldr.w	r2, [r7, #208]	; 0xd0
 8001a52:	4413      	add	r3, r2
 8001a54:	2200      	movs	r2, #0
 8001a56:	701a      	strb	r2, [r3, #0]
		uint16_t s1 = atoi ( Value ); 
 8001a58:	f8d7 00d0 	ldr.w	r0, [r7, #208]	; 0xd0
 8001a5c:	f005 fc4e 	bl	80072fc <atoi>
 8001a60:	4603      	mov	r3, r0
 8001a62:	f8a7 305e 	strh.w	r3, [r7, #94]	; 0x5e
		// if speed is in range
		if(s1 < 10 ||  s1 > 100 )
 8001a66:	f8b7 305e 	ldrh.w	r3, [r7, #94]	; 0x5e
 8001a6a:	2b09      	cmp	r3, #9
 8001a6c:	d903      	bls.n	8001a76 <handleVariable_set+0x1fe>
 8001a6e:	f8b7 305e 	ldrh.w	r3, [r7, #94]	; 0x5e
 8001a72:	2b64      	cmp	r3, #100	; 0x64
 8001a74:	d95c      	bls.n	8001b30 <handleVariable_set+0x2b8>
 8001a76:	466b      	mov	r3, sp
 8001a78:	461c      	mov	r4, r3
		{
			// send error via TCP
			//
			int len = strlen ( Value ) + 11 ; 
 8001a7a:	f8d7 00d0 	ldr.w	r0, [r7, #208]	; 0xd0
 8001a7e:	f005 fce7 	bl	8007450 <strlen>
 8001a82:	4603      	mov	r3, r0
 8001a84:	330b      	adds	r3, #11
 8001a86:	64bb      	str	r3, [r7, #72]	; 0x48
			uint8_t buf [len]; //= "Error: speed is out of range!\n\n";
 8001a88:	6cb9      	ldr	r1, [r7, #72]	; 0x48
 8001a8a:	1e4b      	subs	r3, r1, #1
 8001a8c:	647b      	str	r3, [r7, #68]	; 0x44
 8001a8e:	460b      	mov	r3, r1
 8001a90:	461a      	mov	r2, r3
 8001a92:	f04f 0300 	mov.w	r3, #0
 8001a96:	00d8      	lsls	r0, r3, #3
 8001a98:	60f8      	str	r0, [r7, #12]
 8001a9a:	f8d7 c00c 	ldr.w	ip, [r7, #12]
 8001a9e:	ea4c 7c52 	orr.w	ip, ip, r2, lsr #29
 8001aa2:	f8c7 c00c 	str.w	ip, [r7, #12]
 8001aa6:	00d0      	lsls	r0, r2, #3
 8001aa8:	460b      	mov	r3, r1
 8001aaa:	461a      	mov	r2, r3
 8001aac:	f04f 0300 	mov.w	r3, #0
 8001ab0:	ea4f 0cc3 	mov.w	ip, r3, lsl #3
 8001ab4:	f8c7 c004 	str.w	ip, [r7, #4]
 8001ab8:	6878      	ldr	r0, [r7, #4]
 8001aba:	ea40 7052 	orr.w	r0, r0, r2, lsr #29
 8001abe:	6078      	str	r0, [r7, #4]
 8001ac0:	ea4f 0cc2 	mov.w	ip, r2, lsl #3
 8001ac4:	460b      	mov	r3, r1
 8001ac6:	3307      	adds	r3, #7
 8001ac8:	08db      	lsrs	r3, r3, #3
 8001aca:	00db      	lsls	r3, r3, #3
 8001acc:	ebad 0d03 	sub.w	sp, sp, r3
 8001ad0:	466b      	mov	r3, sp
 8001ad2:	3300      	adds	r3, #0
 8001ad4:	643b      	str	r3, [r7, #64]	; 0x40
			sprintf(buf, "Errror : %d\n\n", s1);
 8001ad6:	6c3a      	ldr	r2, [r7, #64]	; 0x40
 8001ad8:	f8b7 305e 	ldrh.w	r3, [r7, #94]	; 0x5e
 8001adc:	4610      	mov	r0, r2
 8001ade:	490c      	ldr	r1, [pc, #48]	; (8001b10 <handleVariable_set+0x298>)
 8001ae0:	461a      	mov	r2, r3
 8001ae2:	f000 fc33 	bl	800234c <sprintf>
			buf[11+ 3] = "\0"; 
 8001ae6:	4b0b      	ldr	r3, [pc, #44]	; (8001b14 <handleVariable_set+0x29c>)
 8001ae8:	b2da      	uxtb	r2, r3
 8001aea:	6c3b      	ldr	r3, [r7, #64]	; 0x40
 8001aec:	739a      	strb	r2, [r3, #14]
			send( socket_0, buf, len, 0);
 8001aee:	4b0a      	ldr	r3, [pc, #40]	; (8001b18 <handleVariable_set+0x2a0>)
 8001af0:	681b      	ldr	r3, [r3, #0]
 8001af2:	b2d9      	uxtb	r1, r3
 8001af4:	6c3a      	ldr	r2, [r7, #64]	; 0x40
 8001af6:	6cbb      	ldr	r3, [r7, #72]	; 0x48
 8001af8:	b29b      	uxth	r3, r3
 8001afa:	4608      	mov	r0, r1
 8001afc:	4611      	mov	r1, r2
 8001afe:	461a      	mov	r2, r3
 8001b00:	2300      	movs	r3, #0
 8001b02:	f7ff fb43 	bl	800118c <send>

	       		return pdFALSE; 	
 8001b06:	2300      	movs	r3, #0
 8001b08:	46a5      	mov	sp, r4
 8001b0a:	e11c      	b.n	8001d46 <handleVariable_set+0x4ce>
 8001b0c:	08007854 	.word	0x08007854
 8001b10:	0800785c 	.word	0x0800785c
 8001b14:	0800786c 	.word	0x0800786c
 8001b18:	200131f8 	.word	0x200131f8
 8001b1c:	200131fc 	.word	0x200131fc
 8001b20:	08007870 	.word	0x08007870
 8001b24:	0800788c 	.word	0x0800788c
 8001b28:	080078a8 	.word	0x080078a8
 8001b2c:	080078c0 	.word	0x080078c0
		}	
	
		// convert to correct value ( * 100 ) 
		s1 *= 100; 
 8001b30:	f8b7 305e 	ldrh.w	r3, [r7, #94]	; 0x5e
 8001b34:	461a      	mov	r2, r3
 8001b36:	0092      	lsls	r2, r2, #2
 8001b38:	4413      	add	r3, r2
 8001b3a:	461a      	mov	r2, r3
 8001b3c:	0091      	lsls	r1, r2, #2
 8001b3e:	461a      	mov	r2, r3
 8001b40:	460b      	mov	r3, r1
 8001b42:	4413      	add	r3, r2
 8001b44:	009b      	lsls	r3, r3, #2
 8001b46:	f8a7 305e 	strh.w	r3, [r7, #94]	; 0x5e
		
		
		// setup telegram 
		
		telegram.data[0] = s1; 
 8001b4a:	f8b7 305e 	ldrh.w	r3, [r7, #94]	; 0x5e
 8001b4e:	f8a7 30b0 	strh.w	r3, [r7, #176]	; 0xb0
		telegram.size = 1; 
 8001b52:	2301      	movs	r3, #1
 8001b54:	f8c7 30ac 	str.w	r3, [r7, #172]	; 0xac
		telegram.Qcmd = SETDATA;
 8001b58:	2300      	movs	r3, #0
 8001b5a:	f887 30a8 	strb.w	r3, [r7, #168]	; 0xa8
		
	
		// send value to setSpeed_task via Queue 
		if ( xQueueSend ( QSpd_handle, (void *)&telegram, portMAX_DELAY ) == pdPASS )
 8001b5e:	4b7d      	ldr	r3, [pc, #500]	; (8001d54 <handleVariable_set+0x4dc>)
 8001b60:	681b      	ldr	r3, [r3, #0]
 8001b62:	4618      	mov	r0, r3
 8001b64:	f107 01a8 	add.w	r1, r7, #168	; 0xa8
 8001b68:	f04f 32ff 	mov.w	r2, #4294967295	; 0xffffffff
 8001b6c:	2300      	movs	r3, #0
 8001b6e:	f001 fe19 	bl	80037a4 <xQueueGenericSend>
 8001b72:	4603      	mov	r3, r0
 8001b74:	2b01      	cmp	r3, #1
 8001b76:	d120      	bne.n	8001bba <handleVariable_set+0x342>
		{	
					
			if (  xQueueReceive ( QSpd_handle, &telegram, 500))
 8001b78:	4b76      	ldr	r3, [pc, #472]	; (8001d54 <handleVariable_set+0x4dc>)
 8001b7a:	681b      	ldr	r3, [r3, #0]
 8001b7c:	4618      	mov	r0, r3
 8001b7e:	f107 01a8 	add.w	r1, r7, #168	; 0xa8
 8001b82:	f44f 72fa 	mov.w	r2, #500	; 0x1f4
 8001b86:	2300      	movs	r3, #0
 8001b88:	f001 ff26 	bl	80039d8 <xQueueGenericReceive>
 8001b8c:	4603      	mov	r3, r0
 8001b8e:	2b00      	cmp	r3, #0
 8001b90:	d024      	beq.n	8001bdc <handleVariable_set+0x364>
			{
				if ( telegram.Qcmd = SUCCSESS) 
 8001b92:	2306      	movs	r3, #6
 8001b94:	f887 30a8 	strb.w	r3, [r7, #168]	; 0xa8
				{	
					uint8_t * buf = "Speed succsesfully set.\n\n";
 8001b98:	4b6f      	ldr	r3, [pc, #444]	; (8001d58 <handleVariable_set+0x4e0>)
 8001b9a:	65bb      	str	r3, [r7, #88]	; 0x58
					int len = 25; 	
 8001b9c:	2319      	movs	r3, #25
 8001b9e:	657b      	str	r3, [r7, #84]	; 0x54
					send( socket, buf, len, 0);
 8001ba0:	f8d7 30d8 	ldr.w	r3, [r7, #216]	; 0xd8
 8001ba4:	b2da      	uxtb	r2, r3
 8001ba6:	6d7b      	ldr	r3, [r7, #84]	; 0x54
 8001ba8:	b29b      	uxth	r3, r3
 8001baa:	4610      	mov	r0, r2
 8001bac:	6db9      	ldr	r1, [r7, #88]	; 0x58
 8001bae:	461a      	mov	r2, r3
 8001bb0:	2300      	movs	r3, #0
 8001bb2:	f7ff faeb 	bl	800118c <send>


					return pdPASS;
 8001bb6:	2301      	movs	r3, #1
 8001bb8:	e0c5      	b.n	8001d46 <handleVariable_set+0x4ce>
		else
		{
			// send to Queue was unsuccsessful
			// send error via TCP 
		
			uint8_t * buf = "Error sending Queue!\n\n";
 8001bba:	4b68      	ldr	r3, [pc, #416]	; (8001d5c <handleVariable_set+0x4e4>)
 8001bbc:	653b      	str	r3, [r7, #80]	; 0x50
	 		int len = 22; 	
 8001bbe:	2316      	movs	r3, #22
 8001bc0:	64fb      	str	r3, [r7, #76]	; 0x4c
			send( socket, buf, len, 0);
 8001bc2:	f8d7 30d8 	ldr.w	r3, [r7, #216]	; 0xd8
 8001bc6:	b2da      	uxtb	r2, r3
 8001bc8:	6cfb      	ldr	r3, [r7, #76]	; 0x4c
 8001bca:	b29b      	uxth	r3, r3
 8001bcc:	4610      	mov	r0, r2
 8001bce:	6d39      	ldr	r1, [r7, #80]	; 0x50
 8001bd0:	461a      	mov	r2, r3
 8001bd2:	2300      	movs	r3, #0
 8001bd4:	f7ff fada 	bl	800118c <send>

			return pdFALSE; 	
 8001bd8:	2300      	movs	r3, #0
 8001bda:	e0b4      	b.n	8001d46 <handleVariable_set+0x4ce>

	//================================================================================//
	//		CASE PARAMETER downramp [value]
	//================================================================================//

	if ( !strncmp ( Param, "downramp", 8))
 8001bdc:	f8d7 00c4 	ldr.w	r0, [r7, #196]	; 0xc4
 8001be0:	495f      	ldr	r1, [pc, #380]	; (8001d60 <handleVariable_set+0x4e8>)
 8001be2:	2208      	movs	r2, #8
 8001be4:	f005 fc64 	bl	80074b0 <strncmp>
 8001be8:	4603      	mov	r3, r0
 8001bea:	2b00      	cmp	r3, #0
 8001bec:	f040 80aa 	bne.w	8001d44 <handleVariable_set+0x4cc>
	{	
	
	
		
		// now convert parameter to proper value and check if it is in range 
        	Value[xValueLength-2] = '\0'; 	
 8001bf0:	f8d7 30d4 	ldr.w	r3, [r7, #212]	; 0xd4
 8001bf4:	3b02      	subs	r3, #2
 8001bf6:	f8d7 20d0 	ldr.w	r2, [r7, #208]	; 0xd0
 8001bfa:	4413      	add	r3, r2
 8001bfc:	2200      	movs	r2, #0
 8001bfe:	701a      	strb	r2, [r3, #0]
		uint16_t s1 = atoi ( Value ); 
 8001c00:	f8d7 00d0 	ldr.w	r0, [r7, #208]	; 0xd0
 8001c04:	f005 fb7a 	bl	80072fc <atoi>
 8001c08:	4603      	mov	r3, r0
 8001c0a:	87fb      	strh	r3, [r7, #62]	; 0x3e
		// if speed is in range
		if(s1 < 10 ||  s1 > 100 )
 8001c0c:	8ffb      	ldrh	r3, [r7, #62]	; 0x3e
 8001c0e:	2b09      	cmp	r3, #9
 8001c10:	d902      	bls.n	8001c18 <handleVariable_set+0x3a0>
 8001c12:	8ffb      	ldrh	r3, [r7, #62]	; 0x3e
 8001c14:	2b64      	cmp	r3, #100	; 0x64
 8001c16:	d942      	bls.n	8001c9e <handleVariable_set+0x426>
 8001c18:	466b      	mov	r3, sp
 8001c1a:	461c      	mov	r4, r3
		{
			// send error via TCP
			//
			int len = strlen ( Value ) + 11 ; 
 8001c1c:	f8d7 00d0 	ldr.w	r0, [r7, #208]	; 0xd0
 8001c20:	f005 fc16 	bl	8007450 <strlen>
 8001c24:	4603      	mov	r3, r0
 8001c26:	330b      	adds	r3, #11
 8001c28:	62bb      	str	r3, [r7, #40]	; 0x28
			uint8_t buf [len]; //= "Error: speed is out of range!\n\n";
 8001c2a:	6ab9      	ldr	r1, [r7, #40]	; 0x28
 8001c2c:	1e4b      	subs	r3, r1, #1
 8001c2e:	627b      	str	r3, [r7, #36]	; 0x24
 8001c30:	460b      	mov	r3, r1
 8001c32:	461a      	mov	r2, r3
 8001c34:	f04f 0300 	mov.w	r3, #0
 8001c38:	ea4f 0bc3 	mov.w	fp, r3, lsl #3
 8001c3c:	ea4b 7b52 	orr.w	fp, fp, r2, lsr #29
 8001c40:	ea4f 0ac2 	mov.w	sl, r2, lsl #3
 8001c44:	460b      	mov	r3, r1
 8001c46:	461a      	mov	r2, r3
 8001c48:	f04f 0300 	mov.w	r3, #0
 8001c4c:	ea4f 09c3 	mov.w	r9, r3, lsl #3
 8001c50:	ea49 7952 	orr.w	r9, r9, r2, lsr #29
 8001c54:	ea4f 08c2 	mov.w	r8, r2, lsl #3
 8001c58:	460b      	mov	r3, r1
 8001c5a:	3307      	adds	r3, #7
 8001c5c:	08db      	lsrs	r3, r3, #3
 8001c5e:	00db      	lsls	r3, r3, #3
 8001c60:	ebad 0d03 	sub.w	sp, sp, r3
 8001c64:	466b      	mov	r3, sp
 8001c66:	3300      	adds	r3, #0
 8001c68:	623b      	str	r3, [r7, #32]
			sprintf(buf, "Errror : %d\n\n", s1);
 8001c6a:	6a3a      	ldr	r2, [r7, #32]
 8001c6c:	8ffb      	ldrh	r3, [r7, #62]	; 0x3e
 8001c6e:	4610      	mov	r0, r2
 8001c70:	493c      	ldr	r1, [pc, #240]	; (8001d64 <handleVariable_set+0x4ec>)
 8001c72:	461a      	mov	r2, r3
 8001c74:	f000 fb6a 	bl	800234c <sprintf>
			buf[11+ 3] = "\0"; 
 8001c78:	4b3b      	ldr	r3, [pc, #236]	; (8001d68 <handleVariable_set+0x4f0>)
 8001c7a:	b2da      	uxtb	r2, r3
 8001c7c:	6a3b      	ldr	r3, [r7, #32]
 8001c7e:	739a      	strb	r2, [r3, #14]
			send( socket_0, buf, len, 0);
 8001c80:	4b3a      	ldr	r3, [pc, #232]	; (8001d6c <handleVariable_set+0x4f4>)
 8001c82:	681b      	ldr	r3, [r3, #0]
 8001c84:	b2d9      	uxtb	r1, r3
 8001c86:	6a3a      	ldr	r2, [r7, #32]
 8001c88:	6abb      	ldr	r3, [r7, #40]	; 0x28
 8001c8a:	b29b      	uxth	r3, r3
 8001c8c:	4608      	mov	r0, r1
 8001c8e:	4611      	mov	r1, r2
 8001c90:	461a      	mov	r2, r3
 8001c92:	2300      	movs	r3, #0
 8001c94:	f7ff fa7a 	bl	800118c <send>

	       		return pdFALSE; 	
 8001c98:	2300      	movs	r3, #0
 8001c9a:	46a5      	mov	sp, r4
 8001c9c:	e053      	b.n	8001d46 <handleVariable_set+0x4ce>
		}	
	
		// convert to correct value ( * 100 ) 
		s1 *= 100; 
 8001c9e:	8ffb      	ldrh	r3, [r7, #62]	; 0x3e
 8001ca0:	461a      	mov	r2, r3
 8001ca2:	0092      	lsls	r2, r2, #2
 8001ca4:	4413      	add	r3, r2
 8001ca6:	461a      	mov	r2, r3
 8001ca8:	0091      	lsls	r1, r2, #2
 8001caa:	461a      	mov	r2, r3
 8001cac:	460b      	mov	r3, r1
 8001cae:	4413      	add	r3, r2
 8001cb0:	009b      	lsls	r3, r3, #2
 8001cb2:	87fb      	strh	r3, [r7, #62]	; 0x3e
		
		
		// setup telegram 
		
		telegram.data[0] = s1; 
 8001cb4:	8ffb      	ldrh	r3, [r7, #62]	; 0x3e
 8001cb6:	f8a7 30b0 	strh.w	r3, [r7, #176]	; 0xb0
		telegram.size = 1; 
 8001cba:	2301      	movs	r3, #1
 8001cbc:	f8c7 30ac 	str.w	r3, [r7, #172]	; 0xac
		telegram.Qcmd = SETDATA;
 8001cc0:	2300      	movs	r3, #0
 8001cc2:	f887 30a8 	strb.w	r3, [r7, #168]	; 0xa8
		
	
		// send value to setSpeed_task via Queue 
		if ( xQueueSend ( QSpd_handle, (void *)&telegram, portMAX_DELAY ) == pdPASS )
 8001cc6:	4b23      	ldr	r3, [pc, #140]	; (8001d54 <handleVariable_set+0x4dc>)
 8001cc8:	681b      	ldr	r3, [r3, #0]
 8001cca:	4618      	mov	r0, r3
 8001ccc:	f107 01a8 	add.w	r1, r7, #168	; 0xa8
 8001cd0:	f04f 32ff 	mov.w	r2, #4294967295	; 0xffffffff
 8001cd4:	2300      	movs	r3, #0
 8001cd6:	f001 fd65 	bl	80037a4 <xQueueGenericSend>
 8001cda:	4603      	mov	r3, r0
 8001cdc:	2b01      	cmp	r3, #1
 8001cde:	d120      	bne.n	8001d22 <handleVariable_set+0x4aa>
		{	
					
			if (  xQueueReceive ( QSpd_handle, &telegram, 500))
 8001ce0:	4b1c      	ldr	r3, [pc, #112]	; (8001d54 <handleVariable_set+0x4dc>)
 8001ce2:	681b      	ldr	r3, [r3, #0]
 8001ce4:	4618      	mov	r0, r3
 8001ce6:	f107 01a8 	add.w	r1, r7, #168	; 0xa8
 8001cea:	f44f 72fa 	mov.w	r2, #500	; 0x1f4
 8001cee:	2300      	movs	r3, #0
 8001cf0:	f001 fe72 	bl	80039d8 <xQueueGenericReceive>
 8001cf4:	4603      	mov	r3, r0
 8001cf6:	2b00      	cmp	r3, #0
 8001cf8:	d024      	beq.n	8001d44 <handleVariable_set+0x4cc>
			{
				if ( telegram.Qcmd = SUCCSESS) 
 8001cfa:	2306      	movs	r3, #6
 8001cfc:	f887 30a8 	strb.w	r3, [r7, #168]	; 0xa8
				{	
					uint8_t * buf = "Speed succsesfully set.\n\n";
 8001d00:	4b15      	ldr	r3, [pc, #84]	; (8001d58 <handleVariable_set+0x4e0>)
 8001d02:	63bb      	str	r3, [r7, #56]	; 0x38
					int len = 25; 	
 8001d04:	2319      	movs	r3, #25
 8001d06:	637b      	str	r3, [r7, #52]	; 0x34
					send( socket, buf, len, 0);
 8001d08:	f8d7 30d8 	ldr.w	r3, [r7, #216]	; 0xd8
 8001d0c:	b2da      	uxtb	r2, r3
 8001d0e:	6b7b      	ldr	r3, [r7, #52]	; 0x34
 8001d10:	b29b      	uxth	r3, r3
 8001d12:	4610      	mov	r0, r2
 8001d14:	6bb9      	ldr	r1, [r7, #56]	; 0x38
 8001d16:	461a      	mov	r2, r3
 8001d18:	2300      	movs	r3, #0
 8001d1a:	f7ff fa37 	bl	800118c <send>


					return pdPASS;
 8001d1e:	2301      	movs	r3, #1
 8001d20:	e011      	b.n	8001d46 <handleVariable_set+0x4ce>
		else
		{
			// send to Queue was unsuccsessful
			// send error via TCP 
		
			uint8_t * buf = "Error sending Queue!\n\n";
 8001d22:	4b0e      	ldr	r3, [pc, #56]	; (8001d5c <handleVariable_set+0x4e4>)
 8001d24:	633b      	str	r3, [r7, #48]	; 0x30
	 		int len = 22; 	
 8001d26:	2316      	movs	r3, #22
 8001d28:	62fb      	str	r3, [r7, #44]	; 0x2c
			send( socket, buf, len, 0);
 8001d2a:	f8d7 30d8 	ldr.w	r3, [r7, #216]	; 0xd8
 8001d2e:	b2da      	uxtb	r2, r3
 8001d30:	6afb      	ldr	r3, [r7, #44]	; 0x2c
 8001d32:	b29b      	uxth	r3, r3
 8001d34:	4610      	mov	r0, r2
 8001d36:	6b39      	ldr	r1, [r7, #48]	; 0x30
 8001d38:	461a      	mov	r2, r3
 8001d3a:	2300      	movs	r3, #0
 8001d3c:	f7ff fa26 	bl	800118c <send>

			return pdFALSE; 	
 8001d40:	2300      	movs	r3, #0
 8001d42:	e000      	b.n	8001d46 <handleVariable_set+0x4ce>
		}
	}


			return 0; 
 8001d44:	2300      	movs	r3, #0

}
 8001d46:	4618      	mov	r0, r3
 8001d48:	378c      	adds	r7, #140	; 0x8c
 8001d4a:	46bd      	mov	sp, r7
 8001d4c:	e8bd 4f90 	ldmia.w	sp!, {r4, r7, r8, r9, sl, fp, lr}
 8001d50:	b004      	add	sp, #16
 8001d52:	4770      	bx	lr
 8001d54:	200131fc 	.word	0x200131fc
 8001d58:	08007870 	.word	0x08007870
 8001d5c:	080078a8 	.word	0x080078a8
 8001d60:	080078c8 	.word	0x080078c8
 8001d64:	0800785c 	.word	0x0800785c
 8001d68:	0800786c 	.word	0x0800786c
 8001d6c:	200131f8 	.word	0x200131f8

08001d70 <prvMotorCommand>:
// prototypes of CLI functions 

portBASE_TYPE prvMotorCommand ( 	int8_t *pcWriteBuffer, 
						size_t xWriteBufferLen, 
						const int8_t *pcCommandString)
{
 8001d70:	b590      	push	{r4, r7, lr}
 8001d72:	b0a9      	sub	sp, #164	; 0xa4
 8001d74:	af0a      	add	r7, sp, #40	; 0x28
 8001d76:	60f8      	str	r0, [r7, #12]
 8001d78:	60b9      	str	r1, [r7, #8]
 8001d7a:	607a      	str	r2, [r7, #4]
	int xOptionLength, xParamLength, xValueLength; 
	QueueTelegram telegram; 
	
	// get option from command line 

	Option = FreeRTOS_CLIGetParameter( pcCommandString, // command string 
 8001d7c:	f107 0338 	add.w	r3, r7, #56	; 0x38
 8001d80:	6878      	ldr	r0, [r7, #4]
 8001d82:	2101      	movs	r1, #1
 8001d84:	461a      	mov	r2, r3
 8001d86:	f002 fd97 	bl	80048b8 <FreeRTOS_CLIGetParameter>
 8001d8a:	6778      	str	r0, [r7, #116]	; 0x74

	//================================================================================//
	//		CASE COMMAND SET [parameter name] [value]
	//================================================================================//

	if( !strncmp( Option, "set", 3) ) 
 8001d8c:	6f78      	ldr	r0, [r7, #116]	; 0x74
 8001d8e:	497f      	ldr	r1, [pc, #508]	; (8001f8c <prvMotorCommand+0x21c>)
 8001d90:	2203      	movs	r2, #3
 8001d92:	f005 fb8d 	bl	80074b0 <strncmp>
 8001d96:	4603      	mov	r3, r0
 8001d98:	2b00      	cmp	r3, #0
 8001d9a:	d134      	bne.n	8001e06 <prvMotorCommand+0x96>
	{

		// get parameter from command line 
	
		Param = FreeRTOS_CLIGetParameter( pcCommandString, // command string 
 8001d9c:	f107 0334 	add.w	r3, r7, #52	; 0x34
 8001da0:	6878      	ldr	r0, [r7, #4]
 8001da2:	2102      	movs	r1, #2
 8001da4:	461a      	mov	r2, r3
 8001da6:	f002 fd87 	bl	80048b8 <FreeRTOS_CLIGetParameter>
 8001daa:	6738      	str	r0, [r7, #112]	; 0x70
					  2,  		   // 2nd parameter
				  	  &xParamLength // parameter string length
					  
					 );
		Value = FreeRTOS_CLIGetParameter( pcCommandString, // command string 
 8001dac:	f107 0330 	add.w	r3, r7, #48	; 0x30
 8001db0:	6878      	ldr	r0, [r7, #4]
 8001db2:	2103      	movs	r1, #3
 8001db4:	461a      	mov	r2, r3
 8001db6:	f002 fd7f 	bl	80048b8 <FreeRTOS_CLIGetParameter>
 8001dba:	66f8      	str	r0, [r7, #108]	; 0x6c
					  
					 );
		
		// return pdFALSE if there is no 3rd parameter 

		if (Value == NULL) return pdFALSE; 
 8001dbc:	6efb      	ldr	r3, [r7, #108]	; 0x6c
 8001dbe:	2b00      	cmp	r3, #0
 8001dc0:	d101      	bne.n	8001dc6 <prvMotorCommand+0x56>
 8001dc2:	2300      	movs	r3, #0
 8001dc4:	e0de      	b.n	8001f84 <prvMotorCommand+0x214>

		
		if ( handleVariable_set ( telegram, 
 8001dc6:	6b78      	ldr	r0, [r7, #52]	; 0x34
 8001dc8:	4b71      	ldr	r3, [pc, #452]	; (8001f90 <prvMotorCommand+0x220>)
 8001dca:	6819      	ldr	r1, [r3, #0]
 8001dcc:	6b3a      	ldr	r2, [r7, #48]	; 0x30
 8001dce:	4b71      	ldr	r3, [pc, #452]	; (8001f94 <prvMotorCommand+0x224>)
 8001dd0:	681b      	ldr	r3, [r3, #0]
 8001dd2:	6f3c      	ldr	r4, [r7, #112]	; 0x70
 8001dd4:	9403      	str	r4, [sp, #12]
 8001dd6:	9004      	str	r0, [sp, #16]
 8001dd8:	9105      	str	r1, [sp, #20]
 8001dda:	6ef9      	ldr	r1, [r7, #108]	; 0x6c
 8001ddc:	9106      	str	r1, [sp, #24]
 8001dde:	9207      	str	r2, [sp, #28]
 8001de0:	9308      	str	r3, [sp, #32]
 8001de2:	466b      	mov	r3, sp
 8001de4:	f107 0224 	add.w	r2, r7, #36	; 0x24
 8001de8:	ca07      	ldmia	r2, {r0, r1, r2}
 8001dea:	e883 0007 	stmia.w	r3, {r0, r1, r2}
 8001dee:	f107 0314 	add.w	r3, r7, #20
 8001df2:	cb0f      	ldmia	r3, {r0, r1, r2, r3}
 8001df4:	f7ff fd40 	bl	8001878 <handleVariable_set>
 8001df8:	4603      	mov	r3, r0
 8001dfa:	2b00      	cmp	r3, #0
 8001dfc:	d001      	beq.n	8001e02 <prvMotorCommand+0x92>
				           Param, 
					   xParamLength, 
					   QSpd_handle, 
					   Value,
					   xValueLength,  
					   socket_0)) return pdPASS;
 8001dfe:	2301      	movs	r3, #1
 8001e00:	e0c0      	b.n	8001f84 <prvMotorCommand+0x214>
		return pdFALSE;
 8001e02:	2300      	movs	r3, #0
 8001e04:	e0be      	b.n	8001f84 <prvMotorCommand+0x214>
	//================================================================================//
	//		CASE COMMAND GET [parameter name] [value]
	//================================================================================//


	if (!strncmp ( Option, "get", 3))
 8001e06:	6f78      	ldr	r0, [r7, #116]	; 0x74
 8001e08:	4963      	ldr	r1, [pc, #396]	; (8001f98 <prvMotorCommand+0x228>)
 8001e0a:	2203      	movs	r2, #3
 8001e0c:	f005 fb50 	bl	80074b0 <strncmp>
	}
		
	//================================================================================//
	//		CASE COMMAND STOP 
	//================================================================================//
	if (!strncmp ( Option, "stop", 4))
 8001e10:	6f78      	ldr	r0, [r7, #116]	; 0x74
 8001e12:	4962      	ldr	r1, [pc, #392]	; (8001f9c <prvMotorCommand+0x22c>)
 8001e14:	2204      	movs	r2, #4
 8001e16:	f005 fb4b 	bl	80074b0 <strncmp>
 8001e1a:	4603      	mov	r3, r0
 8001e1c:	2b00      	cmp	r3, #0
 8001e1e:	d153      	bne.n	8001ec8 <prvMotorCommand+0x158>
	{

		telegram.Qcmd = STOP; 
 8001e20:	2305      	movs	r3, #5
 8001e22:	753b      	strb	r3, [r7, #20]
		telegram.size = 0; 
 8001e24:	2300      	movs	r3, #0
 8001e26:	61bb      	str	r3, [r7, #24]
			// send value to setSpeed_task via Queue 
		if ( xQueueSend ( QSpd_handle, (void *)&telegram, 500 ) )
 8001e28:	4b59      	ldr	r3, [pc, #356]	; (8001f90 <prvMotorCommand+0x220>)
 8001e2a:	681a      	ldr	r2, [r3, #0]
 8001e2c:	f107 0314 	add.w	r3, r7, #20
 8001e30:	4610      	mov	r0, r2
 8001e32:	4619      	mov	r1, r3
 8001e34:	f44f 72fa 	mov.w	r2, #500	; 0x1f4
 8001e38:	2300      	movs	r3, #0
 8001e3a:	f001 fcb3 	bl	80037a4 <xQueueGenericSend>
 8001e3e:	4603      	mov	r3, r0
 8001e40:	2b00      	cmp	r3, #0
 8001e42:	d031      	beq.n	8001ea8 <prvMotorCommand+0x138>
		{	
					
			if (  xQueueReceive ( QSpd_handle, &telegram, 500))
 8001e44:	4b52      	ldr	r3, [pc, #328]	; (8001f90 <prvMotorCommand+0x220>)
 8001e46:	681a      	ldr	r2, [r3, #0]
 8001e48:	f107 0314 	add.w	r3, r7, #20
 8001e4c:	4610      	mov	r0, r2
 8001e4e:	4619      	mov	r1, r3
 8001e50:	f44f 72fa 	mov.w	r2, #500	; 0x1f4
 8001e54:	2300      	movs	r3, #0
 8001e56:	f001 fdbf 	bl	80039d8 <xQueueGenericReceive>
 8001e5a:	4603      	mov	r3, r0
 8001e5c:	2b00      	cmp	r3, #0
 8001e5e:	d012      	beq.n	8001e86 <prvMotorCommand+0x116>
			{
				if ( telegram.Qcmd = SUCCSESS) 
 8001e60:	2306      	movs	r3, #6
 8001e62:	753b      	strb	r3, [r7, #20]
				{	
					uint8_t * buf = "Motor succsesfully stopped.\n\n";
 8001e64:	4b4e      	ldr	r3, [pc, #312]	; (8001fa0 <prvMotorCommand+0x230>)
 8001e66:	66bb      	str	r3, [r7, #104]	; 0x68
					int len = 29; 	
 8001e68:	231d      	movs	r3, #29
 8001e6a:	667b      	str	r3, [r7, #100]	; 0x64
					send( socket_0, buf, len, 0);
 8001e6c:	4b49      	ldr	r3, [pc, #292]	; (8001f94 <prvMotorCommand+0x224>)
 8001e6e:	681b      	ldr	r3, [r3, #0]
 8001e70:	b2da      	uxtb	r2, r3
 8001e72:	6e7b      	ldr	r3, [r7, #100]	; 0x64
 8001e74:	b29b      	uxth	r3, r3
 8001e76:	4610      	mov	r0, r2
 8001e78:	6eb9      	ldr	r1, [r7, #104]	; 0x68
 8001e7a:	461a      	mov	r2, r3
 8001e7c:	2300      	movs	r3, #0
 8001e7e:	f7ff f985 	bl	800118c <send>

					
					return pdPASS;
 8001e82:	2301      	movs	r3, #1
 8001e84:	e07e      	b.n	8001f84 <prvMotorCommand+0x214>
			else
			{
					// send to Queue was unsuccsessful
				// send error via TCP 
		
				uint8_t * buf = "Error recieving response!\n\n";
 8001e86:	4b47      	ldr	r3, [pc, #284]	; (8001fa4 <prvMotorCommand+0x234>)
 8001e88:	663b      	str	r3, [r7, #96]	; 0x60
	 			int len = 27; 	
 8001e8a:	231b      	movs	r3, #27
 8001e8c:	65fb      	str	r3, [r7, #92]	; 0x5c
				send( socket_0, buf, len, 0);
 8001e8e:	4b41      	ldr	r3, [pc, #260]	; (8001f94 <prvMotorCommand+0x224>)
 8001e90:	681b      	ldr	r3, [r3, #0]
 8001e92:	b2da      	uxtb	r2, r3
 8001e94:	6dfb      	ldr	r3, [r7, #92]	; 0x5c
 8001e96:	b29b      	uxth	r3, r3
 8001e98:	4610      	mov	r0, r2
 8001e9a:	6e39      	ldr	r1, [r7, #96]	; 0x60
 8001e9c:	461a      	mov	r2, r3
 8001e9e:	2300      	movs	r3, #0
 8001ea0:	f7ff f974 	bl	800118c <send>

				return pdFALSE; 	
 8001ea4:	2300      	movs	r3, #0
 8001ea6:	e06d      	b.n	8001f84 <prvMotorCommand+0x214>
		{
			
			// send to Queue was unsuccsessful
			// send error via TCP 
		
			uint8_t * buf = "Error sending Queue!\n\n";
 8001ea8:	4b3f      	ldr	r3, [pc, #252]	; (8001fa8 <prvMotorCommand+0x238>)
 8001eaa:	65bb      	str	r3, [r7, #88]	; 0x58
	 		int len = 22; 	
 8001eac:	2316      	movs	r3, #22
 8001eae:	657b      	str	r3, [r7, #84]	; 0x54
			send( socket, buf, len, 0);
 8001eb0:	4b3e      	ldr	r3, [pc, #248]	; (8001fac <prvMotorCommand+0x23c>)
 8001eb2:	b2da      	uxtb	r2, r3
 8001eb4:	6d7b      	ldr	r3, [r7, #84]	; 0x54
 8001eb6:	b29b      	uxth	r3, r3
 8001eb8:	4610      	mov	r0, r2
 8001eba:	6db9      	ldr	r1, [r7, #88]	; 0x58
 8001ebc:	461a      	mov	r2, r3
 8001ebe:	2300      	movs	r3, #0
 8001ec0:	f7ff f964 	bl	800118c <send>

			return pdFALSE; 	
 8001ec4:	2300      	movs	r3, #0
 8001ec6:	e05d      	b.n	8001f84 <prvMotorCommand+0x214>
	}
	//================================================================================//
	//		CASE COMMAND START
	//================================================================================//

	if (!strncmp ( Option, "start", 5))
 8001ec8:	6f78      	ldr	r0, [r7, #116]	; 0x74
 8001eca:	4939      	ldr	r1, [pc, #228]	; (8001fb0 <prvMotorCommand+0x240>)
 8001ecc:	2205      	movs	r2, #5
 8001ece:	f005 faef 	bl	80074b0 <strncmp>
 8001ed2:	4603      	mov	r3, r0
 8001ed4:	2b00      	cmp	r3, #0
 8001ed6:	d154      	bne.n	8001f82 <prvMotorCommand+0x212>
	{
		telegram.Qcmd = START; 
 8001ed8:	2304      	movs	r3, #4
 8001eda:	753b      	strb	r3, [r7, #20]
		telegram.size = 0; 
 8001edc:	2300      	movs	r3, #0
 8001ede:	61bb      	str	r3, [r7, #24]
			// send value to setSpeed_task via Queue 
		if ( xQueueSend ( QSpd_handle, (void *)&telegram, 500 ) == pdPASS )
 8001ee0:	4b2b      	ldr	r3, [pc, #172]	; (8001f90 <prvMotorCommand+0x220>)
 8001ee2:	681a      	ldr	r2, [r3, #0]
 8001ee4:	f107 0314 	add.w	r3, r7, #20
 8001ee8:	4610      	mov	r0, r2
 8001eea:	4619      	mov	r1, r3
 8001eec:	f44f 72fa 	mov.w	r2, #500	; 0x1f4
 8001ef0:	2300      	movs	r3, #0
 8001ef2:	f001 fc57 	bl	80037a4 <xQueueGenericSend>
 8001ef6:	4603      	mov	r3, r0
 8001ef8:	2b01      	cmp	r3, #1
 8001efa:	d131      	bne.n	8001f60 <prvMotorCommand+0x1f0>
		{	
					
			if (  xQueueReceive ( QSpd_handle, &telegram, 500) == pdPASS)
 8001efc:	4b24      	ldr	r3, [pc, #144]	; (8001f90 <prvMotorCommand+0x220>)
 8001efe:	681a      	ldr	r2, [r3, #0]
 8001f00:	f107 0314 	add.w	r3, r7, #20
 8001f04:	4610      	mov	r0, r2
 8001f06:	4619      	mov	r1, r3
 8001f08:	f44f 72fa 	mov.w	r2, #500	; 0x1f4
 8001f0c:	2300      	movs	r3, #0
 8001f0e:	f001 fd63 	bl	80039d8 <xQueueGenericReceive>
 8001f12:	4603      	mov	r3, r0
 8001f14:	2b01      	cmp	r3, #1
 8001f16:	d112      	bne.n	8001f3e <prvMotorCommand+0x1ce>
			{
				if ( telegram.Qcmd = SUCCSESS) 
 8001f18:	2306      	movs	r3, #6
 8001f1a:	753b      	strb	r3, [r7, #20]
				{	
					uint8_t * buf = "Motor succsesfully started.\n\n";
 8001f1c:	4b25      	ldr	r3, [pc, #148]	; (8001fb4 <prvMotorCommand+0x244>)
 8001f1e:	653b      	str	r3, [r7, #80]	; 0x50
					int len = 29; 	
 8001f20:	231d      	movs	r3, #29
 8001f22:	64fb      	str	r3, [r7, #76]	; 0x4c
					send( socket_0, buf, len, 0);
 8001f24:	4b1b      	ldr	r3, [pc, #108]	; (8001f94 <prvMotorCommand+0x224>)
 8001f26:	681b      	ldr	r3, [r3, #0]
 8001f28:	b2da      	uxtb	r2, r3
 8001f2a:	6cfb      	ldr	r3, [r7, #76]	; 0x4c
 8001f2c:	b29b      	uxth	r3, r3
 8001f2e:	4610      	mov	r0, r2
 8001f30:	6d39      	ldr	r1, [r7, #80]	; 0x50
 8001f32:	461a      	mov	r2, r3
 8001f34:	2300      	movs	r3, #0
 8001f36:	f7ff f929 	bl	800118c <send>

					
					return pdPASS;
 8001f3a:	2301      	movs	r3, #1
 8001f3c:	e022      	b.n	8001f84 <prvMotorCommand+0x214>
			else
			{
					// send to Queue was unsuccsessful
				// send error via TCP 
		
				uint8_t * buf = "Error recieving response!\n\n";
 8001f3e:	4b19      	ldr	r3, [pc, #100]	; (8001fa4 <prvMotorCommand+0x234>)
 8001f40:	64bb      	str	r3, [r7, #72]	; 0x48
	 			int len = 27; 	
 8001f42:	231b      	movs	r3, #27
 8001f44:	647b      	str	r3, [r7, #68]	; 0x44
				send( socket_0, buf, len, 0);
 8001f46:	4b13      	ldr	r3, [pc, #76]	; (8001f94 <prvMotorCommand+0x224>)
 8001f48:	681b      	ldr	r3, [r3, #0]
 8001f4a:	b2da      	uxtb	r2, r3
 8001f4c:	6c7b      	ldr	r3, [r7, #68]	; 0x44
 8001f4e:	b29b      	uxth	r3, r3
 8001f50:	4610      	mov	r0, r2
 8001f52:	6cb9      	ldr	r1, [r7, #72]	; 0x48
 8001f54:	461a      	mov	r2, r3
 8001f56:	2300      	movs	r3, #0
 8001f58:	f7ff f918 	bl	800118c <send>

				return pdFALSE; 	
 8001f5c:	2300      	movs	r3, #0
 8001f5e:	e011      	b.n	8001f84 <prvMotorCommand+0x214>
		{
			
			// send to Queue was unsuccsessful
			// send error via TCP 
		
			uint8_t * buf = "Error sending Queue!\n\n";
 8001f60:	4b11      	ldr	r3, [pc, #68]	; (8001fa8 <prvMotorCommand+0x238>)
 8001f62:	643b      	str	r3, [r7, #64]	; 0x40
	 		int len = 22; 	
 8001f64:	2316      	movs	r3, #22
 8001f66:	63fb      	str	r3, [r7, #60]	; 0x3c
			send( socket_0, buf, len, 0);
 8001f68:	4b0a      	ldr	r3, [pc, #40]	; (8001f94 <prvMotorCommand+0x224>)
 8001f6a:	681b      	ldr	r3, [r3, #0]
 8001f6c:	b2da      	uxtb	r2, r3
 8001f6e:	6bfb      	ldr	r3, [r7, #60]	; 0x3c
 8001f70:	b29b      	uxth	r3, r3
 8001f72:	4610      	mov	r0, r2
 8001f74:	6c39      	ldr	r1, [r7, #64]	; 0x40
 8001f76:	461a      	mov	r2, r3
 8001f78:	2300      	movs	r3, #0
 8001f7a:	f7ff f907 	bl	800118c <send>

			return pdFALSE; 	
 8001f7e:	2300      	movs	r3, #0
 8001f80:	e000      	b.n	8001f84 <prvMotorCommand+0x214>

	}



	return pdFALSE;
 8001f82:	2300      	movs	r3, #0


}
 8001f84:	4618      	mov	r0, r3
 8001f86:	377c      	adds	r7, #124	; 0x7c
 8001f88:	46bd      	mov	sp, r7
 8001f8a:	bd90      	pop	{r4, r7, pc}
 8001f8c:	080078d4 	.word	0x080078d4
 8001f90:	200131fc 	.word	0x200131fc
 8001f94:	200131f8 	.word	0x200131f8
 8001f98:	080078d8 	.word	0x080078d8
 8001f9c:	080078dc 	.word	0x080078dc
 8001fa0:	080078e4 	.word	0x080078e4
 8001fa4:	0800788c 	.word	0x0800788c
 8001fa8:	080078a8 	.word	0x080078a8
 8001fac:	0800103d 	.word	0x0800103d
 8001fb0:	08007904 	.word	0x08007904
 8001fb4:	0800790c 	.word	0x0800790c

08001fb8 <printchar>:
#define putchar(c) c

#include <stdarg.h>

static void printchar(char **str, int c)
{
 8001fb8:	b480      	push	{r7}
 8001fba:	b083      	sub	sp, #12
 8001fbc:	af00      	add	r7, sp, #0
 8001fbe:	6078      	str	r0, [r7, #4]
 8001fc0:	6039      	str	r1, [r7, #0]
	//extern int putchar(int c);
	
	if (str) {
 8001fc2:	687b      	ldr	r3, [r7, #4]
 8001fc4:	2b00      	cmp	r3, #0
 8001fc6:	d009      	beq.n	8001fdc <printchar+0x24>
		**str = (char)c;
 8001fc8:	687b      	ldr	r3, [r7, #4]
 8001fca:	681b      	ldr	r3, [r3, #0]
 8001fcc:	683a      	ldr	r2, [r7, #0]
 8001fce:	b2d2      	uxtb	r2, r2
 8001fd0:	701a      	strb	r2, [r3, #0]
		++(*str);
 8001fd2:	687b      	ldr	r3, [r7, #4]
 8001fd4:	681b      	ldr	r3, [r3, #0]
 8001fd6:	1c5a      	adds	r2, r3, #1
 8001fd8:	687b      	ldr	r3, [r7, #4]
 8001fda:	601a      	str	r2, [r3, #0]
	}
	else
	{ 
		(void)putchar(c);
	}
}
 8001fdc:	370c      	adds	r7, #12
 8001fde:	46bd      	mov	sp, r7
 8001fe0:	f85d 7b04 	ldr.w	r7, [sp], #4
 8001fe4:	4770      	bx	lr
 8001fe6:	bf00      	nop

08001fe8 <prints>:
//***********************************************************************************************************//
//***********************************************************************************************************//
//***********************************************************************************************************//
//***********************************************************************************************************//
static int prints(char **out, const char *string, int width, int pad)
{
 8001fe8:	e92d 41f0 	stmdb	sp!, {r4, r5, r6, r7, r8, lr}
 8001fec:	b084      	sub	sp, #16
 8001fee:	af00      	add	r7, sp, #0
 8001ff0:	60f8      	str	r0, [r7, #12]
 8001ff2:	60b9      	str	r1, [r7, #8]
 8001ff4:	607a      	str	r2, [r7, #4]
 8001ff6:	603b      	str	r3, [r7, #0]
	register int pc = 0, padchar = ' ';
 8001ff8:	2400      	movs	r4, #0
 8001ffa:	2620      	movs	r6, #32

	if (width > 0) {
 8001ffc:	687b      	ldr	r3, [r7, #4]
 8001ffe:	2b00      	cmp	r3, #0
 8002000:	dd19      	ble.n	8002036 <prints+0x4e>
		register int len = 0;
 8002002:	2500      	movs	r5, #0
		register const char *ptr;
		for (ptr = string; *ptr; ++ptr) ++len;
 8002004:	f8d7 8008 	ldr.w	r8, [r7, #8]
 8002008:	e002      	b.n	8002010 <prints+0x28>
 800200a:	3501      	adds	r5, #1
 800200c:	f108 0801 	add.w	r8, r8, #1
 8002010:	f898 3000 	ldrb.w	r3, [r8]
 8002014:	2b00      	cmp	r3, #0
 8002016:	d1f8      	bne.n	800200a <prints+0x22>
		if (len >= width) width = 0;
 8002018:	687b      	ldr	r3, [r7, #4]
 800201a:	429d      	cmp	r5, r3
 800201c:	db02      	blt.n	8002024 <prints+0x3c>
 800201e:	2300      	movs	r3, #0
 8002020:	607b      	str	r3, [r7, #4]
 8002022:	e002      	b.n	800202a <prints+0x42>
		else width -= len;
 8002024:	687b      	ldr	r3, [r7, #4]
 8002026:	1b5b      	subs	r3, r3, r5
 8002028:	607b      	str	r3, [r7, #4]
		if (pad & PAD_ZERO) padchar = '0';
 800202a:	683b      	ldr	r3, [r7, #0]
 800202c:	f003 0302 	and.w	r3, r3, #2
 8002030:	2b00      	cmp	r3, #0
 8002032:	d000      	beq.n	8002036 <prints+0x4e>
 8002034:	2630      	movs	r6, #48	; 0x30
	}
	if (!(pad & PAD_RIGHT)) {
 8002036:	683b      	ldr	r3, [r7, #0]
 8002038:	f003 0301 	and.w	r3, r3, #1
 800203c:	2b00      	cmp	r3, #0
 800203e:	d10b      	bne.n	8002058 <prints+0x70>
		for ( ; width > 0; --width) {
 8002040:	e007      	b.n	8002052 <prints+0x6a>
			printchar (out, padchar);
 8002042:	68f8      	ldr	r0, [r7, #12]
 8002044:	4631      	mov	r1, r6
 8002046:	f7ff ffb7 	bl	8001fb8 <printchar>
			++pc;
 800204a:	3401      	adds	r4, #1
		if (len >= width) width = 0;
		else width -= len;
		if (pad & PAD_ZERO) padchar = '0';
	}
	if (!(pad & PAD_RIGHT)) {
		for ( ; width > 0; --width) {
 800204c:	687b      	ldr	r3, [r7, #4]
 800204e:	3b01      	subs	r3, #1
 8002050:	607b      	str	r3, [r7, #4]
 8002052:	687b      	ldr	r3, [r7, #4]
 8002054:	2b00      	cmp	r3, #0
 8002056:	dcf4      	bgt.n	8002042 <prints+0x5a>
			printchar (out, padchar);
			++pc;
		}
	}
	for ( ; *string ; ++string) {
 8002058:	e009      	b.n	800206e <prints+0x86>
		printchar (out, *string);
 800205a:	68bb      	ldr	r3, [r7, #8]
 800205c:	781b      	ldrb	r3, [r3, #0]
 800205e:	68f8      	ldr	r0, [r7, #12]
 8002060:	4619      	mov	r1, r3
 8002062:	f7ff ffa9 	bl	8001fb8 <printchar>
		++pc;
 8002066:	3401      	adds	r4, #1
		for ( ; width > 0; --width) {
			printchar (out, padchar);
			++pc;
		}
	}
	for ( ; *string ; ++string) {
 8002068:	68bb      	ldr	r3, [r7, #8]
 800206a:	3301      	adds	r3, #1
 800206c:	60bb      	str	r3, [r7, #8]
 800206e:	68bb      	ldr	r3, [r7, #8]
 8002070:	781b      	ldrb	r3, [r3, #0]
 8002072:	2b00      	cmp	r3, #0
 8002074:	d1f1      	bne.n	800205a <prints+0x72>
		printchar (out, *string);
		++pc;
	}
	for ( ; width > 0; --width) {
 8002076:	e007      	b.n	8002088 <prints+0xa0>
		printchar (out, padchar);
 8002078:	68f8      	ldr	r0, [r7, #12]
 800207a:	4631      	mov	r1, r6
 800207c:	f7ff ff9c 	bl	8001fb8 <printchar>
		++pc;
 8002080:	3401      	adds	r4, #1
	}
	for ( ; *string ; ++string) {
		printchar (out, *string);
		++pc;
	}
	for ( ; width > 0; --width) {
 8002082:	687b      	ldr	r3, [r7, #4]
 8002084:	3b01      	subs	r3, #1
 8002086:	607b      	str	r3, [r7, #4]
 8002088:	687b      	ldr	r3, [r7, #4]
 800208a:	2b00      	cmp	r3, #0
 800208c:	dcf4      	bgt.n	8002078 <prints+0x90>
		printchar (out, padchar);
		++pc;
	}

	return pc;
 800208e:	4623      	mov	r3, r4
}
 8002090:	4618      	mov	r0, r3
 8002092:	3710      	adds	r7, #16
 8002094:	46bd      	mov	sp, r7
 8002096:	e8bd 81f0 	ldmia.w	sp!, {r4, r5, r6, r7, r8, pc}
 800209a:	bf00      	nop

0800209c <printi>:

/* the following should be enough for 32 bit int */
#define PRINT_BUF_LEN 12

static int printi(char **out, int i, int b, int sg, int width, int pad, int letbase)
{
 800209c:	e92d 43f0 	stmdb	sp!, {r4, r5, r6, r7, r8, r9, lr}
 80020a0:	b089      	sub	sp, #36	; 0x24
 80020a2:	af00      	add	r7, sp, #0
 80020a4:	60f8      	str	r0, [r7, #12]
 80020a6:	60b9      	str	r1, [r7, #8]
 80020a8:	607a      	str	r2, [r7, #4]
 80020aa:	603b      	str	r3, [r7, #0]
	char print_buf[PRINT_BUF_LEN];
	register char *s;
	register int t, neg = 0, pc = 0;
 80020ac:	f04f 0900 	mov.w	r9, #0
 80020b0:	f04f 0800 	mov.w	r8, #0
	register unsigned int u = (unsigned int)i;
 80020b4:	68bd      	ldr	r5, [r7, #8]

	if (i == 0) {
 80020b6:	68bb      	ldr	r3, [r7, #8]
 80020b8:	2b00      	cmp	r3, #0
 80020ba:	d10d      	bne.n	80020d8 <printi+0x3c>
		print_buf[0] = '0';
 80020bc:	2330      	movs	r3, #48	; 0x30
 80020be:	753b      	strb	r3, [r7, #20]
		print_buf[1] = '\0';
 80020c0:	2300      	movs	r3, #0
 80020c2:	757b      	strb	r3, [r7, #21]
		return prints (out, print_buf, width, pad);
 80020c4:	f107 0314 	add.w	r3, r7, #20
 80020c8:	68f8      	ldr	r0, [r7, #12]
 80020ca:	4619      	mov	r1, r3
 80020cc:	6c3a      	ldr	r2, [r7, #64]	; 0x40
 80020ce:	6c7b      	ldr	r3, [r7, #68]	; 0x44
 80020d0:	f7ff ff8a 	bl	8001fe8 <prints>
 80020d4:	4603      	mov	r3, r0
 80020d6:	e049      	b.n	800216c <printi+0xd0>
	}

	if (sg && b == 10 && i < 0) {
 80020d8:	683b      	ldr	r3, [r7, #0]
 80020da:	2b00      	cmp	r3, #0
 80020dc:	d00a      	beq.n	80020f4 <printi+0x58>
 80020de:	687b      	ldr	r3, [r7, #4]
 80020e0:	2b0a      	cmp	r3, #10
 80020e2:	d107      	bne.n	80020f4 <printi+0x58>
 80020e4:	68bb      	ldr	r3, [r7, #8]
 80020e6:	2b00      	cmp	r3, #0
 80020e8:	da04      	bge.n	80020f4 <printi+0x58>
		neg = 1;
 80020ea:	f04f 0901 	mov.w	r9, #1
		u = (unsigned int)-i;
 80020ee:	68bb      	ldr	r3, [r7, #8]
 80020f0:	425b      	negs	r3, r3
 80020f2:	461d      	mov	r5, r3
	}

	s = print_buf + PRINT_BUF_LEN-1;
 80020f4:	f107 0414 	add.w	r4, r7, #20
 80020f8:	340b      	adds	r4, #11
	*s = '\0';
 80020fa:	2300      	movs	r3, #0
 80020fc:	7023      	strb	r3, [r4, #0]

	while (u) {
 80020fe:	e013      	b.n	8002128 <printi+0x8c>
		t = (unsigned int)u % b;
 8002100:	687b      	ldr	r3, [r7, #4]
 8002102:	fbb5 f2f3 	udiv	r2, r5, r3
 8002106:	fb03 f302 	mul.w	r3, r3, r2
 800210a:	1aeb      	subs	r3, r5, r3
 800210c:	461e      	mov	r6, r3
		if( t >= 10 )
 800210e:	2e09      	cmp	r6, #9
 8002110:	dd02      	ble.n	8002118 <printi+0x7c>
			t += letbase - '0' - 10;
 8002112:	6cbb      	ldr	r3, [r7, #72]	; 0x48
 8002114:	3b3a      	subs	r3, #58	; 0x3a
 8002116:	441e      	add	r6, r3
		*--s = (char)(t + '0');
 8002118:	3c01      	subs	r4, #1
 800211a:	b2f3      	uxtb	r3, r6
 800211c:	3330      	adds	r3, #48	; 0x30
 800211e:	b2db      	uxtb	r3, r3
 8002120:	7023      	strb	r3, [r4, #0]
		u /= b;
 8002122:	687b      	ldr	r3, [r7, #4]
 8002124:	fbb5 f5f3 	udiv	r5, r5, r3
	}

	s = print_buf + PRINT_BUF_LEN-1;
	*s = '\0';

	while (u) {
 8002128:	2d00      	cmp	r5, #0
 800212a:	d1e9      	bne.n	8002100 <printi+0x64>
			t += letbase - '0' - 10;
		*--s = (char)(t + '0');
		u /= b;
	}

	if (neg) {
 800212c:	f1b9 0f00 	cmp.w	r9, #0
 8002130:	d014      	beq.n	800215c <printi+0xc0>
		if( width && (pad & PAD_ZERO) ) {
 8002132:	6c3b      	ldr	r3, [r7, #64]	; 0x40
 8002134:	2b00      	cmp	r3, #0
 8002136:	d00e      	beq.n	8002156 <printi+0xba>
 8002138:	6c7b      	ldr	r3, [r7, #68]	; 0x44
 800213a:	f003 0302 	and.w	r3, r3, #2
 800213e:	2b00      	cmp	r3, #0
 8002140:	d009      	beq.n	8002156 <printi+0xba>
			printchar (out, '-');
 8002142:	68f8      	ldr	r0, [r7, #12]
 8002144:	212d      	movs	r1, #45	; 0x2d
 8002146:	f7ff ff37 	bl	8001fb8 <printchar>
			++pc;
 800214a:	f108 0801 	add.w	r8, r8, #1
			--width;
 800214e:	6c3b      	ldr	r3, [r7, #64]	; 0x40
 8002150:	3b01      	subs	r3, #1
 8002152:	643b      	str	r3, [r7, #64]	; 0x40
 8002154:	e002      	b.n	800215c <printi+0xc0>
		}
		else {
			*--s = '-';
 8002156:	3c01      	subs	r4, #1
 8002158:	232d      	movs	r3, #45	; 0x2d
 800215a:	7023      	strb	r3, [r4, #0]
		}
	}

	return pc + prints (out, s, width, pad);
 800215c:	68f8      	ldr	r0, [r7, #12]
 800215e:	4621      	mov	r1, r4
 8002160:	6c3a      	ldr	r2, [r7, #64]	; 0x40
 8002162:	6c7b      	ldr	r3, [r7, #68]	; 0x44
 8002164:	f7ff ff40 	bl	8001fe8 <prints>
 8002168:	4603      	mov	r3, r0
 800216a:	4443      	add	r3, r8
}
 800216c:	4618      	mov	r0, r3
 800216e:	3724      	adds	r7, #36	; 0x24
 8002170:	46bd      	mov	sp, r7
 8002172:	e8bd 83f0 	ldmia.w	sp!, {r4, r5, r6, r7, r8, r9, pc}
 8002176:	bf00      	nop

08002178 <print>:

static int print( char **out, const char *format, va_list args )
{
 8002178:	e92d 41f0 	stmdb	sp!, {r4, r5, r6, r7, r8, lr}
 800217c:	b08a      	sub	sp, #40	; 0x28
 800217e:	af04      	add	r7, sp, #16
 8002180:	60f8      	str	r0, [r7, #12]
 8002182:	60b9      	str	r1, [r7, #8]
 8002184:	607a      	str	r2, [r7, #4]
	register int width, pad;
	register int pc = 0;
 8002186:	2400      	movs	r4, #0
	char scr[2];

	for (; *format != 0; ++format) {
 8002188:	e0cc      	b.n	8002324 <print+0x1ac>
		if (*format == '%') {
 800218a:	68bb      	ldr	r3, [r7, #8]
 800218c:	781b      	ldrb	r3, [r3, #0]
 800218e:	2b25      	cmp	r3, #37	; 0x25
 8002190:	f040 80be 	bne.w	8002310 <print+0x198>
			++format;
 8002194:	68bb      	ldr	r3, [r7, #8]
 8002196:	3301      	adds	r3, #1
 8002198:	60bb      	str	r3, [r7, #8]
			width = pad = 0;
 800219a:	2600      	movs	r6, #0
 800219c:	4635      	mov	r5, r6
			if (*format == '\0') break;
 800219e:	68bb      	ldr	r3, [r7, #8]
 80021a0:	781b      	ldrb	r3, [r3, #0]
 80021a2:	2b00      	cmp	r3, #0
 80021a4:	d100      	bne.n	80021a8 <print+0x30>
 80021a6:	e0c2      	b.n	800232e <print+0x1b6>
			if (*format == '%') goto out;
 80021a8:	68bb      	ldr	r3, [r7, #8]
 80021aa:	781b      	ldrb	r3, [r3, #0]
 80021ac:	2b25      	cmp	r3, #37	; 0x25
 80021ae:	d100      	bne.n	80021b2 <print+0x3a>
 80021b0:	e0ae      	b.n	8002310 <print+0x198>
			if (*format == '-') {
 80021b2:	68bb      	ldr	r3, [r7, #8]
 80021b4:	781b      	ldrb	r3, [r3, #0]
 80021b6:	2b2d      	cmp	r3, #45	; 0x2d
 80021b8:	d104      	bne.n	80021c4 <print+0x4c>
				++format;
 80021ba:	68bb      	ldr	r3, [r7, #8]
 80021bc:	3301      	adds	r3, #1
 80021be:	60bb      	str	r3, [r7, #8]
				pad = PAD_RIGHT;
 80021c0:	2601      	movs	r6, #1
			}
			while (*format == '0') {
 80021c2:	e005      	b.n	80021d0 <print+0x58>
 80021c4:	e004      	b.n	80021d0 <print+0x58>
				++format;
 80021c6:	68bb      	ldr	r3, [r7, #8]
 80021c8:	3301      	adds	r3, #1
 80021ca:	60bb      	str	r3, [r7, #8]
				pad |= PAD_ZERO;
 80021cc:	f046 0602 	orr.w	r6, r6, #2
			if (*format == '%') goto out;
			if (*format == '-') {
				++format;
				pad = PAD_RIGHT;
			}
			while (*format == '0') {
 80021d0:	68bb      	ldr	r3, [r7, #8]
 80021d2:	781b      	ldrb	r3, [r3, #0]
 80021d4:	2b30      	cmp	r3, #48	; 0x30
 80021d6:	d0f6      	beq.n	80021c6 <print+0x4e>
				++format;
				pad |= PAD_ZERO;
			}
			for ( ; *format >= '0' && *format <= '9'; ++format) {
 80021d8:	e00b      	b.n	80021f2 <print+0x7a>
				width *= 10;
 80021da:	462b      	mov	r3, r5
 80021dc:	009b      	lsls	r3, r3, #2
 80021de:	442b      	add	r3, r5
 80021e0:	005b      	lsls	r3, r3, #1
 80021e2:	461d      	mov	r5, r3
				width += *format - '0';
 80021e4:	68bb      	ldr	r3, [r7, #8]
 80021e6:	781b      	ldrb	r3, [r3, #0]
 80021e8:	3b30      	subs	r3, #48	; 0x30
 80021ea:	441d      	add	r5, r3
			}
			while (*format == '0') {
				++format;
				pad |= PAD_ZERO;
			}
			for ( ; *format >= '0' && *format <= '9'; ++format) {
 80021ec:	68bb      	ldr	r3, [r7, #8]
 80021ee:	3301      	adds	r3, #1
 80021f0:	60bb      	str	r3, [r7, #8]
 80021f2:	68bb      	ldr	r3, [r7, #8]
 80021f4:	781b      	ldrb	r3, [r3, #0]
 80021f6:	2b2f      	cmp	r3, #47	; 0x2f
 80021f8:	d903      	bls.n	8002202 <print+0x8a>
 80021fa:	68bb      	ldr	r3, [r7, #8]
 80021fc:	781b      	ldrb	r3, [r3, #0]
 80021fe:	2b39      	cmp	r3, #57	; 0x39
 8002200:	d9eb      	bls.n	80021da <print+0x62>
				width *= 10;
				width += *format - '0';
			}
			if( *format == 's' ) {
 8002202:	68bb      	ldr	r3, [r7, #8]
 8002204:	781b      	ldrb	r3, [r3, #0]
 8002206:	2b73      	cmp	r3, #115	; 0x73
 8002208:	d113      	bne.n	8002232 <print+0xba>
				register char *s = (char *)va_arg( args, int );
 800220a:	687b      	ldr	r3, [r7, #4]
 800220c:	1d1a      	adds	r2, r3, #4
 800220e:	607a      	str	r2, [r7, #4]
 8002210:	681b      	ldr	r3, [r3, #0]
 8002212:	4698      	mov	r8, r3
				pc += prints (out, s?s:"(null)", width, pad);
 8002214:	f1b8 0f00 	cmp.w	r8, #0
 8002218:	d001      	beq.n	800221e <print+0xa6>
 800221a:	4643      	mov	r3, r8
 800221c:	e000      	b.n	8002220 <print+0xa8>
 800221e:	4b4a      	ldr	r3, [pc, #296]	; (8002348 <print+0x1d0>)
 8002220:	68f8      	ldr	r0, [r7, #12]
 8002222:	4619      	mov	r1, r3
 8002224:	462a      	mov	r2, r5
 8002226:	4633      	mov	r3, r6
 8002228:	f7ff fede 	bl	8001fe8 <prints>
 800222c:	4603      	mov	r3, r0
 800222e:	441c      	add	r4, r3
				continue;
 8002230:	e075      	b.n	800231e <print+0x1a6>
			}
			if( *format == 'd' || *format == 'i' ) {
 8002232:	68bb      	ldr	r3, [r7, #8]
 8002234:	781b      	ldrb	r3, [r3, #0]
 8002236:	2b64      	cmp	r3, #100	; 0x64
 8002238:	d003      	beq.n	8002242 <print+0xca>
 800223a:	68bb      	ldr	r3, [r7, #8]
 800223c:	781b      	ldrb	r3, [r3, #0]
 800223e:	2b69      	cmp	r3, #105	; 0x69
 8002240:	d110      	bne.n	8002264 <print+0xec>
				pc += printi (out, va_arg( args, int ), 10, 1, width, pad, 'a');
 8002242:	687b      	ldr	r3, [r7, #4]
 8002244:	1d1a      	adds	r2, r3, #4
 8002246:	607a      	str	r2, [r7, #4]
 8002248:	681b      	ldr	r3, [r3, #0]
 800224a:	9500      	str	r5, [sp, #0]
 800224c:	9601      	str	r6, [sp, #4]
 800224e:	2261      	movs	r2, #97	; 0x61
 8002250:	9202      	str	r2, [sp, #8]
 8002252:	68f8      	ldr	r0, [r7, #12]
 8002254:	4619      	mov	r1, r3
 8002256:	220a      	movs	r2, #10
 8002258:	2301      	movs	r3, #1
 800225a:	f7ff ff1f 	bl	800209c <printi>
 800225e:	4603      	mov	r3, r0
 8002260:	441c      	add	r4, r3
				continue;
 8002262:	e05c      	b.n	800231e <print+0x1a6>
			}
			if( *format == 'x' ) {
 8002264:	68bb      	ldr	r3, [r7, #8]
 8002266:	781b      	ldrb	r3, [r3, #0]
 8002268:	2b78      	cmp	r3, #120	; 0x78
 800226a:	d110      	bne.n	800228e <print+0x116>
				pc += printi (out, va_arg( args, int ), 16, 0, width, pad, 'a');
 800226c:	687b      	ldr	r3, [r7, #4]
 800226e:	1d1a      	adds	r2, r3, #4
 8002270:	607a      	str	r2, [r7, #4]
 8002272:	681b      	ldr	r3, [r3, #0]
 8002274:	9500      	str	r5, [sp, #0]
 8002276:	9601      	str	r6, [sp, #4]
 8002278:	2261      	movs	r2, #97	; 0x61
 800227a:	9202      	str	r2, [sp, #8]
 800227c:	68f8      	ldr	r0, [r7, #12]
 800227e:	4619      	mov	r1, r3
 8002280:	2210      	movs	r2, #16
 8002282:	2300      	movs	r3, #0
 8002284:	f7ff ff0a 	bl	800209c <printi>
 8002288:	4603      	mov	r3, r0
 800228a:	441c      	add	r4, r3
				continue;
 800228c:	e047      	b.n	800231e <print+0x1a6>
			}
			if( *format == 'X' ) {
 800228e:	68bb      	ldr	r3, [r7, #8]
 8002290:	781b      	ldrb	r3, [r3, #0]
 8002292:	2b58      	cmp	r3, #88	; 0x58
 8002294:	d110      	bne.n	80022b8 <print+0x140>
				pc += printi (out, va_arg( args, int ), 16, 0, width, pad, 'A');
 8002296:	687b      	ldr	r3, [r7, #4]
 8002298:	1d1a      	adds	r2, r3, #4
 800229a:	607a      	str	r2, [r7, #4]
 800229c:	681b      	ldr	r3, [r3, #0]
 800229e:	9500      	str	r5, [sp, #0]
 80022a0:	9601      	str	r6, [sp, #4]
 80022a2:	2241      	movs	r2, #65	; 0x41
 80022a4:	9202      	str	r2, [sp, #8]
 80022a6:	68f8      	ldr	r0, [r7, #12]
 80022a8:	4619      	mov	r1, r3
 80022aa:	2210      	movs	r2, #16
 80022ac:	2300      	movs	r3, #0
 80022ae:	f7ff fef5 	bl	800209c <printi>
 80022b2:	4603      	mov	r3, r0
 80022b4:	441c      	add	r4, r3
				continue;
 80022b6:	e032      	b.n	800231e <print+0x1a6>
			}
			if( *format == 'u' ) {
 80022b8:	68bb      	ldr	r3, [r7, #8]
 80022ba:	781b      	ldrb	r3, [r3, #0]
 80022bc:	2b75      	cmp	r3, #117	; 0x75
 80022be:	d110      	bne.n	80022e2 <print+0x16a>
				pc += printi (out, va_arg( args, int ), 10, 0, width, pad, 'a');
 80022c0:	687b      	ldr	r3, [r7, #4]
 80022c2:	1d1a      	adds	r2, r3, #4
 80022c4:	607a      	str	r2, [r7, #4]
 80022c6:	681b      	ldr	r3, [r3, #0]
 80022c8:	9500      	str	r5, [sp, #0]
 80022ca:	9601      	str	r6, [sp, #4]
 80022cc:	2261      	movs	r2, #97	; 0x61
 80022ce:	9202      	str	r2, [sp, #8]
 80022d0:	68f8      	ldr	r0, [r7, #12]
 80022d2:	4619      	mov	r1, r3
 80022d4:	220a      	movs	r2, #10
 80022d6:	2300      	movs	r3, #0
 80022d8:	f7ff fee0 	bl	800209c <printi>
 80022dc:	4603      	mov	r3, r0
 80022de:	441c      	add	r4, r3
				continue;
 80022e0:	e01d      	b.n	800231e <print+0x1a6>
			}
			if( *format == 'c' ) {
 80022e2:	68bb      	ldr	r3, [r7, #8]
 80022e4:	781b      	ldrb	r3, [r3, #0]
 80022e6:	2b63      	cmp	r3, #99	; 0x63
 80022e8:	d119      	bne.n	800231e <print+0x1a6>
				/* char are converted to int then pushed on the stack */
				scr[0] = (char)va_arg( args, int );
 80022ea:	687b      	ldr	r3, [r7, #4]
 80022ec:	1d1a      	adds	r2, r3, #4
 80022ee:	607a      	str	r2, [r7, #4]
 80022f0:	681b      	ldr	r3, [r3, #0]
 80022f2:	b2db      	uxtb	r3, r3
 80022f4:	753b      	strb	r3, [r7, #20]
				scr[1] = '\0';
 80022f6:	2300      	movs	r3, #0
 80022f8:	757b      	strb	r3, [r7, #21]
				pc += prints (out, scr, width, pad);
 80022fa:	f107 0314 	add.w	r3, r7, #20
 80022fe:	68f8      	ldr	r0, [r7, #12]
 8002300:	4619      	mov	r1, r3
 8002302:	462a      	mov	r2, r5
 8002304:	4633      	mov	r3, r6
 8002306:	f7ff fe6f 	bl	8001fe8 <prints>
 800230a:	4603      	mov	r3, r0
 800230c:	441c      	add	r4, r3
				continue;
 800230e:	e006      	b.n	800231e <print+0x1a6>
			}
		}
		else {
		out:
			printchar (out, *format);
 8002310:	68bb      	ldr	r3, [r7, #8]
 8002312:	781b      	ldrb	r3, [r3, #0]
 8002314:	68f8      	ldr	r0, [r7, #12]
 8002316:	4619      	mov	r1, r3
 8002318:	f7ff fe4e 	bl	8001fb8 <printchar>
			++pc;
 800231c:	3401      	adds	r4, #1
{
	register int width, pad;
	register int pc = 0;
	char scr[2];

	for (; *format != 0; ++format) {
 800231e:	68bb      	ldr	r3, [r7, #8]
 8002320:	3301      	adds	r3, #1
 8002322:	60bb      	str	r3, [r7, #8]
 8002324:	68bb      	ldr	r3, [r7, #8]
 8002326:	781b      	ldrb	r3, [r3, #0]
 8002328:	2b00      	cmp	r3, #0
 800232a:	f47f af2e 	bne.w	800218a <print+0x12>
		out:
			printchar (out, *format);
			++pc;
		}
	}
	if (out) **out = '\0';
 800232e:	68fb      	ldr	r3, [r7, #12]
 8002330:	2b00      	cmp	r3, #0
 8002332:	d003      	beq.n	800233c <print+0x1c4>
 8002334:	68fb      	ldr	r3, [r7, #12]
 8002336:	681b      	ldr	r3, [r3, #0]
 8002338:	2200      	movs	r2, #0
 800233a:	701a      	strb	r2, [r3, #0]
	va_end( args );
	return pc;
 800233c:	4623      	mov	r3, r4
}
 800233e:	4618      	mov	r0, r3
 8002340:	3718      	adds	r7, #24
 8002342:	46bd      	mov	sp, r7
 8002344:	e8bd 81f0 	ldmia.w	sp!, {r4, r5, r6, r7, r8, pc}
 8002348:	0800792c 	.word	0x0800792c

0800234c <sprintf>:
	va_start( args, format );
	return print( 0, format, args );
}

int sprintf(char *out, const char *format, ...)
{
 800234c:	b40e      	push	{r1, r2, r3}
 800234e:	b580      	push	{r7, lr}
 8002350:	b085      	sub	sp, #20
 8002352:	af00      	add	r7, sp, #0
 8002354:	6078      	str	r0, [r7, #4]
	va_list args;

	va_start( args, format );
 8002356:	f107 0320 	add.w	r3, r7, #32
 800235a:	60fb      	str	r3, [r7, #12]
	return print( &out, format, args );
 800235c:	1d3b      	adds	r3, r7, #4
 800235e:	4618      	mov	r0, r3
 8002360:	69f9      	ldr	r1, [r7, #28]
 8002362:	68fa      	ldr	r2, [r7, #12]
 8002364:	f7ff ff08 	bl	8002178 <print>
 8002368:	4603      	mov	r3, r0
}
 800236a:	4618      	mov	r0, r3
 800236c:	3714      	adds	r7, #20
 800236e:	46bd      	mov	sp, r7
 8002370:	e8bd 4080 	ldmia.w	sp!, {r7, lr}
 8002374:	b003      	add	sp, #12
 8002376:	4770      	bx	lr

08002378 <NVIC_SetPendingIRQ>:
    The interrupt number cannot be a negative value.

    \param [in]      IRQn  Number of the interrupt for set pending
 */
static __INLINE void NVIC_SetPendingIRQ(IRQn_Type IRQn)
{
 8002378:	b480      	push	{r7}
 800237a:	b083      	sub	sp, #12
 800237c:	af00      	add	r7, sp, #0
 800237e:	4603      	mov	r3, r0
 8002380:	71fb      	strb	r3, [r7, #7]
  NVIC->ISPR[((uint32_t)(IRQn) >> 5)] = (1 << ((uint32_t)(IRQn) & 0x1F)); /* set interrupt pending */
 8002382:	4b09      	ldr	r3, [pc, #36]	; (80023a8 <NVIC_SetPendingIRQ+0x30>)
 8002384:	f997 2007 	ldrsb.w	r2, [r7, #7]
 8002388:	0952      	lsrs	r2, r2, #5
 800238a:	79f9      	ldrb	r1, [r7, #7]
 800238c:	f001 011f 	and.w	r1, r1, #31
 8002390:	2001      	movs	r0, #1
 8002392:	fa00 f101 	lsl.w	r1, r0, r1
 8002396:	3240      	adds	r2, #64	; 0x40
 8002398:	f843 1022 	str.w	r1, [r3, r2, lsl #2]
}
 800239c:	370c      	adds	r7, #12
 800239e:	46bd      	mov	sp, r7
 80023a0:	f85d 7b04 	ldr.w	r7, [sp], #4
 80023a4:	4770      	bx	lr
 80023a6:	bf00      	nop
 80023a8:	e000e100 	.word	0xe000e100

080023ac <main>:
volatile unsigned long ulButtonPressCounts = 0UL;

/*-----------------------------------------------------------*/

int main(void)
{
 80023ac:	b580      	push	{r7, lr}
 80023ae:	b086      	sub	sp, #24
 80023b0:	af04      	add	r7, sp, #16
	/*<! Configure the hardware ready to run the test. */
	prvSetupHardware();;
 80023b2:	f000 f84b 	bl	800244c <prvSetupHardware>
	
	// ============now register CLI commands ===================
	
	FreeRTOS_CLIRegisterCommand( &xMotorCommand );
 80023b6:	481c      	ldr	r0, [pc, #112]	; (8002428 <main+0x7c>)
 80023b8:	f002 f9c4 	bl	8004744 <FreeRTOS_CLIRegisterCommand>
       		

	// =============== register CLI commands ===================
	int sr = sizeof(QueueTelegram);
 80023bc:	231c      	movs	r3, #28
 80023be:	607b      	str	r3, [r7, #4]
	sr = sizeof (QueueTelegram *);
 80023c0:	2304      	movs	r3, #4
 80023c2:	607b      	str	r3, [r7, #4]
	// create queues 
	QSpd_handle = xQueueCreate(1, sizeof(QueueTelegram));
 80023c4:	2001      	movs	r0, #1
 80023c6:	211c      	movs	r1, #28
 80023c8:	2200      	movs	r2, #0
 80023ca:	f001 f9a9 	bl	8003720 <xQueueGenericCreate>
 80023ce:	4602      	mov	r2, r0
 80023d0:	4b16      	ldr	r3, [pc, #88]	; (800242c <main+0x80>)
 80023d2:	601a      	str	r2, [r3, #0]
	QStatus_handle = xQueueCreate(10, sizeof(int16_t));
 80023d4:	200a      	movs	r0, #10
 80023d6:	2102      	movs	r1, #2
 80023d8:	2200      	movs	r2, #0
 80023da:	f001 f9a1 	bl	8003720 <xQueueGenericCreate>
 80023de:	4602      	mov	r2, r0
 80023e0:	4b13      	ldr	r3, [pc, #76]	; (8002430 <main+0x84>)
 80023e2:	601a      	str	r2, [r3, #0]

/*------------------added by Matic Knap 24 Jun 2014 ---------------------------------*/

	// echo server task 
	xTaskCreate(set_macTask, "SETMAC", configMINIMAL_STACK_SIZE*100, 
 80023e4:	2301      	movs	r3, #1
 80023e6:	9300      	str	r3, [sp, #0]
 80023e8:	4b12      	ldr	r3, [pc, #72]	; (8002434 <main+0x88>)
 80023ea:	9301      	str	r3, [sp, #4]
 80023ec:	2300      	movs	r3, #0
 80023ee:	9302      	str	r3, [sp, #8]
 80023f0:	2300      	movs	r3, #0
 80023f2:	9303      	str	r3, [sp, #12]
 80023f4:	4810      	ldr	r0, [pc, #64]	; (8002438 <main+0x8c>)
 80023f6:	4911      	ldr	r1, [pc, #68]	; (800243c <main+0x90>)
 80023f8:	f243 22c8 	movw	r2, #13000	; 0x32c8
 80023fc:	2300      	movs	r3, #0
 80023fe:	f000 f987 	bl	8002710 <xTaskGenericCreate>
			NULL, mainFLASH_TASK_PRIORITY, &set_macTaskHandle);
	
	// run motor task 
	xTaskCreate(motorControl_task, "motorH", configMINIMAL_STACK_SIZE*10,
 8002402:	2301      	movs	r3, #1
 8002404:	9300      	str	r3, [sp, #0]
 8002406:	4b0e      	ldr	r3, [pc, #56]	; (8002440 <main+0x94>)
 8002408:	9301      	str	r3, [sp, #4]
 800240a:	2300      	movs	r3, #0
 800240c:	9302      	str	r3, [sp, #8]
 800240e:	2300      	movs	r3, #0
 8002410:	9303      	str	r3, [sp, #12]
 8002412:	480c      	ldr	r0, [pc, #48]	; (8002444 <main+0x98>)
 8002414:	490c      	ldr	r1, [pc, #48]	; (8002448 <main+0x9c>)
 8002416:	f240 5214 	movw	r2, #1300	; 0x514
 800241a:	2300      	movs	r3, #0
 800241c:	f000 f978 	bl	8002710 <xTaskGenericCreate>
	mainCREATE_SIMPLE_LED_FLASHER_DEMO_ONLY is set to 0 (at the top of this
	file).  See the comments at the top of this file for more information. */
	//prvOptionallyCreateComprehensveTestApplication();

	/* Start the scheduler. */
	vTaskStartScheduler();
 8002420:	f000 fbb8 	bl	8002b94 <vTaskStartScheduler>
	/* If all is well, the scheduler will now be running, and the following line
	will never be reached.  If the following line does execute, then there was
	insufficient FreeRTOS heap memory available for the idle and/or timer tasks
	to be created.  See the memory management section on the FreeRTOS web site
	for more details. */
	for( ;; );
 8002424:	e7fe      	b.n	8002424 <main+0x78>
 8002426:	bf00      	nop
 8002428:	08007d14 	.word	0x08007d14
 800242c:	200131fc 	.word	0x200131fc
 8002430:	200141b0 	.word	0x200141b0
 8002434:	200141b8 	.word	0x200141b8
 8002438:	0800152d 	.word	0x0800152d
 800243c:	08007988 	.word	0x08007988
 8002440:	200131f0 	.word	0x200131f0
 8002444:	08001731 	.word	0x08001731
 8002448:	08007990 	.word	0x08007990

0800244c <prvSetupHardware>:
/*! 	\fn static void prvSetupHardware(void) 
 *	\brief Sets up hardware
 * 	
 */
void prvSetupHardware( void )
{
 800244c:	b580      	push	{r7, lr}
 800244e:	b084      	sub	sp, #16
 8002450:	af04      	add	r7, sp, #16
	/* Setup STM32 system (clock, PLL and Flash configuration) */
	SystemInit();
 8002452:	f000 f8af 	bl	80025b4 <SystemInit>

	/* Ensure all priority bits are assigned as preemption priority bits. */
	NVIC_PriorityGroupConfig( NVIC_PriorityGroup_4 );
 8002456:	f44f 7040 	mov.w	r0, #768	; 0x300
 800245a:	f002 fc61 	bl	8004d20 <NVIC_PriorityGroupConfig>
	
	//init_SPIx();
	init_SPIx();	
 800245e:	f7fd ff57 	bl	8000310 <init_SPIx>
	
	// init USARTx 
	init_USARTx();
 8002462:	f7ff f895 	bl	8001590 <init_USARTx>
	 * Function : 		init_W5200 from W5200.c file 
	 * Stack size :		5 times minimial stack size 
	 * Task priority :	main flash task priority + 1 
	 * Parameters 	 :	no parameters (NULL)
	 */  
	xTaskCreate(init_W5200, "init_W5200", configMINIMAL_STACK_SIZE*5, 
 8002466:	2302      	movs	r3, #2
 8002468:	9300      	str	r3, [sp, #0]
 800246a:	2300      	movs	r3, #0
 800246c:	9301      	str	r3, [sp, #4]
 800246e:	2300      	movs	r3, #0
 8002470:	9302      	str	r3, [sp, #8]
 8002472:	2300      	movs	r3, #0
 8002474:	9303      	str	r3, [sp, #12]
 8002476:	4804      	ldr	r0, [pc, #16]	; (8002488 <prvSetupHardware+0x3c>)
 8002478:	4904      	ldr	r1, [pc, #16]	; (800248c <prvSetupHardware+0x40>)
 800247a:	f240 228a 	movw	r2, #650	; 0x28a
 800247e:	2300      	movs	r3, #0
 8002480:	f000 f946 	bl	8002710 <xTaskGenericCreate>
			NULL, mainFLASH_TASK_PRIORITY + 1 , NULL);
	
	
}
 8002484:	46bd      	mov	sp, r7
 8002486:	bd80      	pop	{r7, pc}
 8002488:	08000ac5 	.word	0x08000ac5
 800248c:	08007998 	.word	0x08007998

08002490 <vApplicationTickHook>:
/*-----------------------------------------------------------*/

void vApplicationTickHook( void )
{
 8002490:	b580      	push	{r7, lr}
 8002492:	af00      	add	r7, sp, #0
	#if ( mainCREATE_SIMPLE_LED_FLASHER_DEMO_ONLY == 0 )
	{
		/* Just to verify that the interrupt nesting behaves as expected,
		increment ulFPUInterruptNesting on entry, and decrement it on exit. */
		ulFPUInterruptNesting++;
 8002494:	4b06      	ldr	r3, [pc, #24]	; (80024b0 <vApplicationTickHook+0x20>)
 8002496:	681b      	ldr	r3, [r3, #0]
 8002498:	1c5a      	adds	r2, r3, #1
 800249a:	4b05      	ldr	r3, [pc, #20]	; (80024b0 <vApplicationTickHook+0x20>)
 800249c:	601a      	str	r2, [r3, #0]

		/* Trigger a timer 2 interrupt, which will fill the registers with a
		different value and itself trigger a timer 3 interrupt.  Note that the
		timers are not actually used.  The timer 2 and 3 interrupt vectors are
		just used for convenience. */
		NVIC_SetPendingIRQ( TIM2_IRQn );
 800249e:	201c      	movs	r0, #28
 80024a0:	f7ff ff6a 	bl	8002378 <NVIC_SetPendingIRQ>
		/* Ensure that, after returning from the nested interrupts, all the FPU
		registers contain the value to which they were set by the tick hook
		function. */
		//configASSERT( ulRegTestCheckFlopRegistersContainParameterValue( 0UL ) );

		ulFPUInterruptNesting--;
 80024a4:	4b02      	ldr	r3, [pc, #8]	; (80024b0 <vApplicationTickHook+0x20>)
 80024a6:	681b      	ldr	r3, [r3, #0]
 80024a8:	1e5a      	subs	r2, r3, #1
 80024aa:	4b01      	ldr	r3, [pc, #4]	; (80024b0 <vApplicationTickHook+0x20>)
 80024ac:	601a      	str	r2, [r3, #0]
	}
	#endif
}
 80024ae:	bd80      	pop	{r7, pc}
 80024b0:	20000490 	.word	0x20000490

080024b4 <TIM3_IRQHandler>:
	NVIC_Init( &NVIC_InitStructure );
}
/*-----------------------------------------------------------*/

void TIM3_IRQHandler( void )
{
 80024b4:	b480      	push	{r7}
 80024b6:	af00      	add	r7, sp, #0
	/* Just to verify that the interrupt nesting behaves as expected, increment
	ulFPUInterruptNesting on entry, and decrement it on exit. */
	ulFPUInterruptNesting++;
 80024b8:	4b0b      	ldr	r3, [pc, #44]	; (80024e8 <TIM3_IRQHandler+0x34>)
 80024ba:	681b      	ldr	r3, [r3, #0]
 80024bc:	1c5a      	adds	r2, r3, #1
 80024be:	4b0a      	ldr	r3, [pc, #40]	; (80024e8 <TIM3_IRQHandler+0x34>)
 80024c0:	601a      	str	r2, [r3, #0]

	/* This is the highest priority interrupt in the chain of forced nesting
	interrupts, so latch the maximum value reached by ulFPUInterruptNesting.
	This is done purely to allow verification that the nesting depth reaches
	that intended. */
	if( ulFPUInterruptNesting > ulMaxFPUInterruptNesting )
 80024c2:	4b09      	ldr	r3, [pc, #36]	; (80024e8 <TIM3_IRQHandler+0x34>)
 80024c4:	681a      	ldr	r2, [r3, #0]
 80024c6:	4b09      	ldr	r3, [pc, #36]	; (80024ec <TIM3_IRQHandler+0x38>)
 80024c8:	681b      	ldr	r3, [r3, #0]
 80024ca:	429a      	cmp	r2, r3
 80024cc:	d903      	bls.n	80024d6 <TIM3_IRQHandler+0x22>
	{
		ulMaxFPUInterruptNesting = ulFPUInterruptNesting;
 80024ce:	4b06      	ldr	r3, [pc, #24]	; (80024e8 <TIM3_IRQHandler+0x34>)
 80024d0:	681a      	ldr	r2, [r3, #0]
 80024d2:	4b06      	ldr	r3, [pc, #24]	; (80024ec <TIM3_IRQHandler+0x38>)
 80024d4:	601a      	str	r2, [r3, #0]

	/* Fill the FPU registers with 99 to overwrite the values written by
	TIM2_IRQHandler(). */
	//vRegTestClearFlopRegistersToParameterValue( 99UL );

	ulFPUInterruptNesting--;
 80024d6:	4b04      	ldr	r3, [pc, #16]	; (80024e8 <TIM3_IRQHandler+0x34>)
 80024d8:	681b      	ldr	r3, [r3, #0]
 80024da:	1e5a      	subs	r2, r3, #1
 80024dc:	4b02      	ldr	r3, [pc, #8]	; (80024e8 <TIM3_IRQHandler+0x34>)
 80024de:	601a      	str	r2, [r3, #0]
}
 80024e0:	46bd      	mov	sp, r7
 80024e2:	f85d 7b04 	ldr.w	r7, [sp], #4
 80024e6:	4770      	bx	lr
 80024e8:	20000490 	.word	0x20000490
 80024ec:	20000494 	.word	0x20000494

080024f0 <TIM2_IRQHandler>:
/*-----------------------------------------------------------*/

void TIM2_IRQHandler( void )
{
 80024f0:	b580      	push	{r7, lr}
 80024f2:	af00      	add	r7, sp, #0
	/* Just to verify that the interrupt nesting behaves as expected, increment
	ulFPUInterruptNesting on entry, and decrement it on exit. */
	ulFPUInterruptNesting++;
 80024f4:	4b06      	ldr	r3, [pc, #24]	; (8002510 <TIM2_IRQHandler+0x20>)
 80024f6:	681b      	ldr	r3, [r3, #0]
 80024f8:	1c5a      	adds	r2, r3, #1
 80024fa:	4b05      	ldr	r3, [pc, #20]	; (8002510 <TIM2_IRQHandler+0x20>)
 80024fc:	601a      	str	r2, [r3, #0]
	/* Fill the FPU registers with 1. */
	//vRegTestClearFlopRegistersToParameterValue( 1UL );

	/* Trigger a timer 3 interrupt, which will fill the registers with a
	different value. */
	NVIC_SetPendingIRQ( TIM3_IRQn );
 80024fe:	201d      	movs	r0, #29
 8002500:	f7ff ff3a 	bl	8002378 <NVIC_SetPendingIRQ>
	/* Ensure that, after returning from the nesting interrupt, all the FPU
	registers contain the value to which they were set by this interrupt
	function. */
	//configASSERT( ulRegTestCheckFlopRegistersContainParameterValue( 1UL ) );

	ulFPUInterruptNesting--;
 8002504:	4b02      	ldr	r3, [pc, #8]	; (8002510 <TIM2_IRQHandler+0x20>)
 8002506:	681b      	ldr	r3, [r3, #0]
 8002508:	1e5a      	subs	r2, r3, #1
 800250a:	4b01      	ldr	r3, [pc, #4]	; (8002510 <TIM2_IRQHandler+0x20>)
 800250c:	601a      	str	r2, [r3, #0]
}
 800250e:	bd80      	pop	{r7, pc}
 8002510:	20000490 	.word	0x20000490

08002514 <vApplicationMallocFailedHook>:


/*-----------------------------------------------------------*/

void vApplicationMallocFailedHook( void )
{
 8002514:	b580      	push	{r7, lr}
 8002516:	af00      	add	r7, sp, #0
	demo application.  If heap_1.c or heap_2.c are used, then the size of the
	heap available to pvPortMalloc() is defined by configTOTAL_HEAP_SIZE in
	FreeRTOSConfig.h, and the xPortGetFreeHeapSize() API function can be used
	to query the size of free heap space that remains (although it does not
	provide information on how the remaining heap might be fragmented). */
	taskDISABLE_INTERRUPTS();
 8002518:	f001 fe04 	bl	8004124 <ulPortSetInterruptMask>
	for( ;; );
 800251c:	e7fe      	b.n	800251c <vApplicationMallocFailedHook+0x8>
 800251e:	bf00      	nop

08002520 <vApplicationIdleHook>:
}
/*-----------------------------------------------------------*/

void vApplicationIdleHook( void )
{
 8002520:	b480      	push	{r7}
 8002522:	af00      	add	r7, sp, #0
	specified, or call vTaskDelay()).  If the application makes use of the
	vTaskDelete() API function (as this demo application does) then it is also
	important that vApplicationIdleHook() is permitted to return to its calling
	unction, because it is the responsibility of the idle task to clean up
	memory allocated by the kernel to any task that has since been deleted. */
}
 8002524:	46bd      	mov	sp, r7
 8002526:	f85d 7b04 	ldr.w	r7, [sp], #4
 800252a:	4770      	bx	lr

0800252c <vApplicationStackOverflowHook>:
/*-----------------------------------------------------------*/

void vApplicationStackOverflowHook( xTaskHandle pxTask, signed char *pcTaskName )
{
 800252c:	b580      	push	{r7, lr}
 800252e:	b082      	sub	sp, #8
 8002530:	af00      	add	r7, sp, #0
 8002532:	6078      	str	r0, [r7, #4]
 8002534:	6039      	str	r1, [r7, #0]
	( void ) pxTask;

	/* Run time stack overflow checking is performed if
	configCHECK_FOR_STACK_OVERFLOW is defined to 1 or 2.  This hook
	function is called if a stack overflow is detected. */
	taskDISABLE_INTERRUPTS();
 8002536:	f001 fdf5 	bl	8004124 <ulPortSetInterruptMask>
	for( ;; );
 800253a:	e7fe      	b.n	800253a <vApplicationStackOverflowHook+0xe>

0800253c <assert_failed>:
}
///*-----------------------------------------------------------*/
void assert_failed(uint8_t* file, uint32_t line){
 800253c:	b480      	push	{r7}
 800253e:	b083      	sub	sp, #12
 8002540:	af00      	add	r7, sp, #0
 8002542:	6078      	str	r0, [r7, #4]
 8002544:	6039      	str	r1, [r7, #0]

}
 8002546:	370c      	adds	r7, #12
 8002548:	46bd      	mov	sp, r7
 800254a:	f85d 7b04 	ldr.w	r7, [sp], #4
 800254e:	4770      	bx	lr

08002550 <Reset_Handler>:
 8002550:	2100      	movs	r1, #0
 8002552:	f000 b804 	b.w	800255e <LoopCopyDataInit>

08002556 <CopyDataInit>:
 8002556:	4b10      	ldr	r3, [pc, #64]	; (8002598 <LoopFillZerobss+0x22>)
 8002558:	585b      	ldr	r3, [r3, r1]
 800255a:	5043      	str	r3, [r0, r1]
 800255c:	3104      	adds	r1, #4

0800255e <LoopCopyDataInit>:
 800255e:	480f      	ldr	r0, [pc, #60]	; (800259c <LoopFillZerobss+0x26>)
 8002560:	4b0f      	ldr	r3, [pc, #60]	; (80025a0 <LoopFillZerobss+0x2a>)
 8002562:	1842      	adds	r2, r0, r1
 8002564:	429a      	cmp	r2, r3
 8002566:	f4ff aff6 	bcc.w	8002556 <CopyDataInit>
 800256a:	4a0e      	ldr	r2, [pc, #56]	; (80025a4 <LoopFillZerobss+0x2e>)
 800256c:	f000 b803 	b.w	8002576 <LoopFillZerobss>

08002570 <FillZerobss>:
 8002570:	2300      	movs	r3, #0
 8002572:	f842 3b04 	str.w	r3, [r2], #4

08002576 <LoopFillZerobss>:
 8002576:	4b0c      	ldr	r3, [pc, #48]	; (80025a8 <LoopFillZerobss+0x32>)
 8002578:	429a      	cmp	r2, r3
 800257a:	f4ff aff9 	bcc.w	8002570 <FillZerobss>
 800257e:	480b      	ldr	r0, [pc, #44]	; (80025ac <LoopFillZerobss+0x36>)
 8002580:	6801      	ldr	r1, [r0, #0]
 8002582:	f441 0170 	orr.w	r1, r1, #15728640	; 0xf00000
 8002586:	6001      	str	r1, [r0, #0]
 8002588:	f000 f814 	bl	80025b4 <SystemInit>
 800258c:	f004 feba 	bl	8007304 <__libc_init_array>
 8002590:	f7ff ff0c 	bl	80023ac <main>
 8002594:	4770      	bx	lr
 8002596:	0000      	.short	0x0000
 8002598:	08007e78 	.word	0x08007e78
 800259c:	20000000 	.word	0x20000000
 80025a0:	20000460 	.word	0x20000460
 80025a4:	20000460 	.word	0x20000460
 80025a8:	2001425c 	.word	0x2001425c
 80025ac:	e000ed88 	.word	0xe000ed88

080025b0 <ADC_IRQHandler>:
 80025b0:	f7ff bffe 	b.w	80025b0 <ADC_IRQHandler>

080025b4 <SystemInit>:
  *         SystemFrequency variable.
  * @param  None
  * @retval None
  */
void SystemInit(void)
{
 80025b4:	b580      	push	{r7, lr}
 80025b6:	af00      	add	r7, sp, #0
  /* FPU settings ------------------------------------------------------------*/
  #if (__FPU_PRESENT == 1) && (__FPU_USED == 1)
    SCB->CPACR |= ((3UL << 10*2)|(3UL << 11*2));  /* set CP10 and CP11 Full Access */
 80025b8:	4b15      	ldr	r3, [pc, #84]	; (8002610 <SystemInit+0x5c>)
 80025ba:	4a15      	ldr	r2, [pc, #84]	; (8002610 <SystemInit+0x5c>)
 80025bc:	f8d2 2088 	ldr.w	r2, [r2, #136]	; 0x88
 80025c0:	f442 0270 	orr.w	r2, r2, #15728640	; 0xf00000
 80025c4:	f8c3 2088 	str.w	r2, [r3, #136]	; 0x88
  #endif
  /* Reset the RCC clock configuration to the default reset state ------------*/
  /* Set HSION bit */
  RCC->CR |= (uint32_t)0x00000001;
 80025c8:	4b12      	ldr	r3, [pc, #72]	; (8002614 <SystemInit+0x60>)
 80025ca:	4a12      	ldr	r2, [pc, #72]	; (8002614 <SystemInit+0x60>)
 80025cc:	6812      	ldr	r2, [r2, #0]
 80025ce:	f042 0201 	orr.w	r2, r2, #1
 80025d2:	601a      	str	r2, [r3, #0]

  /* Reset CFGR register */
  RCC->CFGR = 0x00000000;
 80025d4:	4b0f      	ldr	r3, [pc, #60]	; (8002614 <SystemInit+0x60>)
 80025d6:	2200      	movs	r2, #0
 80025d8:	609a      	str	r2, [r3, #8]

  /* Reset HSEON, CSSON and PLLON bits */
  RCC->CR &= (uint32_t)0xFEF6FFFF;
 80025da:	4a0e      	ldr	r2, [pc, #56]	; (8002614 <SystemInit+0x60>)
 80025dc:	4b0d      	ldr	r3, [pc, #52]	; (8002614 <SystemInit+0x60>)
 80025de:	681b      	ldr	r3, [r3, #0]
 80025e0:	f023 7384 	bic.w	r3, r3, #17301504	; 0x1080000
 80025e4:	f423 3380 	bic.w	r3, r3, #65536	; 0x10000
 80025e8:	6013      	str	r3, [r2, #0]

  /* Reset PLLCFGR register */
  RCC->PLLCFGR = 0x24003010;
 80025ea:	4b0a      	ldr	r3, [pc, #40]	; (8002614 <SystemInit+0x60>)
 80025ec:	4a0a      	ldr	r2, [pc, #40]	; (8002618 <SystemInit+0x64>)
 80025ee:	605a      	str	r2, [r3, #4]

  /* Reset HSEBYP bit */
  RCC->CR &= (uint32_t)0xFFFBFFFF;
 80025f0:	4b08      	ldr	r3, [pc, #32]	; (8002614 <SystemInit+0x60>)
 80025f2:	4a08      	ldr	r2, [pc, #32]	; (8002614 <SystemInit+0x60>)
 80025f4:	6812      	ldr	r2, [r2, #0]
 80025f6:	f422 2280 	bic.w	r2, r2, #262144	; 0x40000
 80025fa:	601a      	str	r2, [r3, #0]

  /* Disable all interrupts */
  RCC->CIR = 0x00000000;
 80025fc:	4b05      	ldr	r3, [pc, #20]	; (8002614 <SystemInit+0x60>)
 80025fe:	2200      	movs	r2, #0
 8002600:	60da      	str	r2, [r3, #12]
  SystemInit_ExtMemCtl(); 
#endif /* DATA_IN_ExtSRAM */
         
  /* Configure the System clock source, PLL Multiplier and Divider factors, 
     AHB/APBx prescalers and Flash settings ----------------------------------*/
  SetSysClock();
 8002602:	f000 f80b 	bl	800261c <SetSysClock>

  /* Configure the Vector Table location add offset address ------------------*/
#ifdef VECT_TAB_SRAM
  SCB->VTOR = SRAM_BASE | VECT_TAB_OFFSET; /* Vector Table Relocation in Internal SRAM */
#else
  SCB->VTOR = FLASH_BASE | VECT_TAB_OFFSET; /* Vector Table Relocation in Internal FLASH */
 8002606:	4b02      	ldr	r3, [pc, #8]	; (8002610 <SystemInit+0x5c>)
 8002608:	f04f 6200 	mov.w	r2, #134217728	; 0x8000000
 800260c:	609a      	str	r2, [r3, #8]
#endif
}
 800260e:	bd80      	pop	{r7, pc}
 8002610:	e000ed00 	.word	0xe000ed00
 8002614:	40023800 	.word	0x40023800
 8002618:	24003010 	.word	0x24003010

0800261c <SetSysClock>:
  *         is reset to the default reset state (done in SystemInit() function).   
  * @param  None
  * @retval None
  */
static void SetSysClock(void)
{
 800261c:	b480      	push	{r7}
 800261e:	b083      	sub	sp, #12
 8002620:	af00      	add	r7, sp, #0
/******************************************************************************/
/*            PLL (clocked by HSE) used as System clock source                */
/******************************************************************************/
  __IO uint32_t StartUpCounter = 0, HSEStatus = 0;
 8002622:	2300      	movs	r3, #0
 8002624:	607b      	str	r3, [r7, #4]
 8002626:	2300      	movs	r3, #0
 8002628:	603b      	str	r3, [r7, #0]
  
  /* Enable HSE */
  RCC->CR |= ((uint32_t)RCC_CR_HSEON);
 800262a:	4b35      	ldr	r3, [pc, #212]	; (8002700 <SetSysClock+0xe4>)
 800262c:	4a34      	ldr	r2, [pc, #208]	; (8002700 <SetSysClock+0xe4>)
 800262e:	6812      	ldr	r2, [r2, #0]
 8002630:	f442 3280 	orr.w	r2, r2, #65536	; 0x10000
 8002634:	601a      	str	r2, [r3, #0]
 
  /* Wait till HSE is ready and if Time out is reached exit */
  do
  {
    HSEStatus = RCC->CR & RCC_CR_HSERDY;
 8002636:	4b32      	ldr	r3, [pc, #200]	; (8002700 <SetSysClock+0xe4>)
 8002638:	681b      	ldr	r3, [r3, #0]
 800263a:	f403 3300 	and.w	r3, r3, #131072	; 0x20000
 800263e:	603b      	str	r3, [r7, #0]
    StartUpCounter++;
 8002640:	687b      	ldr	r3, [r7, #4]
 8002642:	3301      	adds	r3, #1
 8002644:	607b      	str	r3, [r7, #4]
  } while((HSEStatus == 0) && (StartUpCounter != HSE_STARTUP_TIMEOUT));
 8002646:	683b      	ldr	r3, [r7, #0]
 8002648:	2b00      	cmp	r3, #0
 800264a:	d103      	bne.n	8002654 <SetSysClock+0x38>
 800264c:	687b      	ldr	r3, [r7, #4]
 800264e:	f5b3 6fa0 	cmp.w	r3, #1280	; 0x500
 8002652:	d1f0      	bne.n	8002636 <SetSysClock+0x1a>

  if ((RCC->CR & RCC_CR_HSERDY) != RESET)
 8002654:	4b2a      	ldr	r3, [pc, #168]	; (8002700 <SetSysClock+0xe4>)
 8002656:	681b      	ldr	r3, [r3, #0]
 8002658:	f403 3300 	and.w	r3, r3, #131072	; 0x20000
 800265c:	2b00      	cmp	r3, #0
 800265e:	d002      	beq.n	8002666 <SetSysClock+0x4a>
  {
    HSEStatus = (uint32_t)0x01;
 8002660:	2301      	movs	r3, #1
 8002662:	603b      	str	r3, [r7, #0]
 8002664:	e001      	b.n	800266a <SetSysClock+0x4e>
  }
  else
  {
    HSEStatus = (uint32_t)0x00;
 8002666:	2300      	movs	r3, #0
 8002668:	603b      	str	r3, [r7, #0]
  }

  if (HSEStatus == (uint32_t)0x01)
 800266a:	683b      	ldr	r3, [r7, #0]
 800266c:	2b01      	cmp	r3, #1
 800266e:	d142      	bne.n	80026f6 <SetSysClock+0xda>
  {
    /* Select regulator voltage output Scale 1 mode, System frequency up to 168 MHz */
    RCC->APB1ENR |= RCC_APB1ENR_PWREN;
 8002670:	4b23      	ldr	r3, [pc, #140]	; (8002700 <SetSysClock+0xe4>)
 8002672:	4a23      	ldr	r2, [pc, #140]	; (8002700 <SetSysClock+0xe4>)
 8002674:	6c12      	ldr	r2, [r2, #64]	; 0x40
 8002676:	f042 5280 	orr.w	r2, r2, #268435456	; 0x10000000
 800267a:	641a      	str	r2, [r3, #64]	; 0x40
    PWR->CR |= PWR_CR_VOS;
 800267c:	4b21      	ldr	r3, [pc, #132]	; (8002704 <SetSysClock+0xe8>)
 800267e:	4a21      	ldr	r2, [pc, #132]	; (8002704 <SetSysClock+0xe8>)
 8002680:	6812      	ldr	r2, [r2, #0]
 8002682:	f442 4280 	orr.w	r2, r2, #16384	; 0x4000
 8002686:	601a      	str	r2, [r3, #0]

    /* HCLK = SYSCLK / 1*/
    RCC->CFGR |= RCC_CFGR_HPRE_DIV1;
 8002688:	4b1d      	ldr	r3, [pc, #116]	; (8002700 <SetSysClock+0xe4>)
 800268a:	4a1d      	ldr	r2, [pc, #116]	; (8002700 <SetSysClock+0xe4>)
 800268c:	6892      	ldr	r2, [r2, #8]
 800268e:	609a      	str	r2, [r3, #8]
      
    /* PCLK2 = HCLK / 2*/
    RCC->CFGR |= RCC_CFGR_PPRE2_DIV2;
 8002690:	4b1b      	ldr	r3, [pc, #108]	; (8002700 <SetSysClock+0xe4>)
 8002692:	4a1b      	ldr	r2, [pc, #108]	; (8002700 <SetSysClock+0xe4>)
 8002694:	6892      	ldr	r2, [r2, #8]
 8002696:	f442 4200 	orr.w	r2, r2, #32768	; 0x8000
 800269a:	609a      	str	r2, [r3, #8]
    
    /* PCLK1 = HCLK / 4*/
    RCC->CFGR |= RCC_CFGR_PPRE1_DIV4;
 800269c:	4b18      	ldr	r3, [pc, #96]	; (8002700 <SetSysClock+0xe4>)
 800269e:	4a18      	ldr	r2, [pc, #96]	; (8002700 <SetSysClock+0xe4>)
 80026a0:	6892      	ldr	r2, [r2, #8]
 80026a2:	f442 52a0 	orr.w	r2, r2, #5120	; 0x1400
 80026a6:	609a      	str	r2, [r3, #8]

    /* Configure the main PLL */
    RCC->PLLCFGR = PLL_M | (PLL_N << 6) | (((PLL_P >> 1) -1) << 16) |
 80026a8:	4b15      	ldr	r3, [pc, #84]	; (8002700 <SetSysClock+0xe4>)
 80026aa:	4a17      	ldr	r2, [pc, #92]	; (8002708 <SetSysClock+0xec>)
 80026ac:	605a      	str	r2, [r3, #4]
                   (RCC_PLLCFGR_PLLSRC_HSE) | (PLL_Q << 24);

    /* Enable the main PLL */
    RCC->CR |= RCC_CR_PLLON;
 80026ae:	4b14      	ldr	r3, [pc, #80]	; (8002700 <SetSysClock+0xe4>)
 80026b0:	4a13      	ldr	r2, [pc, #76]	; (8002700 <SetSysClock+0xe4>)
 80026b2:	6812      	ldr	r2, [r2, #0]
 80026b4:	f042 7280 	orr.w	r2, r2, #16777216	; 0x1000000
 80026b8:	601a      	str	r2, [r3, #0]

    /* Wait till the main PLL is ready */
    while((RCC->CR & RCC_CR_PLLRDY) == 0)
 80026ba:	bf00      	nop
 80026bc:	4b10      	ldr	r3, [pc, #64]	; (8002700 <SetSysClock+0xe4>)
 80026be:	681b      	ldr	r3, [r3, #0]
 80026c0:	f003 7300 	and.w	r3, r3, #33554432	; 0x2000000
 80026c4:	2b00      	cmp	r3, #0
 80026c6:	d0f9      	beq.n	80026bc <SetSysClock+0xa0>
    {
    }
   
    /* Configure Flash prefetch, Instruction cache, Data cache and wait state */
    FLASH->ACR = FLASH_ACR_ICEN |FLASH_ACR_DCEN |FLASH_ACR_LATENCY_4WS;
 80026c8:	4b10      	ldr	r3, [pc, #64]	; (800270c <SetSysClock+0xf0>)
 80026ca:	f240 6204 	movw	r2, #1540	; 0x604
 80026ce:	601a      	str	r2, [r3, #0]

    /* Select the main PLL as system clock source */
    RCC->CFGR &= (uint32_t)((uint32_t)~(RCC_CFGR_SW));
 80026d0:	4b0b      	ldr	r3, [pc, #44]	; (8002700 <SetSysClock+0xe4>)
 80026d2:	4a0b      	ldr	r2, [pc, #44]	; (8002700 <SetSysClock+0xe4>)
 80026d4:	6892      	ldr	r2, [r2, #8]
 80026d6:	f022 0203 	bic.w	r2, r2, #3
 80026da:	609a      	str	r2, [r3, #8]
    RCC->CFGR |= RCC_CFGR_SW_PLL;
 80026dc:	4b08      	ldr	r3, [pc, #32]	; (8002700 <SetSysClock+0xe4>)
 80026de:	4a08      	ldr	r2, [pc, #32]	; (8002700 <SetSysClock+0xe4>)
 80026e0:	6892      	ldr	r2, [r2, #8]
 80026e2:	f042 0202 	orr.w	r2, r2, #2
 80026e6:	609a      	str	r2, [r3, #8]

    /* Wait till the main PLL is used as system clock source */
    while ((RCC->CFGR & (uint32_t)RCC_CFGR_SWS ) != RCC_CFGR_SWS_PLL);
 80026e8:	bf00      	nop
 80026ea:	4b05      	ldr	r3, [pc, #20]	; (8002700 <SetSysClock+0xe4>)
 80026ec:	689b      	ldr	r3, [r3, #8]
 80026ee:	f003 030c 	and.w	r3, r3, #12
 80026f2:	2b08      	cmp	r3, #8
 80026f4:	d1f9      	bne.n	80026ea <SetSysClock+0xce>
  else
  { /* If HSE fails to start-up, the application will have wrong clock
         configuration. User can add here some code to deal with this error */
  }

}
 80026f6:	370c      	adds	r7, #12
 80026f8:	46bd      	mov	sp, r7
 80026fa:	f85d 7b04 	ldr.w	r7, [sp], #4
 80026fe:	4770      	bx	lr
 8002700:	40023800 	.word	0x40023800
 8002704:	40007000 	.word	0x40007000
 8002708:	07404b19 	.word	0x07404b19
 800270c:	40023c00 	.word	0x40023c00

08002710 <xTaskGenericCreate>:
	static portTickType prvGetExpectedIdleTime( void ) PRIVILEGED_FUNCTION;

#endif

signed portBASE_TYPE xTaskGenericCreate( pdTASK_CODE pxTaskCode, const signed char * const pcName, unsigned short usStackDepth, void *pvParameters, unsigned portBASE_TYPE uxPriority, xTaskHandle *pxCreatedTask, portSTACK_TYPE *puxStackBuffer, const xMemoryRegion * const xRegions )
{
 8002710:	b580      	push	{r7, lr}
 8002712:	b08a      	sub	sp, #40	; 0x28
 8002714:	af02      	add	r7, sp, #8
 8002716:	60f8      	str	r0, [r7, #12]
 8002718:	60b9      	str	r1, [r7, #8]
 800271a:	603b      	str	r3, [r7, #0]
 800271c:	4613      	mov	r3, r2
 800271e:	80fb      	strh	r3, [r7, #6]
signed portBASE_TYPE xReturn;
tskTCB * pxNewTCB;

	configASSERT( pxTaskCode );
 8002720:	68fb      	ldr	r3, [r7, #12]
 8002722:	2b00      	cmp	r3, #0
 8002724:	d102      	bne.n	800272c <xTaskGenericCreate+0x1c>
 8002726:	f001 fcfd 	bl	8004124 <ulPortSetInterruptMask>
 800272a:	e7fe      	b.n	800272a <xTaskGenericCreate+0x1a>
	configASSERT( ( ( uxPriority & ( ~portPRIVILEGE_BIT ) ) < configMAX_PRIORITIES ) );
 800272c:	6abb      	ldr	r3, [r7, #40]	; 0x28
 800272e:	2b04      	cmp	r3, #4
 8002730:	d902      	bls.n	8002738 <xTaskGenericCreate+0x28>
 8002732:	f001 fcf7 	bl	8004124 <ulPortSetInterruptMask>
 8002736:	e7fe      	b.n	8002736 <xTaskGenericCreate+0x26>

	/* Allocate the memory required by the TCB and stack for the new task,
	checking that the allocation was successful. */
	pxNewTCB = prvAllocateTCBAndStack( usStackDepth, puxStackBuffer );
 8002738:	88fb      	ldrh	r3, [r7, #6]
 800273a:	4618      	mov	r0, r3
 800273c:	6b39      	ldr	r1, [r7, #48]	; 0x30
 800273e:	f000 fe8f 	bl	8003460 <prvAllocateTCBAndStack>
 8002742:	61b8      	str	r0, [r7, #24]

	if( pxNewTCB != NULL )
 8002744:	69bb      	ldr	r3, [r7, #24]
 8002746:	2b00      	cmp	r3, #0
 8002748:	d072      	beq.n	8002830 <xTaskGenericCreate+0x120>
		stack grows from high memory to low (as per the 80x86) or visa versa.
		portSTACK_GROWTH is used to make the result positive or negative as
		required by the port. */
		#if( portSTACK_GROWTH < 0 )
		{
			pxTopOfStack = pxNewTCB->pxStack + ( usStackDepth - ( unsigned short ) 1 );
 800274a:	69bb      	ldr	r3, [r7, #24]
 800274c:	6b1a      	ldr	r2, [r3, #48]	; 0x30
 800274e:	88fb      	ldrh	r3, [r7, #6]
 8002750:	f103 4380 	add.w	r3, r3, #1073741824	; 0x40000000
 8002754:	3b01      	subs	r3, #1
 8002756:	009b      	lsls	r3, r3, #2
 8002758:	4413      	add	r3, r2
 800275a:	617b      	str	r3, [r7, #20]
			pxTopOfStack = ( portSTACK_TYPE * ) ( ( ( portPOINTER_SIZE_TYPE ) pxTopOfStack ) & ( ( portPOINTER_SIZE_TYPE ) ~portBYTE_ALIGNMENT_MASK  ) ); /*lint !e923 MISRA exception.  Avoiding casts between pointers and integers is not practical.  Size differences accounted for using portPOINTER_SIZE_TYPE type. */
 800275c:	697b      	ldr	r3, [r7, #20]
 800275e:	f023 0307 	bic.w	r3, r3, #7
 8002762:	617b      	str	r3, [r7, #20]

			/* Check the alignment of the calculated top of stack is correct. */
			configASSERT( ( ( ( unsigned long ) pxTopOfStack & ( unsigned long ) portBYTE_ALIGNMENT_MASK ) == 0UL ) );
 8002764:	697b      	ldr	r3, [r7, #20]
 8002766:	f003 0307 	and.w	r3, r3, #7
 800276a:	2b00      	cmp	r3, #0
 800276c:	d002      	beq.n	8002774 <xTaskGenericCreate+0x64>
 800276e:	f001 fcd9 	bl	8004124 <ulPortSetInterruptMask>
 8002772:	e7fe      	b.n	8002772 <xTaskGenericCreate+0x62>
			pxNewTCB->pxEndOfStack = pxNewTCB->pxStack + ( usStackDepth - 1 );
		}
		#endif /* portSTACK_GROWTH */

		/* Setup the newly allocated TCB with the initial state of the task. */
		prvInitialiseTCBVariables( pxNewTCB, pcName, uxPriority, xRegions, usStackDepth );
 8002774:	88fb      	ldrh	r3, [r7, #6]
 8002776:	9300      	str	r3, [sp, #0]
 8002778:	69b8      	ldr	r0, [r7, #24]
 800277a:	68b9      	ldr	r1, [r7, #8]
 800277c:	6aba      	ldr	r2, [r7, #40]	; 0x28
 800277e:	6b7b      	ldr	r3, [r7, #52]	; 0x34
 8002780:	f000 fd78 	bl	8003274 <prvInitialiseTCBVariables>
		{
			pxNewTCB->pxTopOfStack = pxPortInitialiseStack( pxTopOfStack, pxTaskCode, pvParameters, xRunPrivileged );
		}
		#else /* portUSING_MPU_WRAPPERS */
		{
			pxNewTCB->pxTopOfStack = pxPortInitialiseStack( pxTopOfStack, pxTaskCode, pvParameters );
 8002784:	6978      	ldr	r0, [r7, #20]
 8002786:	68f9      	ldr	r1, [r7, #12]
 8002788:	683a      	ldr	r2, [r7, #0]
 800278a:	f001 fbd9 	bl	8003f40 <pxPortInitialiseStack>
 800278e:	4602      	mov	r2, r0
 8002790:	69bb      	ldr	r3, [r7, #24]
 8002792:	601a      	str	r2, [r3, #0]
		}
		#endif /* portUSING_MPU_WRAPPERS */

		if( ( void * ) pxCreatedTask != NULL )
 8002794:	6afb      	ldr	r3, [r7, #44]	; 0x2c
 8002796:	2b00      	cmp	r3, #0
 8002798:	d002      	beq.n	80027a0 <xTaskGenericCreate+0x90>
		{
			/* Pass the TCB out - in an anonymous way.  The calling function/
			task can use this as a handle to delete the task later if
			required.*/
			*pxCreatedTask = ( xTaskHandle ) pxNewTCB;
 800279a:	6afb      	ldr	r3, [r7, #44]	; 0x2c
 800279c:	69ba      	ldr	r2, [r7, #24]
 800279e:	601a      	str	r2, [r3, #0]
		}

		/* Ensure interrupts don't access the task lists while they are being
		updated. */
		taskENTER_CRITICAL();
 80027a0:	f001 fc9e 	bl	80040e0 <vPortEnterCritical>
		{
			uxCurrentNumberOfTasks++;
 80027a4:	4b2e      	ldr	r3, [pc, #184]	; (8002860 <xTaskGenericCreate+0x150>)
 80027a6:	681b      	ldr	r3, [r3, #0]
 80027a8:	1c5a      	adds	r2, r3, #1
 80027aa:	4b2d      	ldr	r3, [pc, #180]	; (8002860 <xTaskGenericCreate+0x150>)
 80027ac:	601a      	str	r2, [r3, #0]
			if( pxCurrentTCB == NULL )
 80027ae:	4b2d      	ldr	r3, [pc, #180]	; (8002864 <xTaskGenericCreate+0x154>)
 80027b0:	681b      	ldr	r3, [r3, #0]
 80027b2:	2b00      	cmp	r3, #0
 80027b4:	d109      	bne.n	80027ca <xTaskGenericCreate+0xba>
			{
				/* There are no other tasks, or all the other tasks are in
				the suspended state - make this the current task. */
				pxCurrentTCB =  pxNewTCB;
 80027b6:	4b2b      	ldr	r3, [pc, #172]	; (8002864 <xTaskGenericCreate+0x154>)
 80027b8:	69ba      	ldr	r2, [r7, #24]
 80027ba:	601a      	str	r2, [r3, #0]

				if( uxCurrentNumberOfTasks == ( unsigned portBASE_TYPE ) 1 )
 80027bc:	4b28      	ldr	r3, [pc, #160]	; (8002860 <xTaskGenericCreate+0x150>)
 80027be:	681b      	ldr	r3, [r3, #0]
 80027c0:	2b01      	cmp	r3, #1
 80027c2:	d10f      	bne.n	80027e4 <xTaskGenericCreate+0xd4>
				{
					/* This is the first task to be created so do the preliminary
					initialisation required.  We will not recover if this call
					fails, but we will report the failure. */
					prvInitialiseTaskLists();
 80027c4:	f000 fd9e 	bl	8003304 <prvInitialiseTaskLists>
 80027c8:	e00c      	b.n	80027e4 <xTaskGenericCreate+0xd4>
			else
			{
				/* If the scheduler is not already running, make this task the
				current task if it is the highest priority task to be created
				so far. */
				if( xSchedulerRunning == pdFALSE )
 80027ca:	4b27      	ldr	r3, [pc, #156]	; (8002868 <xTaskGenericCreate+0x158>)
 80027cc:	681b      	ldr	r3, [r3, #0]
 80027ce:	2b00      	cmp	r3, #0
 80027d0:	d108      	bne.n	80027e4 <xTaskGenericCreate+0xd4>
				{
					if( pxCurrentTCB->uxPriority <= uxPriority )
 80027d2:	4b24      	ldr	r3, [pc, #144]	; (8002864 <xTaskGenericCreate+0x154>)
 80027d4:	681b      	ldr	r3, [r3, #0]
 80027d6:	6ada      	ldr	r2, [r3, #44]	; 0x2c
 80027d8:	6abb      	ldr	r3, [r7, #40]	; 0x28
 80027da:	429a      	cmp	r2, r3
 80027dc:	d802      	bhi.n	80027e4 <xTaskGenericCreate+0xd4>
					{
						pxCurrentTCB = pxNewTCB;
 80027de:	4b21      	ldr	r3, [pc, #132]	; (8002864 <xTaskGenericCreate+0x154>)
 80027e0:	69ba      	ldr	r2, [r7, #24]
 80027e2:	601a      	str	r2, [r3, #0]
					}
				}
			}

			uxTaskNumber++;
 80027e4:	4b21      	ldr	r3, [pc, #132]	; (800286c <xTaskGenericCreate+0x15c>)
 80027e6:	681b      	ldr	r3, [r3, #0]
 80027e8:	1c5a      	adds	r2, r3, #1
 80027ea:	4b20      	ldr	r3, [pc, #128]	; (800286c <xTaskGenericCreate+0x15c>)
 80027ec:	601a      	str	r2, [r3, #0]

			#if ( configUSE_TRACE_FACILITY == 1 )
			{
				/* Add a counter into the TCB for tracing only. */
				pxNewTCB->uxTCBNumber = uxTaskNumber;
 80027ee:	4b1f      	ldr	r3, [pc, #124]	; (800286c <xTaskGenericCreate+0x15c>)
 80027f0:	681a      	ldr	r2, [r3, #0]
 80027f2:	69bb      	ldr	r3, [r7, #24]
 80027f4:	641a      	str	r2, [r3, #64]	; 0x40
			}
			#endif /* configUSE_TRACE_FACILITY */
			traceTASK_CREATE( pxNewTCB );

			prvAddTaskToReadyList( pxNewTCB );
 80027f6:	69bb      	ldr	r3, [r7, #24]
 80027f8:	6ada      	ldr	r2, [r3, #44]	; 0x2c
 80027fa:	4b1d      	ldr	r3, [pc, #116]	; (8002870 <xTaskGenericCreate+0x160>)
 80027fc:	681b      	ldr	r3, [r3, #0]
 80027fe:	429a      	cmp	r2, r3
 8002800:	d903      	bls.n	800280a <xTaskGenericCreate+0xfa>
 8002802:	69bb      	ldr	r3, [r7, #24]
 8002804:	6ada      	ldr	r2, [r3, #44]	; 0x2c
 8002806:	4b1a      	ldr	r3, [pc, #104]	; (8002870 <xTaskGenericCreate+0x160>)
 8002808:	601a      	str	r2, [r3, #0]
 800280a:	69bb      	ldr	r3, [r7, #24]
 800280c:	6ada      	ldr	r2, [r3, #44]	; 0x2c
 800280e:	4613      	mov	r3, r2
 8002810:	009b      	lsls	r3, r3, #2
 8002812:	4413      	add	r3, r2
 8002814:	009b      	lsls	r3, r3, #2
 8002816:	4a17      	ldr	r2, [pc, #92]	; (8002874 <xTaskGenericCreate+0x164>)
 8002818:	441a      	add	r2, r3
 800281a:	69bb      	ldr	r3, [r7, #24]
 800281c:	3304      	adds	r3, #4
 800281e:	4610      	mov	r0, r2
 8002820:	4619      	mov	r1, r3
 8002822:	f001 fb07 	bl	8003e34 <vListInsertEnd>

			xReturn = pdPASS;
 8002826:	2301      	movs	r3, #1
 8002828:	61fb      	str	r3, [r7, #28]
			portSETUP_TCB( pxNewTCB );
		}
		taskEXIT_CRITICAL();
 800282a:	f001 fc69 	bl	8004100 <vPortExitCritical>
 800282e:	e002      	b.n	8002836 <xTaskGenericCreate+0x126>
	}
	else
	{
		xReturn = errCOULD_NOT_ALLOCATE_REQUIRED_MEMORY;
 8002830:	f04f 33ff 	mov.w	r3, #4294967295	; 0xffffffff
 8002834:	61fb      	str	r3, [r7, #28]
		traceTASK_CREATE_FAILED();
	}

	if( xReturn == pdPASS )
 8002836:	69fb      	ldr	r3, [r7, #28]
 8002838:	2b01      	cmp	r3, #1
 800283a:	d10b      	bne.n	8002854 <xTaskGenericCreate+0x144>
	{
		if( xSchedulerRunning != pdFALSE )
 800283c:	4b0a      	ldr	r3, [pc, #40]	; (8002868 <xTaskGenericCreate+0x158>)
 800283e:	681b      	ldr	r3, [r3, #0]
 8002840:	2b00      	cmp	r3, #0
 8002842:	d007      	beq.n	8002854 <xTaskGenericCreate+0x144>
		{
			/* If the created task is of a higher priority than the current task
			then it should run now. */
			if( pxCurrentTCB->uxPriority < uxPriority )
 8002844:	4b07      	ldr	r3, [pc, #28]	; (8002864 <xTaskGenericCreate+0x154>)
 8002846:	681b      	ldr	r3, [r3, #0]
 8002848:	6ada      	ldr	r2, [r3, #44]	; 0x2c
 800284a:	6abb      	ldr	r3, [r7, #40]	; 0x28
 800284c:	429a      	cmp	r2, r3
 800284e:	d201      	bcs.n	8002854 <xTaskGenericCreate+0x144>
			{
				portYIELD_WITHIN_API();
 8002850:	f001 fc36 	bl	80040c0 <vPortYield>
			}
		}
	}

	return xReturn;
 8002854:	69fb      	ldr	r3, [r7, #28]
}
 8002856:	4618      	mov	r0, r3
 8002858:	3720      	adds	r7, #32
 800285a:	46bd      	mov	sp, r7
 800285c:	bd80      	pop	{r7, pc}
 800285e:	bf00      	nop
 8002860:	20000570 	.word	0x20000570
 8002864:	20000498 	.word	0x20000498
 8002868:	2000057c 	.word	0x2000057c
 800286c:	20000590 	.word	0x20000590
 8002870:	20000578 	.word	0x20000578
 8002874:	2000049c 	.word	0x2000049c

08002878 <vTaskDelete>:
/*-----------------------------------------------------------*/

#if ( INCLUDE_vTaskDelete == 1 )

	void vTaskDelete( xTaskHandle xTaskToDelete )
	{
 8002878:	b580      	push	{r7, lr}
 800287a:	b084      	sub	sp, #16
 800287c:	af00      	add	r7, sp, #0
 800287e:	6078      	str	r0, [r7, #4]
	tskTCB *pxTCB;

		taskENTER_CRITICAL();
 8002880:	f001 fc2e 	bl	80040e0 <vPortEnterCritical>
		{
			/* If null is passed in here then we are deleting ourselves. */
			pxTCB = prvGetTCBFromHandle( xTaskToDelete );
 8002884:	687b      	ldr	r3, [r7, #4]
 8002886:	2b00      	cmp	r3, #0
 8002888:	d102      	bne.n	8002890 <vTaskDelete+0x18>
 800288a:	4b19      	ldr	r3, [pc, #100]	; (80028f0 <vTaskDelete+0x78>)
 800288c:	681b      	ldr	r3, [r3, #0]
 800288e:	e000      	b.n	8002892 <vTaskDelete+0x1a>
 8002890:	687b      	ldr	r3, [r7, #4]
 8002892:	60fb      	str	r3, [r7, #12]

			/* Remove task from the ready list and place in the	termination list.
			This will stop the task from be scheduled.  The idle task will check
			the termination list and free up any memory allocated by the
			scheduler for the TCB and stack. */
			if( uxListRemove( &( pxTCB->xGenericListItem ) ) == ( unsigned portBASE_TYPE ) 0 )
 8002894:	68fb      	ldr	r3, [r7, #12]
 8002896:	3304      	adds	r3, #4
 8002898:	4618      	mov	r0, r3
 800289a:	f001 fb27 	bl	8003eec <uxListRemove>
			{
				taskRESET_READY_PRIORITY( pxTCB->uxPriority );
			}

			/* Is the task waiting on an event also? */
			if( listLIST_ITEM_CONTAINER( &( pxTCB->xEventListItem ) ) != NULL )
 800289e:	68fb      	ldr	r3, [r7, #12]
 80028a0:	6a9b      	ldr	r3, [r3, #40]	; 0x28
 80028a2:	2b00      	cmp	r3, #0
 80028a4:	d004      	beq.n	80028b0 <vTaskDelete+0x38>
			{
				( void ) uxListRemove( &( pxTCB->xEventListItem ) );
 80028a6:	68fb      	ldr	r3, [r7, #12]
 80028a8:	3318      	adds	r3, #24
 80028aa:	4618      	mov	r0, r3
 80028ac:	f001 fb1e 	bl	8003eec <uxListRemove>
			}

			vListInsertEnd( &xTasksWaitingTermination, &( pxTCB->xGenericListItem ) );
 80028b0:	68fb      	ldr	r3, [r7, #12]
 80028b2:	3304      	adds	r3, #4
 80028b4:	480f      	ldr	r0, [pc, #60]	; (80028f4 <vTaskDelete+0x7c>)
 80028b6:	4619      	mov	r1, r3
 80028b8:	f001 fabc 	bl	8003e34 <vListInsertEnd>

			/* Increment the ucTasksDeleted variable so the idle task knows
			there is a task that has been deleted and that it should therefore
			check the xTasksWaitingTermination list. */
			++uxTasksDeleted;
 80028bc:	4b0e      	ldr	r3, [pc, #56]	; (80028f8 <vTaskDelete+0x80>)
 80028be:	681b      	ldr	r3, [r3, #0]
 80028c0:	1c5a      	adds	r2, r3, #1
 80028c2:	4b0d      	ldr	r3, [pc, #52]	; (80028f8 <vTaskDelete+0x80>)
 80028c4:	601a      	str	r2, [r3, #0]

			/* Increment the uxTaskNumberVariable also so kernel aware debuggers
			can detect that the task lists need re-generating. */
			uxTaskNumber++;
 80028c6:	4b0d      	ldr	r3, [pc, #52]	; (80028fc <vTaskDelete+0x84>)
 80028c8:	681b      	ldr	r3, [r3, #0]
 80028ca:	1c5a      	adds	r2, r3, #1
 80028cc:	4b0b      	ldr	r3, [pc, #44]	; (80028fc <vTaskDelete+0x84>)
 80028ce:	601a      	str	r2, [r3, #0]

			traceTASK_DELETE( pxTCB );
		}
		taskEXIT_CRITICAL();
 80028d0:	f001 fc16 	bl	8004100 <vPortExitCritical>

		/* Force a reschedule if we have just deleted the current task. */
		if( xSchedulerRunning != pdFALSE )
 80028d4:	4b0a      	ldr	r3, [pc, #40]	; (8002900 <vTaskDelete+0x88>)
 80028d6:	681b      	ldr	r3, [r3, #0]
 80028d8:	2b00      	cmp	r3, #0
 80028da:	d006      	beq.n	80028ea <vTaskDelete+0x72>
		{
			if( pxTCB == pxCurrentTCB )
 80028dc:	4b04      	ldr	r3, [pc, #16]	; (80028f0 <vTaskDelete+0x78>)
 80028de:	681b      	ldr	r3, [r3, #0]
 80028e0:	68fa      	ldr	r2, [r7, #12]
 80028e2:	429a      	cmp	r2, r3
 80028e4:	d101      	bne.n	80028ea <vTaskDelete+0x72>
			{
				portYIELD_WITHIN_API();
 80028e6:	f001 fbeb 	bl	80040c0 <vPortYield>
			}
		}
	}
 80028ea:	3710      	adds	r7, #16
 80028ec:	46bd      	mov	sp, r7
 80028ee:	bd80      	pop	{r7, pc}
 80028f0:	20000498 	.word	0x20000498
 80028f4:	20000544 	.word	0x20000544
 80028f8:	20000558 	.word	0x20000558
 80028fc:	20000590 	.word	0x20000590
 8002900:	2000057c 	.word	0x2000057c

08002904 <vTaskDelayUntil>:
/*-----------------------------------------------------------*/

#if ( INCLUDE_vTaskDelayUntil == 1 )

	void vTaskDelayUntil( portTickType * const pxPreviousWakeTime, portTickType xTimeIncrement )
	{
 8002904:	b580      	push	{r7, lr}
 8002906:	b086      	sub	sp, #24
 8002908:	af00      	add	r7, sp, #0
 800290a:	6078      	str	r0, [r7, #4]
 800290c:	6039      	str	r1, [r7, #0]
	portTickType xTimeToWake;
	portBASE_TYPE xAlreadyYielded, xShouldDelay = pdFALSE;
 800290e:	2300      	movs	r3, #0
 8002910:	617b      	str	r3, [r7, #20]

		configASSERT( pxPreviousWakeTime );
 8002912:	687b      	ldr	r3, [r7, #4]
 8002914:	2b00      	cmp	r3, #0
 8002916:	d102      	bne.n	800291e <vTaskDelayUntil+0x1a>
 8002918:	f001 fc04 	bl	8004124 <ulPortSetInterruptMask>
 800291c:	e7fe      	b.n	800291c <vTaskDelayUntil+0x18>
		configASSERT( ( xTimeIncrement > 0U ) );
 800291e:	683b      	ldr	r3, [r7, #0]
 8002920:	2b00      	cmp	r3, #0
 8002922:	d102      	bne.n	800292a <vTaskDelayUntil+0x26>
 8002924:	f001 fbfe 	bl	8004124 <ulPortSetInterruptMask>
 8002928:	e7fe      	b.n	8002928 <vTaskDelayUntil+0x24>

		vTaskSuspendAll();
 800292a:	f000 f96b 	bl	8002c04 <vTaskSuspendAll>
		{
			/* Minor optimisation.  The tick count cannot change in this
			block. */
			const portTickType xConstTickCount = xTickCount;
 800292e:	4b1f      	ldr	r3, [pc, #124]	; (80029ac <vTaskDelayUntil+0xa8>)
 8002930:	681b      	ldr	r3, [r3, #0]
 8002932:	613b      	str	r3, [r7, #16]

			/* Generate the tick time at which the task wants to wake. */
			xTimeToWake = *pxPreviousWakeTime + xTimeIncrement;
 8002934:	687b      	ldr	r3, [r7, #4]
 8002936:	681a      	ldr	r2, [r3, #0]
 8002938:	683b      	ldr	r3, [r7, #0]
 800293a:	4413      	add	r3, r2
 800293c:	60fb      	str	r3, [r7, #12]

			if( xConstTickCount < *pxPreviousWakeTime )
 800293e:	687b      	ldr	r3, [r7, #4]
 8002940:	681a      	ldr	r2, [r3, #0]
 8002942:	693b      	ldr	r3, [r7, #16]
 8002944:	429a      	cmp	r2, r3
 8002946:	d90b      	bls.n	8002960 <vTaskDelayUntil+0x5c>
				/* The tick count has overflowed since this function was
				lasted called.  In this case the only time we should ever
				actually delay is if the wake time has also	overflowed,
				and the wake time is greater than the tick time.  When this
				is the case it is as if neither time had overflowed. */
				if( ( xTimeToWake < *pxPreviousWakeTime ) && ( xTimeToWake > xConstTickCount ) )
 8002948:	687b      	ldr	r3, [r7, #4]
 800294a:	681a      	ldr	r2, [r3, #0]
 800294c:	68fb      	ldr	r3, [r7, #12]
 800294e:	429a      	cmp	r2, r3
 8002950:	d911      	bls.n	8002976 <vTaskDelayUntil+0x72>
 8002952:	68fa      	ldr	r2, [r7, #12]
 8002954:	693b      	ldr	r3, [r7, #16]
 8002956:	429a      	cmp	r2, r3
 8002958:	d90d      	bls.n	8002976 <vTaskDelayUntil+0x72>
				{
					xShouldDelay = pdTRUE;
 800295a:	2301      	movs	r3, #1
 800295c:	617b      	str	r3, [r7, #20]
 800295e:	e00a      	b.n	8002976 <vTaskDelayUntil+0x72>
			else
			{
				/* The tick time has not overflowed.  In this case we will
				delay if either the wake time has overflowed, and/or the
				tick time is less than the wake time. */
				if( ( xTimeToWake < *pxPreviousWakeTime ) || ( xTimeToWake > xConstTickCount ) )
 8002960:	687b      	ldr	r3, [r7, #4]
 8002962:	681a      	ldr	r2, [r3, #0]
 8002964:	68fb      	ldr	r3, [r7, #12]
 8002966:	429a      	cmp	r2, r3
 8002968:	d803      	bhi.n	8002972 <vTaskDelayUntil+0x6e>
 800296a:	68fa      	ldr	r2, [r7, #12]
 800296c:	693b      	ldr	r3, [r7, #16]
 800296e:	429a      	cmp	r2, r3
 8002970:	d901      	bls.n	8002976 <vTaskDelayUntil+0x72>
				{
					xShouldDelay = pdTRUE;
 8002972:	2301      	movs	r3, #1
 8002974:	617b      	str	r3, [r7, #20]
				}
			}

			/* Update the wake time ready for the next call. */
			*pxPreviousWakeTime = xTimeToWake;
 8002976:	687b      	ldr	r3, [r7, #4]
 8002978:	68fa      	ldr	r2, [r7, #12]
 800297a:	601a      	str	r2, [r3, #0]

			if( xShouldDelay != pdFALSE )
 800297c:	697b      	ldr	r3, [r7, #20]
 800297e:	2b00      	cmp	r3, #0
 8002980:	d008      	beq.n	8002994 <vTaskDelayUntil+0x90>
				traceTASK_DELAY_UNTIL();

				/* We must remove ourselves from the ready list before adding
				ourselves to the blocked list as the same list item is used for
				both lists. */
				if( uxListRemove( &( pxCurrentTCB->xGenericListItem ) ) == ( unsigned portBASE_TYPE ) 0 )
 8002982:	4b0b      	ldr	r3, [pc, #44]	; (80029b0 <vTaskDelayUntil+0xac>)
 8002984:	681b      	ldr	r3, [r3, #0]
 8002986:	3304      	adds	r3, #4
 8002988:	4618      	mov	r0, r3
 800298a:	f001 faaf 	bl	8003eec <uxListRemove>
					no need to check, and the port reset macro can be called
					directly. */
					portRESET_READY_PRIORITY( pxCurrentTCB->uxPriority, uxTopReadyPriority );
				}

				prvAddCurrentTaskToDelayedList( xTimeToWake );
 800298e:	68f8      	ldr	r0, [r7, #12]
 8002990:	f000 fd30 	bl	80033f4 <prvAddCurrentTaskToDelayedList>
			}
		}
		xAlreadyYielded = xTaskResumeAll();
 8002994:	f000 f944 	bl	8002c20 <xTaskResumeAll>
 8002998:	60b8      	str	r0, [r7, #8]

		/* Force a reschedule if xTaskResumeAll has not already done so, we may
		have put ourselves to sleep. */
		if( xAlreadyYielded == pdFALSE )
 800299a:	68bb      	ldr	r3, [r7, #8]
 800299c:	2b00      	cmp	r3, #0
 800299e:	d101      	bne.n	80029a4 <vTaskDelayUntil+0xa0>
		{
			portYIELD_WITHIN_API();
 80029a0:	f001 fb8e 	bl	80040c0 <vPortYield>
		}
	}
 80029a4:	3718      	adds	r7, #24
 80029a6:	46bd      	mov	sp, r7
 80029a8:	bd80      	pop	{r7, pc}
 80029aa:	bf00      	nop
 80029ac:	20000574 	.word	0x20000574
 80029b0:	20000498 	.word	0x20000498

080029b4 <vTaskDelay>:
/*-----------------------------------------------------------*/

#if ( INCLUDE_vTaskDelay == 1 )

	void vTaskDelay( portTickType xTicksToDelay )
	{
 80029b4:	b580      	push	{r7, lr}
 80029b6:	b084      	sub	sp, #16
 80029b8:	af00      	add	r7, sp, #0
 80029ba:	6078      	str	r0, [r7, #4]
	portTickType xTimeToWake;
	signed portBASE_TYPE xAlreadyYielded = pdFALSE;
 80029bc:	2300      	movs	r3, #0
 80029be:	60fb      	str	r3, [r7, #12]

		/* A delay time of zero just forces a reschedule. */
		if( xTicksToDelay > ( portTickType ) 0U )
 80029c0:	687b      	ldr	r3, [r7, #4]
 80029c2:	2b00      	cmp	r3, #0
 80029c4:	d012      	beq.n	80029ec <vTaskDelay+0x38>
		{
			vTaskSuspendAll();
 80029c6:	f000 f91d 	bl	8002c04 <vTaskSuspendAll>
				This task cannot be in an event list as it is the currently
				executing task. */

				/* Calculate the time to wake - this may overflow but this is
				not a problem. */
				xTimeToWake = xTickCount + xTicksToDelay;
 80029ca:	4b0c      	ldr	r3, [pc, #48]	; (80029fc <vTaskDelay+0x48>)
 80029cc:	681a      	ldr	r2, [r3, #0]
 80029ce:	687b      	ldr	r3, [r7, #4]
 80029d0:	4413      	add	r3, r2
 80029d2:	60bb      	str	r3, [r7, #8]

				/* We must remove ourselves from the ready list before adding
				ourselves to the blocked list as the same list item is used for
				both lists. */
				if( uxListRemove( &( pxCurrentTCB->xGenericListItem ) ) == ( unsigned portBASE_TYPE ) 0 )
 80029d4:	4b0a      	ldr	r3, [pc, #40]	; (8002a00 <vTaskDelay+0x4c>)
 80029d6:	681b      	ldr	r3, [r3, #0]
 80029d8:	3304      	adds	r3, #4
 80029da:	4618      	mov	r0, r3
 80029dc:	f001 fa86 	bl	8003eec <uxListRemove>
					/* The current task must be in a ready list, so there is
					no need to check, and the port reset macro can be called
					directly. */
					portRESET_READY_PRIORITY( pxCurrentTCB->uxPriority, uxTopReadyPriority );
				}
				prvAddCurrentTaskToDelayedList( xTimeToWake );
 80029e0:	68b8      	ldr	r0, [r7, #8]
 80029e2:	f000 fd07 	bl	80033f4 <prvAddCurrentTaskToDelayedList>
			}
			xAlreadyYielded = xTaskResumeAll();
 80029e6:	f000 f91b 	bl	8002c20 <xTaskResumeAll>
 80029ea:	60f8      	str	r0, [r7, #12]
		}

		/* Force a reschedule if xTaskResumeAll has not already done so, we may
		have put ourselves to sleep. */
		if( xAlreadyYielded == pdFALSE )
 80029ec:	68fb      	ldr	r3, [r7, #12]
 80029ee:	2b00      	cmp	r3, #0
 80029f0:	d101      	bne.n	80029f6 <vTaskDelay+0x42>
		{
			portYIELD_WITHIN_API();
 80029f2:	f001 fb65 	bl	80040c0 <vPortYield>
		}
	}
 80029f6:	3710      	adds	r7, #16
 80029f8:	46bd      	mov	sp, r7
 80029fa:	bd80      	pop	{r7, pc}
 80029fc:	20000574 	.word	0x20000574
 8002a00:	20000498 	.word	0x20000498

08002a04 <vTaskSuspend>:
/*-----------------------------------------------------------*/

#if ( INCLUDE_vTaskSuspend == 1 )

	void vTaskSuspend( xTaskHandle xTaskToSuspend )
	{
 8002a04:	b580      	push	{r7, lr}
 8002a06:	b084      	sub	sp, #16
 8002a08:	af00      	add	r7, sp, #0
 8002a0a:	6078      	str	r0, [r7, #4]
	tskTCB *pxTCB;

		taskENTER_CRITICAL();
 8002a0c:	f001 fb68 	bl	80040e0 <vPortEnterCritical>
		{
			/* If null is passed in here then it is the running task that is
			being suspended. */
			pxTCB = prvGetTCBFromHandle( xTaskToSuspend );
 8002a10:	687b      	ldr	r3, [r7, #4]
 8002a12:	2b00      	cmp	r3, #0
 8002a14:	d102      	bne.n	8002a1c <vTaskSuspend+0x18>
 8002a16:	4b1b      	ldr	r3, [pc, #108]	; (8002a84 <vTaskSuspend+0x80>)
 8002a18:	681b      	ldr	r3, [r3, #0]
 8002a1a:	e000      	b.n	8002a1e <vTaskSuspend+0x1a>
 8002a1c:	687b      	ldr	r3, [r7, #4]
 8002a1e:	60fb      	str	r3, [r7, #12]

			traceTASK_SUSPEND( pxTCB );

			/* Remove task from the ready/delayed list and place in the	suspended list. */
			if( uxListRemove( &( pxTCB->xGenericListItem ) ) == ( unsigned portBASE_TYPE ) 0 )
 8002a20:	68fb      	ldr	r3, [r7, #12]
 8002a22:	3304      	adds	r3, #4
 8002a24:	4618      	mov	r0, r3
 8002a26:	f001 fa61 	bl	8003eec <uxListRemove>
			{
				taskRESET_READY_PRIORITY( pxTCB->uxPriority );
			}

			/* Is the task waiting on an event also? */
			if( listLIST_ITEM_CONTAINER( &( pxTCB->xEventListItem ) ) != NULL )
 8002a2a:	68fb      	ldr	r3, [r7, #12]
 8002a2c:	6a9b      	ldr	r3, [r3, #40]	; 0x28
 8002a2e:	2b00      	cmp	r3, #0
 8002a30:	d004      	beq.n	8002a3c <vTaskSuspend+0x38>
			{
				( void ) uxListRemove( &( pxTCB->xEventListItem ) );
 8002a32:	68fb      	ldr	r3, [r7, #12]
 8002a34:	3318      	adds	r3, #24
 8002a36:	4618      	mov	r0, r3
 8002a38:	f001 fa58 	bl	8003eec <uxListRemove>
			}

			vListInsertEnd( &xSuspendedTaskList, &( pxTCB->xGenericListItem ) );
 8002a3c:	68fb      	ldr	r3, [r7, #12]
 8002a3e:	3304      	adds	r3, #4
 8002a40:	4811      	ldr	r0, [pc, #68]	; (8002a88 <vTaskSuspend+0x84>)
 8002a42:	4619      	mov	r1, r3
 8002a44:	f001 f9f6 	bl	8003e34 <vListInsertEnd>
		}
		taskEXIT_CRITICAL();
 8002a48:	f001 fb5a 	bl	8004100 <vPortExitCritical>

		if( pxTCB == pxCurrentTCB )
 8002a4c:	4b0d      	ldr	r3, [pc, #52]	; (8002a84 <vTaskSuspend+0x80>)
 8002a4e:	681b      	ldr	r3, [r3, #0]
 8002a50:	68fa      	ldr	r2, [r7, #12]
 8002a52:	429a      	cmp	r2, r3
 8002a54:	d112      	bne.n	8002a7c <vTaskSuspend+0x78>
		{
			if( xSchedulerRunning != pdFALSE )
 8002a56:	4b0d      	ldr	r3, [pc, #52]	; (8002a8c <vTaskSuspend+0x88>)
 8002a58:	681b      	ldr	r3, [r3, #0]
 8002a5a:	2b00      	cmp	r3, #0
 8002a5c:	d002      	beq.n	8002a64 <vTaskSuspend+0x60>
			{
				/* The current task has just been suspended. */
				portYIELD_WITHIN_API();
 8002a5e:	f001 fb2f 	bl	80040c0 <vPortYield>
 8002a62:	e00b      	b.n	8002a7c <vTaskSuspend+0x78>
			else
			{
				/* The scheduler is not running, but the task that was pointed
				to by pxCurrentTCB has just been suspended and pxCurrentTCB
				must be adjusted to point to a different task. */
				if( listCURRENT_LIST_LENGTH( &xSuspendedTaskList ) == uxCurrentNumberOfTasks )
 8002a64:	4b08      	ldr	r3, [pc, #32]	; (8002a88 <vTaskSuspend+0x84>)
 8002a66:	681a      	ldr	r2, [r3, #0]
 8002a68:	4b09      	ldr	r3, [pc, #36]	; (8002a90 <vTaskSuspend+0x8c>)
 8002a6a:	681b      	ldr	r3, [r3, #0]
 8002a6c:	429a      	cmp	r2, r3
 8002a6e:	d103      	bne.n	8002a78 <vTaskSuspend+0x74>
				{
					/* No other tasks are ready, so set pxCurrentTCB back to
					NULL so when the next task is created pxCurrentTCB will
					be set to point to it no matter what its relative priority
					is. */
					pxCurrentTCB = NULL;
 8002a70:	4b04      	ldr	r3, [pc, #16]	; (8002a84 <vTaskSuspend+0x80>)
 8002a72:	2200      	movs	r2, #0
 8002a74:	601a      	str	r2, [r3, #0]
 8002a76:	e001      	b.n	8002a7c <vTaskSuspend+0x78>
				}
				else
				{
					vTaskSwitchContext();
 8002a78:	f000 fa40 	bl	8002efc <vTaskSwitchContext>
				}
			}
		}
	}
 8002a7c:	3710      	adds	r7, #16
 8002a7e:	46bd      	mov	sp, r7
 8002a80:	bd80      	pop	{r7, pc}
 8002a82:	bf00      	nop
 8002a84:	20000498 	.word	0x20000498
 8002a88:	2000055c 	.word	0x2000055c
 8002a8c:	2000057c 	.word	0x2000057c
 8002a90:	20000570 	.word	0x20000570

08002a94 <xTaskIsTaskSuspended>:
/*-----------------------------------------------------------*/

#if ( INCLUDE_vTaskSuspend == 1 )

	signed portBASE_TYPE xTaskIsTaskSuspended( xTaskHandle xTask )
	{
 8002a94:	b580      	push	{r7, lr}
 8002a96:	b084      	sub	sp, #16
 8002a98:	af00      	add	r7, sp, #0
 8002a9a:	6078      	str	r0, [r7, #4]
	portBASE_TYPE xReturn = pdFALSE;
 8002a9c:	2300      	movs	r3, #0
 8002a9e:	60fb      	str	r3, [r7, #12]
	const tskTCB * const pxTCB = ( tskTCB * ) xTask;
 8002aa0:	687b      	ldr	r3, [r7, #4]
 8002aa2:	60bb      	str	r3, [r7, #8]

		/* It does not make sense to check if the calling task is suspended. */
		configASSERT( xTask );
 8002aa4:	687b      	ldr	r3, [r7, #4]
 8002aa6:	2b00      	cmp	r3, #0
 8002aa8:	d102      	bne.n	8002ab0 <xTaskIsTaskSuspended+0x1c>
 8002aaa:	f001 fb3b 	bl	8004124 <ulPortSetInterruptMask>
 8002aae:	e7fe      	b.n	8002aae <xTaskIsTaskSuspended+0x1a>

		/* Is the task we are attempting to resume actually in the
		suspended list? */
		if( listIS_CONTAINED_WITHIN( &xSuspendedTaskList, &( pxTCB->xGenericListItem ) ) != pdFALSE )
 8002ab0:	68bb      	ldr	r3, [r7, #8]
 8002ab2:	695a      	ldr	r2, [r3, #20]
 8002ab4:	4b0e      	ldr	r3, [pc, #56]	; (8002af0 <xTaskIsTaskSuspended+0x5c>)
 8002ab6:	429a      	cmp	r2, r3
 8002ab8:	d101      	bne.n	8002abe <xTaskIsTaskSuspended+0x2a>
 8002aba:	2301      	movs	r3, #1
 8002abc:	e000      	b.n	8002ac0 <xTaskIsTaskSuspended+0x2c>
 8002abe:	2300      	movs	r3, #0
 8002ac0:	2b00      	cmp	r3, #0
 8002ac2:	d00f      	beq.n	8002ae4 <xTaskIsTaskSuspended+0x50>
		{
			/* Has the task already been resumed from within an ISR? */
			if( listIS_CONTAINED_WITHIN( &xPendingReadyList, &( pxTCB->xEventListItem ) ) == pdFALSE )
 8002ac4:	68bb      	ldr	r3, [r7, #8]
 8002ac6:	6a9a      	ldr	r2, [r3, #40]	; 0x28
 8002ac8:	4b0a      	ldr	r3, [pc, #40]	; (8002af4 <xTaskIsTaskSuspended+0x60>)
 8002aca:	429a      	cmp	r2, r3
 8002acc:	d00a      	beq.n	8002ae4 <xTaskIsTaskSuspended+0x50>
			{
				/* Is it in the suspended list because it is in the
				Suspended state?  It is possible to be in the suspended
				list because it is blocked on a task with no timeout
				specified. */
				if( listIS_CONTAINED_WITHIN( NULL, &( pxTCB->xEventListItem ) ) != pdFALSE )
 8002ace:	68bb      	ldr	r3, [r7, #8]
 8002ad0:	6a9b      	ldr	r3, [r3, #40]	; 0x28
 8002ad2:	2b00      	cmp	r3, #0
 8002ad4:	d101      	bne.n	8002ada <xTaskIsTaskSuspended+0x46>
 8002ad6:	2301      	movs	r3, #1
 8002ad8:	e000      	b.n	8002adc <xTaskIsTaskSuspended+0x48>
 8002ada:	2300      	movs	r3, #0
 8002adc:	2b00      	cmp	r3, #0
 8002ade:	d001      	beq.n	8002ae4 <xTaskIsTaskSuspended+0x50>
				{
					xReturn = pdTRUE;
 8002ae0:	2301      	movs	r3, #1
 8002ae2:	60fb      	str	r3, [r7, #12]
				}
			}
		}

		return xReturn;
 8002ae4:	68fb      	ldr	r3, [r7, #12]
	} /*lint !e818 xTask cannot be a pointer to const because it is a typedef. */
 8002ae6:	4618      	mov	r0, r3
 8002ae8:	3710      	adds	r7, #16
 8002aea:	46bd      	mov	sp, r7
 8002aec:	bd80      	pop	{r7, pc}
 8002aee:	bf00      	nop
 8002af0:	2000055c 	.word	0x2000055c
 8002af4:	20000530 	.word	0x20000530

08002af8 <vTaskResume>:
/*-----------------------------------------------------------*/

#if ( INCLUDE_vTaskSuspend == 1 )

	void vTaskResume( xTaskHandle xTaskToResume )
	{
 8002af8:	b580      	push	{r7, lr}
 8002afa:	b084      	sub	sp, #16
 8002afc:	af00      	add	r7, sp, #0
 8002afe:	6078      	str	r0, [r7, #4]
	tskTCB * const pxTCB = ( tskTCB * ) xTaskToResume;
 8002b00:	687b      	ldr	r3, [r7, #4]
 8002b02:	60fb      	str	r3, [r7, #12]

		/* It does not make sense to resume the calling task. */
		configASSERT( xTaskToResume );
 8002b04:	687b      	ldr	r3, [r7, #4]
 8002b06:	2b00      	cmp	r3, #0
 8002b08:	d102      	bne.n	8002b10 <vTaskResume+0x18>
 8002b0a:	f001 fb0b 	bl	8004124 <ulPortSetInterruptMask>
 8002b0e:	e7fe      	b.n	8002b0e <vTaskResume+0x16>

		/* The parameter cannot be NULL as it is impossible to resume the
		currently executing task. */
		if( ( pxTCB != NULL ) && ( pxTCB != pxCurrentTCB ) )
 8002b10:	68fb      	ldr	r3, [r7, #12]
 8002b12:	2b00      	cmp	r3, #0
 8002b14:	d034      	beq.n	8002b80 <vTaskResume+0x88>
 8002b16:	4b1c      	ldr	r3, [pc, #112]	; (8002b88 <vTaskResume+0x90>)
 8002b18:	681b      	ldr	r3, [r3, #0]
 8002b1a:	68fa      	ldr	r2, [r7, #12]
 8002b1c:	429a      	cmp	r2, r3
 8002b1e:	d02f      	beq.n	8002b80 <vTaskResume+0x88>
		{
			taskENTER_CRITICAL();
 8002b20:	f001 fade 	bl	80040e0 <vPortEnterCritical>
			{
				if( xTaskIsTaskSuspended( pxTCB ) == pdTRUE )
 8002b24:	68f8      	ldr	r0, [r7, #12]
 8002b26:	f7ff ffb5 	bl	8002a94 <xTaskIsTaskSuspended>
 8002b2a:	4603      	mov	r3, r0
 8002b2c:	2b01      	cmp	r3, #1
 8002b2e:	d125      	bne.n	8002b7c <vTaskResume+0x84>
				{
					traceTASK_RESUME( pxTCB );

					/* As we are in a critical section we can access the ready
					lists even if the scheduler is suspended. */
					( void ) uxListRemove(  &( pxTCB->xGenericListItem ) );
 8002b30:	68fb      	ldr	r3, [r7, #12]
 8002b32:	3304      	adds	r3, #4
 8002b34:	4618      	mov	r0, r3
 8002b36:	f001 f9d9 	bl	8003eec <uxListRemove>
					prvAddTaskToReadyList( pxTCB );
 8002b3a:	68fb      	ldr	r3, [r7, #12]
 8002b3c:	6ada      	ldr	r2, [r3, #44]	; 0x2c
 8002b3e:	4b13      	ldr	r3, [pc, #76]	; (8002b8c <vTaskResume+0x94>)
 8002b40:	681b      	ldr	r3, [r3, #0]
 8002b42:	429a      	cmp	r2, r3
 8002b44:	d903      	bls.n	8002b4e <vTaskResume+0x56>
 8002b46:	68fb      	ldr	r3, [r7, #12]
 8002b48:	6ada      	ldr	r2, [r3, #44]	; 0x2c
 8002b4a:	4b10      	ldr	r3, [pc, #64]	; (8002b8c <vTaskResume+0x94>)
 8002b4c:	601a      	str	r2, [r3, #0]
 8002b4e:	68fb      	ldr	r3, [r7, #12]
 8002b50:	6ada      	ldr	r2, [r3, #44]	; 0x2c
 8002b52:	4613      	mov	r3, r2
 8002b54:	009b      	lsls	r3, r3, #2
 8002b56:	4413      	add	r3, r2
 8002b58:	009b      	lsls	r3, r3, #2
 8002b5a:	4a0d      	ldr	r2, [pc, #52]	; (8002b90 <vTaskResume+0x98>)
 8002b5c:	441a      	add	r2, r3
 8002b5e:	68fb      	ldr	r3, [r7, #12]
 8002b60:	3304      	adds	r3, #4
 8002b62:	4610      	mov	r0, r2
 8002b64:	4619      	mov	r1, r3
 8002b66:	f001 f965 	bl	8003e34 <vListInsertEnd>

					/* We may have just resumed a higher priority task. */
					if( pxTCB->uxPriority >= pxCurrentTCB->uxPriority )
 8002b6a:	68fb      	ldr	r3, [r7, #12]
 8002b6c:	6ada      	ldr	r2, [r3, #44]	; 0x2c
 8002b6e:	4b06      	ldr	r3, [pc, #24]	; (8002b88 <vTaskResume+0x90>)
 8002b70:	681b      	ldr	r3, [r3, #0]
 8002b72:	6adb      	ldr	r3, [r3, #44]	; 0x2c
 8002b74:	429a      	cmp	r2, r3
 8002b76:	d301      	bcc.n	8002b7c <vTaskResume+0x84>
					{
						/* This yield may not cause the task just resumed to run, but
						will leave the lists in the correct state for the next yield. */
						portYIELD_WITHIN_API();
 8002b78:	f001 faa2 	bl	80040c0 <vPortYield>
					}
				}
			}
			taskEXIT_CRITICAL();
 8002b7c:	f001 fac0 	bl	8004100 <vPortExitCritical>
		}
	}
 8002b80:	3710      	adds	r7, #16
 8002b82:	46bd      	mov	sp, r7
 8002b84:	bd80      	pop	{r7, pc}
 8002b86:	bf00      	nop
 8002b88:	20000498 	.word	0x20000498
 8002b8c:	20000578 	.word	0x20000578
 8002b90:	2000049c 	.word	0x2000049c

08002b94 <vTaskStartScheduler>:

#endif /* ( ( INCLUDE_xTaskResumeFromISR == 1 ) && ( INCLUDE_vTaskSuspend == 1 ) ) */
/*-----------------------------------------------------------*/

void vTaskStartScheduler( void )
{
 8002b94:	b580      	push	{r7, lr}
 8002b96:	b086      	sub	sp, #24
 8002b98:	af04      	add	r7, sp, #16
		xReturn = xTaskCreate( prvIdleTask, ( signed char * ) "IDLE", tskIDLE_STACK_SIZE, ( void * ) NULL, ( tskIDLE_PRIORITY | portPRIVILEGE_BIT ), &xIdleTaskHandle ); /*lint !e961 MISRA exception, justified as it is not a redundant explicit cast to all supported compilers. */
	}
	#else
	{
		/* Create the idle task without storing its handle. */
		xReturn = xTaskCreate( prvIdleTask, ( signed char * ) "IDLE", tskIDLE_STACK_SIZE, ( void * ) NULL, ( tskIDLE_PRIORITY | portPRIVILEGE_BIT ), NULL );  /*lint !e961 MISRA exception, justified as it is not a redundant explicit cast to all supported compilers. */
 8002b9a:	2300      	movs	r3, #0
 8002b9c:	9300      	str	r3, [sp, #0]
 8002b9e:	2300      	movs	r3, #0
 8002ba0:	9301      	str	r3, [sp, #4]
 8002ba2:	2300      	movs	r3, #0
 8002ba4:	9302      	str	r3, [sp, #8]
 8002ba6:	2300      	movs	r3, #0
 8002ba8:	9303      	str	r3, [sp, #12]
 8002baa:	4812      	ldr	r0, [pc, #72]	; (8002bf4 <vTaskStartScheduler+0x60>)
 8002bac:	4912      	ldr	r1, [pc, #72]	; (8002bf8 <vTaskStartScheduler+0x64>)
 8002bae:	2282      	movs	r2, #130	; 0x82
 8002bb0:	2300      	movs	r3, #0
 8002bb2:	f7ff fdad 	bl	8002710 <xTaskGenericCreate>
 8002bb6:	6078      	str	r0, [r7, #4]
	}
	#endif /* INCLUDE_xTaskGetIdleTaskHandle */

	#if ( configUSE_TIMERS == 1 )
	{
		if( xReturn == pdPASS )
 8002bb8:	687b      	ldr	r3, [r7, #4]
 8002bba:	2b01      	cmp	r3, #1
 8002bbc:	d102      	bne.n	8002bc4 <vTaskStartScheduler+0x30>
		{
			xReturn = xTimerCreateTimerTask();
 8002bbe:	f001 fb4b 	bl	8004258 <xTimerCreateTimerTask>
 8002bc2:	6078      	str	r0, [r7, #4]
		}
	}
	#endif /* configUSE_TIMERS */

	if( xReturn == pdPASS )
 8002bc4:	687b      	ldr	r3, [r7, #4]
 8002bc6:	2b01      	cmp	r3, #1
 8002bc8:	d10a      	bne.n	8002be0 <vTaskStartScheduler+0x4c>
		/* Interrupts are turned off here, to ensure a tick does not occur
		before or during the call to xPortStartScheduler().  The stacks of
		the created tasks contain a status word with interrupts switched on
		so interrupts will automatically get re-enabled when the first task
		starts to run. */
		portDISABLE_INTERRUPTS();
 8002bca:	f001 faab 	bl	8004124 <ulPortSetInterruptMask>
			structure specific to the task that will run first. */
			_impure_ptr = &( pxCurrentTCB->xNewLib_reent );
		}
		#endif /* configUSE_NEWLIB_REENTRANT */

		xSchedulerRunning = pdTRUE;
 8002bce:	4b0b      	ldr	r3, [pc, #44]	; (8002bfc <vTaskStartScheduler+0x68>)
 8002bd0:	2201      	movs	r2, #1
 8002bd2:	601a      	str	r2, [r3, #0]
		xTickCount = ( portTickType ) 0U;
 8002bd4:	4b0a      	ldr	r3, [pc, #40]	; (8002c00 <vTaskStartScheduler+0x6c>)
 8002bd6:	2200      	movs	r2, #0
 8002bd8:	601a      	str	r2, [r3, #0]
		the run time counter time base. */
		portCONFIGURE_TIMER_FOR_RUN_TIME_STATS();

		/* Setting up the timer tick is hardware specific and thus in the
		portable interface. */
		if( xPortStartScheduler() != pdFALSE )
 8002bda:	f001 fa0b 	bl	8003ff4 <xPortStartScheduler>
 8002bde:	e005      	b.n	8002bec <vTaskStartScheduler+0x58>
	else
	{
		/* This line will only be reached if the kernel could not be started,
		because there was not enough FreeRTOS heap to create the idle task
		or the timer task. */
		configASSERT( xReturn );
 8002be0:	687b      	ldr	r3, [r7, #4]
 8002be2:	2b00      	cmp	r3, #0
 8002be4:	d102      	bne.n	8002bec <vTaskStartScheduler+0x58>
 8002be6:	f001 fa9d 	bl	8004124 <ulPortSetInterruptMask>
 8002bea:	e7fe      	b.n	8002bea <vTaskStartScheduler+0x56>
	}
}
 8002bec:	3708      	adds	r7, #8
 8002bee:	46bd      	mov	sp, r7
 8002bf0:	bd80      	pop	{r7, pc}
 8002bf2:	bf00      	nop
 8002bf4:	08003251 	.word	0x08003251
 8002bf8:	080079a4 	.word	0x080079a4
 8002bfc:	2000057c 	.word	0x2000057c
 8002c00:	20000574 	.word	0x20000574

08002c04 <vTaskSuspendAll>:
	vPortEndScheduler();
}
/*----------------------------------------------------------*/

void vTaskSuspendAll( void )
{
 8002c04:	b480      	push	{r7}
 8002c06:	af00      	add	r7, sp, #0
	/* A critical section is not required as the variable is of type
	portBASE_TYPE. */
	++uxSchedulerSuspended;
 8002c08:	4b04      	ldr	r3, [pc, #16]	; (8002c1c <vTaskSuspendAll+0x18>)
 8002c0a:	681b      	ldr	r3, [r3, #0]
 8002c0c:	1c5a      	adds	r2, r3, #1
 8002c0e:	4b03      	ldr	r3, [pc, #12]	; (8002c1c <vTaskSuspendAll+0x18>)
 8002c10:	601a      	str	r2, [r3, #0]
}
 8002c12:	46bd      	mov	sp, r7
 8002c14:	f85d 7b04 	ldr.w	r7, [sp], #4
 8002c18:	4770      	bx	lr
 8002c1a:	bf00      	nop
 8002c1c:	20000580 	.word	0x20000580

08002c20 <xTaskResumeAll>:

#endif /* configUSE_TICKLESS_IDLE */
/*----------------------------------------------------------*/

signed portBASE_TYPE xTaskResumeAll( void )
{
 8002c20:	b580      	push	{r7, lr}
 8002c22:	b082      	sub	sp, #8
 8002c24:	af00      	add	r7, sp, #0
tskTCB *pxTCB;
portBASE_TYPE xAlreadyYielded = pdFALSE;
 8002c26:	2300      	movs	r3, #0
 8002c28:	607b      	str	r3, [r7, #4]

	/* If uxSchedulerSuspended is zero then this function does not match a
	previous call to vTaskSuspendAll(). */
	configASSERT( uxSchedulerSuspended );
 8002c2a:	4b38      	ldr	r3, [pc, #224]	; (8002d0c <xTaskResumeAll+0xec>)
 8002c2c:	681b      	ldr	r3, [r3, #0]
 8002c2e:	2b00      	cmp	r3, #0
 8002c30:	d102      	bne.n	8002c38 <xTaskResumeAll+0x18>
 8002c32:	f001 fa77 	bl	8004124 <ulPortSetInterruptMask>
 8002c36:	e7fe      	b.n	8002c36 <xTaskResumeAll+0x16>
	/* It is possible that an ISR caused a task to be removed from an event
	list while the scheduler was suspended.  If this was the case then the
	removed task will have been added to the xPendingReadyList.  Once the
	scheduler has been resumed it is safe to move all the pending ready
	tasks from this list into their appropriate ready list. */
	taskENTER_CRITICAL();
 8002c38:	f001 fa52 	bl	80040e0 <vPortEnterCritical>
	{
		--uxSchedulerSuspended;
 8002c3c:	4b33      	ldr	r3, [pc, #204]	; (8002d0c <xTaskResumeAll+0xec>)
 8002c3e:	681b      	ldr	r3, [r3, #0]
 8002c40:	1e5a      	subs	r2, r3, #1
 8002c42:	4b32      	ldr	r3, [pc, #200]	; (8002d0c <xTaskResumeAll+0xec>)
 8002c44:	601a      	str	r2, [r3, #0]

		if( uxSchedulerSuspended == ( unsigned portBASE_TYPE ) pdFALSE )
 8002c46:	4b31      	ldr	r3, [pc, #196]	; (8002d0c <xTaskResumeAll+0xec>)
 8002c48:	681b      	ldr	r3, [r3, #0]
 8002c4a:	2b00      	cmp	r3, #0
 8002c4c:	d156      	bne.n	8002cfc <xTaskResumeAll+0xdc>
		{
			if( uxCurrentNumberOfTasks > ( unsigned portBASE_TYPE ) 0U )
 8002c4e:	4b30      	ldr	r3, [pc, #192]	; (8002d10 <xTaskResumeAll+0xf0>)
 8002c50:	681b      	ldr	r3, [r3, #0]
 8002c52:	2b00      	cmp	r3, #0
 8002c54:	d052      	beq.n	8002cfc <xTaskResumeAll+0xdc>
			{
				/* Move any readied tasks from the pending list into the
				appropriate ready list. */
				while( listLIST_IS_EMPTY( &xPendingReadyList ) == pdFALSE )
 8002c56:	e02f      	b.n	8002cb8 <xTaskResumeAll+0x98>
				{
					pxTCB = ( tskTCB * ) listGET_OWNER_OF_HEAD_ENTRY( ( &xPendingReadyList ) );
 8002c58:	4b2e      	ldr	r3, [pc, #184]	; (8002d14 <xTaskResumeAll+0xf4>)
 8002c5a:	68db      	ldr	r3, [r3, #12]
 8002c5c:	68db      	ldr	r3, [r3, #12]
 8002c5e:	603b      	str	r3, [r7, #0]
					( void ) uxListRemove( &( pxTCB->xEventListItem ) );
 8002c60:	683b      	ldr	r3, [r7, #0]
 8002c62:	3318      	adds	r3, #24
 8002c64:	4618      	mov	r0, r3
 8002c66:	f001 f941 	bl	8003eec <uxListRemove>
					( void ) uxListRemove( &( pxTCB->xGenericListItem ) );
 8002c6a:	683b      	ldr	r3, [r7, #0]
 8002c6c:	3304      	adds	r3, #4
 8002c6e:	4618      	mov	r0, r3
 8002c70:	f001 f93c 	bl	8003eec <uxListRemove>
					prvAddTaskToReadyList( pxTCB );
 8002c74:	683b      	ldr	r3, [r7, #0]
 8002c76:	6ada      	ldr	r2, [r3, #44]	; 0x2c
 8002c78:	4b27      	ldr	r3, [pc, #156]	; (8002d18 <xTaskResumeAll+0xf8>)
 8002c7a:	681b      	ldr	r3, [r3, #0]
 8002c7c:	429a      	cmp	r2, r3
 8002c7e:	d903      	bls.n	8002c88 <xTaskResumeAll+0x68>
 8002c80:	683b      	ldr	r3, [r7, #0]
 8002c82:	6ada      	ldr	r2, [r3, #44]	; 0x2c
 8002c84:	4b24      	ldr	r3, [pc, #144]	; (8002d18 <xTaskResumeAll+0xf8>)
 8002c86:	601a      	str	r2, [r3, #0]
 8002c88:	683b      	ldr	r3, [r7, #0]
 8002c8a:	6ada      	ldr	r2, [r3, #44]	; 0x2c
 8002c8c:	4613      	mov	r3, r2
 8002c8e:	009b      	lsls	r3, r3, #2
 8002c90:	4413      	add	r3, r2
 8002c92:	009b      	lsls	r3, r3, #2
 8002c94:	4a21      	ldr	r2, [pc, #132]	; (8002d1c <xTaskResumeAll+0xfc>)
 8002c96:	441a      	add	r2, r3
 8002c98:	683b      	ldr	r3, [r7, #0]
 8002c9a:	3304      	adds	r3, #4
 8002c9c:	4610      	mov	r0, r2
 8002c9e:	4619      	mov	r1, r3
 8002ca0:	f001 f8c8 	bl	8003e34 <vListInsertEnd>

					/* If we have moved a task that has a priority higher than
					the current task then we should yield. */
					if( pxTCB->uxPriority >= pxCurrentTCB->uxPriority )
 8002ca4:	683b      	ldr	r3, [r7, #0]
 8002ca6:	6ada      	ldr	r2, [r3, #44]	; 0x2c
 8002ca8:	4b1d      	ldr	r3, [pc, #116]	; (8002d20 <xTaskResumeAll+0x100>)
 8002caa:	681b      	ldr	r3, [r3, #0]
 8002cac:	6adb      	ldr	r3, [r3, #44]	; 0x2c
 8002cae:	429a      	cmp	r2, r3
 8002cb0:	d302      	bcc.n	8002cb8 <xTaskResumeAll+0x98>
					{
						xYieldPending = pdTRUE;
 8002cb2:	4b1c      	ldr	r3, [pc, #112]	; (8002d24 <xTaskResumeAll+0x104>)
 8002cb4:	2201      	movs	r2, #1
 8002cb6:	601a      	str	r2, [r3, #0]
		{
			if( uxCurrentNumberOfTasks > ( unsigned portBASE_TYPE ) 0U )
			{
				/* Move any readied tasks from the pending list into the
				appropriate ready list. */
				while( listLIST_IS_EMPTY( &xPendingReadyList ) == pdFALSE )
 8002cb8:	4b16      	ldr	r3, [pc, #88]	; (8002d14 <xTaskResumeAll+0xf4>)
 8002cba:	681b      	ldr	r3, [r3, #0]
 8002cbc:	2b00      	cmp	r3, #0
 8002cbe:	d1cb      	bne.n	8002c58 <xTaskResumeAll+0x38>
				}

				/* If any ticks occurred while the scheduler was suspended then
				they should be processed now.  This ensures the tick count does not
				slip, and that any delayed tasks are resumed at the correct time. */
				if( uxPendedTicks > ( unsigned portBASE_TYPE ) 0U )
 8002cc0:	4b19      	ldr	r3, [pc, #100]	; (8002d28 <xTaskResumeAll+0x108>)
 8002cc2:	681b      	ldr	r3, [r3, #0]
 8002cc4:	2b00      	cmp	r3, #0
 8002cc6:	d011      	beq.n	8002cec <xTaskResumeAll+0xcc>
				{
					while( uxPendedTicks > ( unsigned portBASE_TYPE ) 0U )
 8002cc8:	e00c      	b.n	8002ce4 <xTaskResumeAll+0xc4>
					{
						if( xTaskIncrementTick() != pdFALSE )
 8002cca:	f000 f841 	bl	8002d50 <xTaskIncrementTick>
 8002cce:	4603      	mov	r3, r0
 8002cd0:	2b00      	cmp	r3, #0
 8002cd2:	d002      	beq.n	8002cda <xTaskResumeAll+0xba>
						{
							xYieldPending = pdTRUE;
 8002cd4:	4b13      	ldr	r3, [pc, #76]	; (8002d24 <xTaskResumeAll+0x104>)
 8002cd6:	2201      	movs	r2, #1
 8002cd8:	601a      	str	r2, [r3, #0]
						}
						--uxPendedTicks;
 8002cda:	4b13      	ldr	r3, [pc, #76]	; (8002d28 <xTaskResumeAll+0x108>)
 8002cdc:	681b      	ldr	r3, [r3, #0]
 8002cde:	1e5a      	subs	r2, r3, #1
 8002ce0:	4b11      	ldr	r3, [pc, #68]	; (8002d28 <xTaskResumeAll+0x108>)
 8002ce2:	601a      	str	r2, [r3, #0]
				/* If any ticks occurred while the scheduler was suspended then
				they should be processed now.  This ensures the tick count does not
				slip, and that any delayed tasks are resumed at the correct time. */
				if( uxPendedTicks > ( unsigned portBASE_TYPE ) 0U )
				{
					while( uxPendedTicks > ( unsigned portBASE_TYPE ) 0U )
 8002ce4:	4b10      	ldr	r3, [pc, #64]	; (8002d28 <xTaskResumeAll+0x108>)
 8002ce6:	681b      	ldr	r3, [r3, #0]
 8002ce8:	2b00      	cmp	r3, #0
 8002cea:	d1ee      	bne.n	8002cca <xTaskResumeAll+0xaa>
						}
						--uxPendedTicks;
					}
				}

				if( xYieldPending == pdTRUE )
 8002cec:	4b0d      	ldr	r3, [pc, #52]	; (8002d24 <xTaskResumeAll+0x104>)
 8002cee:	681b      	ldr	r3, [r3, #0]
 8002cf0:	2b01      	cmp	r3, #1
 8002cf2:	d103      	bne.n	8002cfc <xTaskResumeAll+0xdc>
				{
					xAlreadyYielded = pdTRUE;
 8002cf4:	2301      	movs	r3, #1
 8002cf6:	607b      	str	r3, [r7, #4]
					portYIELD_WITHIN_API();
 8002cf8:	f001 f9e2 	bl	80040c0 <vPortYield>
				}
			}
		}
	}
	taskEXIT_CRITICAL();
 8002cfc:	f001 fa00 	bl	8004100 <vPortExitCritical>

	return xAlreadyYielded;
 8002d00:	687b      	ldr	r3, [r7, #4]
}
 8002d02:	4618      	mov	r0, r3
 8002d04:	3708      	adds	r7, #8
 8002d06:	46bd      	mov	sp, r7
 8002d08:	bd80      	pop	{r7, pc}
 8002d0a:	bf00      	nop
 8002d0c:	20000580 	.word	0x20000580
 8002d10:	20000570 	.word	0x20000570
 8002d14:	20000530 	.word	0x20000530
 8002d18:	20000578 	.word	0x20000578
 8002d1c:	2000049c 	.word	0x2000049c
 8002d20:	20000498 	.word	0x20000498
 8002d24:	20000588 	.word	0x20000588
 8002d28:	20000584 	.word	0x20000584

08002d2c <xTaskGetTickCount>:
/*-----------------------------------------------------------*/

portTickType xTaskGetTickCount( void )
{
 8002d2c:	b580      	push	{r7, lr}
 8002d2e:	b082      	sub	sp, #8
 8002d30:	af00      	add	r7, sp, #0
portTickType xTicks;

	/* Critical section required if running on a 16 bit processor. */
	taskENTER_CRITICAL();
 8002d32:	f001 f9d5 	bl	80040e0 <vPortEnterCritical>
	{
		xTicks = xTickCount;
 8002d36:	4b05      	ldr	r3, [pc, #20]	; (8002d4c <xTaskGetTickCount+0x20>)
 8002d38:	681b      	ldr	r3, [r3, #0]
 8002d3a:	607b      	str	r3, [r7, #4]
	}
	taskEXIT_CRITICAL();
 8002d3c:	f001 f9e0 	bl	8004100 <vPortExitCritical>

	return xTicks;
 8002d40:	687b      	ldr	r3, [r7, #4]
}
 8002d42:	4618      	mov	r0, r3
 8002d44:	3708      	adds	r7, #8
 8002d46:	46bd      	mov	sp, r7
 8002d48:	bd80      	pop	{r7, pc}
 8002d4a:	bf00      	nop
 8002d4c:	20000574 	.word	0x20000574

08002d50 <xTaskIncrementTick>:

#endif /* configUSE_TICKLESS_IDLE */
/*----------------------------------------------------------*/

portBASE_TYPE xTaskIncrementTick( void )
{
 8002d50:	b580      	push	{r7, lr}
 8002d52:	b086      	sub	sp, #24
 8002d54:	af00      	add	r7, sp, #0
tskTCB * pxTCB;
portTickType xItemValue;
portBASE_TYPE xSwitchRequired = pdFALSE;
 8002d56:	2300      	movs	r3, #0
 8002d58:	617b      	str	r3, [r7, #20]

	/* Called by the portable layer each time a tick interrupt occurs.
	Increments the tick then checks to see if the new tick value will cause any
	tasks to be unblocked. */
	traceTASK_INCREMENT_TICK( xTickCount );
	if( uxSchedulerSuspended == ( unsigned portBASE_TYPE ) pdFALSE )
 8002d5a:	4b5d      	ldr	r3, [pc, #372]	; (8002ed0 <xTaskIncrementTick+0x180>)
 8002d5c:	681b      	ldr	r3, [r3, #0]
 8002d5e:	2b00      	cmp	r3, #0
 8002d60:	f040 80a4 	bne.w	8002eac <xTaskIncrementTick+0x15c>
	{
		/* Increment the RTOS tick, switching the delayed and overflowed
		delayed lists if it wraps to 0. */
		++xTickCount;
 8002d64:	4b5b      	ldr	r3, [pc, #364]	; (8002ed4 <xTaskIncrementTick+0x184>)
 8002d66:	681b      	ldr	r3, [r3, #0]
 8002d68:	1c5a      	adds	r2, r3, #1
 8002d6a:	4b5a      	ldr	r3, [pc, #360]	; (8002ed4 <xTaskIncrementTick+0x184>)
 8002d6c:	601a      	str	r2, [r3, #0]

		{
			/* Minor optimisation.  The tick count cannot change in this
			block. */
			const portTickType xConstTickCount = xTickCount;
 8002d6e:	4b59      	ldr	r3, [pc, #356]	; (8002ed4 <xTaskIncrementTick+0x184>)
 8002d70:	681b      	ldr	r3, [r3, #0]
 8002d72:	613b      	str	r3, [r7, #16]

			if( xConstTickCount == ( portTickType ) 0U )
 8002d74:	693b      	ldr	r3, [r7, #16]
 8002d76:	2b00      	cmp	r3, #0
 8002d78:	d12e      	bne.n	8002dd8 <xTaskIncrementTick+0x88>
			{
				taskSWITCH_DELAYED_LISTS();
 8002d7a:	4b57      	ldr	r3, [pc, #348]	; (8002ed8 <xTaskIncrementTick+0x188>)
 8002d7c:	681b      	ldr	r3, [r3, #0]
 8002d7e:	681b      	ldr	r3, [r3, #0]
 8002d80:	2b00      	cmp	r3, #0
 8002d82:	d002      	beq.n	8002d8a <xTaskIncrementTick+0x3a>
 8002d84:	f001 f9ce 	bl	8004124 <ulPortSetInterruptMask>
 8002d88:	e7fe      	b.n	8002d88 <xTaskIncrementTick+0x38>
 8002d8a:	4b53      	ldr	r3, [pc, #332]	; (8002ed8 <xTaskIncrementTick+0x188>)
 8002d8c:	681b      	ldr	r3, [r3, #0]
 8002d8e:	60fb      	str	r3, [r7, #12]
 8002d90:	4b52      	ldr	r3, [pc, #328]	; (8002edc <xTaskIncrementTick+0x18c>)
 8002d92:	681a      	ldr	r2, [r3, #0]
 8002d94:	4b50      	ldr	r3, [pc, #320]	; (8002ed8 <xTaskIncrementTick+0x188>)
 8002d96:	601a      	str	r2, [r3, #0]
 8002d98:	4b50      	ldr	r3, [pc, #320]	; (8002edc <xTaskIncrementTick+0x18c>)
 8002d9a:	68fa      	ldr	r2, [r7, #12]
 8002d9c:	601a      	str	r2, [r3, #0]
 8002d9e:	4b50      	ldr	r3, [pc, #320]	; (8002ee0 <xTaskIncrementTick+0x190>)
 8002da0:	681b      	ldr	r3, [r3, #0]
 8002da2:	1c5a      	adds	r2, r3, #1
 8002da4:	4b4e      	ldr	r3, [pc, #312]	; (8002ee0 <xTaskIncrementTick+0x190>)
 8002da6:	601a      	str	r2, [r3, #0]
 8002da8:	4b4b      	ldr	r3, [pc, #300]	; (8002ed8 <xTaskIncrementTick+0x188>)
 8002daa:	681b      	ldr	r3, [r3, #0]
 8002dac:	681b      	ldr	r3, [r3, #0]
 8002dae:	2b00      	cmp	r3, #0
 8002db0:	d101      	bne.n	8002db6 <xTaskIncrementTick+0x66>
 8002db2:	2301      	movs	r3, #1
 8002db4:	e000      	b.n	8002db8 <xTaskIncrementTick+0x68>
 8002db6:	2300      	movs	r3, #0
 8002db8:	2b00      	cmp	r3, #0
 8002dba:	d004      	beq.n	8002dc6 <xTaskIncrementTick+0x76>
 8002dbc:	4b49      	ldr	r3, [pc, #292]	; (8002ee4 <xTaskIncrementTick+0x194>)
 8002dbe:	f04f 32ff 	mov.w	r2, #4294967295	; 0xffffffff
 8002dc2:	601a      	str	r2, [r3, #0]
 8002dc4:	e008      	b.n	8002dd8 <xTaskIncrementTick+0x88>
 8002dc6:	4b44      	ldr	r3, [pc, #272]	; (8002ed8 <xTaskIncrementTick+0x188>)
 8002dc8:	681b      	ldr	r3, [r3, #0]
 8002dca:	68db      	ldr	r3, [r3, #12]
 8002dcc:	68db      	ldr	r3, [r3, #12]
 8002dce:	60bb      	str	r3, [r7, #8]
 8002dd0:	68bb      	ldr	r3, [r7, #8]
 8002dd2:	685a      	ldr	r2, [r3, #4]
 8002dd4:	4b43      	ldr	r3, [pc, #268]	; (8002ee4 <xTaskIncrementTick+0x194>)
 8002dd6:	601a      	str	r2, [r3, #0]

			/* See if this tick has made a timeout expire.  Tasks are stored in the
			queue in the order of their wake time - meaning once one tasks has been
			found whose block time has not expired there is no need not look any
			further	down the list. */
			if( xConstTickCount >= xNextTaskUnblockTime )
 8002dd8:	4b42      	ldr	r3, [pc, #264]	; (8002ee4 <xTaskIncrementTick+0x194>)
 8002dda:	681b      	ldr	r3, [r3, #0]
 8002ddc:	693a      	ldr	r2, [r7, #16]
 8002dde:	429a      	cmp	r2, r3
 8002de0:	d34f      	bcc.n	8002e82 <xTaskIncrementTick+0x132>
			{
				for( ;; )
				{
					if( listLIST_IS_EMPTY( pxDelayedTaskList ) != pdFALSE )
 8002de2:	4b3d      	ldr	r3, [pc, #244]	; (8002ed8 <xTaskIncrementTick+0x188>)
 8002de4:	681b      	ldr	r3, [r3, #0]
 8002de6:	681b      	ldr	r3, [r3, #0]
 8002de8:	2b00      	cmp	r3, #0
 8002dea:	d101      	bne.n	8002df0 <xTaskIncrementTick+0xa0>
 8002dec:	2301      	movs	r3, #1
 8002dee:	e000      	b.n	8002df2 <xTaskIncrementTick+0xa2>
 8002df0:	2300      	movs	r3, #0
 8002df2:	2b00      	cmp	r3, #0
 8002df4:	d004      	beq.n	8002e00 <xTaskIncrementTick+0xb0>
					{
						/* The delayed list is empty.  Set xNextTaskUnblockTime to
						the	maximum possible value so it is extremely unlikely that
						the if( xTickCount >= xNextTaskUnblockTime ) test will pass
						next time through. */
						xNextTaskUnblockTime = portMAX_DELAY;
 8002df6:	4b3b      	ldr	r3, [pc, #236]	; (8002ee4 <xTaskIncrementTick+0x194>)
 8002df8:	f04f 32ff 	mov.w	r2, #4294967295	; 0xffffffff
 8002dfc:	601a      	str	r2, [r3, #0]
						break;
 8002dfe:	e040      	b.n	8002e82 <xTaskIncrementTick+0x132>
					{
						/* The delayed list is not empty, get the value of the item
						at the head of the delayed list.  This is the time at which
						the task at the head of the delayed list must be removed
						from the Blocked state. */
						pxTCB = ( tskTCB * ) listGET_OWNER_OF_HEAD_ENTRY( pxDelayedTaskList );
 8002e00:	4b35      	ldr	r3, [pc, #212]	; (8002ed8 <xTaskIncrementTick+0x188>)
 8002e02:	681b      	ldr	r3, [r3, #0]
 8002e04:	68db      	ldr	r3, [r3, #12]
 8002e06:	68db      	ldr	r3, [r3, #12]
 8002e08:	60bb      	str	r3, [r7, #8]
						xItemValue = listGET_LIST_ITEM_VALUE( &( pxTCB->xGenericListItem ) );
 8002e0a:	68bb      	ldr	r3, [r7, #8]
 8002e0c:	685b      	ldr	r3, [r3, #4]
 8002e0e:	607b      	str	r3, [r7, #4]

						if( xConstTickCount < xItemValue )
 8002e10:	693a      	ldr	r2, [r7, #16]
 8002e12:	687b      	ldr	r3, [r7, #4]
 8002e14:	429a      	cmp	r2, r3
 8002e16:	d203      	bcs.n	8002e20 <xTaskIncrementTick+0xd0>
						{
							/* It is not time to unblock this item yet, but the item
							value is the time at which the task at the head of the
							blocked list must be removed from the Blocked state -
							so record the item value in xNextTaskUnblockTime. */
							xNextTaskUnblockTime = xItemValue;
 8002e18:	4b32      	ldr	r3, [pc, #200]	; (8002ee4 <xTaskIncrementTick+0x194>)
 8002e1a:	687a      	ldr	r2, [r7, #4]
 8002e1c:	601a      	str	r2, [r3, #0]
							break;
 8002e1e:	e030      	b.n	8002e82 <xTaskIncrementTick+0x132>
						}

						/* It is time to remove the item from the Blocked state. */
						( void ) uxListRemove( &( pxTCB->xGenericListItem ) );
 8002e20:	68bb      	ldr	r3, [r7, #8]
 8002e22:	3304      	adds	r3, #4
 8002e24:	4618      	mov	r0, r3
 8002e26:	f001 f861 	bl	8003eec <uxListRemove>

						/* Is the task waiting on an event also?  If so remove it
						from the event list. */
						if( listLIST_ITEM_CONTAINER( &( pxTCB->xEventListItem ) ) != NULL )
 8002e2a:	68bb      	ldr	r3, [r7, #8]
 8002e2c:	6a9b      	ldr	r3, [r3, #40]	; 0x28
 8002e2e:	2b00      	cmp	r3, #0
 8002e30:	d004      	beq.n	8002e3c <xTaskIncrementTick+0xec>
						{
							( void ) uxListRemove( &( pxTCB->xEventListItem ) );
 8002e32:	68bb      	ldr	r3, [r7, #8]
 8002e34:	3318      	adds	r3, #24
 8002e36:	4618      	mov	r0, r3
 8002e38:	f001 f858 	bl	8003eec <uxListRemove>
						}

						/* Place the unblocked task into the appropriate ready
						list. */
						prvAddTaskToReadyList( pxTCB );
 8002e3c:	68bb      	ldr	r3, [r7, #8]
 8002e3e:	6ada      	ldr	r2, [r3, #44]	; 0x2c
 8002e40:	4b29      	ldr	r3, [pc, #164]	; (8002ee8 <xTaskIncrementTick+0x198>)
 8002e42:	681b      	ldr	r3, [r3, #0]
 8002e44:	429a      	cmp	r2, r3
 8002e46:	d903      	bls.n	8002e50 <xTaskIncrementTick+0x100>
 8002e48:	68bb      	ldr	r3, [r7, #8]
 8002e4a:	6ada      	ldr	r2, [r3, #44]	; 0x2c
 8002e4c:	4b26      	ldr	r3, [pc, #152]	; (8002ee8 <xTaskIncrementTick+0x198>)
 8002e4e:	601a      	str	r2, [r3, #0]
 8002e50:	68bb      	ldr	r3, [r7, #8]
 8002e52:	6ada      	ldr	r2, [r3, #44]	; 0x2c
 8002e54:	4613      	mov	r3, r2
 8002e56:	009b      	lsls	r3, r3, #2
 8002e58:	4413      	add	r3, r2
 8002e5a:	009b      	lsls	r3, r3, #2
 8002e5c:	4a23      	ldr	r2, [pc, #140]	; (8002eec <xTaskIncrementTick+0x19c>)
 8002e5e:	441a      	add	r2, r3
 8002e60:	68bb      	ldr	r3, [r7, #8]
 8002e62:	3304      	adds	r3, #4
 8002e64:	4610      	mov	r0, r2
 8002e66:	4619      	mov	r1, r3
 8002e68:	f000 ffe4 	bl	8003e34 <vListInsertEnd>
						{
							/* Preemption is on, but a context switch should only
							be performed if the unblocked task has a priority that
							is equal to or higher than the currently executing
							task. */
							if( pxTCB->uxPriority >= pxCurrentTCB->uxPriority )
 8002e6c:	68bb      	ldr	r3, [r7, #8]
 8002e6e:	6ada      	ldr	r2, [r3, #44]	; 0x2c
 8002e70:	4b1f      	ldr	r3, [pc, #124]	; (8002ef0 <xTaskIncrementTick+0x1a0>)
 8002e72:	681b      	ldr	r3, [r3, #0]
 8002e74:	6adb      	ldr	r3, [r3, #44]	; 0x2c
 8002e76:	429a      	cmp	r2, r3
 8002e78:	d302      	bcc.n	8002e80 <xTaskIncrementTick+0x130>
							{
								xSwitchRequired = pdTRUE;
 8002e7a:	2301      	movs	r3, #1
 8002e7c:	617b      	str	r3, [r7, #20]
							}
						}
						#endif /* configUSE_PREEMPTION */
					}
				}
 8002e7e:	e7b0      	b.n	8002de2 <xTaskIncrementTick+0x92>
 8002e80:	e7af      	b.n	8002de2 <xTaskIncrementTick+0x92>
		/* Tasks of equal priority to the currently running task will share
		processing time (time slice) if preemption is on, and the application
		writer has not explicitly turned time slicing off. */
		#if ( ( configUSE_PREEMPTION == 1 ) && ( configUSE_TIME_SLICING == 1 ) )
		{
			if( listCURRENT_LIST_LENGTH( &( pxReadyTasksLists[ pxCurrentTCB->uxPriority ] ) ) > ( unsigned portBASE_TYPE ) 1 )
 8002e82:	4b1b      	ldr	r3, [pc, #108]	; (8002ef0 <xTaskIncrementTick+0x1a0>)
 8002e84:	681b      	ldr	r3, [r3, #0]
 8002e86:	6ada      	ldr	r2, [r3, #44]	; 0x2c
 8002e88:	4918      	ldr	r1, [pc, #96]	; (8002eec <xTaskIncrementTick+0x19c>)
 8002e8a:	4613      	mov	r3, r2
 8002e8c:	009b      	lsls	r3, r3, #2
 8002e8e:	4413      	add	r3, r2
 8002e90:	009b      	lsls	r3, r3, #2
 8002e92:	440b      	add	r3, r1
 8002e94:	681b      	ldr	r3, [r3, #0]
 8002e96:	2b01      	cmp	r3, #1
 8002e98:	d901      	bls.n	8002e9e <xTaskIncrementTick+0x14e>
			{
				xSwitchRequired = pdTRUE;
 8002e9a:	2301      	movs	r3, #1
 8002e9c:	617b      	str	r3, [r7, #20]
		
		#if ( configUSE_TICK_HOOK == 1 )
		{
			/* Guard against the tick hook being called when the pended tick
			count is being unwound (when the scheduler is being unlocked). */
			if( uxPendedTicks == ( unsigned portBASE_TYPE ) 0U )
 8002e9e:	4b15      	ldr	r3, [pc, #84]	; (8002ef4 <xTaskIncrementTick+0x1a4>)
 8002ea0:	681b      	ldr	r3, [r3, #0]
 8002ea2:	2b00      	cmp	r3, #0
 8002ea4:	d109      	bne.n	8002eba <xTaskIncrementTick+0x16a>
			{
				vApplicationTickHook();
 8002ea6:	f7ff faf3 	bl	8002490 <vApplicationTickHook>
 8002eaa:	e006      	b.n	8002eba <xTaskIncrementTick+0x16a>
		}
		#endif /* configUSE_TICK_HOOK */		
	}
	else
	{
		++uxPendedTicks;
 8002eac:	4b11      	ldr	r3, [pc, #68]	; (8002ef4 <xTaskIncrementTick+0x1a4>)
 8002eae:	681b      	ldr	r3, [r3, #0]
 8002eb0:	1c5a      	adds	r2, r3, #1
 8002eb2:	4b10      	ldr	r3, [pc, #64]	; (8002ef4 <xTaskIncrementTick+0x1a4>)
 8002eb4:	601a      	str	r2, [r3, #0]

		/* The tick hook gets called at regular intervals, even if the
		scheduler is locked. */
		#if ( configUSE_TICK_HOOK == 1 )
		{
			vApplicationTickHook();
 8002eb6:	f7ff faeb 	bl	8002490 <vApplicationTickHook>
		#endif
	}

	#if ( configUSE_PREEMPTION == 1 )
	{
		if( xYieldPending != pdFALSE )
 8002eba:	4b0f      	ldr	r3, [pc, #60]	; (8002ef8 <xTaskIncrementTick+0x1a8>)
 8002ebc:	681b      	ldr	r3, [r3, #0]
 8002ebe:	2b00      	cmp	r3, #0
 8002ec0:	d001      	beq.n	8002ec6 <xTaskIncrementTick+0x176>
		{
			xSwitchRequired = pdTRUE;
 8002ec2:	2301      	movs	r3, #1
 8002ec4:	617b      	str	r3, [r7, #20]
		}
	}
	#endif /* configUSE_PREEMPTION */

	return xSwitchRequired;
 8002ec6:	697b      	ldr	r3, [r7, #20]
}
 8002ec8:	4618      	mov	r0, r3
 8002eca:	3718      	adds	r7, #24
 8002ecc:	46bd      	mov	sp, r7
 8002ece:	bd80      	pop	{r7, pc}
 8002ed0:	20000580 	.word	0x20000580
 8002ed4:	20000574 	.word	0x20000574
 8002ed8:	20000528 	.word	0x20000528
 8002edc:	2000052c 	.word	0x2000052c
 8002ee0:	2000058c 	.word	0x2000058c
 8002ee4:	20000004 	.word	0x20000004
 8002ee8:	20000578 	.word	0x20000578
 8002eec:	2000049c 	.word	0x2000049c
 8002ef0:	20000498 	.word	0x20000498
 8002ef4:	20000584 	.word	0x20000584
 8002ef8:	20000588 	.word	0x20000588

08002efc <vTaskSwitchContext>:

#endif /* configUSE_APPLICATION_TASK_TAG */
/*-----------------------------------------------------------*/

void vTaskSwitchContext( void )
{
 8002efc:	b580      	push	{r7, lr}
 8002efe:	b082      	sub	sp, #8
 8002f00:	af00      	add	r7, sp, #0
	if( uxSchedulerSuspended != ( unsigned portBASE_TYPE ) pdFALSE )
 8002f02:	4b35      	ldr	r3, [pc, #212]	; (8002fd8 <vTaskSwitchContext+0xdc>)
 8002f04:	681b      	ldr	r3, [r3, #0]
 8002f06:	2b00      	cmp	r3, #0
 8002f08:	d003      	beq.n	8002f12 <vTaskSwitchContext+0x16>
	{
		/* The scheduler is currently suspended - do not allow a context
		switch. */
		xYieldPending = pdTRUE;
 8002f0a:	4b34      	ldr	r3, [pc, #208]	; (8002fdc <vTaskSwitchContext+0xe0>)
 8002f0c:	2201      	movs	r2, #1
 8002f0e:	601a      	str	r2, [r3, #0]
 8002f10:	e05e      	b.n	8002fd0 <vTaskSwitchContext+0xd4>
	}
	else
	{
		xYieldPending = pdFALSE;
 8002f12:	4b32      	ldr	r3, [pc, #200]	; (8002fdc <vTaskSwitchContext+0xe0>)
 8002f14:	2200      	movs	r2, #0
 8002f16:	601a      	str	r2, [r3, #0]
				}
				ulTaskSwitchedInTime = ulTotalRunTime;
		}
		#endif /* configGENERATE_RUN_TIME_STATS */

		taskFIRST_CHECK_FOR_STACK_OVERFLOW();
 8002f18:	4b31      	ldr	r3, [pc, #196]	; (8002fe0 <vTaskSwitchContext+0xe4>)
 8002f1a:	681b      	ldr	r3, [r3, #0]
 8002f1c:	681a      	ldr	r2, [r3, #0]
 8002f1e:	4b30      	ldr	r3, [pc, #192]	; (8002fe0 <vTaskSwitchContext+0xe4>)
 8002f20:	681b      	ldr	r3, [r3, #0]
 8002f22:	6b1b      	ldr	r3, [r3, #48]	; 0x30
 8002f24:	429a      	cmp	r2, r3
 8002f26:	d808      	bhi.n	8002f3a <vTaskSwitchContext+0x3e>
 8002f28:	4b2d      	ldr	r3, [pc, #180]	; (8002fe0 <vTaskSwitchContext+0xe4>)
 8002f2a:	681a      	ldr	r2, [r3, #0]
 8002f2c:	4b2c      	ldr	r3, [pc, #176]	; (8002fe0 <vTaskSwitchContext+0xe4>)
 8002f2e:	681b      	ldr	r3, [r3, #0]
 8002f30:	3334      	adds	r3, #52	; 0x34
 8002f32:	4610      	mov	r0, r2
 8002f34:	4619      	mov	r1, r3
 8002f36:	f7ff faf9 	bl	800252c <vApplicationStackOverflowHook>
		taskSECOND_CHECK_FOR_STACK_OVERFLOW();
 8002f3a:	4b29      	ldr	r3, [pc, #164]	; (8002fe0 <vTaskSwitchContext+0xe4>)
 8002f3c:	681b      	ldr	r3, [r3, #0]
 8002f3e:	6b1b      	ldr	r3, [r3, #48]	; 0x30
 8002f40:	4618      	mov	r0, r3
 8002f42:	4928      	ldr	r1, [pc, #160]	; (8002fe4 <vTaskSwitchContext+0xe8>)
 8002f44:	2214      	movs	r2, #20
 8002f46:	f004 fa05 	bl	8007354 <memcmp>
 8002f4a:	4603      	mov	r3, r0
 8002f4c:	2b00      	cmp	r3, #0
 8002f4e:	d009      	beq.n	8002f64 <vTaskSwitchContext+0x68>
 8002f50:	4b23      	ldr	r3, [pc, #140]	; (8002fe0 <vTaskSwitchContext+0xe4>)
 8002f52:	681a      	ldr	r2, [r3, #0]
 8002f54:	4b22      	ldr	r3, [pc, #136]	; (8002fe0 <vTaskSwitchContext+0xe4>)
 8002f56:	681b      	ldr	r3, [r3, #0]
 8002f58:	3334      	adds	r3, #52	; 0x34
 8002f5a:	4610      	mov	r0, r2
 8002f5c:	4619      	mov	r1, r3
 8002f5e:	f7ff fae5 	bl	800252c <vApplicationStackOverflowHook>

		taskSELECT_HIGHEST_PRIORITY_TASK();
 8002f62:	e00c      	b.n	8002f7e <vTaskSwitchContext+0x82>
 8002f64:	e00b      	b.n	8002f7e <vTaskSwitchContext+0x82>
 8002f66:	4b20      	ldr	r3, [pc, #128]	; (8002fe8 <vTaskSwitchContext+0xec>)
 8002f68:	681b      	ldr	r3, [r3, #0]
 8002f6a:	2b00      	cmp	r3, #0
 8002f6c:	d102      	bne.n	8002f74 <vTaskSwitchContext+0x78>
 8002f6e:	f001 f8d9 	bl	8004124 <ulPortSetInterruptMask>
 8002f72:	e7fe      	b.n	8002f72 <vTaskSwitchContext+0x76>
 8002f74:	4b1c      	ldr	r3, [pc, #112]	; (8002fe8 <vTaskSwitchContext+0xec>)
 8002f76:	681b      	ldr	r3, [r3, #0]
 8002f78:	1e5a      	subs	r2, r3, #1
 8002f7a:	4b1b      	ldr	r3, [pc, #108]	; (8002fe8 <vTaskSwitchContext+0xec>)
 8002f7c:	601a      	str	r2, [r3, #0]
 8002f7e:	4b1a      	ldr	r3, [pc, #104]	; (8002fe8 <vTaskSwitchContext+0xec>)
 8002f80:	681a      	ldr	r2, [r3, #0]
 8002f82:	491a      	ldr	r1, [pc, #104]	; (8002fec <vTaskSwitchContext+0xf0>)
 8002f84:	4613      	mov	r3, r2
 8002f86:	009b      	lsls	r3, r3, #2
 8002f88:	4413      	add	r3, r2
 8002f8a:	009b      	lsls	r3, r3, #2
 8002f8c:	440b      	add	r3, r1
 8002f8e:	681b      	ldr	r3, [r3, #0]
 8002f90:	2b00      	cmp	r3, #0
 8002f92:	d0e8      	beq.n	8002f66 <vTaskSwitchContext+0x6a>
 8002f94:	4b14      	ldr	r3, [pc, #80]	; (8002fe8 <vTaskSwitchContext+0xec>)
 8002f96:	681a      	ldr	r2, [r3, #0]
 8002f98:	4613      	mov	r3, r2
 8002f9a:	009b      	lsls	r3, r3, #2
 8002f9c:	4413      	add	r3, r2
 8002f9e:	009b      	lsls	r3, r3, #2
 8002fa0:	4a12      	ldr	r2, [pc, #72]	; (8002fec <vTaskSwitchContext+0xf0>)
 8002fa2:	4413      	add	r3, r2
 8002fa4:	607b      	str	r3, [r7, #4]
 8002fa6:	687b      	ldr	r3, [r7, #4]
 8002fa8:	685b      	ldr	r3, [r3, #4]
 8002faa:	685a      	ldr	r2, [r3, #4]
 8002fac:	687b      	ldr	r3, [r7, #4]
 8002fae:	605a      	str	r2, [r3, #4]
 8002fb0:	687b      	ldr	r3, [r7, #4]
 8002fb2:	685a      	ldr	r2, [r3, #4]
 8002fb4:	687b      	ldr	r3, [r7, #4]
 8002fb6:	3308      	adds	r3, #8
 8002fb8:	429a      	cmp	r2, r3
 8002fba:	d104      	bne.n	8002fc6 <vTaskSwitchContext+0xca>
 8002fbc:	687b      	ldr	r3, [r7, #4]
 8002fbe:	685b      	ldr	r3, [r3, #4]
 8002fc0:	685a      	ldr	r2, [r3, #4]
 8002fc2:	687b      	ldr	r3, [r7, #4]
 8002fc4:	605a      	str	r2, [r3, #4]
 8002fc6:	687b      	ldr	r3, [r7, #4]
 8002fc8:	685b      	ldr	r3, [r3, #4]
 8002fca:	68da      	ldr	r2, [r3, #12]
 8002fcc:	4b04      	ldr	r3, [pc, #16]	; (8002fe0 <vTaskSwitchContext+0xe4>)
 8002fce:	601a      	str	r2, [r3, #0]
			structure specific to this task. */
			_impure_ptr = &( pxCurrentTCB->xNewLib_reent );
		}
		#endif /* configUSE_NEWLIB_REENTRANT */
	}
}
 8002fd0:	3708      	adds	r7, #8
 8002fd2:	46bd      	mov	sp, r7
 8002fd4:	bd80      	pop	{r7, pc}
 8002fd6:	bf00      	nop
 8002fd8:	20000580 	.word	0x20000580
 8002fdc:	20000588 	.word	0x20000588
 8002fe0:	20000498 	.word	0x20000498
 8002fe4:	08007d24 	.word	0x08007d24
 8002fe8:	20000578 	.word	0x20000578
 8002fec:	2000049c 	.word	0x2000049c

08002ff0 <vTaskPlaceOnEventList>:
/*-----------------------------------------------------------*/

void vTaskPlaceOnEventList( xList * const pxEventList, portTickType xTicksToWait )
{
 8002ff0:	b580      	push	{r7, lr}
 8002ff2:	b084      	sub	sp, #16
 8002ff4:	af00      	add	r7, sp, #0
 8002ff6:	6078      	str	r0, [r7, #4]
 8002ff8:	6039      	str	r1, [r7, #0]
portTickType xTimeToWake;

	configASSERT( pxEventList );
 8002ffa:	687b      	ldr	r3, [r7, #4]
 8002ffc:	2b00      	cmp	r3, #0
 8002ffe:	d102      	bne.n	8003006 <vTaskPlaceOnEventList+0x16>
 8003000:	f001 f890 	bl	8004124 <ulPortSetInterruptMask>
 8003004:	e7fe      	b.n	8003004 <vTaskPlaceOnEventList+0x14>
	SCHEDULER SUSPENDED. */

	/* Place the event list item of the TCB in the appropriate event list.
	This is placed in the list in priority order so the highest priority task
	is the first to be woken by the event. */
	vListInsert( pxEventList, &( pxCurrentTCB->xEventListItem ) );
 8003006:	4b12      	ldr	r3, [pc, #72]	; (8003050 <vTaskPlaceOnEventList+0x60>)
 8003008:	681b      	ldr	r3, [r3, #0]
 800300a:	3318      	adds	r3, #24
 800300c:	6878      	ldr	r0, [r7, #4]
 800300e:	4619      	mov	r1, r3
 8003010:	f000 ff34 	bl	8003e7c <vListInsert>

	/* We must remove ourselves from the ready list before adding ourselves
	to the blocked list as the same list item is used for both lists.  We have
	exclusive access to the ready lists as the scheduler is locked. */
	if( uxListRemove( &( pxCurrentTCB->xGenericListItem ) ) == ( unsigned portBASE_TYPE ) 0 )
 8003014:	4b0e      	ldr	r3, [pc, #56]	; (8003050 <vTaskPlaceOnEventList+0x60>)
 8003016:	681b      	ldr	r3, [r3, #0]
 8003018:	3304      	adds	r3, #4
 800301a:	4618      	mov	r0, r3
 800301c:	f000 ff66 	bl	8003eec <uxListRemove>
		portRESET_READY_PRIORITY( pxCurrentTCB->uxPriority, uxTopReadyPriority );
	}

	#if ( INCLUDE_vTaskSuspend == 1 )
	{
		if( xTicksToWait == portMAX_DELAY )
 8003020:	683b      	ldr	r3, [r7, #0]
 8003022:	f1b3 3fff 	cmp.w	r3, #4294967295	; 0xffffffff
 8003026:	d107      	bne.n	8003038 <vTaskPlaceOnEventList+0x48>
		{
			/* Add ourselves to the suspended task list instead of a delayed task
			list to ensure we are not woken by a timing event.  We will block
			indefinitely. */
			vListInsertEnd( &xSuspendedTaskList, &( pxCurrentTCB->xGenericListItem ) );
 8003028:	4b09      	ldr	r3, [pc, #36]	; (8003050 <vTaskPlaceOnEventList+0x60>)
 800302a:	681b      	ldr	r3, [r3, #0]
 800302c:	3304      	adds	r3, #4
 800302e:	4809      	ldr	r0, [pc, #36]	; (8003054 <vTaskPlaceOnEventList+0x64>)
 8003030:	4619      	mov	r1, r3
 8003032:	f000 feff 	bl	8003e34 <vListInsertEnd>
 8003036:	e007      	b.n	8003048 <vTaskPlaceOnEventList+0x58>
		}
		else
		{
			/* Calculate the time at which the task should be woken if the event does
			not occur.  This may overflow but this doesn't matter. */
			xTimeToWake = xTickCount + xTicksToWait;
 8003038:	4b07      	ldr	r3, [pc, #28]	; (8003058 <vTaskPlaceOnEventList+0x68>)
 800303a:	681a      	ldr	r2, [r3, #0]
 800303c:	683b      	ldr	r3, [r7, #0]
 800303e:	4413      	add	r3, r2
 8003040:	60fb      	str	r3, [r7, #12]
			prvAddCurrentTaskToDelayedList( xTimeToWake );
 8003042:	68f8      	ldr	r0, [r7, #12]
 8003044:	f000 f9d6 	bl	80033f4 <prvAddCurrentTaskToDelayedList>
			not occur.  This may overflow but this doesn't matter. */
			xTimeToWake = xTickCount + xTicksToWait;
			prvAddCurrentTaskToDelayedList( xTimeToWake );
	}
	#endif /* INCLUDE_vTaskSuspend */
}
 8003048:	3710      	adds	r7, #16
 800304a:	46bd      	mov	sp, r7
 800304c:	bd80      	pop	{r7, pc}
 800304e:	bf00      	nop
 8003050:	20000498 	.word	0x20000498
 8003054:	2000055c 	.word	0x2000055c
 8003058:	20000574 	.word	0x20000574

0800305c <vTaskPlaceOnEventListRestricted>:
/*-----------------------------------------------------------*/

#if configUSE_TIMERS == 1

	void vTaskPlaceOnEventListRestricted( xList * const pxEventList, portTickType xTicksToWait )
	{
 800305c:	b580      	push	{r7, lr}
 800305e:	b084      	sub	sp, #16
 8003060:	af00      	add	r7, sp, #0
 8003062:	6078      	str	r0, [r7, #4]
 8003064:	6039      	str	r1, [r7, #0]
	portTickType xTimeToWake;

		configASSERT( pxEventList );
 8003066:	687b      	ldr	r3, [r7, #4]
 8003068:	2b00      	cmp	r3, #0
 800306a:	d102      	bne.n	8003072 <vTaskPlaceOnEventListRestricted+0x16>
 800306c:	f001 f85a 	bl	8004124 <ulPortSetInterruptMask>
 8003070:	e7fe      	b.n	8003070 <vTaskPlaceOnEventListRestricted+0x14>

		/* Place the event list item of the TCB in the appropriate event list.
		In this case it is assume that this is the only task that is going to
		be waiting on this event list, so the faster vListInsertEnd() function
		can be used in place of vListInsert. */
		vListInsertEnd( pxEventList, &( pxCurrentTCB->xEventListItem ) );
 8003072:	4b0c      	ldr	r3, [pc, #48]	; (80030a4 <vTaskPlaceOnEventListRestricted+0x48>)
 8003074:	681b      	ldr	r3, [r3, #0]
 8003076:	3318      	adds	r3, #24
 8003078:	6878      	ldr	r0, [r7, #4]
 800307a:	4619      	mov	r1, r3
 800307c:	f000 feda 	bl	8003e34 <vListInsertEnd>

		/* We must remove this task from the ready list before adding it to the
		blocked list as the same list item is used for both lists.  This
		function is called form a critical section. */
		if( uxListRemove( &( pxCurrentTCB->xGenericListItem ) ) == ( unsigned portBASE_TYPE ) 0 )
 8003080:	4b08      	ldr	r3, [pc, #32]	; (80030a4 <vTaskPlaceOnEventListRestricted+0x48>)
 8003082:	681b      	ldr	r3, [r3, #0]
 8003084:	3304      	adds	r3, #4
 8003086:	4618      	mov	r0, r3
 8003088:	f000 ff30 	bl	8003eec <uxListRemove>
			portRESET_READY_PRIORITY( pxCurrentTCB->uxPriority, uxTopReadyPriority );
		}

		/* Calculate the time at which the task should be woken if the event does
		not occur.  This may overflow but this doesn't matter. */
		xTimeToWake = xTickCount + xTicksToWait;
 800308c:	4b06      	ldr	r3, [pc, #24]	; (80030a8 <vTaskPlaceOnEventListRestricted+0x4c>)
 800308e:	681a      	ldr	r2, [r3, #0]
 8003090:	683b      	ldr	r3, [r7, #0]
 8003092:	4413      	add	r3, r2
 8003094:	60fb      	str	r3, [r7, #12]

		traceTASK_DELAY_UNTIL();
		prvAddCurrentTaskToDelayedList( xTimeToWake );
 8003096:	68f8      	ldr	r0, [r7, #12]
 8003098:	f000 f9ac 	bl	80033f4 <prvAddCurrentTaskToDelayedList>
	}
 800309c:	3710      	adds	r7, #16
 800309e:	46bd      	mov	sp, r7
 80030a0:	bd80      	pop	{r7, pc}
 80030a2:	bf00      	nop
 80030a4:	20000498 	.word	0x20000498
 80030a8:	20000574 	.word	0x20000574

080030ac <xTaskRemoveFromEventList>:

#endif /* configUSE_TIMERS */
/*-----------------------------------------------------------*/

signed portBASE_TYPE xTaskRemoveFromEventList( const xList * const pxEventList )
{
 80030ac:	b580      	push	{r7, lr}
 80030ae:	b084      	sub	sp, #16
 80030b0:	af00      	add	r7, sp, #0
 80030b2:	6078      	str	r0, [r7, #4]
	get called - the lock count on the queue will get modified instead.  This
	means we can always expect exclusive access to the event list here.

	This function assumes that a check has already been made to ensure that
	pxEventList is not empty. */
	pxUnblockedTCB = ( tskTCB * ) listGET_OWNER_OF_HEAD_ENTRY( pxEventList );
 80030b4:	687b      	ldr	r3, [r7, #4]
 80030b6:	68db      	ldr	r3, [r3, #12]
 80030b8:	68db      	ldr	r3, [r3, #12]
 80030ba:	60bb      	str	r3, [r7, #8]
	configASSERT( pxUnblockedTCB );
 80030bc:	68bb      	ldr	r3, [r7, #8]
 80030be:	2b00      	cmp	r3, #0
 80030c0:	d102      	bne.n	80030c8 <xTaskRemoveFromEventList+0x1c>
 80030c2:	f001 f82f 	bl	8004124 <ulPortSetInterruptMask>
 80030c6:	e7fe      	b.n	80030c6 <xTaskRemoveFromEventList+0x1a>
	( void ) uxListRemove( &( pxUnblockedTCB->xEventListItem ) );
 80030c8:	68bb      	ldr	r3, [r7, #8]
 80030ca:	3318      	adds	r3, #24
 80030cc:	4618      	mov	r0, r3
 80030ce:	f000 ff0d 	bl	8003eec <uxListRemove>

	if( uxSchedulerSuspended == ( unsigned portBASE_TYPE ) pdFALSE )
 80030d2:	4b1e      	ldr	r3, [pc, #120]	; (800314c <xTaskRemoveFromEventList+0xa0>)
 80030d4:	681b      	ldr	r3, [r3, #0]
 80030d6:	2b00      	cmp	r3, #0
 80030d8:	d11d      	bne.n	8003116 <xTaskRemoveFromEventList+0x6a>
	{
		( void ) uxListRemove( &( pxUnblockedTCB->xGenericListItem ) );
 80030da:	68bb      	ldr	r3, [r7, #8]
 80030dc:	3304      	adds	r3, #4
 80030de:	4618      	mov	r0, r3
 80030e0:	f000 ff04 	bl	8003eec <uxListRemove>
		prvAddTaskToReadyList( pxUnblockedTCB );
 80030e4:	68bb      	ldr	r3, [r7, #8]
 80030e6:	6ada      	ldr	r2, [r3, #44]	; 0x2c
 80030e8:	4b19      	ldr	r3, [pc, #100]	; (8003150 <xTaskRemoveFromEventList+0xa4>)
 80030ea:	681b      	ldr	r3, [r3, #0]
 80030ec:	429a      	cmp	r2, r3
 80030ee:	d903      	bls.n	80030f8 <xTaskRemoveFromEventList+0x4c>
 80030f0:	68bb      	ldr	r3, [r7, #8]
 80030f2:	6ada      	ldr	r2, [r3, #44]	; 0x2c
 80030f4:	4b16      	ldr	r3, [pc, #88]	; (8003150 <xTaskRemoveFromEventList+0xa4>)
 80030f6:	601a      	str	r2, [r3, #0]
 80030f8:	68bb      	ldr	r3, [r7, #8]
 80030fa:	6ada      	ldr	r2, [r3, #44]	; 0x2c
 80030fc:	4613      	mov	r3, r2
 80030fe:	009b      	lsls	r3, r3, #2
 8003100:	4413      	add	r3, r2
 8003102:	009b      	lsls	r3, r3, #2
 8003104:	4a13      	ldr	r2, [pc, #76]	; (8003154 <xTaskRemoveFromEventList+0xa8>)
 8003106:	441a      	add	r2, r3
 8003108:	68bb      	ldr	r3, [r7, #8]
 800310a:	3304      	adds	r3, #4
 800310c:	4610      	mov	r0, r2
 800310e:	4619      	mov	r1, r3
 8003110:	f000 fe90 	bl	8003e34 <vListInsertEnd>
 8003114:	e005      	b.n	8003122 <xTaskRemoveFromEventList+0x76>
	}
	else
	{
		/* We cannot access the delayed or ready lists, so will hold this
		task pending until the scheduler is resumed. */
		vListInsertEnd( &( xPendingReadyList ), &( pxUnblockedTCB->xEventListItem ) );
 8003116:	68bb      	ldr	r3, [r7, #8]
 8003118:	3318      	adds	r3, #24
 800311a:	480f      	ldr	r0, [pc, #60]	; (8003158 <xTaskRemoveFromEventList+0xac>)
 800311c:	4619      	mov	r1, r3
 800311e:	f000 fe89 	bl	8003e34 <vListInsertEnd>
	}

	if( pxUnblockedTCB->uxPriority >= pxCurrentTCB->uxPriority )
 8003122:	68bb      	ldr	r3, [r7, #8]
 8003124:	6ada      	ldr	r2, [r3, #44]	; 0x2c
 8003126:	4b0d      	ldr	r3, [pc, #52]	; (800315c <xTaskRemoveFromEventList+0xb0>)
 8003128:	681b      	ldr	r3, [r3, #0]
 800312a:	6adb      	ldr	r3, [r3, #44]	; 0x2c
 800312c:	429a      	cmp	r2, r3
 800312e:	d305      	bcc.n	800313c <xTaskRemoveFromEventList+0x90>
	{
		/* Return true if the task removed from the event list has
		a higher priority than the calling task.  This allows
		the calling task to know if it should force a context
		switch now. */
		xReturn = pdTRUE;
 8003130:	2301      	movs	r3, #1
 8003132:	60fb      	str	r3, [r7, #12]

		/* Mark that a yield is pending in case the user is not using the
		"xHigherPriorityTaskWoken" parameter to an ISR safe FreeRTOS function. */
		xYieldPending = pdTRUE;
 8003134:	4b0a      	ldr	r3, [pc, #40]	; (8003160 <xTaskRemoveFromEventList+0xb4>)
 8003136:	2201      	movs	r2, #1
 8003138:	601a      	str	r2, [r3, #0]
 800313a:	e001      	b.n	8003140 <xTaskRemoveFromEventList+0x94>
	}
	else
	{
		xReturn = pdFALSE;
 800313c:	2300      	movs	r3, #0
 800313e:	60fb      	str	r3, [r7, #12]
	}

	return xReturn;
 8003140:	68fb      	ldr	r3, [r7, #12]
}
 8003142:	4618      	mov	r0, r3
 8003144:	3710      	adds	r7, #16
 8003146:	46bd      	mov	sp, r7
 8003148:	bd80      	pop	{r7, pc}
 800314a:	bf00      	nop
 800314c:	20000580 	.word	0x20000580
 8003150:	20000578 	.word	0x20000578
 8003154:	2000049c 	.word	0x2000049c
 8003158:	20000530 	.word	0x20000530
 800315c:	20000498 	.word	0x20000498
 8003160:	20000588 	.word	0x20000588

08003164 <vTaskSetTimeOutState>:
/*-----------------------------------------------------------*/

void vTaskSetTimeOutState( xTimeOutType * const pxTimeOut )
{
 8003164:	b580      	push	{r7, lr}
 8003166:	b082      	sub	sp, #8
 8003168:	af00      	add	r7, sp, #0
 800316a:	6078      	str	r0, [r7, #4]
	configASSERT( pxTimeOut );
 800316c:	687b      	ldr	r3, [r7, #4]
 800316e:	2b00      	cmp	r3, #0
 8003170:	d102      	bne.n	8003178 <vTaskSetTimeOutState+0x14>
 8003172:	f000 ffd7 	bl	8004124 <ulPortSetInterruptMask>
 8003176:	e7fe      	b.n	8003176 <vTaskSetTimeOutState+0x12>
	pxTimeOut->xOverflowCount = xNumOfOverflows;
 8003178:	4b05      	ldr	r3, [pc, #20]	; (8003190 <vTaskSetTimeOutState+0x2c>)
 800317a:	681a      	ldr	r2, [r3, #0]
 800317c:	687b      	ldr	r3, [r7, #4]
 800317e:	601a      	str	r2, [r3, #0]
	pxTimeOut->xTimeOnEntering = xTickCount;
 8003180:	4b04      	ldr	r3, [pc, #16]	; (8003194 <vTaskSetTimeOutState+0x30>)
 8003182:	681a      	ldr	r2, [r3, #0]
 8003184:	687b      	ldr	r3, [r7, #4]
 8003186:	605a      	str	r2, [r3, #4]
}
 8003188:	3708      	adds	r7, #8
 800318a:	46bd      	mov	sp, r7
 800318c:	bd80      	pop	{r7, pc}
 800318e:	bf00      	nop
 8003190:	2000058c 	.word	0x2000058c
 8003194:	20000574 	.word	0x20000574

08003198 <xTaskCheckForTimeOut>:
/*-----------------------------------------------------------*/

portBASE_TYPE xTaskCheckForTimeOut( xTimeOutType * const pxTimeOut, portTickType * const pxTicksToWait )
{
 8003198:	b580      	push	{r7, lr}
 800319a:	b084      	sub	sp, #16
 800319c:	af00      	add	r7, sp, #0
 800319e:	6078      	str	r0, [r7, #4]
 80031a0:	6039      	str	r1, [r7, #0]
portBASE_TYPE xReturn;

	configASSERT( pxTimeOut );
 80031a2:	687b      	ldr	r3, [r7, #4]
 80031a4:	2b00      	cmp	r3, #0
 80031a6:	d102      	bne.n	80031ae <xTaskCheckForTimeOut+0x16>
 80031a8:	f000 ffbc 	bl	8004124 <ulPortSetInterruptMask>
 80031ac:	e7fe      	b.n	80031ac <xTaskCheckForTimeOut+0x14>
	configASSERT( pxTicksToWait );
 80031ae:	683b      	ldr	r3, [r7, #0]
 80031b0:	2b00      	cmp	r3, #0
 80031b2:	d102      	bne.n	80031ba <xTaskCheckForTimeOut+0x22>
 80031b4:	f000 ffb6 	bl	8004124 <ulPortSetInterruptMask>
 80031b8:	e7fe      	b.n	80031b8 <xTaskCheckForTimeOut+0x20>

	taskENTER_CRITICAL();
 80031ba:	f000 ff91 	bl	80040e0 <vPortEnterCritical>
	{
		/* Minor optimisation.  The tick count cannot change in this block. */
		const portTickType xConstTickCount = xTickCount;
 80031be:	4b1c      	ldr	r3, [pc, #112]	; (8003230 <xTaskCheckForTimeOut+0x98>)
 80031c0:	681b      	ldr	r3, [r3, #0]
 80031c2:	60bb      	str	r3, [r7, #8]

		#if ( INCLUDE_vTaskSuspend == 1 )
			/* If INCLUDE_vTaskSuspend is set to 1 and the block time specified is
			the maximum block time then the task should block indefinitely, and
			therefore never time out. */
			if( *pxTicksToWait == portMAX_DELAY )
 80031c4:	683b      	ldr	r3, [r7, #0]
 80031c6:	681b      	ldr	r3, [r3, #0]
 80031c8:	f1b3 3fff 	cmp.w	r3, #4294967295	; 0xffffffff
 80031cc:	d102      	bne.n	80031d4 <xTaskCheckForTimeOut+0x3c>
			{
				xReturn = pdFALSE;
 80031ce:	2300      	movs	r3, #0
 80031d0:	60fb      	str	r3, [r7, #12]
 80031d2:	e026      	b.n	8003222 <xTaskCheckForTimeOut+0x8a>
			}
			else /* We are not blocking indefinitely, perform the checks below. */
		#endif

		if( ( xNumOfOverflows != pxTimeOut->xOverflowCount ) && ( xConstTickCount >= pxTimeOut->xTimeOnEntering ) ) /*lint !e525 Indentation preferred as is to make code within pre-processor directives clearer. */
 80031d4:	687b      	ldr	r3, [r7, #4]
 80031d6:	681a      	ldr	r2, [r3, #0]
 80031d8:	4b16      	ldr	r3, [pc, #88]	; (8003234 <xTaskCheckForTimeOut+0x9c>)
 80031da:	681b      	ldr	r3, [r3, #0]
 80031dc:	429a      	cmp	r2, r3
 80031de:	d007      	beq.n	80031f0 <xTaskCheckForTimeOut+0x58>
 80031e0:	687b      	ldr	r3, [r7, #4]
 80031e2:	685a      	ldr	r2, [r3, #4]
 80031e4:	68bb      	ldr	r3, [r7, #8]
 80031e6:	429a      	cmp	r2, r3
 80031e8:	d802      	bhi.n	80031f0 <xTaskCheckForTimeOut+0x58>
		{
			/* The tick count is greater than the time at which vTaskSetTimeout()
			was called, but has also overflowed since vTaskSetTimeOut() was called.
			It must have wrapped all the way around and gone past us again. This
			passed since vTaskSetTimeout() was called. */
			xReturn = pdTRUE;
 80031ea:	2301      	movs	r3, #1
 80031ec:	60fb      	str	r3, [r7, #12]
 80031ee:	e018      	b.n	8003222 <xTaskCheckForTimeOut+0x8a>
		}
		else if( ( xConstTickCount - pxTimeOut->xTimeOnEntering ) < *pxTicksToWait )
 80031f0:	687b      	ldr	r3, [r7, #4]
 80031f2:	685b      	ldr	r3, [r3, #4]
 80031f4:	68ba      	ldr	r2, [r7, #8]
 80031f6:	1ad2      	subs	r2, r2, r3
 80031f8:	683b      	ldr	r3, [r7, #0]
 80031fa:	681b      	ldr	r3, [r3, #0]
 80031fc:	429a      	cmp	r2, r3
 80031fe:	d20e      	bcs.n	800321e <xTaskCheckForTimeOut+0x86>
		{
			/* Not a genuine timeout. Adjust parameters for time remaining. */
			*pxTicksToWait -= ( xConstTickCount -  pxTimeOut->xTimeOnEntering );
 8003200:	683b      	ldr	r3, [r7, #0]
 8003202:	681a      	ldr	r2, [r3, #0]
 8003204:	687b      	ldr	r3, [r7, #4]
 8003206:	6859      	ldr	r1, [r3, #4]
 8003208:	68bb      	ldr	r3, [r7, #8]
 800320a:	1acb      	subs	r3, r1, r3
 800320c:	441a      	add	r2, r3
 800320e:	683b      	ldr	r3, [r7, #0]
 8003210:	601a      	str	r2, [r3, #0]
			vTaskSetTimeOutState( pxTimeOut );
 8003212:	6878      	ldr	r0, [r7, #4]
 8003214:	f7ff ffa6 	bl	8003164 <vTaskSetTimeOutState>
			xReturn = pdFALSE;
 8003218:	2300      	movs	r3, #0
 800321a:	60fb      	str	r3, [r7, #12]
 800321c:	e001      	b.n	8003222 <xTaskCheckForTimeOut+0x8a>
		}
		else
		{
			xReturn = pdTRUE;
 800321e:	2301      	movs	r3, #1
 8003220:	60fb      	str	r3, [r7, #12]
		}
	}
	taskEXIT_CRITICAL();
 8003222:	f000 ff6d 	bl	8004100 <vPortExitCritical>

	return xReturn;
 8003226:	68fb      	ldr	r3, [r7, #12]
}
 8003228:	4618      	mov	r0, r3
 800322a:	3710      	adds	r7, #16
 800322c:	46bd      	mov	sp, r7
 800322e:	bd80      	pop	{r7, pc}
 8003230:	20000574 	.word	0x20000574
 8003234:	2000058c 	.word	0x2000058c

08003238 <vTaskMissedYield>:
/*-----------------------------------------------------------*/

void vTaskMissedYield( void )
{
 8003238:	b480      	push	{r7}
 800323a:	af00      	add	r7, sp, #0
	xYieldPending = pdTRUE;
 800323c:	4b03      	ldr	r3, [pc, #12]	; (800324c <vTaskMissedYield+0x14>)
 800323e:	2201      	movs	r2, #1
 8003240:	601a      	str	r2, [r3, #0]
}
 8003242:	46bd      	mov	sp, r7
 8003244:	f85d 7b04 	ldr.w	r7, [sp], #4
 8003248:	4770      	bx	lr
 800324a:	bf00      	nop
 800324c:	20000588 	.word	0x20000588

08003250 <prvIdleTask>:
 *
 * void prvIdleTask( void *pvParameters );
 *
 */
static portTASK_FUNCTION( prvIdleTask, pvParameters )
{
 8003250:	b580      	push	{r7, lr}
 8003252:	b082      	sub	sp, #8
 8003254:	af00      	add	r7, sp, #0
 8003256:	6078      	str	r0, [r7, #4]
	( void ) pvParameters;

	for( ;; )
	{
		/* See if any tasks have been deleted. */
		prvCheckTasksWaitingTermination();
 8003258:	f000 f892 	bl	8003380 <prvCheckTasksWaitingTermination>

			A critical region is not required here as we are just reading from
			the list, and an occasional incorrect value will not matter.  If
			the ready list at the idle priority contains more than one task
			then a task other than the idle task is ready to execute. */
			if( listCURRENT_LIST_LENGTH( &( pxReadyTasksLists[ tskIDLE_PRIORITY ] ) ) > ( unsigned portBASE_TYPE ) 1 )
 800325c:	4b04      	ldr	r3, [pc, #16]	; (8003270 <prvIdleTask+0x20>)
 800325e:	681b      	ldr	r3, [r3, #0]
 8003260:	2b01      	cmp	r3, #1
 8003262:	d901      	bls.n	8003268 <prvIdleTask+0x18>
			{
				taskYIELD();
 8003264:	f000 ff2c 	bl	80040c0 <vPortYield>
			/* Call the user defined function from within the idle task.  This
			allows the application designer to add background functionality
			without the overhead of a separate task.
			NOTE: vApplicationIdleHook() MUST NOT, UNDER ANY CIRCUMSTANCES,
			CALL A FUNCTION THAT MIGHT BLOCK. */
			vApplicationIdleHook();
 8003268:	f7ff f95a 	bl	8002520 <vApplicationIdleHook>
				}
				( void ) xTaskResumeAll();
			}
		}
		#endif /* configUSE_TICKLESS_IDLE */
	}
 800326c:	e7f4      	b.n	8003258 <prvIdleTask+0x8>
 800326e:	bf00      	nop
 8003270:	2000049c 	.word	0x2000049c

08003274 <prvInitialiseTCBVariables>:
	}
#endif /* configUSE_TICKLESS_IDLE */
/*-----------------------------------------------------------*/

static void prvInitialiseTCBVariables( tskTCB *pxTCB, const signed char * const pcName, unsigned portBASE_TYPE uxPriority, const xMemoryRegion * const xRegions, unsigned short usStackDepth )
{
 8003274:	b580      	push	{r7, lr}
 8003276:	b086      	sub	sp, #24
 8003278:	af00      	add	r7, sp, #0
 800327a:	60f8      	str	r0, [r7, #12]
 800327c:	60b9      	str	r1, [r7, #8]
 800327e:	607a      	str	r2, [r7, #4]
 8003280:	603b      	str	r3, [r7, #0]
unsigned portBASE_TYPE x;

	/* Store the task name in the TCB. */
	for( x = ( unsigned portBASE_TYPE ) 0; x < ( unsigned portBASE_TYPE ) configMAX_TASK_NAME_LEN; x++ )
 8003282:	2300      	movs	r3, #0
 8003284:	617b      	str	r3, [r7, #20]
 8003286:	e012      	b.n	80032ae <prvInitialiseTCBVariables+0x3a>
	{
		pxTCB->pcTaskName[ x ] = pcName[ x ];
 8003288:	68ba      	ldr	r2, [r7, #8]
 800328a:	697b      	ldr	r3, [r7, #20]
 800328c:	4413      	add	r3, r2
 800328e:	781a      	ldrb	r2, [r3, #0]
 8003290:	68f9      	ldr	r1, [r7, #12]
 8003292:	697b      	ldr	r3, [r7, #20]
 8003294:	440b      	add	r3, r1
 8003296:	3330      	adds	r3, #48	; 0x30
 8003298:	711a      	strb	r2, [r3, #4]

		/* Don't copy all configMAX_TASK_NAME_LEN if the string is shorter than
		configMAX_TASK_NAME_LEN characters just in case the memory after the
		string is not accessible (extremely unlikely). */
		if( pcName[ x ] == 0x00 )
 800329a:	68ba      	ldr	r2, [r7, #8]
 800329c:	697b      	ldr	r3, [r7, #20]
 800329e:	4413      	add	r3, r2
 80032a0:	781b      	ldrb	r3, [r3, #0]
 80032a2:	2b00      	cmp	r3, #0
 80032a4:	d100      	bne.n	80032a8 <prvInitialiseTCBVariables+0x34>
		{
			break;
 80032a6:	e005      	b.n	80032b4 <prvInitialiseTCBVariables+0x40>
static void prvInitialiseTCBVariables( tskTCB *pxTCB, const signed char * const pcName, unsigned portBASE_TYPE uxPriority, const xMemoryRegion * const xRegions, unsigned short usStackDepth )
{
unsigned portBASE_TYPE x;

	/* Store the task name in the TCB. */
	for( x = ( unsigned portBASE_TYPE ) 0; x < ( unsigned portBASE_TYPE ) configMAX_TASK_NAME_LEN; x++ )
 80032a8:	697b      	ldr	r3, [r7, #20]
 80032aa:	3301      	adds	r3, #1
 80032ac:	617b      	str	r3, [r7, #20]
 80032ae:	697b      	ldr	r3, [r7, #20]
 80032b0:	2b09      	cmp	r3, #9
 80032b2:	d9e9      	bls.n	8003288 <prvInitialiseTCBVariables+0x14>
		}
	}

	/* Ensure the name string is terminated in the case that the string length
	was greater or equal to configMAX_TASK_NAME_LEN. */
	pxTCB->pcTaskName[ configMAX_TASK_NAME_LEN - 1 ] = ( signed char ) '\0';
 80032b4:	68fb      	ldr	r3, [r7, #12]
 80032b6:	2200      	movs	r2, #0
 80032b8:	f883 203d 	strb.w	r2, [r3, #61]	; 0x3d

	/* This is used as an array index so must ensure it's not too large.  First
	remove the privilege bit if one is present. */
	if( uxPriority >= ( unsigned portBASE_TYPE ) configMAX_PRIORITIES )
 80032bc:	687b      	ldr	r3, [r7, #4]
 80032be:	2b04      	cmp	r3, #4
 80032c0:	d901      	bls.n	80032c6 <prvInitialiseTCBVariables+0x52>
	{
		uxPriority = ( unsigned portBASE_TYPE ) configMAX_PRIORITIES - ( unsigned portBASE_TYPE ) 1U;
 80032c2:	2304      	movs	r3, #4
 80032c4:	607b      	str	r3, [r7, #4]
	}

	pxTCB->uxPriority = uxPriority;
 80032c6:	68fb      	ldr	r3, [r7, #12]
 80032c8:	687a      	ldr	r2, [r7, #4]
 80032ca:	62da      	str	r2, [r3, #44]	; 0x2c
	#if ( configUSE_MUTEXES == 1 )
	{
		pxTCB->uxBasePriority = uxPriority;
 80032cc:	68fb      	ldr	r3, [r7, #12]
 80032ce:	687a      	ldr	r2, [r7, #4]
 80032d0:	649a      	str	r2, [r3, #72]	; 0x48
	}
	#endif /* configUSE_MUTEXES */

	vListInitialiseItem( &( pxTCB->xGenericListItem ) );
 80032d2:	68fb      	ldr	r3, [r7, #12]
 80032d4:	3304      	adds	r3, #4
 80032d6:	4618      	mov	r0, r3
 80032d8:	f000 fda0 	bl	8003e1c <vListInitialiseItem>
	vListInitialiseItem( &( pxTCB->xEventListItem ) );
 80032dc:	68fb      	ldr	r3, [r7, #12]
 80032de:	3318      	adds	r3, #24
 80032e0:	4618      	mov	r0, r3
 80032e2:	f000 fd9b 	bl	8003e1c <vListInitialiseItem>

	/* Set the pxTCB as a link back from the xListItem.  This is so we can get
	back to	the containing TCB from a generic item in a list. */
	listSET_LIST_ITEM_OWNER( &( pxTCB->xGenericListItem ), pxTCB );
 80032e6:	68fb      	ldr	r3, [r7, #12]
 80032e8:	68fa      	ldr	r2, [r7, #12]
 80032ea:	611a      	str	r2, [r3, #16]

	/* Event lists are always in priority order. */
	listSET_LIST_ITEM_VALUE( &( pxTCB->xEventListItem ), ( portTickType ) configMAX_PRIORITIES - ( portTickType ) uxPriority ); /*lint !e961 MISRA exception as the casts are only redundant for some ports. */
 80032ec:	687b      	ldr	r3, [r7, #4]
 80032ee:	f1c3 0205 	rsb	r2, r3, #5
 80032f2:	68fb      	ldr	r3, [r7, #12]
 80032f4:	619a      	str	r2, [r3, #24]
	listSET_LIST_ITEM_OWNER( &( pxTCB->xEventListItem ), pxTCB );
 80032f6:	68fb      	ldr	r3, [r7, #12]
 80032f8:	68fa      	ldr	r2, [r7, #12]
 80032fa:	625a      	str	r2, [r3, #36]	; 0x24
	{
		/* Initialise this task's Newlib reent structure. */
		_REENT_INIT_PTR( ( &( pxTCB->xNewLib_reent ) ) );
	}
	#endif /* configUSE_NEWLIB_REENTRANT */
}
 80032fc:	3718      	adds	r7, #24
 80032fe:	46bd      	mov	sp, r7
 8003300:	bd80      	pop	{r7, pc}
 8003302:	bf00      	nop

08003304 <prvInitialiseTaskLists>:

#endif /* portUSING_MPU_WRAPPERS */
/*-----------------------------------------------------------*/

static void prvInitialiseTaskLists( void )
{
 8003304:	b580      	push	{r7, lr}
 8003306:	b082      	sub	sp, #8
 8003308:	af00      	add	r7, sp, #0
unsigned portBASE_TYPE uxPriority;

	for( uxPriority = ( unsigned portBASE_TYPE ) 0U; uxPriority < ( unsigned portBASE_TYPE ) configMAX_PRIORITIES; uxPriority++ )
 800330a:	2300      	movs	r3, #0
 800330c:	607b      	str	r3, [r7, #4]
 800330e:	e00c      	b.n	800332a <prvInitialiseTaskLists+0x26>
	{
		vListInitialise( &( pxReadyTasksLists[ uxPriority ] ) );
 8003310:	687a      	ldr	r2, [r7, #4]
 8003312:	4613      	mov	r3, r2
 8003314:	009b      	lsls	r3, r3, #2
 8003316:	4413      	add	r3, r2
 8003318:	009b      	lsls	r3, r3, #2
 800331a:	4a11      	ldr	r2, [pc, #68]	; (8003360 <prvInitialiseTaskLists+0x5c>)
 800331c:	4413      	add	r3, r2
 800331e:	4618      	mov	r0, r3
 8003320:	f000 fd5c 	bl	8003ddc <vListInitialise>

static void prvInitialiseTaskLists( void )
{
unsigned portBASE_TYPE uxPriority;

	for( uxPriority = ( unsigned portBASE_TYPE ) 0U; uxPriority < ( unsigned portBASE_TYPE ) configMAX_PRIORITIES; uxPriority++ )
 8003324:	687b      	ldr	r3, [r7, #4]
 8003326:	3301      	adds	r3, #1
 8003328:	607b      	str	r3, [r7, #4]
 800332a:	687b      	ldr	r3, [r7, #4]
 800332c:	2b04      	cmp	r3, #4
 800332e:	d9ef      	bls.n	8003310 <prvInitialiseTaskLists+0xc>
	{
		vListInitialise( &( pxReadyTasksLists[ uxPriority ] ) );
	}

	vListInitialise( &xDelayedTaskList1 );
 8003330:	480c      	ldr	r0, [pc, #48]	; (8003364 <prvInitialiseTaskLists+0x60>)
 8003332:	f000 fd53 	bl	8003ddc <vListInitialise>
	vListInitialise( &xDelayedTaskList2 );
 8003336:	480c      	ldr	r0, [pc, #48]	; (8003368 <prvInitialiseTaskLists+0x64>)
 8003338:	f000 fd50 	bl	8003ddc <vListInitialise>
	vListInitialise( &xPendingReadyList );
 800333c:	480b      	ldr	r0, [pc, #44]	; (800336c <prvInitialiseTaskLists+0x68>)
 800333e:	f000 fd4d 	bl	8003ddc <vListInitialise>

	#if ( INCLUDE_vTaskDelete == 1 )
	{
		vListInitialise( &xTasksWaitingTermination );
 8003342:	480b      	ldr	r0, [pc, #44]	; (8003370 <prvInitialiseTaskLists+0x6c>)
 8003344:	f000 fd4a 	bl	8003ddc <vListInitialise>
	}
	#endif /* INCLUDE_vTaskDelete */

	#if ( INCLUDE_vTaskSuspend == 1 )
	{
		vListInitialise( &xSuspendedTaskList );
 8003348:	480a      	ldr	r0, [pc, #40]	; (8003374 <prvInitialiseTaskLists+0x70>)
 800334a:	f000 fd47 	bl	8003ddc <vListInitialise>
	}
	#endif /* INCLUDE_vTaskSuspend */

	/* Start with pxDelayedTaskList using list1 and the pxOverflowDelayedTaskList
	using list2. */
	pxDelayedTaskList = &xDelayedTaskList1;
 800334e:	4b0a      	ldr	r3, [pc, #40]	; (8003378 <prvInitialiseTaskLists+0x74>)
 8003350:	4a04      	ldr	r2, [pc, #16]	; (8003364 <prvInitialiseTaskLists+0x60>)
 8003352:	601a      	str	r2, [r3, #0]
	pxOverflowDelayedTaskList = &xDelayedTaskList2;
 8003354:	4b09      	ldr	r3, [pc, #36]	; (800337c <prvInitialiseTaskLists+0x78>)
 8003356:	4a04      	ldr	r2, [pc, #16]	; (8003368 <prvInitialiseTaskLists+0x64>)
 8003358:	601a      	str	r2, [r3, #0]
}
 800335a:	3708      	adds	r7, #8
 800335c:	46bd      	mov	sp, r7
 800335e:	bd80      	pop	{r7, pc}
 8003360:	2000049c 	.word	0x2000049c
 8003364:	20000500 	.word	0x20000500
 8003368:	20000514 	.word	0x20000514
 800336c:	20000530 	.word	0x20000530
 8003370:	20000544 	.word	0x20000544
 8003374:	2000055c 	.word	0x2000055c
 8003378:	20000528 	.word	0x20000528
 800337c:	2000052c 	.word	0x2000052c

08003380 <prvCheckTasksWaitingTermination>:
/*-----------------------------------------------------------*/

static void prvCheckTasksWaitingTermination( void )
{
 8003380:	b580      	push	{r7, lr}
 8003382:	b082      	sub	sp, #8
 8003384:	af00      	add	r7, sp, #0
	{
		portBASE_TYPE xListIsEmpty;

		/* ucTasksDeleted is used to prevent vTaskSuspendAll() being called
		too often in the idle task. */
		while( uxTasksDeleted > ( unsigned portBASE_TYPE ) 0U )
 8003386:	e028      	b.n	80033da <prvCheckTasksWaitingTermination+0x5a>
		{
			vTaskSuspendAll();
 8003388:	f7ff fc3c 	bl	8002c04 <vTaskSuspendAll>
				xListIsEmpty = listLIST_IS_EMPTY( &xTasksWaitingTermination );
 800338c:	4b16      	ldr	r3, [pc, #88]	; (80033e8 <prvCheckTasksWaitingTermination+0x68>)
 800338e:	681b      	ldr	r3, [r3, #0]
 8003390:	2b00      	cmp	r3, #0
 8003392:	bf14      	ite	ne
 8003394:	2300      	movne	r3, #0
 8003396:	2301      	moveq	r3, #1
 8003398:	b2db      	uxtb	r3, r3
 800339a:	607b      	str	r3, [r7, #4]
			( void ) xTaskResumeAll();
 800339c:	f7ff fc40 	bl	8002c20 <xTaskResumeAll>

			if( xListIsEmpty == pdFALSE )
 80033a0:	687b      	ldr	r3, [r7, #4]
 80033a2:	2b00      	cmp	r3, #0
 80033a4:	d119      	bne.n	80033da <prvCheckTasksWaitingTermination+0x5a>
			{
				tskTCB *pxTCB;

				taskENTER_CRITICAL();
 80033a6:	f000 fe9b 	bl	80040e0 <vPortEnterCritical>
				{
					pxTCB = ( tskTCB * ) listGET_OWNER_OF_HEAD_ENTRY( ( &xTasksWaitingTermination ) );
 80033aa:	4b0f      	ldr	r3, [pc, #60]	; (80033e8 <prvCheckTasksWaitingTermination+0x68>)
 80033ac:	68db      	ldr	r3, [r3, #12]
 80033ae:	68db      	ldr	r3, [r3, #12]
 80033b0:	603b      	str	r3, [r7, #0]
					( void ) uxListRemove( &( pxTCB->xGenericListItem ) );
 80033b2:	683b      	ldr	r3, [r7, #0]
 80033b4:	3304      	adds	r3, #4
 80033b6:	4618      	mov	r0, r3
 80033b8:	f000 fd98 	bl	8003eec <uxListRemove>
					--uxCurrentNumberOfTasks;
 80033bc:	4b0b      	ldr	r3, [pc, #44]	; (80033ec <prvCheckTasksWaitingTermination+0x6c>)
 80033be:	681b      	ldr	r3, [r3, #0]
 80033c0:	1e5a      	subs	r2, r3, #1
 80033c2:	4b0a      	ldr	r3, [pc, #40]	; (80033ec <prvCheckTasksWaitingTermination+0x6c>)
 80033c4:	601a      	str	r2, [r3, #0]
					--uxTasksDeleted;
 80033c6:	4b0a      	ldr	r3, [pc, #40]	; (80033f0 <prvCheckTasksWaitingTermination+0x70>)
 80033c8:	681b      	ldr	r3, [r3, #0]
 80033ca:	1e5a      	subs	r2, r3, #1
 80033cc:	4b08      	ldr	r3, [pc, #32]	; (80033f0 <prvCheckTasksWaitingTermination+0x70>)
 80033ce:	601a      	str	r2, [r3, #0]
				}
				taskEXIT_CRITICAL();
 80033d0:	f000 fe96 	bl	8004100 <vPortExitCritical>

				prvDeleteTCB( pxTCB );
 80033d4:	6838      	ldr	r0, [r7, #0]
 80033d6:	f000 f875 	bl	80034c4 <prvDeleteTCB>
	{
		portBASE_TYPE xListIsEmpty;

		/* ucTasksDeleted is used to prevent vTaskSuspendAll() being called
		too often in the idle task. */
		while( uxTasksDeleted > ( unsigned portBASE_TYPE ) 0U )
 80033da:	4b05      	ldr	r3, [pc, #20]	; (80033f0 <prvCheckTasksWaitingTermination+0x70>)
 80033dc:	681b      	ldr	r3, [r3, #0]
 80033de:	2b00      	cmp	r3, #0
 80033e0:	d1d2      	bne.n	8003388 <prvCheckTasksWaitingTermination+0x8>
				prvDeleteTCB( pxTCB );
			}
		}
	}
	#endif /* vTaskDelete */
}
 80033e2:	3708      	adds	r7, #8
 80033e4:	46bd      	mov	sp, r7
 80033e6:	bd80      	pop	{r7, pc}
 80033e8:	20000544 	.word	0x20000544
 80033ec:	20000570 	.word	0x20000570
 80033f0:	20000558 	.word	0x20000558

080033f4 <prvAddCurrentTaskToDelayedList>:
/*-----------------------------------------------------------*/

static void prvAddCurrentTaskToDelayedList( portTickType xTimeToWake )
{
 80033f4:	b580      	push	{r7, lr}
 80033f6:	b082      	sub	sp, #8
 80033f8:	af00      	add	r7, sp, #0
 80033fa:	6078      	str	r0, [r7, #4]
	/* The list item will be inserted in wake time order. */
	listSET_LIST_ITEM_VALUE( &( pxCurrentTCB->xGenericListItem ), xTimeToWake );
 80033fc:	4b13      	ldr	r3, [pc, #76]	; (800344c <prvAddCurrentTaskToDelayedList+0x58>)
 80033fe:	681b      	ldr	r3, [r3, #0]
 8003400:	687a      	ldr	r2, [r7, #4]
 8003402:	605a      	str	r2, [r3, #4]

	if( xTimeToWake < xTickCount )
 8003404:	4b12      	ldr	r3, [pc, #72]	; (8003450 <prvAddCurrentTaskToDelayedList+0x5c>)
 8003406:	681b      	ldr	r3, [r3, #0]
 8003408:	687a      	ldr	r2, [r7, #4]
 800340a:	429a      	cmp	r2, r3
 800340c:	d209      	bcs.n	8003422 <prvAddCurrentTaskToDelayedList+0x2e>
	{
		/* Wake time has overflowed.  Place this item in the overflow list. */
		vListInsert( pxOverflowDelayedTaskList, &( pxCurrentTCB->xGenericListItem ) );
 800340e:	4b11      	ldr	r3, [pc, #68]	; (8003454 <prvAddCurrentTaskToDelayedList+0x60>)
 8003410:	681a      	ldr	r2, [r3, #0]
 8003412:	4b0e      	ldr	r3, [pc, #56]	; (800344c <prvAddCurrentTaskToDelayedList+0x58>)
 8003414:	681b      	ldr	r3, [r3, #0]
 8003416:	3304      	adds	r3, #4
 8003418:	4610      	mov	r0, r2
 800341a:	4619      	mov	r1, r3
 800341c:	f000 fd2e 	bl	8003e7c <vListInsert>
 8003420:	e010      	b.n	8003444 <prvAddCurrentTaskToDelayedList+0x50>
	}
	else
	{
		/* The wake time has not overflowed, so we can use the current block list. */
		vListInsert( pxDelayedTaskList, &( pxCurrentTCB->xGenericListItem ) );
 8003422:	4b0d      	ldr	r3, [pc, #52]	; (8003458 <prvAddCurrentTaskToDelayedList+0x64>)
 8003424:	681a      	ldr	r2, [r3, #0]
 8003426:	4b09      	ldr	r3, [pc, #36]	; (800344c <prvAddCurrentTaskToDelayedList+0x58>)
 8003428:	681b      	ldr	r3, [r3, #0]
 800342a:	3304      	adds	r3, #4
 800342c:	4610      	mov	r0, r2
 800342e:	4619      	mov	r1, r3
 8003430:	f000 fd24 	bl	8003e7c <vListInsert>

		/* If the task entering the blocked state was placed at the head of the
		list of blocked tasks then xNextTaskUnblockTime needs to be updated
		too. */
		if( xTimeToWake < xNextTaskUnblockTime )
 8003434:	4b09      	ldr	r3, [pc, #36]	; (800345c <prvAddCurrentTaskToDelayedList+0x68>)
 8003436:	681b      	ldr	r3, [r3, #0]
 8003438:	687a      	ldr	r2, [r7, #4]
 800343a:	429a      	cmp	r2, r3
 800343c:	d202      	bcs.n	8003444 <prvAddCurrentTaskToDelayedList+0x50>
		{
			xNextTaskUnblockTime = xTimeToWake;
 800343e:	4b07      	ldr	r3, [pc, #28]	; (800345c <prvAddCurrentTaskToDelayedList+0x68>)
 8003440:	687a      	ldr	r2, [r7, #4]
 8003442:	601a      	str	r2, [r3, #0]
		}
	}
}
 8003444:	3708      	adds	r7, #8
 8003446:	46bd      	mov	sp, r7
 8003448:	bd80      	pop	{r7, pc}
 800344a:	bf00      	nop
 800344c:	20000498 	.word	0x20000498
 8003450:	20000574 	.word	0x20000574
 8003454:	2000052c 	.word	0x2000052c
 8003458:	20000528 	.word	0x20000528
 800345c:	20000004 	.word	0x20000004

08003460 <prvAllocateTCBAndStack>:
/*-----------------------------------------------------------*/

static tskTCB *prvAllocateTCBAndStack( unsigned short usStackDepth, portSTACK_TYPE *puxStackBuffer )
{
 8003460:	b580      	push	{r7, lr}
 8003462:	b084      	sub	sp, #16
 8003464:	af00      	add	r7, sp, #0
 8003466:	4603      	mov	r3, r0
 8003468:	6039      	str	r1, [r7, #0]
 800346a:	80fb      	strh	r3, [r7, #6]
tskTCB *pxNewTCB;

	/* Allocate space for the TCB.  Where the memory comes from depends on
	the implementation of the port malloc function. */
	pxNewTCB = ( tskTCB * ) pvPortMalloc( sizeof( tskTCB ) );
 800346c:	204c      	movs	r0, #76	; 0x4c
 800346e:	f001 fadb 	bl	8004a28 <pvPortMalloc>
 8003472:	60f8      	str	r0, [r7, #12]

	if( pxNewTCB != NULL )
 8003474:	68fb      	ldr	r3, [r7, #12]
 8003476:	2b00      	cmp	r3, #0
 8003478:	d01f      	beq.n	80034ba <prvAllocateTCBAndStack+0x5a>
	{
		/* Allocate space for the stack used by the task being created.
		The base of the stack memory stored in the TCB so the task can
		be deleted later if required. */
		pxNewTCB->pxStack = ( portSTACK_TYPE * ) pvPortMallocAligned( ( ( ( size_t ) usStackDepth ) * sizeof( portSTACK_TYPE ) ), puxStackBuffer ); /*lint !e961 MISRA exception as the casts are only redundant for some ports. */
 800347a:	683b      	ldr	r3, [r7, #0]
 800347c:	2b00      	cmp	r3, #0
 800347e:	d106      	bne.n	800348e <prvAllocateTCBAndStack+0x2e>
 8003480:	88fb      	ldrh	r3, [r7, #6]
 8003482:	009b      	lsls	r3, r3, #2
 8003484:	4618      	mov	r0, r3
 8003486:	f001 facf 	bl	8004a28 <pvPortMalloc>
 800348a:	4603      	mov	r3, r0
 800348c:	e000      	b.n	8003490 <prvAllocateTCBAndStack+0x30>
 800348e:	683b      	ldr	r3, [r7, #0]
 8003490:	68fa      	ldr	r2, [r7, #12]
 8003492:	6313      	str	r3, [r2, #48]	; 0x30

		if( pxNewTCB->pxStack == NULL )
 8003494:	68fb      	ldr	r3, [r7, #12]
 8003496:	6b1b      	ldr	r3, [r3, #48]	; 0x30
 8003498:	2b00      	cmp	r3, #0
 800349a:	d105      	bne.n	80034a8 <prvAllocateTCBAndStack+0x48>
		{
			/* Could not allocate the stack.  Delete the allocated TCB. */
			vPortFree( pxNewTCB );
 800349c:	68f8      	ldr	r0, [r7, #12]
 800349e:	f001 fb4f 	bl	8004b40 <vPortFree>
			pxNewTCB = NULL;
 80034a2:	2300      	movs	r3, #0
 80034a4:	60fb      	str	r3, [r7, #12]
 80034a6:	e008      	b.n	80034ba <prvAllocateTCBAndStack+0x5a>
		}
		else
		{
			/* Just to help debugging. */
			( void ) memset( pxNewTCB->pxStack, ( int ) tskSTACK_FILL_BYTE, ( size_t ) usStackDepth * sizeof( portSTACK_TYPE ) );
 80034a8:	68fb      	ldr	r3, [r7, #12]
 80034aa:	6b1a      	ldr	r2, [r3, #48]	; 0x30
 80034ac:	88fb      	ldrh	r3, [r7, #6]
 80034ae:	009b      	lsls	r3, r3, #2
 80034b0:	4610      	mov	r0, r2
 80034b2:	21a5      	movs	r1, #165	; 0xa5
 80034b4:	461a      	mov	r2, r3
 80034b6:	f003 ff81 	bl	80073bc <memset>
		}
	}

	return pxNewTCB;
 80034ba:	68fb      	ldr	r3, [r7, #12]
}
 80034bc:	4618      	mov	r0, r3
 80034be:	3710      	adds	r7, #16
 80034c0:	46bd      	mov	sp, r7
 80034c2:	bd80      	pop	{r7, pc}

080034c4 <prvDeleteTCB>:
/*-----------------------------------------------------------*/

#if ( INCLUDE_vTaskDelete == 1 )

	static void prvDeleteTCB( tskTCB *pxTCB )
	{
 80034c4:	b580      	push	{r7, lr}
 80034c6:	b082      	sub	sp, #8
 80034c8:	af00      	add	r7, sp, #0
 80034ca:	6078      	str	r0, [r7, #4]
		want to allocate and clean RAM statically. */
		portCLEAN_UP_TCB( pxTCB );

		/* Free up the memory allocated by the scheduler for the task.  It is up to
		the task to free any memory allocated at the application level. */
		vPortFreeAligned( pxTCB->pxStack );
 80034cc:	687b      	ldr	r3, [r7, #4]
 80034ce:	6b1b      	ldr	r3, [r3, #48]	; 0x30
 80034d0:	4618      	mov	r0, r3
 80034d2:	f001 fb35 	bl	8004b40 <vPortFree>
		vPortFree( pxTCB );
 80034d6:	6878      	ldr	r0, [r7, #4]
 80034d8:	f001 fb32 	bl	8004b40 <vPortFree>
	}
 80034dc:	3708      	adds	r7, #8
 80034de:	46bd      	mov	sp, r7
 80034e0:	bd80      	pop	{r7, pc}
 80034e2:	bf00      	nop

080034e4 <xTaskGetCurrentTaskHandle>:
/*-----------------------------------------------------------*/

#if ( ( INCLUDE_xTaskGetCurrentTaskHandle == 1 ) || ( configUSE_MUTEXES == 1 ) )

	xTaskHandle xTaskGetCurrentTaskHandle( void )
	{
 80034e4:	b480      	push	{r7}
 80034e6:	b083      	sub	sp, #12
 80034e8:	af00      	add	r7, sp, #0
	xTaskHandle xReturn;

		/* A critical section is not required as this is not called from
		an interrupt and the current TCB will always be the same for any
		individual execution thread. */
		xReturn = pxCurrentTCB;
 80034ea:	4b05      	ldr	r3, [pc, #20]	; (8003500 <xTaskGetCurrentTaskHandle+0x1c>)
 80034ec:	681b      	ldr	r3, [r3, #0]
 80034ee:	607b      	str	r3, [r7, #4]

		return xReturn;
 80034f0:	687b      	ldr	r3, [r7, #4]
	}
 80034f2:	4618      	mov	r0, r3
 80034f4:	370c      	adds	r7, #12
 80034f6:	46bd      	mov	sp, r7
 80034f8:	f85d 7b04 	ldr.w	r7, [sp], #4
 80034fc:	4770      	bx	lr
 80034fe:	bf00      	nop
 8003500:	20000498 	.word	0x20000498

08003504 <xTaskGetSchedulerState>:
/*-----------------------------------------------------------*/

#if ( ( INCLUDE_xTaskGetSchedulerState == 1 ) || ( configUSE_TIMERS == 1 ) )

	portBASE_TYPE xTaskGetSchedulerState( void )
	{
 8003504:	b480      	push	{r7}
 8003506:	b083      	sub	sp, #12
 8003508:	af00      	add	r7, sp, #0
	portBASE_TYPE xReturn;

		if( xSchedulerRunning == pdFALSE )
 800350a:	4b0b      	ldr	r3, [pc, #44]	; (8003538 <xTaskGetSchedulerState+0x34>)
 800350c:	681b      	ldr	r3, [r3, #0]
 800350e:	2b00      	cmp	r3, #0
 8003510:	d102      	bne.n	8003518 <xTaskGetSchedulerState+0x14>
		{
			xReturn = taskSCHEDULER_NOT_STARTED;
 8003512:	2300      	movs	r3, #0
 8003514:	607b      	str	r3, [r7, #4]
 8003516:	e008      	b.n	800352a <xTaskGetSchedulerState+0x26>
		}
		else
		{
			if( uxSchedulerSuspended == ( unsigned portBASE_TYPE ) pdFALSE )
 8003518:	4b08      	ldr	r3, [pc, #32]	; (800353c <xTaskGetSchedulerState+0x38>)
 800351a:	681b      	ldr	r3, [r3, #0]
 800351c:	2b00      	cmp	r3, #0
 800351e:	d102      	bne.n	8003526 <xTaskGetSchedulerState+0x22>
			{
				xReturn = taskSCHEDULER_RUNNING;
 8003520:	2301      	movs	r3, #1
 8003522:	607b      	str	r3, [r7, #4]
 8003524:	e001      	b.n	800352a <xTaskGetSchedulerState+0x26>
			}
			else
			{
				xReturn = taskSCHEDULER_SUSPENDED;
 8003526:	2302      	movs	r3, #2
 8003528:	607b      	str	r3, [r7, #4]
			}
		}

		return xReturn;
 800352a:	687b      	ldr	r3, [r7, #4]
	}
 800352c:	4618      	mov	r0, r3
 800352e:	370c      	adds	r7, #12
 8003530:	46bd      	mov	sp, r7
 8003532:	f85d 7b04 	ldr.w	r7, [sp], #4
 8003536:	4770      	bx	lr
 8003538:	2000057c 	.word	0x2000057c
 800353c:	20000580 	.word	0x20000580

08003540 <vTaskPriorityInherit>:
/*-----------------------------------------------------------*/

#if ( configUSE_MUTEXES == 1 )

	void vTaskPriorityInherit( xTaskHandle const pxMutexHolder )
	{
 8003540:	b580      	push	{r7, lr}
 8003542:	b084      	sub	sp, #16
 8003544:	af00      	add	r7, sp, #0
 8003546:	6078      	str	r0, [r7, #4]
	tskTCB * const pxTCB = ( tskTCB * ) pxMutexHolder;
 8003548:	687b      	ldr	r3, [r7, #4]
 800354a:	60fb      	str	r3, [r7, #12]

		/* If the mutex was given back by an interrupt while the queue was
		locked then the mutex holder might now be NULL. */
		if( pxMutexHolder != NULL )
 800354c:	687b      	ldr	r3, [r7, #4]
 800354e:	2b00      	cmp	r3, #0
 8003550:	d046      	beq.n	80035e0 <vTaskPriorityInherit+0xa0>
		{
			if( pxTCB->uxPriority < pxCurrentTCB->uxPriority )
 8003552:	68fb      	ldr	r3, [r7, #12]
 8003554:	6ada      	ldr	r2, [r3, #44]	; 0x2c
 8003556:	4b24      	ldr	r3, [pc, #144]	; (80035e8 <vTaskPriorityInherit+0xa8>)
 8003558:	681b      	ldr	r3, [r3, #0]
 800355a:	6adb      	ldr	r3, [r3, #44]	; 0x2c
 800355c:	429a      	cmp	r2, r3
 800355e:	d23f      	bcs.n	80035e0 <vTaskPriorityInherit+0xa0>
			{
				/* Adjust the mutex holder state to account for its new priority. */
				listSET_LIST_ITEM_VALUE( &( pxTCB->xEventListItem ), ( portTickType ) configMAX_PRIORITIES - ( portTickType ) pxCurrentTCB->uxPriority ); /*lint !e961 MISRA exception as the casts are only redundant for some ports. */
 8003560:	4b21      	ldr	r3, [pc, #132]	; (80035e8 <vTaskPriorityInherit+0xa8>)
 8003562:	681b      	ldr	r3, [r3, #0]
 8003564:	6adb      	ldr	r3, [r3, #44]	; 0x2c
 8003566:	f1c3 0205 	rsb	r2, r3, #5
 800356a:	68fb      	ldr	r3, [r7, #12]
 800356c:	619a      	str	r2, [r3, #24]

				/* If the task being modified is in the ready state it will need to
				be moved into a new list. */
				if( listIS_CONTAINED_WITHIN( &( pxReadyTasksLists[ pxTCB->uxPriority ] ), &( pxTCB->xGenericListItem ) ) != pdFALSE )
 800356e:	68fb      	ldr	r3, [r7, #12]
 8003570:	6959      	ldr	r1, [r3, #20]
 8003572:	68fb      	ldr	r3, [r7, #12]
 8003574:	6ada      	ldr	r2, [r3, #44]	; 0x2c
 8003576:	4613      	mov	r3, r2
 8003578:	009b      	lsls	r3, r3, #2
 800357a:	4413      	add	r3, r2
 800357c:	009b      	lsls	r3, r3, #2
 800357e:	4a1b      	ldr	r2, [pc, #108]	; (80035ec <vTaskPriorityInherit+0xac>)
 8003580:	4413      	add	r3, r2
 8003582:	4299      	cmp	r1, r3
 8003584:	d101      	bne.n	800358a <vTaskPriorityInherit+0x4a>
 8003586:	2301      	movs	r3, #1
 8003588:	e000      	b.n	800358c <vTaskPriorityInherit+0x4c>
 800358a:	2300      	movs	r3, #0
 800358c:	2b00      	cmp	r3, #0
 800358e:	d022      	beq.n	80035d6 <vTaskPriorityInherit+0x96>
				{
					if( uxListRemove( &( pxTCB->xGenericListItem ) ) == ( unsigned portBASE_TYPE ) 0 )
 8003590:	68fb      	ldr	r3, [r7, #12]
 8003592:	3304      	adds	r3, #4
 8003594:	4618      	mov	r0, r3
 8003596:	f000 fca9 	bl	8003eec <uxListRemove>
					{
						taskRESET_READY_PRIORITY( pxTCB->uxPriority );
					}

					/* Inherit the priority before being moved into the new list. */
					pxTCB->uxPriority = pxCurrentTCB->uxPriority;
 800359a:	4b13      	ldr	r3, [pc, #76]	; (80035e8 <vTaskPriorityInherit+0xa8>)
 800359c:	681b      	ldr	r3, [r3, #0]
 800359e:	6ada      	ldr	r2, [r3, #44]	; 0x2c
 80035a0:	68fb      	ldr	r3, [r7, #12]
 80035a2:	62da      	str	r2, [r3, #44]	; 0x2c
					prvAddTaskToReadyList( pxTCB );
 80035a4:	68fb      	ldr	r3, [r7, #12]
 80035a6:	6ada      	ldr	r2, [r3, #44]	; 0x2c
 80035a8:	4b11      	ldr	r3, [pc, #68]	; (80035f0 <vTaskPriorityInherit+0xb0>)
 80035aa:	681b      	ldr	r3, [r3, #0]
 80035ac:	429a      	cmp	r2, r3
 80035ae:	d903      	bls.n	80035b8 <vTaskPriorityInherit+0x78>
 80035b0:	68fb      	ldr	r3, [r7, #12]
 80035b2:	6ada      	ldr	r2, [r3, #44]	; 0x2c
 80035b4:	4b0e      	ldr	r3, [pc, #56]	; (80035f0 <vTaskPriorityInherit+0xb0>)
 80035b6:	601a      	str	r2, [r3, #0]
 80035b8:	68fb      	ldr	r3, [r7, #12]
 80035ba:	6ada      	ldr	r2, [r3, #44]	; 0x2c
 80035bc:	4613      	mov	r3, r2
 80035be:	009b      	lsls	r3, r3, #2
 80035c0:	4413      	add	r3, r2
 80035c2:	009b      	lsls	r3, r3, #2
 80035c4:	4a09      	ldr	r2, [pc, #36]	; (80035ec <vTaskPriorityInherit+0xac>)
 80035c6:	441a      	add	r2, r3
 80035c8:	68fb      	ldr	r3, [r7, #12]
 80035ca:	3304      	adds	r3, #4
 80035cc:	4610      	mov	r0, r2
 80035ce:	4619      	mov	r1, r3
 80035d0:	f000 fc30 	bl	8003e34 <vListInsertEnd>
 80035d4:	e004      	b.n	80035e0 <vTaskPriorityInherit+0xa0>
				}
				else
				{
					/* Just inherit the priority. */
					pxTCB->uxPriority = pxCurrentTCB->uxPriority;
 80035d6:	4b04      	ldr	r3, [pc, #16]	; (80035e8 <vTaskPriorityInherit+0xa8>)
 80035d8:	681b      	ldr	r3, [r3, #0]
 80035da:	6ada      	ldr	r2, [r3, #44]	; 0x2c
 80035dc:	68fb      	ldr	r3, [r7, #12]
 80035de:	62da      	str	r2, [r3, #44]	; 0x2c
				}

				traceTASK_PRIORITY_INHERIT( pxTCB, pxCurrentTCB->uxPriority );
			}
		}
	}
 80035e0:	3710      	adds	r7, #16
 80035e2:	46bd      	mov	sp, r7
 80035e4:	bd80      	pop	{r7, pc}
 80035e6:	bf00      	nop
 80035e8:	20000498 	.word	0x20000498
 80035ec:	2000049c 	.word	0x2000049c
 80035f0:	20000578 	.word	0x20000578

080035f4 <vTaskPriorityDisinherit>:
/*-----------------------------------------------------------*/

#if ( configUSE_MUTEXES == 1 )

	void vTaskPriorityDisinherit( xTaskHandle const pxMutexHolder )
	{
 80035f4:	b580      	push	{r7, lr}
 80035f6:	b084      	sub	sp, #16
 80035f8:	af00      	add	r7, sp, #0
 80035fa:	6078      	str	r0, [r7, #4]
	tskTCB * const pxTCB = ( tskTCB * ) pxMutexHolder;
 80035fc:	687b      	ldr	r3, [r7, #4]
 80035fe:	60fb      	str	r3, [r7, #12]

		if( pxMutexHolder != NULL )
 8003600:	687b      	ldr	r3, [r7, #4]
 8003602:	2b00      	cmp	r3, #0
 8003604:	d02c      	beq.n	8003660 <vTaskPriorityDisinherit+0x6c>
		{
			if( pxTCB->uxPriority != pxTCB->uxBasePriority )
 8003606:	68fb      	ldr	r3, [r7, #12]
 8003608:	6ada      	ldr	r2, [r3, #44]	; 0x2c
 800360a:	68fb      	ldr	r3, [r7, #12]
 800360c:	6c9b      	ldr	r3, [r3, #72]	; 0x48
 800360e:	429a      	cmp	r2, r3
 8003610:	d026      	beq.n	8003660 <vTaskPriorityDisinherit+0x6c>
			{
				/* We must be the running task to be able to give the mutex back.
				Remove ourselves from the ready list we currently appear in. */
				if( uxListRemove( &( pxTCB->xGenericListItem ) ) == ( unsigned portBASE_TYPE ) 0 )
 8003612:	68fb      	ldr	r3, [r7, #12]
 8003614:	3304      	adds	r3, #4
 8003616:	4618      	mov	r0, r3
 8003618:	f000 fc68 	bl	8003eec <uxListRemove>
				}

				/* Disinherit the priority before adding the task into the new
				ready list. */
				traceTASK_PRIORITY_DISINHERIT( pxTCB, pxTCB->uxBasePriority );
				pxTCB->uxPriority = pxTCB->uxBasePriority;
 800361c:	68fb      	ldr	r3, [r7, #12]
 800361e:	6c9a      	ldr	r2, [r3, #72]	; 0x48
 8003620:	68fb      	ldr	r3, [r7, #12]
 8003622:	62da      	str	r2, [r3, #44]	; 0x2c
				listSET_LIST_ITEM_VALUE( &( pxTCB->xEventListItem ), ( portTickType ) configMAX_PRIORITIES - ( portTickType ) pxTCB->uxPriority ); /*lint !e961 MISRA exception as the casts are only redundant for some ports. */
 8003624:	68fb      	ldr	r3, [r7, #12]
 8003626:	6adb      	ldr	r3, [r3, #44]	; 0x2c
 8003628:	f1c3 0205 	rsb	r2, r3, #5
 800362c:	68fb      	ldr	r3, [r7, #12]
 800362e:	619a      	str	r2, [r3, #24]
				prvAddTaskToReadyList( pxTCB );
 8003630:	68fb      	ldr	r3, [r7, #12]
 8003632:	6ada      	ldr	r2, [r3, #44]	; 0x2c
 8003634:	4b0c      	ldr	r3, [pc, #48]	; (8003668 <vTaskPriorityDisinherit+0x74>)
 8003636:	681b      	ldr	r3, [r3, #0]
 8003638:	429a      	cmp	r2, r3
 800363a:	d903      	bls.n	8003644 <vTaskPriorityDisinherit+0x50>
 800363c:	68fb      	ldr	r3, [r7, #12]
 800363e:	6ada      	ldr	r2, [r3, #44]	; 0x2c
 8003640:	4b09      	ldr	r3, [pc, #36]	; (8003668 <vTaskPriorityDisinherit+0x74>)
 8003642:	601a      	str	r2, [r3, #0]
 8003644:	68fb      	ldr	r3, [r7, #12]
 8003646:	6ada      	ldr	r2, [r3, #44]	; 0x2c
 8003648:	4613      	mov	r3, r2
 800364a:	009b      	lsls	r3, r3, #2
 800364c:	4413      	add	r3, r2
 800364e:	009b      	lsls	r3, r3, #2
 8003650:	4a06      	ldr	r2, [pc, #24]	; (800366c <vTaskPriorityDisinherit+0x78>)
 8003652:	441a      	add	r2, r3
 8003654:	68fb      	ldr	r3, [r7, #12]
 8003656:	3304      	adds	r3, #4
 8003658:	4610      	mov	r0, r2
 800365a:	4619      	mov	r1, r3
 800365c:	f000 fbea 	bl	8003e34 <vListInsertEnd>
			}
		}
	}
 8003660:	3710      	adds	r7, #16
 8003662:	46bd      	mov	sp, r7
 8003664:	bd80      	pop	{r7, pc}
 8003666:	bf00      	nop
 8003668:	20000578 	.word	0x20000578
 800366c:	2000049c 	.word	0x2000049c

08003670 <xQueueGenericReset>:
	}														\
	taskEXIT_CRITICAL()
/*-----------------------------------------------------------*/

portBASE_TYPE xQueueGenericReset( xQueueHandle xQueue, portBASE_TYPE xNewQueue )
{
 8003670:	b580      	push	{r7, lr}
 8003672:	b084      	sub	sp, #16
 8003674:	af00      	add	r7, sp, #0
 8003676:	6078      	str	r0, [r7, #4]
 8003678:	6039      	str	r1, [r7, #0]
xQUEUE * const pxQueue = ( xQUEUE * ) xQueue;
 800367a:	687b      	ldr	r3, [r7, #4]
 800367c:	60fb      	str	r3, [r7, #12]

	configASSERT( pxQueue );
 800367e:	68fb      	ldr	r3, [r7, #12]
 8003680:	2b00      	cmp	r3, #0
 8003682:	d102      	bne.n	800368a <xQueueGenericReset+0x1a>
 8003684:	f000 fd4e 	bl	8004124 <ulPortSetInterruptMask>
 8003688:	e7fe      	b.n	8003688 <xQueueGenericReset+0x18>

	taskENTER_CRITICAL();
 800368a:	f000 fd29 	bl	80040e0 <vPortEnterCritical>
	{
		pxQueue->pcTail = pxQueue->pcHead + ( pxQueue->uxLength * pxQueue->uxItemSize );
 800368e:	68fb      	ldr	r3, [r7, #12]
 8003690:	681a      	ldr	r2, [r3, #0]
 8003692:	68fb      	ldr	r3, [r7, #12]
 8003694:	6bdb      	ldr	r3, [r3, #60]	; 0x3c
 8003696:	68f9      	ldr	r1, [r7, #12]
 8003698:	6c09      	ldr	r1, [r1, #64]	; 0x40
 800369a:	fb01 f303 	mul.w	r3, r1, r3
 800369e:	441a      	add	r2, r3
 80036a0:	68fb      	ldr	r3, [r7, #12]
 80036a2:	605a      	str	r2, [r3, #4]
		pxQueue->uxMessagesWaiting = ( unsigned portBASE_TYPE ) 0U;
 80036a4:	68fb      	ldr	r3, [r7, #12]
 80036a6:	2200      	movs	r2, #0
 80036a8:	639a      	str	r2, [r3, #56]	; 0x38
		pxQueue->pcWriteTo = pxQueue->pcHead;
 80036aa:	68fb      	ldr	r3, [r7, #12]
 80036ac:	681a      	ldr	r2, [r3, #0]
 80036ae:	68fb      	ldr	r3, [r7, #12]
 80036b0:	609a      	str	r2, [r3, #8]
		pxQueue->u.pcReadFrom = pxQueue->pcHead + ( ( pxQueue->uxLength - ( unsigned portBASE_TYPE ) 1U ) * pxQueue->uxItemSize );
 80036b2:	68fb      	ldr	r3, [r7, #12]
 80036b4:	681a      	ldr	r2, [r3, #0]
 80036b6:	68fb      	ldr	r3, [r7, #12]
 80036b8:	6bdb      	ldr	r3, [r3, #60]	; 0x3c
 80036ba:	3b01      	subs	r3, #1
 80036bc:	68f9      	ldr	r1, [r7, #12]
 80036be:	6c09      	ldr	r1, [r1, #64]	; 0x40
 80036c0:	fb01 f303 	mul.w	r3, r1, r3
 80036c4:	441a      	add	r2, r3
 80036c6:	68fb      	ldr	r3, [r7, #12]
 80036c8:	60da      	str	r2, [r3, #12]
		pxQueue->xRxLock = queueUNLOCKED;
 80036ca:	68fb      	ldr	r3, [r7, #12]
 80036cc:	f04f 32ff 	mov.w	r2, #4294967295	; 0xffffffff
 80036d0:	645a      	str	r2, [r3, #68]	; 0x44
		pxQueue->xTxLock = queueUNLOCKED;
 80036d2:	68fb      	ldr	r3, [r7, #12]
 80036d4:	f04f 32ff 	mov.w	r2, #4294967295	; 0xffffffff
 80036d8:	649a      	str	r2, [r3, #72]	; 0x48

		if( xNewQueue == pdFALSE )
 80036da:	683b      	ldr	r3, [r7, #0]
 80036dc:	2b00      	cmp	r3, #0
 80036de:	d10e      	bne.n	80036fe <xQueueGenericReset+0x8e>
			/* If there are tasks blocked waiting to read from the queue, then
			the tasks will remain blocked as after this function exits the queue
			will still be empty.  If there are tasks blocked waiting to	write to
			the queue, then one should be unblocked as after this function exits
			it will be possible to write to it. */
			if( listLIST_IS_EMPTY( &( pxQueue->xTasksWaitingToSend ) ) == pdFALSE )
 80036e0:	68fb      	ldr	r3, [r7, #12]
 80036e2:	691b      	ldr	r3, [r3, #16]
 80036e4:	2b00      	cmp	r3, #0
 80036e6:	d014      	beq.n	8003712 <xQueueGenericReset+0xa2>
			{
				if( xTaskRemoveFromEventList( &( pxQueue->xTasksWaitingToSend ) ) == pdTRUE )
 80036e8:	68fb      	ldr	r3, [r7, #12]
 80036ea:	3310      	adds	r3, #16
 80036ec:	4618      	mov	r0, r3
 80036ee:	f7ff fcdd 	bl	80030ac <xTaskRemoveFromEventList>
 80036f2:	4603      	mov	r3, r0
 80036f4:	2b01      	cmp	r3, #1
 80036f6:	d10c      	bne.n	8003712 <xQueueGenericReset+0xa2>
				{
					portYIELD_WITHIN_API();
 80036f8:	f000 fce2 	bl	80040c0 <vPortYield>
 80036fc:	e009      	b.n	8003712 <xQueueGenericReset+0xa2>
			}
		}
		else
		{
			/* Ensure the event queues start in the correct state. */
			vListInitialise( &( pxQueue->xTasksWaitingToSend ) );
 80036fe:	68fb      	ldr	r3, [r7, #12]
 8003700:	3310      	adds	r3, #16
 8003702:	4618      	mov	r0, r3
 8003704:	f000 fb6a 	bl	8003ddc <vListInitialise>
			vListInitialise( &( pxQueue->xTasksWaitingToReceive ) );
 8003708:	68fb      	ldr	r3, [r7, #12]
 800370a:	3324      	adds	r3, #36	; 0x24
 800370c:	4618      	mov	r0, r3
 800370e:	f000 fb65 	bl	8003ddc <vListInitialise>
		}
	}
	taskEXIT_CRITICAL();
 8003712:	f000 fcf5 	bl	8004100 <vPortExitCritical>

	/* A value is returned for calling semantic consistency with previous
	versions. */
	return pdPASS;
 8003716:	2301      	movs	r3, #1
}
 8003718:	4618      	mov	r0, r3
 800371a:	3710      	adds	r7, #16
 800371c:	46bd      	mov	sp, r7
 800371e:	bd80      	pop	{r7, pc}

08003720 <xQueueGenericCreate>:
/*-----------------------------------------------------------*/

xQueueHandle xQueueGenericCreate( unsigned portBASE_TYPE uxQueueLength, unsigned portBASE_TYPE uxItemSize, unsigned char ucQueueType )
{
 8003720:	b580      	push	{r7, lr}
 8003722:	b088      	sub	sp, #32
 8003724:	af00      	add	r7, sp, #0
 8003726:	60f8      	str	r0, [r7, #12]
 8003728:	60b9      	str	r1, [r7, #8]
 800372a:	4613      	mov	r3, r2
 800372c:	71fb      	strb	r3, [r7, #7]
xQUEUE *pxNewQueue;
size_t xQueueSizeInBytes;
xQueueHandle xReturn = NULL;
 800372e:	2300      	movs	r3, #0
 8003730:	61fb      	str	r3, [r7, #28]
	/* Remove compiler warnings about unused parameters should
	configUSE_TRACE_FACILITY not be set to 1. */
	( void ) ucQueueType;

	/* Allocate the new queue structure. */
	if( uxQueueLength > ( unsigned portBASE_TYPE ) 0 )
 8003732:	68fb      	ldr	r3, [r7, #12]
 8003734:	2b00      	cmp	r3, #0
 8003736:	d02a      	beq.n	800378e <xQueueGenericCreate+0x6e>
	{
		pxNewQueue = ( xQUEUE * ) pvPortMalloc( sizeof( xQUEUE ) );
 8003738:	2050      	movs	r0, #80	; 0x50
 800373a:	f001 f975 	bl	8004a28 <pvPortMalloc>
 800373e:	61b8      	str	r0, [r7, #24]
		if( pxNewQueue != NULL )
 8003740:	69bb      	ldr	r3, [r7, #24]
 8003742:	2b00      	cmp	r3, #0
 8003744:	d023      	beq.n	800378e <xQueueGenericCreate+0x6e>
		{
			/* Create the list of pointers to queue items.  The queue is one byte
			longer than asked for to make wrap checking easier/faster. */
			xQueueSizeInBytes = ( size_t ) ( uxQueueLength * uxItemSize ) + ( size_t ) 1; /*lint !e961 MISRA exception as the casts are only redundant for some ports. */
 8003746:	68fb      	ldr	r3, [r7, #12]
 8003748:	68ba      	ldr	r2, [r7, #8]
 800374a:	fb02 f303 	mul.w	r3, r2, r3
 800374e:	3301      	adds	r3, #1
 8003750:	617b      	str	r3, [r7, #20]

			pxNewQueue->pcHead = ( signed char * ) pvPortMalloc( xQueueSizeInBytes );
 8003752:	6978      	ldr	r0, [r7, #20]
 8003754:	f001 f968 	bl	8004a28 <pvPortMalloc>
 8003758:	4602      	mov	r2, r0
 800375a:	69bb      	ldr	r3, [r7, #24]
 800375c:	601a      	str	r2, [r3, #0]
			if( pxNewQueue->pcHead != NULL )
 800375e:	69bb      	ldr	r3, [r7, #24]
 8003760:	681b      	ldr	r3, [r3, #0]
 8003762:	2b00      	cmp	r3, #0
 8003764:	d010      	beq.n	8003788 <xQueueGenericCreate+0x68>
			{
				/* Initialise the queue members as described above where the
				queue type is defined. */
				pxNewQueue->uxLength = uxQueueLength;
 8003766:	69bb      	ldr	r3, [r7, #24]
 8003768:	68fa      	ldr	r2, [r7, #12]
 800376a:	63da      	str	r2, [r3, #60]	; 0x3c
				pxNewQueue->uxItemSize = uxItemSize;
 800376c:	69bb      	ldr	r3, [r7, #24]
 800376e:	68ba      	ldr	r2, [r7, #8]
 8003770:	641a      	str	r2, [r3, #64]	; 0x40
				( void ) xQueueGenericReset( pxNewQueue, pdTRUE );
 8003772:	69b8      	ldr	r0, [r7, #24]
 8003774:	2101      	movs	r1, #1
 8003776:	f7ff ff7b 	bl	8003670 <xQueueGenericReset>

				#if ( configUSE_TRACE_FACILITY == 1 )
				{
					pxNewQueue->ucQueueType = ucQueueType;
 800377a:	69bb      	ldr	r3, [r7, #24]
 800377c:	79fa      	ldrb	r2, [r7, #7]
 800377e:	f883 204d 	strb.w	r2, [r3, #77]	; 0x4d
					pxNewQueue->pxQueueSetContainer = NULL;
				}
				#endif /* configUSE_QUEUE_SETS */

				traceQUEUE_CREATE( pxNewQueue );
				xReturn = pxNewQueue;
 8003782:	69bb      	ldr	r3, [r7, #24]
 8003784:	61fb      	str	r3, [r7, #28]
 8003786:	e002      	b.n	800378e <xQueueGenericCreate+0x6e>
			}
			else
			{
				traceQUEUE_CREATE_FAILED( ucQueueType );
				vPortFree( pxNewQueue );
 8003788:	69b8      	ldr	r0, [r7, #24]
 800378a:	f001 f9d9 	bl	8004b40 <vPortFree>
			}
		}
	}

	configASSERT( xReturn );
 800378e:	69fb      	ldr	r3, [r7, #28]
 8003790:	2b00      	cmp	r3, #0
 8003792:	d102      	bne.n	800379a <xQueueGenericCreate+0x7a>
 8003794:	f000 fcc6 	bl	8004124 <ulPortSetInterruptMask>
 8003798:	e7fe      	b.n	8003798 <xQueueGenericCreate+0x78>

	return xReturn;
 800379a:	69fb      	ldr	r3, [r7, #28]
}
 800379c:	4618      	mov	r0, r3
 800379e:	3720      	adds	r7, #32
 80037a0:	46bd      	mov	sp, r7
 80037a2:	bd80      	pop	{r7, pc}

080037a4 <xQueueGenericSend>:

#endif /* configUSE_COUNTING_SEMAPHORES */
/*-----------------------------------------------------------*/

signed portBASE_TYPE xQueueGenericSend( xQueueHandle xQueue, const void * const pvItemToQueue, portTickType xTicksToWait, portBASE_TYPE xCopyPosition )
{
 80037a4:	b580      	push	{r7, lr}
 80037a6:	b088      	sub	sp, #32
 80037a8:	af00      	add	r7, sp, #0
 80037aa:	60f8      	str	r0, [r7, #12]
 80037ac:	60b9      	str	r1, [r7, #8]
 80037ae:	607a      	str	r2, [r7, #4]
 80037b0:	603b      	str	r3, [r7, #0]
signed portBASE_TYPE xEntryTimeSet = pdFALSE;
 80037b2:	2300      	movs	r3, #0
 80037b4:	61fb      	str	r3, [r7, #28]
xTimeOutType xTimeOut;
xQUEUE * const pxQueue = ( xQUEUE * ) xQueue;
 80037b6:	68fb      	ldr	r3, [r7, #12]
 80037b8:	61bb      	str	r3, [r7, #24]

	configASSERT( pxQueue );
 80037ba:	69bb      	ldr	r3, [r7, #24]
 80037bc:	2b00      	cmp	r3, #0
 80037be:	d102      	bne.n	80037c6 <xQueueGenericSend+0x22>
 80037c0:	f000 fcb0 	bl	8004124 <ulPortSetInterruptMask>
 80037c4:	e7fe      	b.n	80037c4 <xQueueGenericSend+0x20>
	configASSERT( !( ( pvItemToQueue == NULL ) && ( pxQueue->uxItemSize != ( unsigned portBASE_TYPE ) 0U ) ) );
 80037c6:	68bb      	ldr	r3, [r7, #8]
 80037c8:	2b00      	cmp	r3, #0
 80037ca:	d103      	bne.n	80037d4 <xQueueGenericSend+0x30>
 80037cc:	69bb      	ldr	r3, [r7, #24]
 80037ce:	6c1b      	ldr	r3, [r3, #64]	; 0x40
 80037d0:	2b00      	cmp	r3, #0
 80037d2:	d101      	bne.n	80037d8 <xQueueGenericSend+0x34>
 80037d4:	2301      	movs	r3, #1
 80037d6:	e000      	b.n	80037da <xQueueGenericSend+0x36>
 80037d8:	2300      	movs	r3, #0
 80037da:	2b00      	cmp	r3, #0
 80037dc:	d102      	bne.n	80037e4 <xQueueGenericSend+0x40>
 80037de:	f000 fca1 	bl	8004124 <ulPortSetInterruptMask>
 80037e2:	e7fe      	b.n	80037e2 <xQueueGenericSend+0x3e>
	configASSERT( !( ( xCopyPosition == queueOVERWRITE ) && ( pxQueue->uxLength != 1 ) ) );
 80037e4:	683b      	ldr	r3, [r7, #0]
 80037e6:	2b02      	cmp	r3, #2
 80037e8:	d103      	bne.n	80037f2 <xQueueGenericSend+0x4e>
 80037ea:	69bb      	ldr	r3, [r7, #24]
 80037ec:	6bdb      	ldr	r3, [r3, #60]	; 0x3c
 80037ee:	2b01      	cmp	r3, #1
 80037f0:	d101      	bne.n	80037f6 <xQueueGenericSend+0x52>
 80037f2:	2301      	movs	r3, #1
 80037f4:	e000      	b.n	80037f8 <xQueueGenericSend+0x54>
 80037f6:	2300      	movs	r3, #0
 80037f8:	2b00      	cmp	r3, #0
 80037fa:	d102      	bne.n	8003802 <xQueueGenericSend+0x5e>
 80037fc:	f000 fc92 	bl	8004124 <ulPortSetInterruptMask>
 8003800:	e7fe      	b.n	8003800 <xQueueGenericSend+0x5c>
	/* This function relaxes the coding standard somewhat to allow return
	statements within the function itself.  This is done in the interest
	of execution time efficiency. */
	for( ;; )
	{
		taskENTER_CRITICAL();
 8003802:	f000 fc6d 	bl	80040e0 <vPortEnterCritical>
		{
			/* Is there room on the queue now?  The running task must be
			the highest priority task wanting to access the queue.  If
			the head item in the queue is to be overwritten then it does
			not matter if the queue is full. */
			if( ( pxQueue->uxMessagesWaiting < pxQueue->uxLength ) || ( xCopyPosition == queueOVERWRITE ) )
 8003806:	69bb      	ldr	r3, [r7, #24]
 8003808:	6b9a      	ldr	r2, [r3, #56]	; 0x38
 800380a:	69bb      	ldr	r3, [r7, #24]
 800380c:	6bdb      	ldr	r3, [r3, #60]	; 0x3c
 800380e:	429a      	cmp	r2, r3
 8003810:	d302      	bcc.n	8003818 <xQueueGenericSend+0x74>
 8003812:	683b      	ldr	r3, [r7, #0]
 8003814:	2b02      	cmp	r3, #2
 8003816:	d116      	bne.n	8003846 <xQueueGenericSend+0xa2>
			{
				traceQUEUE_SEND( pxQueue );
				prvCopyDataToQueue( pxQueue, pvItemToQueue, xCopyPosition );
 8003818:	69b8      	ldr	r0, [r7, #24]
 800381a:	68b9      	ldr	r1, [r7, #8]
 800381c:	683a      	ldr	r2, [r7, #0]
 800381e:	f000 f9a9 	bl	8003b74 <prvCopyDataToQueue>
				}
				#else /* configUSE_QUEUE_SETS */
				{
					/* If there was a task waiting for data to arrive on the
					queue then unblock it now. */
					if( listLIST_IS_EMPTY( &( pxQueue->xTasksWaitingToReceive ) ) == pdFALSE )
 8003822:	69bb      	ldr	r3, [r7, #24]
 8003824:	6a5b      	ldr	r3, [r3, #36]	; 0x24
 8003826:	2b00      	cmp	r3, #0
 8003828:	d009      	beq.n	800383e <xQueueGenericSend+0x9a>
					{
						if( xTaskRemoveFromEventList( &( pxQueue->xTasksWaitingToReceive ) ) == pdTRUE )
 800382a:	69bb      	ldr	r3, [r7, #24]
 800382c:	3324      	adds	r3, #36	; 0x24
 800382e:	4618      	mov	r0, r3
 8003830:	f7ff fc3c 	bl	80030ac <xTaskRemoveFromEventList>
 8003834:	4603      	mov	r3, r0
 8003836:	2b01      	cmp	r3, #1
 8003838:	d101      	bne.n	800383e <xQueueGenericSend+0x9a>
						{
							/* The unblocked task has a priority higher than
							our own so yield immediately.  Yes it is ok to do
							this from within the critical section - the kernel
							takes care of that. */
							portYIELD_WITHIN_API();
 800383a:	f000 fc41 	bl	80040c0 <vPortYield>
						}
					}
				}
				#endif /* configUSE_QUEUE_SETS */

				taskEXIT_CRITICAL();
 800383e:	f000 fc5f 	bl	8004100 <vPortExitCritical>

				/* Return to the original privilege level before exiting the
				function. */
				return pdPASS;
 8003842:	2301      	movs	r3, #1
 8003844:	e059      	b.n	80038fa <xQueueGenericSend+0x156>
			}
			else
			{
				if( xTicksToWait == ( portTickType ) 0 )
 8003846:	687b      	ldr	r3, [r7, #4]
 8003848:	2b00      	cmp	r3, #0
 800384a:	d103      	bne.n	8003854 <xQueueGenericSend+0xb0>
				{
					/* The queue was full and no block time is specified (or
					the block time has expired) so leave now. */
					taskEXIT_CRITICAL();
 800384c:	f000 fc58 	bl	8004100 <vPortExitCritical>

					/* Return to the original privilege level before exiting
					the function. */
					traceQUEUE_SEND_FAILED( pxQueue );
					return errQUEUE_FULL;
 8003850:	2300      	movs	r3, #0
 8003852:	e052      	b.n	80038fa <xQueueGenericSend+0x156>
				}
				else if( xEntryTimeSet == pdFALSE )
 8003854:	69fb      	ldr	r3, [r7, #28]
 8003856:	2b00      	cmp	r3, #0
 8003858:	d106      	bne.n	8003868 <xQueueGenericSend+0xc4>
				{
					/* The queue was full and a block time was specified so
					configure the timeout structure. */
					vTaskSetTimeOutState( &xTimeOut );
 800385a:	f107 0310 	add.w	r3, r7, #16
 800385e:	4618      	mov	r0, r3
 8003860:	f7ff fc80 	bl	8003164 <vTaskSetTimeOutState>
					xEntryTimeSet = pdTRUE;
 8003864:	2301      	movs	r3, #1
 8003866:	61fb      	str	r3, [r7, #28]
				{
					/* Entry time was already set. */
				}
			}
		}
		taskEXIT_CRITICAL();
 8003868:	f000 fc4a 	bl	8004100 <vPortExitCritical>

		/* Interrupts and other tasks can send to and receive from the queue
		now the critical section has been exited. */

		vTaskSuspendAll();
 800386c:	f7ff f9ca 	bl	8002c04 <vTaskSuspendAll>
		prvLockQueue( pxQueue );
 8003870:	f000 fc36 	bl	80040e0 <vPortEnterCritical>
 8003874:	69bb      	ldr	r3, [r7, #24]
 8003876:	6c5b      	ldr	r3, [r3, #68]	; 0x44
 8003878:	f1b3 3fff 	cmp.w	r3, #4294967295	; 0xffffffff
 800387c:	d102      	bne.n	8003884 <xQueueGenericSend+0xe0>
 800387e:	69bb      	ldr	r3, [r7, #24]
 8003880:	2200      	movs	r2, #0
 8003882:	645a      	str	r2, [r3, #68]	; 0x44
 8003884:	69bb      	ldr	r3, [r7, #24]
 8003886:	6c9b      	ldr	r3, [r3, #72]	; 0x48
 8003888:	f1b3 3fff 	cmp.w	r3, #4294967295	; 0xffffffff
 800388c:	d102      	bne.n	8003894 <xQueueGenericSend+0xf0>
 800388e:	69bb      	ldr	r3, [r7, #24]
 8003890:	2200      	movs	r2, #0
 8003892:	649a      	str	r2, [r3, #72]	; 0x48
 8003894:	f000 fc34 	bl	8004100 <vPortExitCritical>

		/* Update the timeout state to see if it has expired yet. */
		if( xTaskCheckForTimeOut( &xTimeOut, &xTicksToWait ) == pdFALSE )
 8003898:	f107 0210 	add.w	r2, r7, #16
 800389c:	1d3b      	adds	r3, r7, #4
 800389e:	4610      	mov	r0, r2
 80038a0:	4619      	mov	r1, r3
 80038a2:	f7ff fc79 	bl	8003198 <xTaskCheckForTimeOut>
 80038a6:	4603      	mov	r3, r0
 80038a8:	2b00      	cmp	r3, #0
 80038aa:	d11e      	bne.n	80038ea <xQueueGenericSend+0x146>
		{
			if( prvIsQueueFull( pxQueue ) != pdFALSE )
 80038ac:	69b8      	ldr	r0, [r7, #24]
 80038ae:	f000 fa51 	bl	8003d54 <prvIsQueueFull>
 80038b2:	4603      	mov	r3, r0
 80038b4:	2b00      	cmp	r3, #0
 80038b6:	d012      	beq.n	80038de <xQueueGenericSend+0x13a>
			{
				traceBLOCKING_ON_QUEUE_SEND( pxQueue );
				vTaskPlaceOnEventList( &( pxQueue->xTasksWaitingToSend ), xTicksToWait );
 80038b8:	69bb      	ldr	r3, [r7, #24]
 80038ba:	f103 0210 	add.w	r2, r3, #16
 80038be:	687b      	ldr	r3, [r7, #4]
 80038c0:	4610      	mov	r0, r2
 80038c2:	4619      	mov	r1, r3
 80038c4:	f7ff fb94 	bl	8002ff0 <vTaskPlaceOnEventList>
				/* Unlocking the queue means queue events can effect the
				event list.  It is possible	that interrupts occurring now
				remove this task from the event	list again - but as the
				scheduler is suspended the task will go onto the pending
				ready last instead of the actual ready list. */
				prvUnlockQueue( pxQueue );
 80038c8:	69b8      	ldr	r0, [r7, #24]
 80038ca:	f000 f9e1 	bl	8003c90 <prvUnlockQueue>
				/* Resuming the scheduler will move tasks from the pending
				ready list into the ready list - so it is feasible that this
				task is already in a ready list before it yields - in which
				case the yield will not cause a context switch unless there
				is also a higher priority task in the pending ready list. */
				if( xTaskResumeAll() == pdFALSE )
 80038ce:	f7ff f9a7 	bl	8002c20 <xTaskResumeAll>
 80038d2:	4603      	mov	r3, r0
 80038d4:	2b00      	cmp	r3, #0
 80038d6:	d10f      	bne.n	80038f8 <xQueueGenericSend+0x154>
				{
					portYIELD_WITHIN_API();
 80038d8:	f000 fbf2 	bl	80040c0 <vPortYield>
 80038dc:	e00c      	b.n	80038f8 <xQueueGenericSend+0x154>
				}
			}
			else
			{
				/* Try again. */
				prvUnlockQueue( pxQueue );
 80038de:	69b8      	ldr	r0, [r7, #24]
 80038e0:	f000 f9d6 	bl	8003c90 <prvUnlockQueue>
				( void ) xTaskResumeAll();
 80038e4:	f7ff f99c 	bl	8002c20 <xTaskResumeAll>
			/* Return to the original privilege level before exiting the
			function. */
			traceQUEUE_SEND_FAILED( pxQueue );
			return errQUEUE_FULL;
		}
	}
 80038e8:	e78b      	b.n	8003802 <xQueueGenericSend+0x5e>
			}
		}
		else
		{
			/* The timeout has expired. */
			prvUnlockQueue( pxQueue );
 80038ea:	69b8      	ldr	r0, [r7, #24]
 80038ec:	f000 f9d0 	bl	8003c90 <prvUnlockQueue>
			( void ) xTaskResumeAll();
 80038f0:	f7ff f996 	bl	8002c20 <xTaskResumeAll>

			/* Return to the original privilege level before exiting the
			function. */
			traceQUEUE_SEND_FAILED( pxQueue );
			return errQUEUE_FULL;
 80038f4:	2300      	movs	r3, #0
 80038f6:	e000      	b.n	80038fa <xQueueGenericSend+0x156>
		}
	}
 80038f8:	e783      	b.n	8003802 <xQueueGenericSend+0x5e>
}
 80038fa:	4618      	mov	r0, r3
 80038fc:	3720      	adds	r7, #32
 80038fe:	46bd      	mov	sp, r7
 8003900:	bd80      	pop	{r7, pc}
 8003902:	bf00      	nop

08003904 <xQueueGenericSendFromISR>:

#endif /* configUSE_ALTERNATIVE_API */
/*-----------------------------------------------------------*/

signed portBASE_TYPE xQueueGenericSendFromISR( xQueueHandle xQueue, const void * const pvItemToQueue, signed portBASE_TYPE *pxHigherPriorityTaskWoken, portBASE_TYPE xCopyPosition )
{
 8003904:	b580      	push	{r7, lr}
 8003906:	b088      	sub	sp, #32
 8003908:	af00      	add	r7, sp, #0
 800390a:	60f8      	str	r0, [r7, #12]
 800390c:	60b9      	str	r1, [r7, #8]
 800390e:	607a      	str	r2, [r7, #4]
 8003910:	603b      	str	r3, [r7, #0]
signed portBASE_TYPE xReturn;
unsigned portBASE_TYPE uxSavedInterruptStatus;
xQUEUE * const pxQueue = ( xQUEUE * ) xQueue;
 8003912:	68fb      	ldr	r3, [r7, #12]
 8003914:	61bb      	str	r3, [r7, #24]

	configASSERT( pxQueue );
 8003916:	69bb      	ldr	r3, [r7, #24]
 8003918:	2b00      	cmp	r3, #0
 800391a:	d102      	bne.n	8003922 <xQueueGenericSendFromISR+0x1e>
 800391c:	f000 fc02 	bl	8004124 <ulPortSetInterruptMask>
 8003920:	e7fe      	b.n	8003920 <xQueueGenericSendFromISR+0x1c>
	configASSERT( !( ( pvItemToQueue == NULL ) && ( pxQueue->uxItemSize != ( unsigned portBASE_TYPE ) 0U ) ) );
 8003922:	68bb      	ldr	r3, [r7, #8]
 8003924:	2b00      	cmp	r3, #0
 8003926:	d103      	bne.n	8003930 <xQueueGenericSendFromISR+0x2c>
 8003928:	69bb      	ldr	r3, [r7, #24]
 800392a:	6c1b      	ldr	r3, [r3, #64]	; 0x40
 800392c:	2b00      	cmp	r3, #0
 800392e:	d101      	bne.n	8003934 <xQueueGenericSendFromISR+0x30>
 8003930:	2301      	movs	r3, #1
 8003932:	e000      	b.n	8003936 <xQueueGenericSendFromISR+0x32>
 8003934:	2300      	movs	r3, #0
 8003936:	2b00      	cmp	r3, #0
 8003938:	d102      	bne.n	8003940 <xQueueGenericSendFromISR+0x3c>
 800393a:	f000 fbf3 	bl	8004124 <ulPortSetInterruptMask>
 800393e:	e7fe      	b.n	800393e <xQueueGenericSendFromISR+0x3a>
	configASSERT( !( ( xCopyPosition == queueOVERWRITE ) && ( pxQueue->uxLength != 1 ) ) );
 8003940:	683b      	ldr	r3, [r7, #0]
 8003942:	2b02      	cmp	r3, #2
 8003944:	d103      	bne.n	800394e <xQueueGenericSendFromISR+0x4a>
 8003946:	69bb      	ldr	r3, [r7, #24]
 8003948:	6bdb      	ldr	r3, [r3, #60]	; 0x3c
 800394a:	2b01      	cmp	r3, #1
 800394c:	d101      	bne.n	8003952 <xQueueGenericSendFromISR+0x4e>
 800394e:	2301      	movs	r3, #1
 8003950:	e000      	b.n	8003954 <xQueueGenericSendFromISR+0x50>
 8003952:	2300      	movs	r3, #0
 8003954:	2b00      	cmp	r3, #0
 8003956:	d102      	bne.n	800395e <xQueueGenericSendFromISR+0x5a>
 8003958:	f000 fbe4 	bl	8004124 <ulPortSetInterruptMask>
 800395c:	e7fe      	b.n	800395c <xQueueGenericSendFromISR+0x58>
	that have been assigned a priority at or (logically) below the maximum
	system call	interrupt priority.  FreeRTOS maintains a separate interrupt
	safe API to ensure interrupt entry is as fast and as simple as possible.
	More information (albeit Cortex-M specific) is provided on the following
	link: http://www.freertos.org/RTOS-Cortex-M3-M4.html */
	portASSERT_IF_INTERRUPT_PRIORITY_INVALID();
 800395e:	f000 fc4f 	bl	8004200 <vPortValidateInterruptPriority>
	/* Similar to xQueueGenericSend, except we don't block if there is no room
	in the queue.  Also we don't directly wake a task that was blocked on a
	queue read, instead we return a flag to say whether a context switch is
	required or not (i.e. has a task with a higher priority than us been woken
	by this	post). */
	uxSavedInterruptStatus = portSET_INTERRUPT_MASK_FROM_ISR();
 8003962:	f000 fbdf 	bl	8004124 <ulPortSetInterruptMask>
 8003966:	6178      	str	r0, [r7, #20]
	{
		if( ( pxQueue->uxMessagesWaiting < pxQueue->uxLength ) || ( xCopyPosition == queueOVERWRITE ) )
 8003968:	69bb      	ldr	r3, [r7, #24]
 800396a:	6b9a      	ldr	r2, [r3, #56]	; 0x38
 800396c:	69bb      	ldr	r3, [r7, #24]
 800396e:	6bdb      	ldr	r3, [r3, #60]	; 0x3c
 8003970:	429a      	cmp	r2, r3
 8003972:	d302      	bcc.n	800397a <xQueueGenericSendFromISR+0x76>
 8003974:	683b      	ldr	r3, [r7, #0]
 8003976:	2b02      	cmp	r3, #2
 8003978:	d124      	bne.n	80039c4 <xQueueGenericSendFromISR+0xc0>
		{
			traceQUEUE_SEND_FROM_ISR( pxQueue );

			prvCopyDataToQueue( pxQueue, pvItemToQueue, xCopyPosition );
 800397a:	69b8      	ldr	r0, [r7, #24]
 800397c:	68b9      	ldr	r1, [r7, #8]
 800397e:	683a      	ldr	r2, [r7, #0]
 8003980:	f000 f8f8 	bl	8003b74 <prvCopyDataToQueue>

			/* If the queue is locked we do not alter the event list.  This will
			be done when the queue is unlocked later. */
			if( pxQueue->xTxLock == queueUNLOCKED )
 8003984:	69bb      	ldr	r3, [r7, #24]
 8003986:	6c9b      	ldr	r3, [r3, #72]	; 0x48
 8003988:	f1b3 3fff 	cmp.w	r3, #4294967295	; 0xffffffff
 800398c:	d112      	bne.n	80039b4 <xQueueGenericSendFromISR+0xb0>
						}
					}
				}
				#else /* configUSE_QUEUE_SETS */
				{
					if( listLIST_IS_EMPTY( &( pxQueue->xTasksWaitingToReceive ) ) == pdFALSE )
 800398e:	69bb      	ldr	r3, [r7, #24]
 8003990:	6a5b      	ldr	r3, [r3, #36]	; 0x24
 8003992:	2b00      	cmp	r3, #0
 8003994:	d013      	beq.n	80039be <xQueueGenericSendFromISR+0xba>
					{
						if( xTaskRemoveFromEventList( &( pxQueue->xTasksWaitingToReceive ) ) != pdFALSE )
 8003996:	69bb      	ldr	r3, [r7, #24]
 8003998:	3324      	adds	r3, #36	; 0x24
 800399a:	4618      	mov	r0, r3
 800399c:	f7ff fb86 	bl	80030ac <xTaskRemoveFromEventList>
 80039a0:	4603      	mov	r3, r0
 80039a2:	2b00      	cmp	r3, #0
 80039a4:	d00b      	beq.n	80039be <xQueueGenericSendFromISR+0xba>
						{
							/* The task waiting has a higher priority so record that a
							context	switch is required. */
							if( pxHigherPriorityTaskWoken != NULL )
 80039a6:	687b      	ldr	r3, [r7, #4]
 80039a8:	2b00      	cmp	r3, #0
 80039aa:	d008      	beq.n	80039be <xQueueGenericSendFromISR+0xba>
							{
								*pxHigherPriorityTaskWoken = pdTRUE;
 80039ac:	687b      	ldr	r3, [r7, #4]
 80039ae:	2201      	movs	r2, #1
 80039b0:	601a      	str	r2, [r3, #0]
 80039b2:	e004      	b.n	80039be <xQueueGenericSendFromISR+0xba>
			}
			else
			{
				/* Increment the lock count so the task that unlocks the queue
				knows that data was posted while it was locked. */
				++( pxQueue->xTxLock );
 80039b4:	69bb      	ldr	r3, [r7, #24]
 80039b6:	6c9b      	ldr	r3, [r3, #72]	; 0x48
 80039b8:	1c5a      	adds	r2, r3, #1
 80039ba:	69bb      	ldr	r3, [r7, #24]
 80039bc:	649a      	str	r2, [r3, #72]	; 0x48
			}

			xReturn = pdPASS;
 80039be:	2301      	movs	r3, #1
 80039c0:	61fb      	str	r3, [r7, #28]
 80039c2:	e001      	b.n	80039c8 <xQueueGenericSendFromISR+0xc4>
		}
		else
		{
			traceQUEUE_SEND_FROM_ISR_FAILED( pxQueue );
			xReturn = errQUEUE_FULL;
 80039c4:	2300      	movs	r3, #0
 80039c6:	61fb      	str	r3, [r7, #28]
		}
	}
	portCLEAR_INTERRUPT_MASK_FROM_ISR( uxSavedInterruptStatus );
 80039c8:	6978      	ldr	r0, [r7, #20]
 80039ca:	f000 fbb5 	bl	8004138 <vPortClearInterruptMask>

	return xReturn;
 80039ce:	69fb      	ldr	r3, [r7, #28]
}
 80039d0:	4618      	mov	r0, r3
 80039d2:	3720      	adds	r7, #32
 80039d4:	46bd      	mov	sp, r7
 80039d6:	bd80      	pop	{r7, pc}

080039d8 <xQueueGenericReceive>:
/*-----------------------------------------------------------*/

signed portBASE_TYPE xQueueGenericReceive( xQueueHandle xQueue, const void * const pvBuffer, portTickType xTicksToWait, portBASE_TYPE xJustPeeking )
{
 80039d8:	b580      	push	{r7, lr}
 80039da:	b08a      	sub	sp, #40	; 0x28
 80039dc:	af00      	add	r7, sp, #0
 80039de:	60f8      	str	r0, [r7, #12]
 80039e0:	60b9      	str	r1, [r7, #8]
 80039e2:	607a      	str	r2, [r7, #4]
 80039e4:	603b      	str	r3, [r7, #0]
signed portBASE_TYPE xEntryTimeSet = pdFALSE;
 80039e6:	2300      	movs	r3, #0
 80039e8:	627b      	str	r3, [r7, #36]	; 0x24
xTimeOutType xTimeOut;
signed char *pcOriginalReadPosition;
xQUEUE * const pxQueue = ( xQUEUE * ) xQueue;
 80039ea:	68fb      	ldr	r3, [r7, #12]
 80039ec:	623b      	str	r3, [r7, #32]

	configASSERT( pxQueue );
 80039ee:	6a3b      	ldr	r3, [r7, #32]
 80039f0:	2b00      	cmp	r3, #0
 80039f2:	d102      	bne.n	80039fa <xQueueGenericReceive+0x22>
 80039f4:	f000 fb96 	bl	8004124 <ulPortSetInterruptMask>
 80039f8:	e7fe      	b.n	80039f8 <xQueueGenericReceive+0x20>
	configASSERT( !( ( pvBuffer == NULL ) && ( pxQueue->uxItemSize != ( unsigned portBASE_TYPE ) 0U ) ) );
 80039fa:	68bb      	ldr	r3, [r7, #8]
 80039fc:	2b00      	cmp	r3, #0
 80039fe:	d103      	bne.n	8003a08 <xQueueGenericReceive+0x30>
 8003a00:	6a3b      	ldr	r3, [r7, #32]
 8003a02:	6c1b      	ldr	r3, [r3, #64]	; 0x40
 8003a04:	2b00      	cmp	r3, #0
 8003a06:	d101      	bne.n	8003a0c <xQueueGenericReceive+0x34>
 8003a08:	2301      	movs	r3, #1
 8003a0a:	e000      	b.n	8003a0e <xQueueGenericReceive+0x36>
 8003a0c:	2300      	movs	r3, #0
 8003a0e:	2b00      	cmp	r3, #0
 8003a10:	d102      	bne.n	8003a18 <xQueueGenericReceive+0x40>
 8003a12:	f000 fb87 	bl	8004124 <ulPortSetInterruptMask>
 8003a16:	e7fe      	b.n	8003a16 <xQueueGenericReceive+0x3e>
	statements within the function itself.  This is done in the interest
	of execution time efficiency. */

	for( ;; )
	{
		taskENTER_CRITICAL();
 8003a18:	f000 fb62 	bl	80040e0 <vPortEnterCritical>
		{
			/* Is there data in the queue now?  To be running we must be
			the highest priority task wanting to access the queue. */
			if( pxQueue->uxMessagesWaiting > ( unsigned portBASE_TYPE ) 0 )
 8003a1c:	6a3b      	ldr	r3, [r7, #32]
 8003a1e:	6b9b      	ldr	r3, [r3, #56]	; 0x38
 8003a20:	2b00      	cmp	r3, #0
 8003a22:	d03b      	beq.n	8003a9c <xQueueGenericReceive+0xc4>
			{
				/* Remember the read position in case the queue is only being
				peeked. */
				pcOriginalReadPosition = pxQueue->u.pcReadFrom;
 8003a24:	6a3b      	ldr	r3, [r7, #32]
 8003a26:	68db      	ldr	r3, [r3, #12]
 8003a28:	61fb      	str	r3, [r7, #28]

				prvCopyDataFromQueue( pxQueue, pvBuffer );
 8003a2a:	6a38      	ldr	r0, [r7, #32]
 8003a2c:	68b9      	ldr	r1, [r7, #8]
 8003a2e:	f000 f909 	bl	8003c44 <prvCopyDataFromQueue>

				if( xJustPeeking == pdFALSE )
 8003a32:	683b      	ldr	r3, [r7, #0]
 8003a34:	2b00      	cmp	r3, #0
 8003a36:	d11c      	bne.n	8003a72 <xQueueGenericReceive+0x9a>
				{
					traceQUEUE_RECEIVE( pxQueue );

					/* Actually removing data, not just peeking. */
					--( pxQueue->uxMessagesWaiting );
 8003a38:	6a3b      	ldr	r3, [r7, #32]
 8003a3a:	6b9b      	ldr	r3, [r3, #56]	; 0x38
 8003a3c:	1e5a      	subs	r2, r3, #1
 8003a3e:	6a3b      	ldr	r3, [r7, #32]
 8003a40:	639a      	str	r2, [r3, #56]	; 0x38

					#if ( configUSE_MUTEXES == 1 )
					{
						if( pxQueue->uxQueueType == queueQUEUE_IS_MUTEX )
 8003a42:	6a3b      	ldr	r3, [r7, #32]
 8003a44:	681b      	ldr	r3, [r3, #0]
 8003a46:	2b00      	cmp	r3, #0
 8003a48:	d104      	bne.n	8003a54 <xQueueGenericReceive+0x7c>
						{
							/* Record the information required to implement
							priority inheritance should it become necessary. */
							pxQueue->pxMutexHolder = ( signed char * ) xTaskGetCurrentTaskHandle(); /*lint !e961 Cast is not redundant as xTaskHandle is a typedef. */
 8003a4a:	f7ff fd4b 	bl	80034e4 <xTaskGetCurrentTaskHandle>
 8003a4e:	4602      	mov	r2, r0
 8003a50:	6a3b      	ldr	r3, [r7, #32]
 8003a52:	605a      	str	r2, [r3, #4]
						}
					}
					#endif

					if( listLIST_IS_EMPTY( &( pxQueue->xTasksWaitingToSend ) ) == pdFALSE )
 8003a54:	6a3b      	ldr	r3, [r7, #32]
 8003a56:	691b      	ldr	r3, [r3, #16]
 8003a58:	2b00      	cmp	r3, #0
 8003a5a:	d01b      	beq.n	8003a94 <xQueueGenericReceive+0xbc>
					{
						if( xTaskRemoveFromEventList( &( pxQueue->xTasksWaitingToSend ) ) == pdTRUE )
 8003a5c:	6a3b      	ldr	r3, [r7, #32]
 8003a5e:	3310      	adds	r3, #16
 8003a60:	4618      	mov	r0, r3
 8003a62:	f7ff fb23 	bl	80030ac <xTaskRemoveFromEventList>
 8003a66:	4603      	mov	r3, r0
 8003a68:	2b01      	cmp	r3, #1
 8003a6a:	d113      	bne.n	8003a94 <xQueueGenericReceive+0xbc>
						{
							portYIELD_WITHIN_API();
 8003a6c:	f000 fb28 	bl	80040c0 <vPortYield>
 8003a70:	e010      	b.n	8003a94 <xQueueGenericReceive+0xbc>
				{
					traceQUEUE_PEEK( pxQueue );

					/* The data is not being removed, so reset the read
					pointer. */
					pxQueue->u.pcReadFrom = pcOriginalReadPosition;
 8003a72:	6a3b      	ldr	r3, [r7, #32]
 8003a74:	69fa      	ldr	r2, [r7, #28]
 8003a76:	60da      	str	r2, [r3, #12]

					/* The data is being left in the queue, so see if there are
					any other tasks waiting for the data. */
					if( listLIST_IS_EMPTY( &( pxQueue->xTasksWaitingToReceive ) ) == pdFALSE )
 8003a78:	6a3b      	ldr	r3, [r7, #32]
 8003a7a:	6a5b      	ldr	r3, [r3, #36]	; 0x24
 8003a7c:	2b00      	cmp	r3, #0
 8003a7e:	d009      	beq.n	8003a94 <xQueueGenericReceive+0xbc>
					{
						/* Tasks that are removed from the event list will get added to
						the pending ready list as the scheduler is still suspended. */
						if( xTaskRemoveFromEventList( &( pxQueue->xTasksWaitingToReceive ) ) != pdFALSE )
 8003a80:	6a3b      	ldr	r3, [r7, #32]
 8003a82:	3324      	adds	r3, #36	; 0x24
 8003a84:	4618      	mov	r0, r3
 8003a86:	f7ff fb11 	bl	80030ac <xTaskRemoveFromEventList>
 8003a8a:	4603      	mov	r3, r0
 8003a8c:	2b00      	cmp	r3, #0
 8003a8e:	d001      	beq.n	8003a94 <xQueueGenericReceive+0xbc>
						{
							/* The task waiting has a higher priority than this task. */
							portYIELD_WITHIN_API();
 8003a90:	f000 fb16 	bl	80040c0 <vPortYield>
						}
					}
				}

				taskEXIT_CRITICAL();
 8003a94:	f000 fb34 	bl	8004100 <vPortExitCritical>
				return pdPASS;
 8003a98:	2301      	movs	r3, #1
 8003a9a:	e066      	b.n	8003b6a <xQueueGenericReceive+0x192>
			}
			else
			{
				if( xTicksToWait == ( portTickType ) 0 )
 8003a9c:	687b      	ldr	r3, [r7, #4]
 8003a9e:	2b00      	cmp	r3, #0
 8003aa0:	d103      	bne.n	8003aaa <xQueueGenericReceive+0xd2>
				{
					/* The queue was empty and no block time is specified (or
					the block time has expired) so leave now. */
					taskEXIT_CRITICAL();
 8003aa2:	f000 fb2d 	bl	8004100 <vPortExitCritical>
					traceQUEUE_RECEIVE_FAILED( pxQueue );
					return errQUEUE_EMPTY;
 8003aa6:	2300      	movs	r3, #0
 8003aa8:	e05f      	b.n	8003b6a <xQueueGenericReceive+0x192>
				}
				else if( xEntryTimeSet == pdFALSE )
 8003aaa:	6a7b      	ldr	r3, [r7, #36]	; 0x24
 8003aac:	2b00      	cmp	r3, #0
 8003aae:	d106      	bne.n	8003abe <xQueueGenericReceive+0xe6>
				{
					/* The queue was empty and a block time was specified so
					configure the timeout structure. */
					vTaskSetTimeOutState( &xTimeOut );
 8003ab0:	f107 0314 	add.w	r3, r7, #20
 8003ab4:	4618      	mov	r0, r3
 8003ab6:	f7ff fb55 	bl	8003164 <vTaskSetTimeOutState>
					xEntryTimeSet = pdTRUE;
 8003aba:	2301      	movs	r3, #1
 8003abc:	627b      	str	r3, [r7, #36]	; 0x24
				{
					/* Entry time was already set. */
				}
			}
		}
		taskEXIT_CRITICAL();
 8003abe:	f000 fb1f 	bl	8004100 <vPortExitCritical>

		/* Interrupts and other tasks can send to and receive from the queue
		now the critical section has been exited. */

		vTaskSuspendAll();
 8003ac2:	f7ff f89f 	bl	8002c04 <vTaskSuspendAll>
		prvLockQueue( pxQueue );
 8003ac6:	f000 fb0b 	bl	80040e0 <vPortEnterCritical>
 8003aca:	6a3b      	ldr	r3, [r7, #32]
 8003acc:	6c5b      	ldr	r3, [r3, #68]	; 0x44
 8003ace:	f1b3 3fff 	cmp.w	r3, #4294967295	; 0xffffffff
 8003ad2:	d102      	bne.n	8003ada <xQueueGenericReceive+0x102>
 8003ad4:	6a3b      	ldr	r3, [r7, #32]
 8003ad6:	2200      	movs	r2, #0
 8003ad8:	645a      	str	r2, [r3, #68]	; 0x44
 8003ada:	6a3b      	ldr	r3, [r7, #32]
 8003adc:	6c9b      	ldr	r3, [r3, #72]	; 0x48
 8003ade:	f1b3 3fff 	cmp.w	r3, #4294967295	; 0xffffffff
 8003ae2:	d102      	bne.n	8003aea <xQueueGenericReceive+0x112>
 8003ae4:	6a3b      	ldr	r3, [r7, #32]
 8003ae6:	2200      	movs	r2, #0
 8003ae8:	649a      	str	r2, [r3, #72]	; 0x48
 8003aea:	f000 fb09 	bl	8004100 <vPortExitCritical>

		/* Update the timeout state to see if it has expired yet. */
		if( xTaskCheckForTimeOut( &xTimeOut, &xTicksToWait ) == pdFALSE )
 8003aee:	f107 0214 	add.w	r2, r7, #20
 8003af2:	1d3b      	adds	r3, r7, #4
 8003af4:	4610      	mov	r0, r2
 8003af6:	4619      	mov	r1, r3
 8003af8:	f7ff fb4e 	bl	8003198 <xTaskCheckForTimeOut>
 8003afc:	4603      	mov	r3, r0
 8003afe:	2b00      	cmp	r3, #0
 8003b00:	d12b      	bne.n	8003b5a <xQueueGenericReceive+0x182>
		{
			if( prvIsQueueEmpty( pxQueue ) != pdFALSE )
 8003b02:	6a38      	ldr	r0, [r7, #32]
 8003b04:	f000 f910 	bl	8003d28 <prvIsQueueEmpty>
 8003b08:	4603      	mov	r3, r0
 8003b0a:	2b00      	cmp	r3, #0
 8003b0c:	d01f      	beq.n	8003b4e <xQueueGenericReceive+0x176>
			{
				traceBLOCKING_ON_QUEUE_RECEIVE( pxQueue );

				#if ( configUSE_MUTEXES == 1 )
				{
					if( pxQueue->uxQueueType == queueQUEUE_IS_MUTEX )
 8003b0e:	6a3b      	ldr	r3, [r7, #32]
 8003b10:	681b      	ldr	r3, [r3, #0]
 8003b12:	2b00      	cmp	r3, #0
 8003b14:	d108      	bne.n	8003b28 <xQueueGenericReceive+0x150>
					{
						portENTER_CRITICAL();
 8003b16:	f000 fae3 	bl	80040e0 <vPortEnterCritical>
						{
							vTaskPriorityInherit( ( void * ) pxQueue->pxMutexHolder );
 8003b1a:	6a3b      	ldr	r3, [r7, #32]
 8003b1c:	685b      	ldr	r3, [r3, #4]
 8003b1e:	4618      	mov	r0, r3
 8003b20:	f7ff fd0e 	bl	8003540 <vTaskPriorityInherit>
						}
						portEXIT_CRITICAL();
 8003b24:	f000 faec 	bl	8004100 <vPortExitCritical>
					}
				}
				#endif

				vTaskPlaceOnEventList( &( pxQueue->xTasksWaitingToReceive ), xTicksToWait );
 8003b28:	6a3b      	ldr	r3, [r7, #32]
 8003b2a:	f103 0224 	add.w	r2, r3, #36	; 0x24
 8003b2e:	687b      	ldr	r3, [r7, #4]
 8003b30:	4610      	mov	r0, r2
 8003b32:	4619      	mov	r1, r3
 8003b34:	f7ff fa5c 	bl	8002ff0 <vTaskPlaceOnEventList>
				prvUnlockQueue( pxQueue );
 8003b38:	6a38      	ldr	r0, [r7, #32]
 8003b3a:	f000 f8a9 	bl	8003c90 <prvUnlockQueue>
				if( xTaskResumeAll() == pdFALSE )
 8003b3e:	f7ff f86f 	bl	8002c20 <xTaskResumeAll>
 8003b42:	4603      	mov	r3, r0
 8003b44:	2b00      	cmp	r3, #0
 8003b46:	d10f      	bne.n	8003b68 <xQueueGenericReceive+0x190>
				{
					portYIELD_WITHIN_API();
 8003b48:	f000 faba 	bl	80040c0 <vPortYield>
 8003b4c:	e00c      	b.n	8003b68 <xQueueGenericReceive+0x190>
				}
			}
			else
			{
				/* Try again. */
				prvUnlockQueue( pxQueue );
 8003b4e:	6a38      	ldr	r0, [r7, #32]
 8003b50:	f000 f89e 	bl	8003c90 <prvUnlockQueue>
				( void ) xTaskResumeAll();
 8003b54:	f7ff f864 	bl	8002c20 <xTaskResumeAll>
			prvUnlockQueue( pxQueue );
			( void ) xTaskResumeAll();
			traceQUEUE_RECEIVE_FAILED( pxQueue );
			return errQUEUE_EMPTY;
		}
	}
 8003b58:	e75e      	b.n	8003a18 <xQueueGenericReceive+0x40>
				( void ) xTaskResumeAll();
			}
		}
		else
		{
			prvUnlockQueue( pxQueue );
 8003b5a:	6a38      	ldr	r0, [r7, #32]
 8003b5c:	f000 f898 	bl	8003c90 <prvUnlockQueue>
			( void ) xTaskResumeAll();
 8003b60:	f7ff f85e 	bl	8002c20 <xTaskResumeAll>
			traceQUEUE_RECEIVE_FAILED( pxQueue );
			return errQUEUE_EMPTY;
 8003b64:	2300      	movs	r3, #0
 8003b66:	e000      	b.n	8003b6a <xQueueGenericReceive+0x192>
		}
	}
 8003b68:	e756      	b.n	8003a18 <xQueueGenericReceive+0x40>
}
 8003b6a:	4618      	mov	r0, r3
 8003b6c:	3728      	adds	r7, #40	; 0x28
 8003b6e:	46bd      	mov	sp, r7
 8003b70:	bd80      	pop	{r7, pc}
 8003b72:	bf00      	nop

08003b74 <prvCopyDataToQueue>:

#endif /* configUSE_TRACE_FACILITY */
/*-----------------------------------------------------------*/

static void prvCopyDataToQueue( xQUEUE *pxQueue, const void *pvItemToQueue, portBASE_TYPE xPosition )
{
 8003b74:	b580      	push	{r7, lr}
 8003b76:	b084      	sub	sp, #16
 8003b78:	af00      	add	r7, sp, #0
 8003b7a:	60f8      	str	r0, [r7, #12]
 8003b7c:	60b9      	str	r1, [r7, #8]
 8003b7e:	607a      	str	r2, [r7, #4]
	if( pxQueue->uxItemSize == ( unsigned portBASE_TYPE ) 0 )
 8003b80:	68fb      	ldr	r3, [r7, #12]
 8003b82:	6c1b      	ldr	r3, [r3, #64]	; 0x40
 8003b84:	2b00      	cmp	r3, #0
 8003b86:	d10c      	bne.n	8003ba2 <prvCopyDataToQueue+0x2e>
	{
		#if ( configUSE_MUTEXES == 1 )
		{
			if( pxQueue->uxQueueType == queueQUEUE_IS_MUTEX )
 8003b88:	68fb      	ldr	r3, [r7, #12]
 8003b8a:	681b      	ldr	r3, [r3, #0]
 8003b8c:	2b00      	cmp	r3, #0
 8003b8e:	d151      	bne.n	8003c34 <prvCopyDataToQueue+0xc0>
			{
				/* The mutex is no longer being held. */
				vTaskPriorityDisinherit( ( void * ) pxQueue->pxMutexHolder );
 8003b90:	68fb      	ldr	r3, [r7, #12]
 8003b92:	685b      	ldr	r3, [r3, #4]
 8003b94:	4618      	mov	r0, r3
 8003b96:	f7ff fd2d 	bl	80035f4 <vTaskPriorityDisinherit>
				pxQueue->pxMutexHolder = NULL;
 8003b9a:	68fb      	ldr	r3, [r7, #12]
 8003b9c:	2200      	movs	r2, #0
 8003b9e:	605a      	str	r2, [r3, #4]
 8003ba0:	e048      	b.n	8003c34 <prvCopyDataToQueue+0xc0>
			}
		}
		#endif /* configUSE_MUTEXES */
	}
	else if( xPosition == queueSEND_TO_BACK )
 8003ba2:	687b      	ldr	r3, [r7, #4]
 8003ba4:	2b00      	cmp	r3, #0
 8003ba6:	d11a      	bne.n	8003bde <prvCopyDataToQueue+0x6a>
	{
		( void ) memcpy( ( void * ) pxQueue->pcWriteTo, pvItemToQueue, ( size_t ) pxQueue->uxItemSize ); /*lint !e961 !e418 MISRA exception as the casts are only redundant for some ports, plus previous logic ensures a null pointer can only be passed to memcpy() if the copy size is 0. */
 8003ba8:	68fb      	ldr	r3, [r7, #12]
 8003baa:	689a      	ldr	r2, [r3, #8]
 8003bac:	68fb      	ldr	r3, [r7, #12]
 8003bae:	6c1b      	ldr	r3, [r3, #64]	; 0x40
 8003bb0:	4610      	mov	r0, r2
 8003bb2:	68b9      	ldr	r1, [r7, #8]
 8003bb4:	461a      	mov	r2, r3
 8003bb6:	f7fc fb11 	bl	80001dc <memcpy>
		pxQueue->pcWriteTo += pxQueue->uxItemSize;
 8003bba:	68fb      	ldr	r3, [r7, #12]
 8003bbc:	689a      	ldr	r2, [r3, #8]
 8003bbe:	68fb      	ldr	r3, [r7, #12]
 8003bc0:	6c1b      	ldr	r3, [r3, #64]	; 0x40
 8003bc2:	441a      	add	r2, r3
 8003bc4:	68fb      	ldr	r3, [r7, #12]
 8003bc6:	609a      	str	r2, [r3, #8]
		if( pxQueue->pcWriteTo >= pxQueue->pcTail ) /*lint !e946 MISRA exception justified as comparison of pointers is the cleanest solution. */
 8003bc8:	68fb      	ldr	r3, [r7, #12]
 8003bca:	689a      	ldr	r2, [r3, #8]
 8003bcc:	68fb      	ldr	r3, [r7, #12]
 8003bce:	685b      	ldr	r3, [r3, #4]
 8003bd0:	429a      	cmp	r2, r3
 8003bd2:	d32f      	bcc.n	8003c34 <prvCopyDataToQueue+0xc0>
		{
			pxQueue->pcWriteTo = pxQueue->pcHead;
 8003bd4:	68fb      	ldr	r3, [r7, #12]
 8003bd6:	681a      	ldr	r2, [r3, #0]
 8003bd8:	68fb      	ldr	r3, [r7, #12]
 8003bda:	609a      	str	r2, [r3, #8]
 8003bdc:	e02a      	b.n	8003c34 <prvCopyDataToQueue+0xc0>
		}
	}
	else
	{
		( void ) memcpy( ( void * ) pxQueue->u.pcReadFrom, pvItemToQueue, ( size_t ) pxQueue->uxItemSize ); /*lint !e961 MISRA exception as the casts are only redundant for some ports. */
 8003bde:	68fb      	ldr	r3, [r7, #12]
 8003be0:	68da      	ldr	r2, [r3, #12]
 8003be2:	68fb      	ldr	r3, [r7, #12]
 8003be4:	6c1b      	ldr	r3, [r3, #64]	; 0x40
 8003be6:	4610      	mov	r0, r2
 8003be8:	68b9      	ldr	r1, [r7, #8]
 8003bea:	461a      	mov	r2, r3
 8003bec:	f7fc faf6 	bl	80001dc <memcpy>
		pxQueue->u.pcReadFrom -= pxQueue->uxItemSize;
 8003bf0:	68fb      	ldr	r3, [r7, #12]
 8003bf2:	68da      	ldr	r2, [r3, #12]
 8003bf4:	68fb      	ldr	r3, [r7, #12]
 8003bf6:	6c1b      	ldr	r3, [r3, #64]	; 0x40
 8003bf8:	425b      	negs	r3, r3
 8003bfa:	441a      	add	r2, r3
 8003bfc:	68fb      	ldr	r3, [r7, #12]
 8003bfe:	60da      	str	r2, [r3, #12]
		if( pxQueue->u.pcReadFrom < pxQueue->pcHead ) /*lint !e946 MISRA exception justified as comparison of pointers is the cleanest solution. */
 8003c00:	68fb      	ldr	r3, [r7, #12]
 8003c02:	68da      	ldr	r2, [r3, #12]
 8003c04:	68fb      	ldr	r3, [r7, #12]
 8003c06:	681b      	ldr	r3, [r3, #0]
 8003c08:	429a      	cmp	r2, r3
 8003c0a:	d207      	bcs.n	8003c1c <prvCopyDataToQueue+0xa8>
		{
			pxQueue->u.pcReadFrom = ( pxQueue->pcTail - pxQueue->uxItemSize );
 8003c0c:	68fb      	ldr	r3, [r7, #12]
 8003c0e:	685a      	ldr	r2, [r3, #4]
 8003c10:	68fb      	ldr	r3, [r7, #12]
 8003c12:	6c1b      	ldr	r3, [r3, #64]	; 0x40
 8003c14:	425b      	negs	r3, r3
 8003c16:	441a      	add	r2, r3
 8003c18:	68fb      	ldr	r3, [r7, #12]
 8003c1a:	60da      	str	r2, [r3, #12]
		}

		if( xPosition == queueOVERWRITE )
 8003c1c:	687b      	ldr	r3, [r7, #4]
 8003c1e:	2b02      	cmp	r3, #2
 8003c20:	d108      	bne.n	8003c34 <prvCopyDataToQueue+0xc0>
		{
			if( pxQueue->uxMessagesWaiting > ( unsigned portBASE_TYPE ) 0 )
 8003c22:	68fb      	ldr	r3, [r7, #12]
 8003c24:	6b9b      	ldr	r3, [r3, #56]	; 0x38
 8003c26:	2b00      	cmp	r3, #0
 8003c28:	d004      	beq.n	8003c34 <prvCopyDataToQueue+0xc0>
			{
				/* An item is not being added but overwritten, so subtract
				one from the recorded number of items in the queue so when
				one is added again below the number of recorded items remains
				correct. */
				--( pxQueue->uxMessagesWaiting );
 8003c2a:	68fb      	ldr	r3, [r7, #12]
 8003c2c:	6b9b      	ldr	r3, [r3, #56]	; 0x38
 8003c2e:	1e5a      	subs	r2, r3, #1
 8003c30:	68fb      	ldr	r3, [r7, #12]
 8003c32:	639a      	str	r2, [r3, #56]	; 0x38
			}
		}
	}

	++( pxQueue->uxMessagesWaiting );
 8003c34:	68fb      	ldr	r3, [r7, #12]
 8003c36:	6b9b      	ldr	r3, [r3, #56]	; 0x38
 8003c38:	1c5a      	adds	r2, r3, #1
 8003c3a:	68fb      	ldr	r3, [r7, #12]
 8003c3c:	639a      	str	r2, [r3, #56]	; 0x38
}
 8003c3e:	3710      	adds	r7, #16
 8003c40:	46bd      	mov	sp, r7
 8003c42:	bd80      	pop	{r7, pc}

08003c44 <prvCopyDataFromQueue>:
/*-----------------------------------------------------------*/

static void prvCopyDataFromQueue( xQUEUE * const pxQueue, const void * const pvBuffer )
{
 8003c44:	b580      	push	{r7, lr}
 8003c46:	b082      	sub	sp, #8
 8003c48:	af00      	add	r7, sp, #0
 8003c4a:	6078      	str	r0, [r7, #4]
 8003c4c:	6039      	str	r1, [r7, #0]
	if( pxQueue->uxQueueType != queueQUEUE_IS_MUTEX )
 8003c4e:	687b      	ldr	r3, [r7, #4]
 8003c50:	681b      	ldr	r3, [r3, #0]
 8003c52:	2b00      	cmp	r3, #0
 8003c54:	d019      	beq.n	8003c8a <prvCopyDataFromQueue+0x46>
	{
		pxQueue->u.pcReadFrom += pxQueue->uxItemSize;
 8003c56:	687b      	ldr	r3, [r7, #4]
 8003c58:	68da      	ldr	r2, [r3, #12]
 8003c5a:	687b      	ldr	r3, [r7, #4]
 8003c5c:	6c1b      	ldr	r3, [r3, #64]	; 0x40
 8003c5e:	441a      	add	r2, r3
 8003c60:	687b      	ldr	r3, [r7, #4]
 8003c62:	60da      	str	r2, [r3, #12]
		if( pxQueue->u.pcReadFrom >= pxQueue->pcTail ) /*lint !e946 MISRA exception justified as use of the relational operator is the cleanest solutions. */
 8003c64:	687b      	ldr	r3, [r7, #4]
 8003c66:	68da      	ldr	r2, [r3, #12]
 8003c68:	687b      	ldr	r3, [r7, #4]
 8003c6a:	685b      	ldr	r3, [r3, #4]
 8003c6c:	429a      	cmp	r2, r3
 8003c6e:	d303      	bcc.n	8003c78 <prvCopyDataFromQueue+0x34>
		{
			pxQueue->u.pcReadFrom = pxQueue->pcHead;
 8003c70:	687b      	ldr	r3, [r7, #4]
 8003c72:	681a      	ldr	r2, [r3, #0]
 8003c74:	687b      	ldr	r3, [r7, #4]
 8003c76:	60da      	str	r2, [r3, #12]
		}
		( void ) memcpy( ( void * ) pvBuffer, ( void * ) pxQueue->u.pcReadFrom, ( size_t ) pxQueue->uxItemSize ); /*lint !e961 !e418 MISRA exception as the casts are only redundant for some ports.  Also previous logic ensures a null pointer can only be passed to memcpy() when the count is 0. */
 8003c78:	687b      	ldr	r3, [r7, #4]
 8003c7a:	68da      	ldr	r2, [r3, #12]
 8003c7c:	687b      	ldr	r3, [r7, #4]
 8003c7e:	6c1b      	ldr	r3, [r3, #64]	; 0x40
 8003c80:	6838      	ldr	r0, [r7, #0]
 8003c82:	4611      	mov	r1, r2
 8003c84:	461a      	mov	r2, r3
 8003c86:	f7fc faa9 	bl	80001dc <memcpy>
	}
}
 8003c8a:	3708      	adds	r7, #8
 8003c8c:	46bd      	mov	sp, r7
 8003c8e:	bd80      	pop	{r7, pc}

08003c90 <prvUnlockQueue>:
/*-----------------------------------------------------------*/

static void prvUnlockQueue( xQUEUE *pxQueue )
{
 8003c90:	b580      	push	{r7, lr}
 8003c92:	b082      	sub	sp, #8
 8003c94:	af00      	add	r7, sp, #0
 8003c96:	6078      	str	r0, [r7, #4]

	/* The lock counts contains the number of extra data items placed or
	removed from the queue while the queue was locked.  When a queue is
	locked items can be added or removed, but the event lists cannot be
	updated. */
	taskENTER_CRITICAL();
 8003c98:	f000 fa22 	bl	80040e0 <vPortEnterCritical>
	{
		/* See if data was added to the queue while it was locked. */
		while( pxQueue->xTxLock > queueLOCKED_UNMODIFIED )
 8003c9c:	e014      	b.n	8003cc8 <prvUnlockQueue+0x38>
			}
			#else /* configUSE_QUEUE_SETS */
			{
				/* Tasks that are removed from the event list will get added to
				the pending ready list as the scheduler is still suspended. */
				if( listLIST_IS_EMPTY( &( pxQueue->xTasksWaitingToReceive ) ) == pdFALSE )
 8003c9e:	687b      	ldr	r3, [r7, #4]
 8003ca0:	6a5b      	ldr	r3, [r3, #36]	; 0x24
 8003ca2:	2b00      	cmp	r3, #0
 8003ca4:	d00a      	beq.n	8003cbc <prvUnlockQueue+0x2c>
				{
					if( xTaskRemoveFromEventList( &( pxQueue->xTasksWaitingToReceive ) ) != pdFALSE )
 8003ca6:	687b      	ldr	r3, [r7, #4]
 8003ca8:	3324      	adds	r3, #36	; 0x24
 8003caa:	4618      	mov	r0, r3
 8003cac:	f7ff f9fe 	bl	80030ac <xTaskRemoveFromEventList>
 8003cb0:	4603      	mov	r3, r0
 8003cb2:	2b00      	cmp	r3, #0
 8003cb4:	d003      	beq.n	8003cbe <prvUnlockQueue+0x2e>
					{
						/* The task waiting has a higher priority so record that a
						context	switch is required. */
						vTaskMissedYield();
 8003cb6:	f7ff fabf 	bl	8003238 <vTaskMissedYield>
 8003cba:	e000      	b.n	8003cbe <prvUnlockQueue+0x2e>
					}
				}
				else
				{
					break;
 8003cbc:	e008      	b.n	8003cd0 <prvUnlockQueue+0x40>
				}
			}
			#endif /* configUSE_QUEUE_SETS */

			--( pxQueue->xTxLock );
 8003cbe:	687b      	ldr	r3, [r7, #4]
 8003cc0:	6c9b      	ldr	r3, [r3, #72]	; 0x48
 8003cc2:	1e5a      	subs	r2, r3, #1
 8003cc4:	687b      	ldr	r3, [r7, #4]
 8003cc6:	649a      	str	r2, [r3, #72]	; 0x48
	locked items can be added or removed, but the event lists cannot be
	updated. */
	taskENTER_CRITICAL();
	{
		/* See if data was added to the queue while it was locked. */
		while( pxQueue->xTxLock > queueLOCKED_UNMODIFIED )
 8003cc8:	687b      	ldr	r3, [r7, #4]
 8003cca:	6c9b      	ldr	r3, [r3, #72]	; 0x48
 8003ccc:	2b00      	cmp	r3, #0
 8003cce:	dce6      	bgt.n	8003c9e <prvUnlockQueue+0xe>
			#endif /* configUSE_QUEUE_SETS */

			--( pxQueue->xTxLock );
		}

		pxQueue->xTxLock = queueUNLOCKED;
 8003cd0:	687b      	ldr	r3, [r7, #4]
 8003cd2:	f04f 32ff 	mov.w	r2, #4294967295	; 0xffffffff
 8003cd6:	649a      	str	r2, [r3, #72]	; 0x48
	}
	taskEXIT_CRITICAL();
 8003cd8:	f000 fa12 	bl	8004100 <vPortExitCritical>

	/* Do the same for the Rx lock. */
	taskENTER_CRITICAL();
 8003cdc:	f000 fa00 	bl	80040e0 <vPortEnterCritical>
	{
		while( pxQueue->xRxLock > queueLOCKED_UNMODIFIED )
 8003ce0:	e014      	b.n	8003d0c <prvUnlockQueue+0x7c>
		{
			if( listLIST_IS_EMPTY( &( pxQueue->xTasksWaitingToSend ) ) == pdFALSE )
 8003ce2:	687b      	ldr	r3, [r7, #4]
 8003ce4:	691b      	ldr	r3, [r3, #16]
 8003ce6:	2b00      	cmp	r3, #0
 8003ce8:	d00f      	beq.n	8003d0a <prvUnlockQueue+0x7a>
			{
				if( xTaskRemoveFromEventList( &( pxQueue->xTasksWaitingToSend ) ) != pdFALSE )
 8003cea:	687b      	ldr	r3, [r7, #4]
 8003cec:	3310      	adds	r3, #16
 8003cee:	4618      	mov	r0, r3
 8003cf0:	f7ff f9dc 	bl	80030ac <xTaskRemoveFromEventList>
 8003cf4:	4603      	mov	r3, r0
 8003cf6:	2b00      	cmp	r3, #0
 8003cf8:	d001      	beq.n	8003cfe <prvUnlockQueue+0x6e>
				{
					vTaskMissedYield();
 8003cfa:	f7ff fa9d 	bl	8003238 <vTaskMissedYield>
				}

				--( pxQueue->xRxLock );
 8003cfe:	687b      	ldr	r3, [r7, #4]
 8003d00:	6c5b      	ldr	r3, [r3, #68]	; 0x44
 8003d02:	1e5a      	subs	r2, r3, #1
 8003d04:	687b      	ldr	r3, [r7, #4]
 8003d06:	645a      	str	r2, [r3, #68]	; 0x44
 8003d08:	e000      	b.n	8003d0c <prvUnlockQueue+0x7c>
			}
			else
			{
				break;
 8003d0a:	e003      	b.n	8003d14 <prvUnlockQueue+0x84>
	taskEXIT_CRITICAL();

	/* Do the same for the Rx lock. */
	taskENTER_CRITICAL();
	{
		while( pxQueue->xRxLock > queueLOCKED_UNMODIFIED )
 8003d0c:	687b      	ldr	r3, [r7, #4]
 8003d0e:	6c5b      	ldr	r3, [r3, #68]	; 0x44
 8003d10:	2b00      	cmp	r3, #0
 8003d12:	dce6      	bgt.n	8003ce2 <prvUnlockQueue+0x52>
			{
				break;
			}
		}

		pxQueue->xRxLock = queueUNLOCKED;
 8003d14:	687b      	ldr	r3, [r7, #4]
 8003d16:	f04f 32ff 	mov.w	r2, #4294967295	; 0xffffffff
 8003d1a:	645a      	str	r2, [r3, #68]	; 0x44
	}
	taskEXIT_CRITICAL();
 8003d1c:	f000 f9f0 	bl	8004100 <vPortExitCritical>
}
 8003d20:	3708      	adds	r7, #8
 8003d22:	46bd      	mov	sp, r7
 8003d24:	bd80      	pop	{r7, pc}
 8003d26:	bf00      	nop

08003d28 <prvIsQueueEmpty>:
/*-----------------------------------------------------------*/

static signed portBASE_TYPE prvIsQueueEmpty( const xQUEUE *pxQueue )
{
 8003d28:	b580      	push	{r7, lr}
 8003d2a:	b084      	sub	sp, #16
 8003d2c:	af00      	add	r7, sp, #0
 8003d2e:	6078      	str	r0, [r7, #4]
signed portBASE_TYPE xReturn;

	taskENTER_CRITICAL();
 8003d30:	f000 f9d6 	bl	80040e0 <vPortEnterCritical>
	{
		if( pxQueue->uxMessagesWaiting == ( unsigned portBASE_TYPE )  0 )
 8003d34:	687b      	ldr	r3, [r7, #4]
 8003d36:	6b9b      	ldr	r3, [r3, #56]	; 0x38
 8003d38:	2b00      	cmp	r3, #0
 8003d3a:	d102      	bne.n	8003d42 <prvIsQueueEmpty+0x1a>
		{
			xReturn = pdTRUE;
 8003d3c:	2301      	movs	r3, #1
 8003d3e:	60fb      	str	r3, [r7, #12]
 8003d40:	e001      	b.n	8003d46 <prvIsQueueEmpty+0x1e>
		}
		else
		{
			xReturn = pdFALSE;
 8003d42:	2300      	movs	r3, #0
 8003d44:	60fb      	str	r3, [r7, #12]
		}
	}
	taskEXIT_CRITICAL();
 8003d46:	f000 f9db 	bl	8004100 <vPortExitCritical>

	return xReturn;
 8003d4a:	68fb      	ldr	r3, [r7, #12]
}
 8003d4c:	4618      	mov	r0, r3
 8003d4e:	3710      	adds	r7, #16
 8003d50:	46bd      	mov	sp, r7
 8003d52:	bd80      	pop	{r7, pc}

08003d54 <prvIsQueueFull>:
	return xReturn;
} /*lint !e818 xQueue could not be pointer to const because it is a typedef. */
/*-----------------------------------------------------------*/

static signed portBASE_TYPE prvIsQueueFull( const xQUEUE *pxQueue )
{
 8003d54:	b580      	push	{r7, lr}
 8003d56:	b084      	sub	sp, #16
 8003d58:	af00      	add	r7, sp, #0
 8003d5a:	6078      	str	r0, [r7, #4]
signed portBASE_TYPE xReturn;

	taskENTER_CRITICAL();
 8003d5c:	f000 f9c0 	bl	80040e0 <vPortEnterCritical>
	{
		if( pxQueue->uxMessagesWaiting == pxQueue->uxLength )
 8003d60:	687b      	ldr	r3, [r7, #4]
 8003d62:	6b9a      	ldr	r2, [r3, #56]	; 0x38
 8003d64:	687b      	ldr	r3, [r7, #4]
 8003d66:	6bdb      	ldr	r3, [r3, #60]	; 0x3c
 8003d68:	429a      	cmp	r2, r3
 8003d6a:	d102      	bne.n	8003d72 <prvIsQueueFull+0x1e>
		{
			xReturn = pdTRUE;
 8003d6c:	2301      	movs	r3, #1
 8003d6e:	60fb      	str	r3, [r7, #12]
 8003d70:	e001      	b.n	8003d76 <prvIsQueueFull+0x22>
		}
		else
		{
			xReturn = pdFALSE;
 8003d72:	2300      	movs	r3, #0
 8003d74:	60fb      	str	r3, [r7, #12]
		}
	}
	taskEXIT_CRITICAL();
 8003d76:	f000 f9c3 	bl	8004100 <vPortExitCritical>

	return xReturn;
 8003d7a:	68fb      	ldr	r3, [r7, #12]
}
 8003d7c:	4618      	mov	r0, r3
 8003d7e:	3710      	adds	r7, #16
 8003d80:	46bd      	mov	sp, r7
 8003d82:	bd80      	pop	{r7, pc}

08003d84 <vQueueWaitForMessageRestricted>:
/*-----------------------------------------------------------*/

#if ( configUSE_TIMERS == 1 )

	void vQueueWaitForMessageRestricted( xQueueHandle xQueue, portTickType xTicksToWait )
	{
 8003d84:	b580      	push	{r7, lr}
 8003d86:	b084      	sub	sp, #16
 8003d88:	af00      	add	r7, sp, #0
 8003d8a:	6078      	str	r0, [r7, #4]
 8003d8c:	6039      	str	r1, [r7, #0]
	xQUEUE * const pxQueue = ( xQUEUE * ) xQueue;
 8003d8e:	687b      	ldr	r3, [r7, #4]
 8003d90:	60fb      	str	r3, [r7, #12]
		will not actually cause the task to block, just place it on a blocked
		list.  It will not block until the scheduler is unlocked - at which
		time a yield will be performed.  If an item is added to the queue while
		the queue is locked, and the calling task blocks on the queue, then the
		calling task will be immediately unblocked when the queue is unlocked. */
		prvLockQueue( pxQueue );
 8003d92:	f000 f9a5 	bl	80040e0 <vPortEnterCritical>
 8003d96:	68fb      	ldr	r3, [r7, #12]
 8003d98:	6c5b      	ldr	r3, [r3, #68]	; 0x44
 8003d9a:	f1b3 3fff 	cmp.w	r3, #4294967295	; 0xffffffff
 8003d9e:	d102      	bne.n	8003da6 <vQueueWaitForMessageRestricted+0x22>
 8003da0:	68fb      	ldr	r3, [r7, #12]
 8003da2:	2200      	movs	r2, #0
 8003da4:	645a      	str	r2, [r3, #68]	; 0x44
 8003da6:	68fb      	ldr	r3, [r7, #12]
 8003da8:	6c9b      	ldr	r3, [r3, #72]	; 0x48
 8003daa:	f1b3 3fff 	cmp.w	r3, #4294967295	; 0xffffffff
 8003dae:	d102      	bne.n	8003db6 <vQueueWaitForMessageRestricted+0x32>
 8003db0:	68fb      	ldr	r3, [r7, #12]
 8003db2:	2200      	movs	r2, #0
 8003db4:	649a      	str	r2, [r3, #72]	; 0x48
 8003db6:	f000 f9a3 	bl	8004100 <vPortExitCritical>
		if( pxQueue->uxMessagesWaiting == ( unsigned portBASE_TYPE ) 0U )
 8003dba:	68fb      	ldr	r3, [r7, #12]
 8003dbc:	6b9b      	ldr	r3, [r3, #56]	; 0x38
 8003dbe:	2b00      	cmp	r3, #0
 8003dc0:	d105      	bne.n	8003dce <vQueueWaitForMessageRestricted+0x4a>
		{
			/* There is nothing in the queue, block for the specified period. */
			vTaskPlaceOnEventListRestricted( &( pxQueue->xTasksWaitingToReceive ), xTicksToWait );
 8003dc2:	68fb      	ldr	r3, [r7, #12]
 8003dc4:	3324      	adds	r3, #36	; 0x24
 8003dc6:	4618      	mov	r0, r3
 8003dc8:	6839      	ldr	r1, [r7, #0]
 8003dca:	f7ff f947 	bl	800305c <vTaskPlaceOnEventListRestricted>
		}
		prvUnlockQueue( pxQueue );
 8003dce:	68f8      	ldr	r0, [r7, #12]
 8003dd0:	f7ff ff5e 	bl	8003c90 <prvUnlockQueue>
	}
 8003dd4:	3710      	adds	r7, #16
 8003dd6:	46bd      	mov	sp, r7
 8003dd8:	bd80      	pop	{r7, pc}
 8003dda:	bf00      	nop

08003ddc <vListInitialise>:
/*-----------------------------------------------------------
 * PUBLIC LIST API documented in list.h
 *----------------------------------------------------------*/

void vListInitialise( xList * const pxList )
{
 8003ddc:	b480      	push	{r7}
 8003dde:	b083      	sub	sp, #12
 8003de0:	af00      	add	r7, sp, #0
 8003de2:	6078      	str	r0, [r7, #4]
	/* The list structure contains a list item which is used to mark the
	end of the list.  To initialise the list the list end is inserted
	as the only list entry. */
	pxList->pxIndex = ( xListItem * ) &( pxList->xListEnd );			/*lint !e826 !e740 The mini list structure is used as the list end to save RAM.  This is checked and valid. */
 8003de4:	687b      	ldr	r3, [r7, #4]
 8003de6:	f103 0208 	add.w	r2, r3, #8
 8003dea:	687b      	ldr	r3, [r7, #4]
 8003dec:	605a      	str	r2, [r3, #4]

	/* The list end value is the highest possible value in the list to
	ensure it remains at the end of the list. */
	pxList->xListEnd.xItemValue = portMAX_DELAY;
 8003dee:	687b      	ldr	r3, [r7, #4]
 8003df0:	f04f 32ff 	mov.w	r2, #4294967295	; 0xffffffff
 8003df4:	609a      	str	r2, [r3, #8]

	/* The list end next and previous pointers point to itself so we know
	when the list is empty. */
	pxList->xListEnd.pxNext = ( xListItem * ) &( pxList->xListEnd );	/*lint !e826 !e740 The mini list structure is used as the list end to save RAM.  This is checked and valid. */
 8003df6:	687b      	ldr	r3, [r7, #4]
 8003df8:	f103 0208 	add.w	r2, r3, #8
 8003dfc:	687b      	ldr	r3, [r7, #4]
 8003dfe:	60da      	str	r2, [r3, #12]
	pxList->xListEnd.pxPrevious = ( xListItem * ) &( pxList->xListEnd );/*lint !e826 !e740 The mini list structure is used as the list end to save RAM.  This is checked and valid. */
 8003e00:	687b      	ldr	r3, [r7, #4]
 8003e02:	f103 0208 	add.w	r2, r3, #8
 8003e06:	687b      	ldr	r3, [r7, #4]
 8003e08:	611a      	str	r2, [r3, #16]

	pxList->uxNumberOfItems = ( unsigned portBASE_TYPE ) 0U;
 8003e0a:	687b      	ldr	r3, [r7, #4]
 8003e0c:	2200      	movs	r2, #0
 8003e0e:	601a      	str	r2, [r3, #0]
}
 8003e10:	370c      	adds	r7, #12
 8003e12:	46bd      	mov	sp, r7
 8003e14:	f85d 7b04 	ldr.w	r7, [sp], #4
 8003e18:	4770      	bx	lr
 8003e1a:	bf00      	nop

08003e1c <vListInitialiseItem>:
/*-----------------------------------------------------------*/

void vListInitialiseItem( xListItem * const pxItem )
{
 8003e1c:	b480      	push	{r7}
 8003e1e:	b083      	sub	sp, #12
 8003e20:	af00      	add	r7, sp, #0
 8003e22:	6078      	str	r0, [r7, #4]
	/* Make sure the list item is not recorded as being on a list. */
	pxItem->pvContainer = NULL;
 8003e24:	687b      	ldr	r3, [r7, #4]
 8003e26:	2200      	movs	r2, #0
 8003e28:	611a      	str	r2, [r3, #16]
}
 8003e2a:	370c      	adds	r7, #12
 8003e2c:	46bd      	mov	sp, r7
 8003e2e:	f85d 7b04 	ldr.w	r7, [sp], #4
 8003e32:	4770      	bx	lr

08003e34 <vListInsertEnd>:
/*-----------------------------------------------------------*/

void vListInsertEnd( xList * const pxList, xListItem * const pxNewListItem )
{
 8003e34:	b480      	push	{r7}
 8003e36:	b085      	sub	sp, #20
 8003e38:	af00      	add	r7, sp, #0
 8003e3a:	6078      	str	r0, [r7, #4]
 8003e3c:	6039      	str	r1, [r7, #0]
xListItem * pxIndex;

	/* Insert a new list item into pxList, but rather than sort the list,
	makes the new list item the last item to be removed by a call to
	pvListGetOwnerOfNextEntry. */
	pxIndex = pxList->pxIndex;
 8003e3e:	687b      	ldr	r3, [r7, #4]
 8003e40:	685b      	ldr	r3, [r3, #4]
 8003e42:	60fb      	str	r3, [r7, #12]

	pxNewListItem->pxNext = pxIndex;
 8003e44:	683b      	ldr	r3, [r7, #0]
 8003e46:	68fa      	ldr	r2, [r7, #12]
 8003e48:	605a      	str	r2, [r3, #4]
	pxNewListItem->pxPrevious = pxIndex->pxPrevious;
 8003e4a:	68fb      	ldr	r3, [r7, #12]
 8003e4c:	689a      	ldr	r2, [r3, #8]
 8003e4e:	683b      	ldr	r3, [r7, #0]
 8003e50:	609a      	str	r2, [r3, #8]
	pxIndex->pxPrevious->pxNext = pxNewListItem;
 8003e52:	68fb      	ldr	r3, [r7, #12]
 8003e54:	689b      	ldr	r3, [r3, #8]
 8003e56:	683a      	ldr	r2, [r7, #0]
 8003e58:	605a      	str	r2, [r3, #4]
	pxIndex->pxPrevious = pxNewListItem;
 8003e5a:	68fb      	ldr	r3, [r7, #12]
 8003e5c:	683a      	ldr	r2, [r7, #0]
 8003e5e:	609a      	str	r2, [r3, #8]

	/* Remember which list the item is in. */
	pxNewListItem->pvContainer = ( void * ) pxList;
 8003e60:	683b      	ldr	r3, [r7, #0]
 8003e62:	687a      	ldr	r2, [r7, #4]
 8003e64:	611a      	str	r2, [r3, #16]

	( pxList->uxNumberOfItems )++;
 8003e66:	687b      	ldr	r3, [r7, #4]
 8003e68:	681b      	ldr	r3, [r3, #0]
 8003e6a:	1c5a      	adds	r2, r3, #1
 8003e6c:	687b      	ldr	r3, [r7, #4]
 8003e6e:	601a      	str	r2, [r3, #0]
}
 8003e70:	3714      	adds	r7, #20
 8003e72:	46bd      	mov	sp, r7
 8003e74:	f85d 7b04 	ldr.w	r7, [sp], #4
 8003e78:	4770      	bx	lr
 8003e7a:	bf00      	nop

08003e7c <vListInsert>:
/*-----------------------------------------------------------*/

void vListInsert( xList * const pxList, xListItem * const pxNewListItem )
{
 8003e7c:	b480      	push	{r7}
 8003e7e:	b085      	sub	sp, #20
 8003e80:	af00      	add	r7, sp, #0
 8003e82:	6078      	str	r0, [r7, #4]
 8003e84:	6039      	str	r1, [r7, #0]
xListItem *pxIterator;
portTickType xValueOfInsertion;

	/* Insert the new list item into the list, sorted in ulListItem order. */
	xValueOfInsertion = pxNewListItem->xItemValue;
 8003e86:	683b      	ldr	r3, [r7, #0]
 8003e88:	681b      	ldr	r3, [r3, #0]
 8003e8a:	60bb      	str	r3, [r7, #8]
	are stored in ready lists (all of which have the same ulListItem value)
	get an equal share of the CPU.  However, if the xItemValue is the same as
	the back marker the iteration loop below will not end.  This means we need
	to guard against this by checking the value first and modifying the
	algorithm slightly if necessary. */
	if( xValueOfInsertion == portMAX_DELAY )
 8003e8c:	68bb      	ldr	r3, [r7, #8]
 8003e8e:	f1b3 3fff 	cmp.w	r3, #4294967295	; 0xffffffff
 8003e92:	d103      	bne.n	8003e9c <vListInsert+0x20>
	{
		pxIterator = pxList->xListEnd.pxPrevious;
 8003e94:	687b      	ldr	r3, [r7, #4]
 8003e96:	691b      	ldr	r3, [r3, #16]
 8003e98:	60fb      	str	r3, [r7, #12]
 8003e9a:	e00c      	b.n	8003eb6 <vListInsert+0x3a>
			   before the scheduler has been started (are interrupts firing
			   before vTaskStartScheduler() has been called?).
		See http://www.freertos.org/FAQHelp.html for more tips.
		**********************************************************************/

		for( pxIterator = ( xListItem * ) &( pxList->xListEnd ); pxIterator->pxNext->xItemValue <= xValueOfInsertion; pxIterator = pxIterator->pxNext ) /*lint !e826 !e740 The mini list structure is used as the list end to save RAM.  This is checked and valid. */
 8003e9c:	687b      	ldr	r3, [r7, #4]
 8003e9e:	3308      	adds	r3, #8
 8003ea0:	60fb      	str	r3, [r7, #12]
 8003ea2:	e002      	b.n	8003eaa <vListInsert+0x2e>
 8003ea4:	68fb      	ldr	r3, [r7, #12]
 8003ea6:	685b      	ldr	r3, [r3, #4]
 8003ea8:	60fb      	str	r3, [r7, #12]
 8003eaa:	68fb      	ldr	r3, [r7, #12]
 8003eac:	685b      	ldr	r3, [r3, #4]
 8003eae:	681a      	ldr	r2, [r3, #0]
 8003eb0:	68bb      	ldr	r3, [r7, #8]
 8003eb2:	429a      	cmp	r2, r3
 8003eb4:	d9f6      	bls.n	8003ea4 <vListInsert+0x28>
			/* There is nothing to do here, we are just iterating to the
			wanted insertion position. */
		}
	}

	pxNewListItem->pxNext = pxIterator->pxNext;
 8003eb6:	68fb      	ldr	r3, [r7, #12]
 8003eb8:	685a      	ldr	r2, [r3, #4]
 8003eba:	683b      	ldr	r3, [r7, #0]
 8003ebc:	605a      	str	r2, [r3, #4]
	pxNewListItem->pxNext->pxPrevious = pxNewListItem;
 8003ebe:	683b      	ldr	r3, [r7, #0]
 8003ec0:	685b      	ldr	r3, [r3, #4]
 8003ec2:	683a      	ldr	r2, [r7, #0]
 8003ec4:	609a      	str	r2, [r3, #8]
	pxNewListItem->pxPrevious = pxIterator;
 8003ec6:	683b      	ldr	r3, [r7, #0]
 8003ec8:	68fa      	ldr	r2, [r7, #12]
 8003eca:	609a      	str	r2, [r3, #8]
	pxIterator->pxNext = pxNewListItem;
 8003ecc:	68fb      	ldr	r3, [r7, #12]
 8003ece:	683a      	ldr	r2, [r7, #0]
 8003ed0:	605a      	str	r2, [r3, #4]

	/* Remember which list the item is in.  This allows fast removal of the
	item later. */
	pxNewListItem->pvContainer = ( void * ) pxList;
 8003ed2:	683b      	ldr	r3, [r7, #0]
 8003ed4:	687a      	ldr	r2, [r7, #4]
 8003ed6:	611a      	str	r2, [r3, #16]

	( pxList->uxNumberOfItems )++;
 8003ed8:	687b      	ldr	r3, [r7, #4]
 8003eda:	681b      	ldr	r3, [r3, #0]
 8003edc:	1c5a      	adds	r2, r3, #1
 8003ede:	687b      	ldr	r3, [r7, #4]
 8003ee0:	601a      	str	r2, [r3, #0]
}
 8003ee2:	3714      	adds	r7, #20
 8003ee4:	46bd      	mov	sp, r7
 8003ee6:	f85d 7b04 	ldr.w	r7, [sp], #4
 8003eea:	4770      	bx	lr

08003eec <uxListRemove>:
/*-----------------------------------------------------------*/

unsigned portBASE_TYPE uxListRemove( xListItem * const pxItemToRemove )
{
 8003eec:	b480      	push	{r7}
 8003eee:	b085      	sub	sp, #20
 8003ef0:	af00      	add	r7, sp, #0
 8003ef2:	6078      	str	r0, [r7, #4]
xList * pxList;

	pxItemToRemove->pxNext->pxPrevious = pxItemToRemove->pxPrevious;
 8003ef4:	687b      	ldr	r3, [r7, #4]
 8003ef6:	685b      	ldr	r3, [r3, #4]
 8003ef8:	687a      	ldr	r2, [r7, #4]
 8003efa:	6892      	ldr	r2, [r2, #8]
 8003efc:	609a      	str	r2, [r3, #8]
	pxItemToRemove->pxPrevious->pxNext = pxItemToRemove->pxNext;
 8003efe:	687b      	ldr	r3, [r7, #4]
 8003f00:	689b      	ldr	r3, [r3, #8]
 8003f02:	687a      	ldr	r2, [r7, #4]
 8003f04:	6852      	ldr	r2, [r2, #4]
 8003f06:	605a      	str	r2, [r3, #4]

	/* The list item knows which list it is in.  Obtain the list from the list
	item. */
	pxList = ( xList * ) pxItemToRemove->pvContainer;
 8003f08:	687b      	ldr	r3, [r7, #4]
 8003f0a:	691b      	ldr	r3, [r3, #16]
 8003f0c:	60fb      	str	r3, [r7, #12]

	/* Make sure the index is left pointing to a valid item. */
	if( pxList->pxIndex == pxItemToRemove )
 8003f0e:	68fb      	ldr	r3, [r7, #12]
 8003f10:	685a      	ldr	r2, [r3, #4]
 8003f12:	687b      	ldr	r3, [r7, #4]
 8003f14:	429a      	cmp	r2, r3
 8003f16:	d103      	bne.n	8003f20 <uxListRemove+0x34>
	{
		pxList->pxIndex = pxItemToRemove->pxPrevious;
 8003f18:	687b      	ldr	r3, [r7, #4]
 8003f1a:	689a      	ldr	r2, [r3, #8]
 8003f1c:	68fb      	ldr	r3, [r7, #12]
 8003f1e:	605a      	str	r2, [r3, #4]
	}

	pxItemToRemove->pvContainer = NULL;
 8003f20:	687b      	ldr	r3, [r7, #4]
 8003f22:	2200      	movs	r2, #0
 8003f24:	611a      	str	r2, [r3, #16]
	( pxList->uxNumberOfItems )--;
 8003f26:	68fb      	ldr	r3, [r7, #12]
 8003f28:	681b      	ldr	r3, [r3, #0]
 8003f2a:	1e5a      	subs	r2, r3, #1
 8003f2c:	68fb      	ldr	r3, [r7, #12]
 8003f2e:	601a      	str	r2, [r3, #0]

	return pxList->uxNumberOfItems;
 8003f30:	68fb      	ldr	r3, [r7, #12]
 8003f32:	681b      	ldr	r3, [r3, #0]
}
 8003f34:	4618      	mov	r0, r3
 8003f36:	3714      	adds	r7, #20
 8003f38:	46bd      	mov	sp, r7
 8003f3a:	f85d 7b04 	ldr.w	r7, [sp], #4
 8003f3e:	4770      	bx	lr

08003f40 <pxPortInitialiseStack>:

/*
 * See header file for description.
 */
portSTACK_TYPE *pxPortInitialiseStack( portSTACK_TYPE *pxTopOfStack, pdTASK_CODE pxCode, void *pvParameters )
{
 8003f40:	b480      	push	{r7}
 8003f42:	b085      	sub	sp, #20
 8003f44:	af00      	add	r7, sp, #0
 8003f46:	60f8      	str	r0, [r7, #12]
 8003f48:	60b9      	str	r1, [r7, #8]
 8003f4a:	607a      	str	r2, [r7, #4]
	/* Simulate the stack frame as it would be created by a context switch
	interrupt. */

	/* Offset added to account for the way the MCU uses the stack on entry/exit
	of interrupts, and to ensure alignment. */
	pxTopOfStack--;
 8003f4c:	68fb      	ldr	r3, [r7, #12]
 8003f4e:	3b04      	subs	r3, #4
 8003f50:	60fb      	str	r3, [r7, #12]

	*pxTopOfStack = portINITIAL_XPSR;	/* xPSR */
 8003f52:	68fb      	ldr	r3, [r7, #12]
 8003f54:	f04f 7280 	mov.w	r2, #16777216	; 0x1000000
 8003f58:	601a      	str	r2, [r3, #0]
	pxTopOfStack--;
 8003f5a:	68fb      	ldr	r3, [r7, #12]
 8003f5c:	3b04      	subs	r3, #4
 8003f5e:	60fb      	str	r3, [r7, #12]
	*pxTopOfStack = ( portSTACK_TYPE ) pxCode;	/* PC */
 8003f60:	68ba      	ldr	r2, [r7, #8]
 8003f62:	68fb      	ldr	r3, [r7, #12]
 8003f64:	601a      	str	r2, [r3, #0]
	pxTopOfStack--;
 8003f66:	68fb      	ldr	r3, [r7, #12]
 8003f68:	3b04      	subs	r3, #4
 8003f6a:	60fb      	str	r3, [r7, #12]
	*pxTopOfStack = ( portSTACK_TYPE ) portTASK_RETURN_ADDRESS;	/* LR */
 8003f6c:	4a0c      	ldr	r2, [pc, #48]	; (8003fa0 <pxPortInitialiseStack+0x60>)
 8003f6e:	68fb      	ldr	r3, [r7, #12]
 8003f70:	601a      	str	r2, [r3, #0]

	/* Save code space by skipping register initialisation. */
	pxTopOfStack -= 5;	/* R12, R3, R2 and R1. */
 8003f72:	68fb      	ldr	r3, [r7, #12]
 8003f74:	3b14      	subs	r3, #20
 8003f76:	60fb      	str	r3, [r7, #12]
	*pxTopOfStack = ( portSTACK_TYPE ) pvParameters;	/* R0 */
 8003f78:	687a      	ldr	r2, [r7, #4]
 8003f7a:	68fb      	ldr	r3, [r7, #12]
 8003f7c:	601a      	str	r2, [r3, #0]

	/* A save method is being used that requires each task to maintain its
	own exec return value. */
	pxTopOfStack--;
 8003f7e:	68fb      	ldr	r3, [r7, #12]
 8003f80:	3b04      	subs	r3, #4
 8003f82:	60fb      	str	r3, [r7, #12]
	*pxTopOfStack = portINITIAL_EXEC_RETURN;
 8003f84:	68fb      	ldr	r3, [r7, #12]
 8003f86:	f06f 0202 	mvn.w	r2, #2
 8003f8a:	601a      	str	r2, [r3, #0]

	pxTopOfStack -= 8;	/* R11, R10, R9, R8, R7, R6, R5 and R4. */
 8003f8c:	68fb      	ldr	r3, [r7, #12]
 8003f8e:	3b20      	subs	r3, #32
 8003f90:	60fb      	str	r3, [r7, #12]

	return pxTopOfStack;
 8003f92:	68fb      	ldr	r3, [r7, #12]
}
 8003f94:	4618      	mov	r0, r3
 8003f96:	3714      	adds	r7, #20
 8003f98:	46bd      	mov	sp, r7
 8003f9a:	f85d 7b04 	ldr.w	r7, [sp], #4
 8003f9e:	4770      	bx	lr
 8003fa0:	08003fa5 	.word	0x08003fa5

08003fa4 <prvTaskExitError>:
/*-----------------------------------------------------------*/

static void prvTaskExitError( void )
{
 8003fa4:	b580      	push	{r7, lr}
 8003fa6:	af00      	add	r7, sp, #0
	its caller as there is nothing to return to.  If a task wants to exit it
	should instead call vTaskDelete( NULL ).

	Artificially force an assert() to be triggered if configASSERT() is
	defined, then stop here so application writers can catch the error. */
	configASSERT( uxCriticalNesting == ~0UL );
 8003fa8:	4b05      	ldr	r3, [pc, #20]	; (8003fc0 <prvTaskExitError+0x1c>)
 8003faa:	681b      	ldr	r3, [r3, #0]
 8003fac:	f1b3 3fff 	cmp.w	r3, #4294967295	; 0xffffffff
 8003fb0:	d002      	beq.n	8003fb8 <prvTaskExitError+0x14>
 8003fb2:	f000 f8b7 	bl	8004124 <ulPortSetInterruptMask>
 8003fb6:	e7fe      	b.n	8003fb6 <prvTaskExitError+0x12>
	portDISABLE_INTERRUPTS();
 8003fb8:	f000 f8b4 	bl	8004124 <ulPortSetInterruptMask>
	for( ;; );
 8003fbc:	e7fe      	b.n	8003fbc <prvTaskExitError+0x18>
 8003fbe:	bf00      	nop
 8003fc0:	20000008 	.word	0x20000008

08003fc4 <SVC_Handler>:
}
/*-----------------------------------------------------------*/

void vPortSVCHandler( void )
{
	__asm volatile (
 8003fc4:	4b05      	ldr	r3, [pc, #20]	; (8003fdc <pxCurrentTCBConst2>)
 8003fc6:	6819      	ldr	r1, [r3, #0]
 8003fc8:	6808      	ldr	r0, [r1, #0]
 8003fca:	e8b0 4ff0 	ldmia.w	r0!, {r4, r5, r6, r7, r8, r9, sl, fp, lr}
 8003fce:	f380 8809 	msr	PSP, r0
 8003fd2:	f04f 0000 	mov.w	r0, #0
 8003fd6:	f380 8811 	msr	BASEPRI, r0
 8003fda:	4770      	bx	lr

08003fdc <pxCurrentTCBConst2>:
 8003fdc:	20000498 	.word	0x20000498

08003fe0 <prvPortStartFirstTask>:
}
/*-----------------------------------------------------------*/

static void prvPortStartFirstTask( void )
{
	__asm volatile(
 8003fe0:	4803      	ldr	r0, [pc, #12]	; (8003ff0 <prvPortStartFirstTask+0x10>)
 8003fe2:	6800      	ldr	r0, [r0, #0]
 8003fe4:	6800      	ldr	r0, [r0, #0]
 8003fe6:	f380 8808 	msr	MSP, r0
 8003fea:	b662      	cpsie	i
 8003fec:	df00      	svc	0
 8003fee:	bf00      	nop
 8003ff0:	e000ed08 	.word	0xe000ed08

08003ff4 <xPortStartScheduler>:

/*
 * See header file for description.
 */
portBASE_TYPE xPortStartScheduler( void )
{
 8003ff4:	b580      	push	{r7, lr}
 8003ff6:	b084      	sub	sp, #16
 8003ff8:	af00      	add	r7, sp, #0
	configASSERT( configMAX_SYSCALL_INTERRUPT_PRIORITY );

	#if( configASSERT_DEFINED == 1 )
	{
		volatile unsigned long ulOriginalPriority;
		volatile char * const pcFirstUserPriorityRegister = ( volatile char * const ) ( portNVIC_IP_REGISTERS_OFFSET_16 + portFIRST_USER_INTERRUPT_NUMBER );
 8003ffa:	4b2b      	ldr	r3, [pc, #172]	; (80040a8 <xPortStartScheduler+0xb4>)
 8003ffc:	60fb      	str	r3, [r7, #12]
		functions can be called.  ISR safe functions are those that end in
		"FromISR".  FreeRTOS maintains separate thread and ISR API functions to
		ensure interrupt entry is as fast and simple as possible.

		Save the interrupt priority value that is about to be clobbered. */
		ulOriginalPriority = *pcFirstUserPriorityRegister;
 8003ffe:	68fb      	ldr	r3, [r7, #12]
 8004000:	781b      	ldrb	r3, [r3, #0]
 8004002:	b2db      	uxtb	r3, r3
 8004004:	60bb      	str	r3, [r7, #8]

		/* Determine the number of priority bits available.  First write to all
		possible bits. */
		*pcFirstUserPriorityRegister = portMAX_8_BIT_VALUE;
 8004006:	68fb      	ldr	r3, [r7, #12]
 8004008:	22ff      	movs	r2, #255	; 0xff
 800400a:	701a      	strb	r2, [r3, #0]

		/* Read the value back to see how many bits stuck. */
		ucMaxPriorityValue = *pcFirstUserPriorityRegister;
 800400c:	68fb      	ldr	r3, [r7, #12]
 800400e:	781b      	ldrb	r3, [r3, #0]
 8004010:	b2db      	uxtb	r3, r3
 8004012:	71fb      	strb	r3, [r7, #7]

		/* Use the same mask on the maximum system call priority. */
		ucMaxSysCallPriority = configMAX_SYSCALL_INTERRUPT_PRIORITY & ucMaxPriorityValue;
 8004014:	79fb      	ldrb	r3, [r7, #7]
 8004016:	b2db      	uxtb	r3, r3
 8004018:	f003 0350 	and.w	r3, r3, #80	; 0x50
 800401c:	b2da      	uxtb	r2, r3
 800401e:	4b23      	ldr	r3, [pc, #140]	; (80040ac <xPortStartScheduler+0xb8>)
 8004020:	701a      	strb	r2, [r3, #0]

		/* Calculate the maximum acceptable priority group value for the number
		of bits read back. */
		ulMaxPRIGROUPValue = portMAX_PRIGROUP_BITS;
 8004022:	4b23      	ldr	r3, [pc, #140]	; (80040b0 <xPortStartScheduler+0xbc>)
 8004024:	2207      	movs	r2, #7
 8004026:	601a      	str	r2, [r3, #0]
		while( ( ucMaxPriorityValue & portTOP_BIT_OF_BYTE ) == portTOP_BIT_OF_BYTE )
 8004028:	e009      	b.n	800403e <xPortStartScheduler+0x4a>
		{
			ulMaxPRIGROUPValue--;
 800402a:	4b21      	ldr	r3, [pc, #132]	; (80040b0 <xPortStartScheduler+0xbc>)
 800402c:	681b      	ldr	r3, [r3, #0]
 800402e:	1e5a      	subs	r2, r3, #1
 8004030:	4b1f      	ldr	r3, [pc, #124]	; (80040b0 <xPortStartScheduler+0xbc>)
 8004032:	601a      	str	r2, [r3, #0]
			ucMaxPriorityValue <<= ( unsigned char ) 0x01;
 8004034:	79fb      	ldrb	r3, [r7, #7]
 8004036:	b2db      	uxtb	r3, r3
 8004038:	005b      	lsls	r3, r3, #1
 800403a:	b2db      	uxtb	r3, r3
 800403c:	71fb      	strb	r3, [r7, #7]
		ucMaxSysCallPriority = configMAX_SYSCALL_INTERRUPT_PRIORITY & ucMaxPriorityValue;

		/* Calculate the maximum acceptable priority group value for the number
		of bits read back. */
		ulMaxPRIGROUPValue = portMAX_PRIGROUP_BITS;
		while( ( ucMaxPriorityValue & portTOP_BIT_OF_BYTE ) == portTOP_BIT_OF_BYTE )
 800403e:	79fb      	ldrb	r3, [r7, #7]
 8004040:	b2db      	uxtb	r3, r3
 8004042:	b2db      	uxtb	r3, r3
 8004044:	b25b      	sxtb	r3, r3
 8004046:	2b00      	cmp	r3, #0
 8004048:	dbef      	blt.n	800402a <xPortStartScheduler+0x36>
			ucMaxPriorityValue <<= ( unsigned char ) 0x01;
		}

		/* Shift the priority group value back to its position within the AIRCR
		register. */
		ulMaxPRIGROUPValue <<= portPRIGROUP_SHIFT;
 800404a:	4b19      	ldr	r3, [pc, #100]	; (80040b0 <xPortStartScheduler+0xbc>)
 800404c:	681b      	ldr	r3, [r3, #0]
 800404e:	021a      	lsls	r2, r3, #8
 8004050:	4b17      	ldr	r3, [pc, #92]	; (80040b0 <xPortStartScheduler+0xbc>)
 8004052:	601a      	str	r2, [r3, #0]
		ulMaxPRIGROUPValue &= portPRIORITY_GROUP_MASK;
 8004054:	4b16      	ldr	r3, [pc, #88]	; (80040b0 <xPortStartScheduler+0xbc>)
 8004056:	681b      	ldr	r3, [r3, #0]
 8004058:	f403 62e0 	and.w	r2, r3, #1792	; 0x700
 800405c:	4b14      	ldr	r3, [pc, #80]	; (80040b0 <xPortStartScheduler+0xbc>)
 800405e:	601a      	str	r2, [r3, #0]

		/* Restore the clobbered interrupt priority register to its original
		value. */
		*pcFirstUserPriorityRegister = ulOriginalPriority;
 8004060:	68bb      	ldr	r3, [r7, #8]
 8004062:	b2da      	uxtb	r2, r3
 8004064:	68fb      	ldr	r3, [r7, #12]
 8004066:	701a      	strb	r2, [r3, #0]
	}
	#endif /* conifgASSERT_DEFINED */

	/* Make PendSV and SysTick the lowest priority interrupts. */
	portNVIC_SYSPRI2_REG |= portNVIC_PENDSV_PRI;
 8004068:	4b12      	ldr	r3, [pc, #72]	; (80040b4 <xPortStartScheduler+0xc0>)
 800406a:	4a12      	ldr	r2, [pc, #72]	; (80040b4 <xPortStartScheduler+0xc0>)
 800406c:	6812      	ldr	r2, [r2, #0]
 800406e:	f442 0270 	orr.w	r2, r2, #15728640	; 0xf00000
 8004072:	601a      	str	r2, [r3, #0]
	portNVIC_SYSPRI2_REG |= portNVIC_SYSTICK_PRI;
 8004074:	4b0f      	ldr	r3, [pc, #60]	; (80040b4 <xPortStartScheduler+0xc0>)
 8004076:	4a0f      	ldr	r2, [pc, #60]	; (80040b4 <xPortStartScheduler+0xc0>)
 8004078:	6812      	ldr	r2, [r2, #0]
 800407a:	f042 4270 	orr.w	r2, r2, #4026531840	; 0xf0000000
 800407e:	601a      	str	r2, [r3, #0]

	/* Start the timer that generates the tick ISR.  Interrupts are disabled
	here already. */
	vPortSetupTimerInterrupt();
 8004080:	f000 f89a 	bl	80041b8 <vPortSetupTimerInterrupt>

	/* Initialise the critical nesting count ready for the first task. */
	uxCriticalNesting = 0;
 8004084:	4b0c      	ldr	r3, [pc, #48]	; (80040b8 <xPortStartScheduler+0xc4>)
 8004086:	2200      	movs	r2, #0
 8004088:	601a      	str	r2, [r3, #0]

	/* Ensure the VFP is enabled - it should be anyway. */
	vPortEnableVFP();
 800408a:	f000 f8af 	bl	80041ec <vPortEnableVFP>

	/* Lazy save always. */
	*( portFPCCR ) |= portASPEN_AND_LSPEN_BITS;
 800408e:	4b0b      	ldr	r3, [pc, #44]	; (80040bc <xPortStartScheduler+0xc8>)
 8004090:	4a0a      	ldr	r2, [pc, #40]	; (80040bc <xPortStartScheduler+0xc8>)
 8004092:	6812      	ldr	r2, [r2, #0]
 8004094:	f042 4240 	orr.w	r2, r2, #3221225472	; 0xc0000000
 8004098:	601a      	str	r2, [r3, #0]

	/* Start the first task. */
	prvPortStartFirstTask();
 800409a:	f7ff ffa1 	bl	8003fe0 <prvPortStartFirstTask>

	/* Should not get here! */
	return 0;
 800409e:	2300      	movs	r3, #0
}
 80040a0:	4618      	mov	r0, r3
 80040a2:	3710      	adds	r7, #16
 80040a4:	46bd      	mov	sp, r7
 80040a6:	bd80      	pop	{r7, pc}
 80040a8:	e000e400 	.word	0xe000e400
 80040ac:	20000594 	.word	0x20000594
 80040b0:	20000598 	.word	0x20000598
 80040b4:	e000ed20 	.word	0xe000ed20
 80040b8:	20000008 	.word	0x20000008
 80040bc:	e000ef34 	.word	0xe000ef34

080040c0 <vPortYield>:
	is nothing to return to.  */
}
/*-----------------------------------------------------------*/

void vPortYield( void )
{
 80040c0:	b480      	push	{r7}
 80040c2:	af00      	add	r7, sp, #0
	/* Set a PendSV to request a context switch. */
	portNVIC_INT_CTRL_REG = portNVIC_PENDSVSET_BIT;
 80040c4:	4b05      	ldr	r3, [pc, #20]	; (80040dc <vPortYield+0x1c>)
 80040c6:	f04f 5280 	mov.w	r2, #268435456	; 0x10000000
 80040ca:	601a      	str	r2, [r3, #0]

	/* Barriers are normally not required but do ensure the code is completely
	within the specified behaviour for the architecture. */
	__asm volatile( "dsb" );
 80040cc:	f3bf 8f4f 	dsb	sy
	__asm volatile( "isb" );
 80040d0:	f3bf 8f6f 	isb	sy
}
 80040d4:	46bd      	mov	sp, r7
 80040d6:	f85d 7b04 	ldr.w	r7, [sp], #4
 80040da:	4770      	bx	lr
 80040dc:	e000ed04 	.word	0xe000ed04

080040e0 <vPortEnterCritical>:
/*-----------------------------------------------------------*/

void vPortEnterCritical( void )
{
 80040e0:	b580      	push	{r7, lr}
 80040e2:	af00      	add	r7, sp, #0
	portDISABLE_INTERRUPTS();
 80040e4:	f000 f81e 	bl	8004124 <ulPortSetInterruptMask>
	uxCriticalNesting++;
 80040e8:	4b04      	ldr	r3, [pc, #16]	; (80040fc <vPortEnterCritical+0x1c>)
 80040ea:	681b      	ldr	r3, [r3, #0]
 80040ec:	1c5a      	adds	r2, r3, #1
 80040ee:	4b03      	ldr	r3, [pc, #12]	; (80040fc <vPortEnterCritical+0x1c>)
 80040f0:	601a      	str	r2, [r3, #0]
	__asm volatile( "dsb" );
 80040f2:	f3bf 8f4f 	dsb	sy
	__asm volatile( "isb" );
 80040f6:	f3bf 8f6f 	isb	sy
}
 80040fa:	bd80      	pop	{r7, pc}
 80040fc:	20000008 	.word	0x20000008

08004100 <vPortExitCritical>:
/*-----------------------------------------------------------*/

void vPortExitCritical( void )
{
 8004100:	b580      	push	{r7, lr}
 8004102:	af00      	add	r7, sp, #0
	uxCriticalNesting--;
 8004104:	4b06      	ldr	r3, [pc, #24]	; (8004120 <vPortExitCritical+0x20>)
 8004106:	681b      	ldr	r3, [r3, #0]
 8004108:	1e5a      	subs	r2, r3, #1
 800410a:	4b05      	ldr	r3, [pc, #20]	; (8004120 <vPortExitCritical+0x20>)
 800410c:	601a      	str	r2, [r3, #0]
	if( uxCriticalNesting == 0 )
 800410e:	4b04      	ldr	r3, [pc, #16]	; (8004120 <vPortExitCritical+0x20>)
 8004110:	681b      	ldr	r3, [r3, #0]
 8004112:	2b00      	cmp	r3, #0
 8004114:	d102      	bne.n	800411c <vPortExitCritical+0x1c>
	{
		portENABLE_INTERRUPTS();
 8004116:	2000      	movs	r0, #0
 8004118:	f000 f80e 	bl	8004138 <vPortClearInterruptMask>
	}
}
 800411c:	bd80      	pop	{r7, pc}
 800411e:	bf00      	nop
 8004120:	20000008 	.word	0x20000008

08004124 <ulPortSetInterruptMask>:
/*-----------------------------------------------------------*/

__attribute__(( naked )) unsigned long ulPortSetInterruptMask( void )
{
	__asm volatile														\
 8004124:	f3ef 8011 	mrs	r0, BASEPRI
 8004128:	f04f 0150 	mov.w	r1, #80	; 0x50
 800412c:	f381 8811 	msr	BASEPRI, r1
 8004130:	4770      	bx	lr
		:: "i" ( configMAX_SYSCALL_INTERRUPT_PRIORITY ) : "r0", "r1"	\
	);

	/* This return will not be reached but is necessary to prevent compiler
	warnings. */
	return 0;
 8004132:	2300      	movs	r3, #0
}
 8004134:	4618      	mov	r0, r3
 8004136:	bf00      	nop

08004138 <vPortClearInterruptMask>:
/*-----------------------------------------------------------*/

__attribute__(( naked )) void vPortClearInterruptMask( unsigned long ulNewMaskValue )
{
	__asm volatile													\
 8004138:	f380 8811 	msr	BASEPRI, r0
 800413c:	4770      	bx	lr
 800413e:	bf00      	nop

08004140 <PendSV_Handler>:

void xPortPendSVHandler( void )
{
	/* This is a naked function. */

	__asm volatile
 8004140:	f3ef 8009 	mrs	r0, PSP
 8004144:	4b11      	ldr	r3, [pc, #68]	; (800418c <pxCurrentTCBConst>)
 8004146:	681a      	ldr	r2, [r3, #0]
 8004148:	f01e 0f10 	tst.w	lr, #16
 800414c:	bf08      	it	eq
 800414e:	ed20 8a10 	vstmdbeq	r0!, {s16-s31}
 8004152:	e920 4ff0 	stmdb	r0!, {r4, r5, r6, r7, r8, r9, sl, fp, lr}
 8004156:	6010      	str	r0, [r2, #0]
 8004158:	e92d 4008 	stmdb	sp!, {r3, lr}
 800415c:	f04f 0050 	mov.w	r0, #80	; 0x50
 8004160:	f380 8811 	msr	BASEPRI, r0
 8004164:	f7fe feca 	bl	8002efc <vTaskSwitchContext>
 8004168:	f04f 0000 	mov.w	r0, #0
 800416c:	f380 8811 	msr	BASEPRI, r0
 8004170:	e8bd 4008 	ldmia.w	sp!, {r3, lr}
 8004174:	6819      	ldr	r1, [r3, #0]
 8004176:	6808      	ldr	r0, [r1, #0]
 8004178:	e8b0 4ff0 	ldmia.w	r0!, {r4, r5, r6, r7, r8, r9, sl, fp, lr}
 800417c:	f01e 0f10 	tst.w	lr, #16
 8004180:	bf08      	it	eq
 8004182:	ecb0 8a10 	vldmiaeq	r0!, {s16-s31}
 8004186:	f380 8809 	msr	PSP, r0
 800418a:	4770      	bx	lr

0800418c <pxCurrentTCBConst>:
 800418c:	20000498 	.word	0x20000498

08004190 <SysTick_Handler>:
	);
}
/*-----------------------------------------------------------*/

void xPortSysTickHandler( void )
{
 8004190:	b580      	push	{r7, lr}
 8004192:	af00      	add	r7, sp, #0
	/* The SysTick runs at the lowest interrupt priority, so when this interrupt
	executes all interrupts must be unmasked.  There is therefore no need to
	save and then restore the interrupt mask value as its value is already
	known. */
	( void ) portSET_INTERRUPT_MASK_FROM_ISR();
 8004194:	f7ff ffc6 	bl	8004124 <ulPortSetInterruptMask>
	{
		/* Increment the RTOS tick. */
		if( xTaskIncrementTick() != pdFALSE )
 8004198:	f7fe fdda 	bl	8002d50 <xTaskIncrementTick>
 800419c:	4603      	mov	r3, r0
 800419e:	2b00      	cmp	r3, #0
 80041a0:	d003      	beq.n	80041aa <SysTick_Handler+0x1a>
		{
			/* A context switch is required.  Context switching is performed in
			the PendSV interrupt.  Pend the PendSV interrupt. */
			portNVIC_INT_CTRL_REG = portNVIC_PENDSVSET_BIT;
 80041a2:	4b04      	ldr	r3, [pc, #16]	; (80041b4 <SysTick_Handler+0x24>)
 80041a4:	f04f 5280 	mov.w	r2, #268435456	; 0x10000000
 80041a8:	601a      	str	r2, [r3, #0]
		}
	}
	portCLEAR_INTERRUPT_MASK_FROM_ISR( 0 );
 80041aa:	2000      	movs	r0, #0
 80041ac:	f7ff ffc4 	bl	8004138 <vPortClearInterruptMask>
}
 80041b0:	bd80      	pop	{r7, pc}
 80041b2:	bf00      	nop
 80041b4:	e000ed04 	.word	0xe000ed04

080041b8 <vPortSetupTimerInterrupt>:
/*
 * Setup the systick timer to generate the tick interrupts at the required
 * frequency.
 */
__attribute__(( weak )) void vPortSetupTimerInterrupt( void )
{
 80041b8:	b480      	push	{r7}
 80041ba:	af00      	add	r7, sp, #0
		ulStoppedTimerCompensation = portMISSED_COUNTS_FACTOR / ( configCPU_CLOCK_HZ / configSYSTICK_CLOCK_HZ );
	}
	#endif /* configUSE_TICKLESS_IDLE */

	/* Configure SysTick to interrupt at the requested rate. */
	portNVIC_SYSTICK_LOAD_REG = ( configSYSTICK_CLOCK_HZ / configTICK_RATE_HZ ) - 1UL;;
 80041bc:	4b07      	ldr	r3, [pc, #28]	; (80041dc <vPortSetupTimerInterrupt+0x24>)
 80041be:	4a08      	ldr	r2, [pc, #32]	; (80041e0 <vPortSetupTimerInterrupt+0x28>)
 80041c0:	6811      	ldr	r1, [r2, #0]
 80041c2:	4a08      	ldr	r2, [pc, #32]	; (80041e4 <vPortSetupTimerInterrupt+0x2c>)
 80041c4:	fba2 0201 	umull	r0, r2, r2, r1
 80041c8:	0992      	lsrs	r2, r2, #6
 80041ca:	3a01      	subs	r2, #1
 80041cc:	601a      	str	r2, [r3, #0]
	portNVIC_SYSTICK_CTRL_REG = portNVIC_SYSTICK_CLK_BIT | portNVIC_SYSTICK_INT_BIT | portNVIC_SYSTICK_ENABLE_BIT;
 80041ce:	4b06      	ldr	r3, [pc, #24]	; (80041e8 <vPortSetupTimerInterrupt+0x30>)
 80041d0:	2207      	movs	r2, #7
 80041d2:	601a      	str	r2, [r3, #0]
}
 80041d4:	46bd      	mov	sp, r7
 80041d6:	f85d 7b04 	ldr.w	r7, [sp], #4
 80041da:	4770      	bx	lr
 80041dc:	e000e014 	.word	0xe000e014
 80041e0:	20000000 	.word	0x20000000
 80041e4:	10624dd3 	.word	0x10624dd3
 80041e8:	e000e010 	.word	0xe000e010

080041ec <vPortEnableVFP>:
/*-----------------------------------------------------------*/

/* This is a naked function. */
static void vPortEnableVFP( void )
{
	__asm volatile
 80041ec:	f8df 000c 	ldr.w	r0, [pc, #12]	; 80041fc <vPortEnableVFP+0x10>
 80041f0:	6801      	ldr	r1, [r0, #0]
 80041f2:	f441 0170 	orr.w	r1, r1, #15728640	; 0xf00000
 80041f6:	6001      	str	r1, [r0, #0]
 80041f8:	4770      	bx	lr
 80041fa:	0000      	.short	0x0000
 80041fc:	e000ed88 	.word	0xe000ed88

08004200 <vPortValidateInterruptPriority>:
/*-----------------------------------------------------------*/

#if( configASSERT_DEFINED == 1 )

	void vPortValidateInterruptPriority( void )
	{
 8004200:	b580      	push	{r7, lr}
 8004202:	b082      	sub	sp, #8
 8004204:	af00      	add	r7, sp, #0
	unsigned long ulCurrentInterrupt;
	unsigned char ucCurrentPriority;

		/* Obtain the number of the currently executing interrupt. */
		__asm volatile( "mrs %0, ipsr" : "=r"( ulCurrentInterrupt ) );
 8004206:	f3ef 8305 	mrs	r3, IPSR
 800420a:	607b      	str	r3, [r7, #4]

		/* Is the interrupt number a user defined interrupt? */
		if( ulCurrentInterrupt >= portFIRST_USER_INTERRUPT_NUMBER )
 800420c:	687b      	ldr	r3, [r7, #4]
 800420e:	2b0f      	cmp	r3, #15
 8004210:	d90c      	bls.n	800422c <vPortValidateInterruptPriority+0x2c>
		{
			/* Look up the interrupt's priority. */
			ucCurrentPriority = pcInterruptPriorityRegisters[ ulCurrentInterrupt ];
 8004212:	4a0d      	ldr	r2, [pc, #52]	; (8004248 <vPortValidateInterruptPriority+0x48>)
 8004214:	687b      	ldr	r3, [r7, #4]
 8004216:	4413      	add	r3, r2
 8004218:	781b      	ldrb	r3, [r3, #0]
 800421a:	70fb      	strb	r3, [r7, #3]
			interrupt entry is as fast and simple as possible.

			The following links provide detailed information:
			http://www.freertos.org/RTOS-Cortex-M3-M4.html
			http://www.freertos.org/FAQHelp.html */
			configASSERT( ucCurrentPriority >= ucMaxSysCallPriority );
 800421c:	4b0b      	ldr	r3, [pc, #44]	; (800424c <vPortValidateInterruptPriority+0x4c>)
 800421e:	781b      	ldrb	r3, [r3, #0]
 8004220:	78fa      	ldrb	r2, [r7, #3]
 8004222:	429a      	cmp	r2, r3
 8004224:	d202      	bcs.n	800422c <vPortValidateInterruptPriority+0x2c>
 8004226:	f7ff ff7d 	bl	8004124 <ulPortSetInterruptMask>
 800422a:	e7fe      	b.n	800422a <vPortValidateInterruptPriority+0x2a>
		configuration then the correct setting can be achieved on all Cortex-M
		devices by calling NVIC_SetPriorityGrouping( 0 ); before starting the
		scheduler.  Note however that some vendor specific peripheral libraries
		assume a non-zero priority group setting, in which cases using a value
		of zero will result in unpredicable behaviour. */
		configASSERT( ( portAIRCR_REG & portPRIORITY_GROUP_MASK ) <= ulMaxPRIGROUPValue );
 800422c:	4b08      	ldr	r3, [pc, #32]	; (8004250 <vPortValidateInterruptPriority+0x50>)
 800422e:	681b      	ldr	r3, [r3, #0]
 8004230:	f403 62e0 	and.w	r2, r3, #1792	; 0x700
 8004234:	4b07      	ldr	r3, [pc, #28]	; (8004254 <vPortValidateInterruptPriority+0x54>)
 8004236:	681b      	ldr	r3, [r3, #0]
 8004238:	429a      	cmp	r2, r3
 800423a:	d902      	bls.n	8004242 <vPortValidateInterruptPriority+0x42>
 800423c:	f7ff ff72 	bl	8004124 <ulPortSetInterruptMask>
 8004240:	e7fe      	b.n	8004240 <vPortValidateInterruptPriority+0x40>
	}
 8004242:	3708      	adds	r7, #8
 8004244:	46bd      	mov	sp, r7
 8004246:	bd80      	pop	{r7, pc}
 8004248:	e000e3f0 	.word	0xe000e3f0
 800424c:	20000594 	.word	0x20000594
 8004250:	e000ed0c 	.word	0xe000ed0c
 8004254:	20000598 	.word	0x20000598

08004258 <xTimerCreateTimerTask>:
static void prvProcessTimerOrBlockTask( portTickType xNextExpireTime, portBASE_TYPE xListWasEmpty ) PRIVILEGED_FUNCTION;

/*-----------------------------------------------------------*/

portBASE_TYPE xTimerCreateTimerTask( void )
{
 8004258:	b580      	push	{r7, lr}
 800425a:	b086      	sub	sp, #24
 800425c:	af04      	add	r7, sp, #16
portBASE_TYPE xReturn = pdFAIL;
 800425e:	2300      	movs	r3, #0
 8004260:	607b      	str	r3, [r7, #4]

	/* This function is called when the scheduler is started if
	configUSE_TIMERS is set to 1.  Check that the infrastructure used by the
	timer service task has been created/initialised.  If timers have already
	been created then the initialisation will already have been performed. */
	prvCheckForValidListAndQueue();
 8004262:	f000 fa45 	bl	80046f0 <prvCheckForValidListAndQueue>

	if( xTimerQueue != NULL )
 8004266:	4b0f      	ldr	r3, [pc, #60]	; (80042a4 <xTimerCreateTimerTask+0x4c>)
 8004268:	681b      	ldr	r3, [r3, #0]
 800426a:	2b00      	cmp	r3, #0
 800426c:	d00f      	beq.n	800428e <xTimerCreateTimerTask+0x36>
			xReturn = xTaskCreate( prvTimerTask, ( const signed char * ) "Tmr Svc", ( unsigned short ) configTIMER_TASK_STACK_DEPTH, NULL, ( ( unsigned portBASE_TYPE ) configTIMER_TASK_PRIORITY ) | portPRIVILEGE_BIT, &xTimerTaskHandle );
		}
		#else
		{
			/* Create the timer task without storing its handle. */
			xReturn = xTaskCreate( prvTimerTask, ( const signed char * ) "Tmr Svc", ( unsigned short ) configTIMER_TASK_STACK_DEPTH, NULL, ( ( unsigned portBASE_TYPE ) configTIMER_TASK_PRIORITY ) | portPRIVILEGE_BIT, NULL);
 800426e:	2302      	movs	r3, #2
 8004270:	9300      	str	r3, [sp, #0]
 8004272:	2300      	movs	r3, #0
 8004274:	9301      	str	r3, [sp, #4]
 8004276:	2300      	movs	r3, #0
 8004278:	9302      	str	r3, [sp, #8]
 800427a:	2300      	movs	r3, #0
 800427c:	9303      	str	r3, [sp, #12]
 800427e:	480a      	ldr	r0, [pc, #40]	; (80042a8 <xTimerCreateTimerTask+0x50>)
 8004280:	490a      	ldr	r1, [pc, #40]	; (80042ac <xTimerCreateTimerTask+0x54>)
 8004282:	f44f 7282 	mov.w	r2, #260	; 0x104
 8004286:	2300      	movs	r3, #0
 8004288:	f7fe fa42 	bl	8002710 <xTaskGenericCreate>
 800428c:	6078      	str	r0, [r7, #4]
		}
		#endif
	}

	configASSERT( xReturn );
 800428e:	687b      	ldr	r3, [r7, #4]
 8004290:	2b00      	cmp	r3, #0
 8004292:	d102      	bne.n	800429a <xTimerCreateTimerTask+0x42>
 8004294:	f7ff ff46 	bl	8004124 <ulPortSetInterruptMask>
 8004298:	e7fe      	b.n	8004298 <xTimerCreateTimerTask+0x40>
	return xReturn;
 800429a:	687b      	ldr	r3, [r7, #4]
}
 800429c:	4618      	mov	r0, r3
 800429e:	3708      	adds	r7, #8
 80042a0:	46bd      	mov	sp, r7
 80042a2:	bd80      	pop	{r7, pc}
 80042a4:	200005cc 	.word	0x200005cc
 80042a8:	080043ad 	.word	0x080043ad
 80042ac:	080079ac 	.word	0x080079ac

080042b0 <xTimerGenericCommand>:
	return ( xTimerHandle ) pxNewTimer;
}
/*-----------------------------------------------------------*/

portBASE_TYPE xTimerGenericCommand( xTimerHandle xTimer, portBASE_TYPE xCommandID, portTickType xOptionalValue, signed portBASE_TYPE *pxHigherPriorityTaskWoken, portTickType xBlockTime )
{
 80042b0:	b580      	push	{r7, lr}
 80042b2:	b088      	sub	sp, #32
 80042b4:	af00      	add	r7, sp, #0
 80042b6:	60f8      	str	r0, [r7, #12]
 80042b8:	60b9      	str	r1, [r7, #8]
 80042ba:	607a      	str	r2, [r7, #4]
 80042bc:	603b      	str	r3, [r7, #0]
portBASE_TYPE xReturn = pdFAIL;
 80042be:	2300      	movs	r3, #0
 80042c0:	61fb      	str	r3, [r7, #28]
xTIMER_MESSAGE xMessage;

	/* Send a message to the timer service task to perform a particular action
	on a particular timer definition. */
	if( xTimerQueue != NULL )
 80042c2:	4b1d      	ldr	r3, [pc, #116]	; (8004338 <xTimerGenericCommand+0x88>)
 80042c4:	681b      	ldr	r3, [r3, #0]
 80042c6:	2b00      	cmp	r3, #0
 80042c8:	d030      	beq.n	800432c <xTimerGenericCommand+0x7c>
	{
		/* Send a command to the timer service task to start the xTimer timer. */
		xMessage.xMessageID = xCommandID;
 80042ca:	68bb      	ldr	r3, [r7, #8]
 80042cc:	613b      	str	r3, [r7, #16]
		xMessage.xMessageValue = xOptionalValue;
 80042ce:	687b      	ldr	r3, [r7, #4]
 80042d0:	617b      	str	r3, [r7, #20]
		xMessage.pxTimer = ( xTIMER * ) xTimer;
 80042d2:	68fb      	ldr	r3, [r7, #12]
 80042d4:	61bb      	str	r3, [r7, #24]

		if( pxHigherPriorityTaskWoken == NULL )
 80042d6:	683b      	ldr	r3, [r7, #0]
 80042d8:	2b00      	cmp	r3, #0
 80042da:	d11c      	bne.n	8004316 <xTimerGenericCommand+0x66>
		{
			if( xTaskGetSchedulerState() == taskSCHEDULER_RUNNING )
 80042dc:	f7ff f912 	bl	8003504 <xTaskGetSchedulerState>
 80042e0:	4603      	mov	r3, r0
 80042e2:	2b01      	cmp	r3, #1
 80042e4:	d10b      	bne.n	80042fe <xTimerGenericCommand+0x4e>
			{
				xReturn = xQueueSendToBack( xTimerQueue, &xMessage, xBlockTime );
 80042e6:	4b14      	ldr	r3, [pc, #80]	; (8004338 <xTimerGenericCommand+0x88>)
 80042e8:	681a      	ldr	r2, [r3, #0]
 80042ea:	f107 0310 	add.w	r3, r7, #16
 80042ee:	4610      	mov	r0, r2
 80042f0:	4619      	mov	r1, r3
 80042f2:	6aba      	ldr	r2, [r7, #40]	; 0x28
 80042f4:	2300      	movs	r3, #0
 80042f6:	f7ff fa55 	bl	80037a4 <xQueueGenericSend>
 80042fa:	61f8      	str	r0, [r7, #28]
 80042fc:	e016      	b.n	800432c <xTimerGenericCommand+0x7c>
			}
			else
			{
				xReturn = xQueueSendToBack( xTimerQueue, &xMessage, tmrNO_DELAY );
 80042fe:	4b0e      	ldr	r3, [pc, #56]	; (8004338 <xTimerGenericCommand+0x88>)
 8004300:	681a      	ldr	r2, [r3, #0]
 8004302:	f107 0310 	add.w	r3, r7, #16
 8004306:	4610      	mov	r0, r2
 8004308:	4619      	mov	r1, r3
 800430a:	2200      	movs	r2, #0
 800430c:	2300      	movs	r3, #0
 800430e:	f7ff fa49 	bl	80037a4 <xQueueGenericSend>
 8004312:	61f8      	str	r0, [r7, #28]
 8004314:	e00a      	b.n	800432c <xTimerGenericCommand+0x7c>
			}
		}
		else
		{
			xReturn = xQueueSendToBackFromISR( xTimerQueue, &xMessage, pxHigherPriorityTaskWoken );
 8004316:	4b08      	ldr	r3, [pc, #32]	; (8004338 <xTimerGenericCommand+0x88>)
 8004318:	681a      	ldr	r2, [r3, #0]
 800431a:	f107 0310 	add.w	r3, r7, #16
 800431e:	4610      	mov	r0, r2
 8004320:	4619      	mov	r1, r3
 8004322:	683a      	ldr	r2, [r7, #0]
 8004324:	2300      	movs	r3, #0
 8004326:	f7ff faed 	bl	8003904 <xQueueGenericSendFromISR>
 800432a:	61f8      	str	r0, [r7, #28]
		}

		traceTIMER_COMMAND_SEND( xTimer, xCommandID, xOptionalValue, xReturn );
	}

	return xReturn;
 800432c:	69fb      	ldr	r3, [r7, #28]
}
 800432e:	4618      	mov	r0, r3
 8004330:	3720      	adds	r7, #32
 8004332:	46bd      	mov	sp, r7
 8004334:	bd80      	pop	{r7, pc}
 8004336:	bf00      	nop
 8004338:	200005cc 	.word	0x200005cc

0800433c <prvProcessExpiredTimer>:

#endif
/*-----------------------------------------------------------*/

static void prvProcessExpiredTimer( portTickType xNextExpireTime, portTickType xTimeNow )
{
 800433c:	b580      	push	{r7, lr}
 800433e:	b086      	sub	sp, #24
 8004340:	af02      	add	r7, sp, #8
 8004342:	6078      	str	r0, [r7, #4]
 8004344:	6039      	str	r1, [r7, #0]
xTIMER *pxTimer;
portBASE_TYPE xResult;

	/* Remove the timer from the list of active timers.  A check has already
	been performed to ensure the list is not empty. */
	pxTimer = ( xTIMER * ) listGET_OWNER_OF_HEAD_ENTRY( pxCurrentTimerList );
 8004346:	4b18      	ldr	r3, [pc, #96]	; (80043a8 <prvProcessExpiredTimer+0x6c>)
 8004348:	681b      	ldr	r3, [r3, #0]
 800434a:	68db      	ldr	r3, [r3, #12]
 800434c:	68db      	ldr	r3, [r3, #12]
 800434e:	60fb      	str	r3, [r7, #12]
	( void ) uxListRemove( &( pxTimer->xTimerListItem ) );
 8004350:	68fb      	ldr	r3, [r7, #12]
 8004352:	3304      	adds	r3, #4
 8004354:	4618      	mov	r0, r3
 8004356:	f7ff fdc9 	bl	8003eec <uxListRemove>
	traceTIMER_EXPIRED( pxTimer );

	/* If the timer is an auto reload timer then calculate the next
	expiry time and re-insert the timer in the list of active timers. */
	if( pxTimer->uxAutoReload == ( unsigned portBASE_TYPE ) pdTRUE )
 800435a:	68fb      	ldr	r3, [r7, #12]
 800435c:	69db      	ldr	r3, [r3, #28]
 800435e:	2b01      	cmp	r3, #1
 8004360:	d11b      	bne.n	800439a <prvProcessExpiredTimer+0x5e>
		a time relative to anything other than the current time.  It
		will therefore be inserted into the correct list relative to
		the time this task thinks it is now, even if a command to
		switch lists due to a tick count overflow is already waiting in
		the timer queue. */
		if( prvInsertTimerInActiveList( pxTimer, ( xNextExpireTime + pxTimer->xTimerPeriodInTicks ), xTimeNow, xNextExpireTime ) == pdTRUE )
 8004362:	68fb      	ldr	r3, [r7, #12]
 8004364:	699a      	ldr	r2, [r3, #24]
 8004366:	687b      	ldr	r3, [r7, #4]
 8004368:	4413      	add	r3, r2
 800436a:	68f8      	ldr	r0, [r7, #12]
 800436c:	4619      	mov	r1, r3
 800436e:	683a      	ldr	r2, [r7, #0]
 8004370:	687b      	ldr	r3, [r7, #4]
 8004372:	f000 f8a9 	bl	80044c8 <prvInsertTimerInActiveList>
 8004376:	4603      	mov	r3, r0
 8004378:	2b01      	cmp	r3, #1
 800437a:	d10e      	bne.n	800439a <prvProcessExpiredTimer+0x5e>
		{
			/* The timer expired before it was added to the active timer
			list.  Reload it now.  */
			xResult = xTimerGenericCommand( pxTimer, tmrCOMMAND_START, xNextExpireTime, NULL, tmrNO_DELAY );
 800437c:	2300      	movs	r3, #0
 800437e:	9300      	str	r3, [sp, #0]
 8004380:	68f8      	ldr	r0, [r7, #12]
 8004382:	2100      	movs	r1, #0
 8004384:	687a      	ldr	r2, [r7, #4]
 8004386:	2300      	movs	r3, #0
 8004388:	f7ff ff92 	bl	80042b0 <xTimerGenericCommand>
 800438c:	60b8      	str	r0, [r7, #8]
			configASSERT( xResult );
 800438e:	68bb      	ldr	r3, [r7, #8]
 8004390:	2b00      	cmp	r3, #0
 8004392:	d102      	bne.n	800439a <prvProcessExpiredTimer+0x5e>
 8004394:	f7ff fec6 	bl	8004124 <ulPortSetInterruptMask>
 8004398:	e7fe      	b.n	8004398 <prvProcessExpiredTimer+0x5c>
			( void ) xResult;
		}
	}

	/* Call the timer callback. */
	pxTimer->pxCallbackFunction( ( xTimerHandle ) pxTimer );
 800439a:	68fb      	ldr	r3, [r7, #12]
 800439c:	6a5b      	ldr	r3, [r3, #36]	; 0x24
 800439e:	68f8      	ldr	r0, [r7, #12]
 80043a0:	4798      	blx	r3
}
 80043a2:	3710      	adds	r7, #16
 80043a4:	46bd      	mov	sp, r7
 80043a6:	bd80      	pop	{r7, pc}
 80043a8:	200005c4 	.word	0x200005c4

080043ac <prvTimerTask>:
/*-----------------------------------------------------------*/

static void prvTimerTask( void *pvParameters )
{
 80043ac:	b580      	push	{r7, lr}
 80043ae:	b084      	sub	sp, #16
 80043b0:	af00      	add	r7, sp, #0
 80043b2:	6078      	str	r0, [r7, #4]

	for( ;; )
	{
		/* Query the timers list to see if it contains any timers, and if so,
		obtain the time at which the next timer will expire. */
		xNextExpireTime = prvGetNextExpireTime( &xListWasEmpty );
 80043b4:	f107 0308 	add.w	r3, r7, #8
 80043b8:	4618      	mov	r0, r3
 80043ba:	f000 f83f 	bl	800443c <prvGetNextExpireTime>
 80043be:	60f8      	str	r0, [r7, #12]

		/* If a timer has expired, process it.  Otherwise, block this task
		until either a timer does expire, or a command is received. */
		prvProcessTimerOrBlockTask( xNextExpireTime, xListWasEmpty );
 80043c0:	68bb      	ldr	r3, [r7, #8]
 80043c2:	68f8      	ldr	r0, [r7, #12]
 80043c4:	4619      	mov	r1, r3
 80043c6:	f000 f803 	bl	80043d0 <prvProcessTimerOrBlockTask>

		/* Empty the command queue. */
		prvProcessReceivedCommands();
 80043ca:	f000 f8bf 	bl	800454c <prvProcessReceivedCommands>
	}
 80043ce:	e7f1      	b.n	80043b4 <prvTimerTask+0x8>

080043d0 <prvProcessTimerOrBlockTask>:
}
/*-----------------------------------------------------------*/

static void prvProcessTimerOrBlockTask( portTickType xNextExpireTime, portBASE_TYPE xListWasEmpty )
{
 80043d0:	b580      	push	{r7, lr}
 80043d2:	b084      	sub	sp, #16
 80043d4:	af00      	add	r7, sp, #0
 80043d6:	6078      	str	r0, [r7, #4]
 80043d8:	6039      	str	r1, [r7, #0]
portTickType xTimeNow;
portBASE_TYPE xTimerListsWereSwitched;

	vTaskSuspendAll();
 80043da:	f7fe fc13 	bl	8002c04 <vTaskSuspendAll>
		/* Obtain the time now to make an assessment as to whether the timer
		has expired or not.  If obtaining the time causes the lists to switch
		then don't process this timer as any timers that remained in the list
		when the lists were switched will have been processed within the
		prvSampelTimeNow() function. */
		xTimeNow = prvSampleTimeNow( &xTimerListsWereSwitched );
 80043de:	f107 0308 	add.w	r3, r7, #8
 80043e2:	4618      	mov	r0, r3
 80043e4:	f000 f84e 	bl	8004484 <prvSampleTimeNow>
 80043e8:	60f8      	str	r0, [r7, #12]
		if( xTimerListsWereSwitched == pdFALSE )
 80043ea:	68bb      	ldr	r3, [r7, #8]
 80043ec:	2b00      	cmp	r3, #0
 80043ee:	d11e      	bne.n	800442e <prvProcessTimerOrBlockTask+0x5e>
		{
			/* The tick count has not overflowed, has the timer expired? */
			if( ( xListWasEmpty == pdFALSE ) && ( xNextExpireTime <= xTimeNow ) )
 80043f0:	683b      	ldr	r3, [r7, #0]
 80043f2:	2b00      	cmp	r3, #0
 80043f4:	d10a      	bne.n	800440c <prvProcessTimerOrBlockTask+0x3c>
 80043f6:	687a      	ldr	r2, [r7, #4]
 80043f8:	68fb      	ldr	r3, [r7, #12]
 80043fa:	429a      	cmp	r2, r3
 80043fc:	d806      	bhi.n	800440c <prvProcessTimerOrBlockTask+0x3c>
			{
				( void ) xTaskResumeAll();
 80043fe:	f7fe fc0f 	bl	8002c20 <xTaskResumeAll>
				prvProcessExpiredTimer( xNextExpireTime, xTimeNow );
 8004402:	6878      	ldr	r0, [r7, #4]
 8004404:	68f9      	ldr	r1, [r7, #12]
 8004406:	f7ff ff99 	bl	800433c <prvProcessExpiredTimer>
 800440a:	e012      	b.n	8004432 <prvProcessTimerOrBlockTask+0x62>
				time has not been reached yet.  This task should therefore
				block to wait for the next expire time or a command to be
				received - whichever comes first.  The following line cannot
				be reached unless xNextExpireTime > xTimeNow, except in the
				case when the current timer list is empty. */
				vQueueWaitForMessageRestricted( xTimerQueue, ( xNextExpireTime - xTimeNow ) );
 800440c:	4b0a      	ldr	r3, [pc, #40]	; (8004438 <prvProcessTimerOrBlockTask+0x68>)
 800440e:	681a      	ldr	r2, [r3, #0]
 8004410:	6879      	ldr	r1, [r7, #4]
 8004412:	68fb      	ldr	r3, [r7, #12]
 8004414:	1acb      	subs	r3, r1, r3
 8004416:	4610      	mov	r0, r2
 8004418:	4619      	mov	r1, r3
 800441a:	f7ff fcb3 	bl	8003d84 <vQueueWaitForMessageRestricted>

				if( xTaskResumeAll() == pdFALSE )
 800441e:	f7fe fbff 	bl	8002c20 <xTaskResumeAll>
 8004422:	4603      	mov	r3, r0
 8004424:	2b00      	cmp	r3, #0
 8004426:	d104      	bne.n	8004432 <prvProcessTimerOrBlockTask+0x62>
				{
					/* Yield to wait for either a command to arrive, or the block time
					to expire.  If a command arrived between the critical section being
					exited and this yield then the yield will not cause the task
					to block. */
					portYIELD_WITHIN_API();
 8004428:	f7ff fe4a 	bl	80040c0 <vPortYield>
 800442c:	e001      	b.n	8004432 <prvProcessTimerOrBlockTask+0x62>
				}
			}
		}
		else
		{
			( void ) xTaskResumeAll();
 800442e:	f7fe fbf7 	bl	8002c20 <xTaskResumeAll>
		}
	}
}
 8004432:	3710      	adds	r7, #16
 8004434:	46bd      	mov	sp, r7
 8004436:	bd80      	pop	{r7, pc}
 8004438:	200005cc 	.word	0x200005cc

0800443c <prvGetNextExpireTime>:
/*-----------------------------------------------------------*/

static portTickType prvGetNextExpireTime( portBASE_TYPE *pxListWasEmpty )
{
 800443c:	b480      	push	{r7}
 800443e:	b085      	sub	sp, #20
 8004440:	af00      	add	r7, sp, #0
 8004442:	6078      	str	r0, [r7, #4]
	the timer with the nearest expiry time will expire.  If there are no
	active timers then just set the next expire time to 0.  That will cause
	this task to unblock when the tick count overflows, at which point the
	timer lists will be switched and the next expiry time can be
	re-assessed.  */
	*pxListWasEmpty = listLIST_IS_EMPTY( pxCurrentTimerList );
 8004444:	4b0e      	ldr	r3, [pc, #56]	; (8004480 <prvGetNextExpireTime+0x44>)
 8004446:	681b      	ldr	r3, [r3, #0]
 8004448:	681b      	ldr	r3, [r3, #0]
 800444a:	2b00      	cmp	r3, #0
 800444c:	bf14      	ite	ne
 800444e:	2300      	movne	r3, #0
 8004450:	2301      	moveq	r3, #1
 8004452:	b2db      	uxtb	r3, r3
 8004454:	461a      	mov	r2, r3
 8004456:	687b      	ldr	r3, [r7, #4]
 8004458:	601a      	str	r2, [r3, #0]
	if( *pxListWasEmpty == pdFALSE )
 800445a:	687b      	ldr	r3, [r7, #4]
 800445c:	681b      	ldr	r3, [r3, #0]
 800445e:	2b00      	cmp	r3, #0
 8004460:	d105      	bne.n	800446e <prvGetNextExpireTime+0x32>
	{
		xNextExpireTime = listGET_ITEM_VALUE_OF_HEAD_ENTRY( pxCurrentTimerList );
 8004462:	4b07      	ldr	r3, [pc, #28]	; (8004480 <prvGetNextExpireTime+0x44>)
 8004464:	681b      	ldr	r3, [r3, #0]
 8004466:	68db      	ldr	r3, [r3, #12]
 8004468:	681b      	ldr	r3, [r3, #0]
 800446a:	60fb      	str	r3, [r7, #12]
 800446c:	e001      	b.n	8004472 <prvGetNextExpireTime+0x36>
	}
	else
	{
		/* Ensure the task unblocks when the tick count rolls over. */
		xNextExpireTime = ( portTickType ) 0U;
 800446e:	2300      	movs	r3, #0
 8004470:	60fb      	str	r3, [r7, #12]
	}

	return xNextExpireTime;
 8004472:	68fb      	ldr	r3, [r7, #12]
}
 8004474:	4618      	mov	r0, r3
 8004476:	3714      	adds	r7, #20
 8004478:	46bd      	mov	sp, r7
 800447a:	f85d 7b04 	ldr.w	r7, [sp], #4
 800447e:	4770      	bx	lr
 8004480:	200005c4 	.word	0x200005c4

08004484 <prvSampleTimeNow>:
/*-----------------------------------------------------------*/

static portTickType prvSampleTimeNow( portBASE_TYPE *pxTimerListsWereSwitched )
{
 8004484:	b580      	push	{r7, lr}
 8004486:	b084      	sub	sp, #16
 8004488:	af00      	add	r7, sp, #0
 800448a:	6078      	str	r0, [r7, #4]
portTickType xTimeNow;
PRIVILEGED_DATA static portTickType xLastTime = ( portTickType ) 0U; /*lint !e956 Variable is only accessible to one task. */

	xTimeNow = xTaskGetTickCount();
 800448c:	f7fe fc4e 	bl	8002d2c <xTaskGetTickCount>
 8004490:	60f8      	str	r0, [r7, #12]

	if( xTimeNow < xLastTime )
 8004492:	4b0c      	ldr	r3, [pc, #48]	; (80044c4 <prvSampleTimeNow+0x40>)
 8004494:	681b      	ldr	r3, [r3, #0]
 8004496:	68fa      	ldr	r2, [r7, #12]
 8004498:	429a      	cmp	r2, r3
 800449a:	d208      	bcs.n	80044ae <prvSampleTimeNow+0x2a>
	{
		prvSwitchTimerLists( xLastTime );
 800449c:	4b09      	ldr	r3, [pc, #36]	; (80044c4 <prvSampleTimeNow+0x40>)
 800449e:	681b      	ldr	r3, [r3, #0]
 80044a0:	4618      	mov	r0, r3
 80044a2:	f000 f8cb 	bl	800463c <prvSwitchTimerLists>
		*pxTimerListsWereSwitched = pdTRUE;
 80044a6:	687b      	ldr	r3, [r7, #4]
 80044a8:	2201      	movs	r2, #1
 80044aa:	601a      	str	r2, [r3, #0]
 80044ac:	e002      	b.n	80044b4 <prvSampleTimeNow+0x30>
	}
	else
	{
		*pxTimerListsWereSwitched = pdFALSE;
 80044ae:	687b      	ldr	r3, [r7, #4]
 80044b0:	2200      	movs	r2, #0
 80044b2:	601a      	str	r2, [r3, #0]
	}

	xLastTime = xTimeNow;
 80044b4:	4b03      	ldr	r3, [pc, #12]	; (80044c4 <prvSampleTimeNow+0x40>)
 80044b6:	68fa      	ldr	r2, [r7, #12]
 80044b8:	601a      	str	r2, [r3, #0]

	return xTimeNow;
 80044ba:	68fb      	ldr	r3, [r7, #12]
}
 80044bc:	4618      	mov	r0, r3
 80044be:	3710      	adds	r7, #16
 80044c0:	46bd      	mov	sp, r7
 80044c2:	bd80      	pop	{r7, pc}
 80044c4:	200005d0 	.word	0x200005d0

080044c8 <prvInsertTimerInActiveList>:
/*-----------------------------------------------------------*/

static portBASE_TYPE prvInsertTimerInActiveList( xTIMER *pxTimer, portTickType xNextExpiryTime, portTickType xTimeNow, portTickType xCommandTime )
{
 80044c8:	b580      	push	{r7, lr}
 80044ca:	b086      	sub	sp, #24
 80044cc:	af00      	add	r7, sp, #0
 80044ce:	60f8      	str	r0, [r7, #12]
 80044d0:	60b9      	str	r1, [r7, #8]
 80044d2:	607a      	str	r2, [r7, #4]
 80044d4:	603b      	str	r3, [r7, #0]
portBASE_TYPE xProcessTimerNow = pdFALSE;
 80044d6:	2300      	movs	r3, #0
 80044d8:	617b      	str	r3, [r7, #20]

	listSET_LIST_ITEM_VALUE( &( pxTimer->xTimerListItem ), xNextExpiryTime );
 80044da:	68fb      	ldr	r3, [r7, #12]
 80044dc:	68ba      	ldr	r2, [r7, #8]
 80044de:	605a      	str	r2, [r3, #4]
	listSET_LIST_ITEM_OWNER( &( pxTimer->xTimerListItem ), pxTimer );
 80044e0:	68fb      	ldr	r3, [r7, #12]
 80044e2:	68fa      	ldr	r2, [r7, #12]
 80044e4:	611a      	str	r2, [r3, #16]

	if( xNextExpiryTime <= xTimeNow )
 80044e6:	68ba      	ldr	r2, [r7, #8]
 80044e8:	687b      	ldr	r3, [r7, #4]
 80044ea:	429a      	cmp	r2, r3
 80044ec:	d812      	bhi.n	8004514 <prvInsertTimerInActiveList+0x4c>
	{
		/* Has the expiry time elapsed between the command to start/reset a
		timer was issued, and the time the command was processed? */
		if( ( xTimeNow - xCommandTime ) >= pxTimer->xTimerPeriodInTicks )
 80044ee:	687a      	ldr	r2, [r7, #4]
 80044f0:	683b      	ldr	r3, [r7, #0]
 80044f2:	1ad2      	subs	r2, r2, r3
 80044f4:	68fb      	ldr	r3, [r7, #12]
 80044f6:	699b      	ldr	r3, [r3, #24]
 80044f8:	429a      	cmp	r2, r3
 80044fa:	d302      	bcc.n	8004502 <prvInsertTimerInActiveList+0x3a>
		{
			/* The time between a command being issued and the command being
			processed actually exceeds the timers period.  */
			xProcessTimerNow = pdTRUE;
 80044fc:	2301      	movs	r3, #1
 80044fe:	617b      	str	r3, [r7, #20]
 8004500:	e01b      	b.n	800453a <prvInsertTimerInActiveList+0x72>
		}
		else
		{
			vListInsert( pxOverflowTimerList, &( pxTimer->xTimerListItem ) );
 8004502:	4b10      	ldr	r3, [pc, #64]	; (8004544 <prvInsertTimerInActiveList+0x7c>)
 8004504:	681a      	ldr	r2, [r3, #0]
 8004506:	68fb      	ldr	r3, [r7, #12]
 8004508:	3304      	adds	r3, #4
 800450a:	4610      	mov	r0, r2
 800450c:	4619      	mov	r1, r3
 800450e:	f7ff fcb5 	bl	8003e7c <vListInsert>
 8004512:	e012      	b.n	800453a <prvInsertTimerInActiveList+0x72>
		}
	}
	else
	{
		if( ( xTimeNow < xCommandTime ) && ( xNextExpiryTime >= xCommandTime ) )
 8004514:	687a      	ldr	r2, [r7, #4]
 8004516:	683b      	ldr	r3, [r7, #0]
 8004518:	429a      	cmp	r2, r3
 800451a:	d206      	bcs.n	800452a <prvInsertTimerInActiveList+0x62>
 800451c:	68ba      	ldr	r2, [r7, #8]
 800451e:	683b      	ldr	r3, [r7, #0]
 8004520:	429a      	cmp	r2, r3
 8004522:	d302      	bcc.n	800452a <prvInsertTimerInActiveList+0x62>
		{
			/* If, since the command was issued, the tick count has overflowed
			but the expiry time has not, then the timer must have already passed
			its expiry time and should be processed immediately. */
			xProcessTimerNow = pdTRUE;
 8004524:	2301      	movs	r3, #1
 8004526:	617b      	str	r3, [r7, #20]
 8004528:	e007      	b.n	800453a <prvInsertTimerInActiveList+0x72>
		}
		else
		{
			vListInsert( pxCurrentTimerList, &( pxTimer->xTimerListItem ) );
 800452a:	4b07      	ldr	r3, [pc, #28]	; (8004548 <prvInsertTimerInActiveList+0x80>)
 800452c:	681a      	ldr	r2, [r3, #0]
 800452e:	68fb      	ldr	r3, [r7, #12]
 8004530:	3304      	adds	r3, #4
 8004532:	4610      	mov	r0, r2
 8004534:	4619      	mov	r1, r3
 8004536:	f7ff fca1 	bl	8003e7c <vListInsert>
		}
	}

	return xProcessTimerNow;
 800453a:	697b      	ldr	r3, [r7, #20]
}
 800453c:	4618      	mov	r0, r3
 800453e:	3718      	adds	r7, #24
 8004540:	46bd      	mov	sp, r7
 8004542:	bd80      	pop	{r7, pc}
 8004544:	200005c8 	.word	0x200005c8
 8004548:	200005c4 	.word	0x200005c4

0800454c <prvProcessReceivedCommands>:
/*-----------------------------------------------------------*/

static void	prvProcessReceivedCommands( void )
{
 800454c:	b580      	push	{r7, lr}
 800454e:	b08a      	sub	sp, #40	; 0x28
 8004550:	af02      	add	r7, sp, #8
xTIMER_MESSAGE xMessage;
xTIMER *pxTimer;
portBASE_TYPE xTimerListsWereSwitched, xResult;
portTickType xTimeNow;

	while( xQueueReceive( xTimerQueue, &xMessage, tmrNO_DELAY ) != pdFAIL ) /*lint !e603 xMessage does not have to be initialised as it is passed out, not in, and it is not used unless xQueueReceive() returns pdTRUE. */
 8004552:	e060      	b.n	8004616 <prvProcessReceivedCommands+0xca>
	{
		pxTimer = xMessage.pxTimer;
 8004554:	693b      	ldr	r3, [r7, #16]
 8004556:	61fb      	str	r3, [r7, #28]

		if( listIS_CONTAINED_WITHIN( NULL, &( pxTimer->xTimerListItem ) ) == pdFALSE )
 8004558:	69fb      	ldr	r3, [r7, #28]
 800455a:	695b      	ldr	r3, [r3, #20]
 800455c:	2b00      	cmp	r3, #0
 800455e:	d004      	beq.n	800456a <prvProcessReceivedCommands+0x1e>
		{
			/* The timer is in a list, remove it. */
			( void ) uxListRemove( &( pxTimer->xTimerListItem ) );
 8004560:	69fb      	ldr	r3, [r7, #28]
 8004562:	3304      	adds	r3, #4
 8004564:	4618      	mov	r0, r3
 8004566:	f7ff fcc1 	bl	8003eec <uxListRemove>
		it must be present in the function call.  prvSampleTimeNow() must be 
		called after the message is received from xTimerQueue so there is no 
		possibility of a higher priority task adding a message to the message
		queue with a time that is ahead of the timer daemon task (because it
		pre-empted the timer daemon task after the xTimeNow value was set). */
		xTimeNow = prvSampleTimeNow( &xTimerListsWereSwitched );
 800456a:	1d3b      	adds	r3, r7, #4
 800456c:	4618      	mov	r0, r3
 800456e:	f7ff ff89 	bl	8004484 <prvSampleTimeNow>
 8004572:	61b8      	str	r0, [r7, #24]

		switch( xMessage.xMessageID )
 8004574:	68bb      	ldr	r3, [r7, #8]
 8004576:	2b03      	cmp	r3, #3
 8004578:	d84c      	bhi.n	8004614 <prvProcessReceivedCommands+0xc8>
 800457a:	a201      	add	r2, pc, #4	; (adr r2, 8004580 <prvProcessReceivedCommands+0x34>)
 800457c:	f852 f023 	ldr.w	pc, [r2, r3, lsl #2]
 8004580:	08004591 	.word	0x08004591
 8004584:	08004615 	.word	0x08004615
 8004588:	080045e3 	.word	0x080045e3
 800458c:	0800460d 	.word	0x0800460d
		{
			case tmrCOMMAND_START :
				/* Start or restart a timer. */
				if( prvInsertTimerInActiveList( pxTimer,  xMessage.xMessageValue + pxTimer->xTimerPeriodInTicks, xTimeNow, xMessage.xMessageValue ) == pdTRUE )
 8004590:	68fa      	ldr	r2, [r7, #12]
 8004592:	69fb      	ldr	r3, [r7, #28]
 8004594:	699b      	ldr	r3, [r3, #24]
 8004596:	441a      	add	r2, r3
 8004598:	68fb      	ldr	r3, [r7, #12]
 800459a:	69f8      	ldr	r0, [r7, #28]
 800459c:	4611      	mov	r1, r2
 800459e:	69ba      	ldr	r2, [r7, #24]
 80045a0:	f7ff ff92 	bl	80044c8 <prvInsertTimerInActiveList>
 80045a4:	4603      	mov	r3, r0
 80045a6:	2b01      	cmp	r3, #1
 80045a8:	d11a      	bne.n	80045e0 <prvProcessReceivedCommands+0x94>
				{
					/* The timer expired before it was added to the active timer
					list.  Process it now. */
					pxTimer->pxCallbackFunction( ( xTimerHandle ) pxTimer );
 80045aa:	69fb      	ldr	r3, [r7, #28]
 80045ac:	6a5b      	ldr	r3, [r3, #36]	; 0x24
 80045ae:	69f8      	ldr	r0, [r7, #28]
 80045b0:	4798      	blx	r3

					if( pxTimer->uxAutoReload == ( unsigned portBASE_TYPE ) pdTRUE )
 80045b2:	69fb      	ldr	r3, [r7, #28]
 80045b4:	69db      	ldr	r3, [r3, #28]
 80045b6:	2b01      	cmp	r3, #1
 80045b8:	d112      	bne.n	80045e0 <prvProcessReceivedCommands+0x94>
					{
						xResult = xTimerGenericCommand( pxTimer, tmrCOMMAND_START, xMessage.xMessageValue + pxTimer->xTimerPeriodInTicks, NULL, tmrNO_DELAY );
 80045ba:	68fa      	ldr	r2, [r7, #12]
 80045bc:	69fb      	ldr	r3, [r7, #28]
 80045be:	699b      	ldr	r3, [r3, #24]
 80045c0:	4413      	add	r3, r2
 80045c2:	2200      	movs	r2, #0
 80045c4:	9200      	str	r2, [sp, #0]
 80045c6:	69f8      	ldr	r0, [r7, #28]
 80045c8:	2100      	movs	r1, #0
 80045ca:	461a      	mov	r2, r3
 80045cc:	2300      	movs	r3, #0
 80045ce:	f7ff fe6f 	bl	80042b0 <xTimerGenericCommand>
 80045d2:	6178      	str	r0, [r7, #20]
						configASSERT( xResult );
 80045d4:	697b      	ldr	r3, [r7, #20]
 80045d6:	2b00      	cmp	r3, #0
 80045d8:	d102      	bne.n	80045e0 <prvProcessReceivedCommands+0x94>
 80045da:	f7ff fda3 	bl	8004124 <ulPortSetInterruptMask>
 80045de:	e7fe      	b.n	80045de <prvProcessReceivedCommands+0x92>
						( void ) xResult;
					}
				}
				break;
 80045e0:	e019      	b.n	8004616 <prvProcessReceivedCommands+0xca>
				/* The timer has already been removed from the active list.
				There is nothing to do here. */
				break;

			case tmrCOMMAND_CHANGE_PERIOD :
				pxTimer->xTimerPeriodInTicks = xMessage.xMessageValue;
 80045e2:	68fa      	ldr	r2, [r7, #12]
 80045e4:	69fb      	ldr	r3, [r7, #28]
 80045e6:	619a      	str	r2, [r3, #24]
				configASSERT( ( pxTimer->xTimerPeriodInTicks > 0 ) );
 80045e8:	69fb      	ldr	r3, [r7, #28]
 80045ea:	699b      	ldr	r3, [r3, #24]
 80045ec:	2b00      	cmp	r3, #0
 80045ee:	d102      	bne.n	80045f6 <prvProcessReceivedCommands+0xaa>
 80045f0:	f7ff fd98 	bl	8004124 <ulPortSetInterruptMask>
 80045f4:	e7fe      	b.n	80045f4 <prvProcessReceivedCommands+0xa8>
				longer or shorter than the old one.  The command time is 
				therefore set to the current time, and as the period cannot be
				zero the next expiry time can only be in the future, meaning
				(unlike for the xTimerStart() case above) there is no fail case
				that needs to be handled here. */
				( void ) prvInsertTimerInActiveList( pxTimer, ( xTimeNow + pxTimer->xTimerPeriodInTicks ), xTimeNow, xTimeNow );
 80045f6:	69fb      	ldr	r3, [r7, #28]
 80045f8:	699a      	ldr	r2, [r3, #24]
 80045fa:	69bb      	ldr	r3, [r7, #24]
 80045fc:	4413      	add	r3, r2
 80045fe:	69f8      	ldr	r0, [r7, #28]
 8004600:	4619      	mov	r1, r3
 8004602:	69ba      	ldr	r2, [r7, #24]
 8004604:	69bb      	ldr	r3, [r7, #24]
 8004606:	f7ff ff5f 	bl	80044c8 <prvInsertTimerInActiveList>
				break;
 800460a:	e004      	b.n	8004616 <prvProcessReceivedCommands+0xca>

			case tmrCOMMAND_DELETE :
				/* The timer has already been removed from the active list,
				just free up the memory. */
				vPortFree( pxTimer );
 800460c:	69f8      	ldr	r0, [r7, #28]
 800460e:	f000 fa97 	bl	8004b40 <vPortFree>
				break;
 8004612:	e000      	b.n	8004616 <prvProcessReceivedCommands+0xca>

			default	:
				/* Don't expect to get here. */
				break;
 8004614:	bf00      	nop
xTIMER_MESSAGE xMessage;
xTIMER *pxTimer;
portBASE_TYPE xTimerListsWereSwitched, xResult;
portTickType xTimeNow;

	while( xQueueReceive( xTimerQueue, &xMessage, tmrNO_DELAY ) != pdFAIL ) /*lint !e603 xMessage does not have to be initialised as it is passed out, not in, and it is not used unless xQueueReceive() returns pdTRUE. */
 8004616:	4b08      	ldr	r3, [pc, #32]	; (8004638 <prvProcessReceivedCommands+0xec>)
 8004618:	681a      	ldr	r2, [r3, #0]
 800461a:	f107 0308 	add.w	r3, r7, #8
 800461e:	4610      	mov	r0, r2
 8004620:	4619      	mov	r1, r3
 8004622:	2200      	movs	r2, #0
 8004624:	2300      	movs	r3, #0
 8004626:	f7ff f9d7 	bl	80039d8 <xQueueGenericReceive>
 800462a:	4603      	mov	r3, r0
 800462c:	2b00      	cmp	r3, #0
 800462e:	d191      	bne.n	8004554 <prvProcessReceivedCommands+0x8>
			default	:
				/* Don't expect to get here. */
				break;
		}
	}
}
 8004630:	3720      	adds	r7, #32
 8004632:	46bd      	mov	sp, r7
 8004634:	bd80      	pop	{r7, pc}
 8004636:	bf00      	nop
 8004638:	200005cc 	.word	0x200005cc

0800463c <prvSwitchTimerLists>:
/*-----------------------------------------------------------*/

static void prvSwitchTimerLists( portTickType xLastTime )
{
 800463c:	b580      	push	{r7, lr}
 800463e:	b08a      	sub	sp, #40	; 0x28
 8004640:	af02      	add	r7, sp, #8
 8004642:	6078      	str	r0, [r7, #4]

	/* The tick count has overflowed.  The timer lists must be switched.
	If there are any timers still referenced from the current timer list
	then they must have expired and should be processed before the lists
	are switched. */
	while( listLIST_IS_EMPTY( pxCurrentTimerList ) == pdFALSE )
 8004644:	e03d      	b.n	80046c2 <prvSwitchTimerLists+0x86>
	{
		xNextExpireTime = listGET_ITEM_VALUE_OF_HEAD_ENTRY( pxCurrentTimerList );
 8004646:	4b28      	ldr	r3, [pc, #160]	; (80046e8 <prvSwitchTimerLists+0xac>)
 8004648:	681b      	ldr	r3, [r3, #0]
 800464a:	68db      	ldr	r3, [r3, #12]
 800464c:	681b      	ldr	r3, [r3, #0]
 800464e:	61fb      	str	r3, [r7, #28]

		/* Remove the timer from the list. */
		pxTimer = ( xTIMER * ) listGET_OWNER_OF_HEAD_ENTRY( pxCurrentTimerList );
 8004650:	4b25      	ldr	r3, [pc, #148]	; (80046e8 <prvSwitchTimerLists+0xac>)
 8004652:	681b      	ldr	r3, [r3, #0]
 8004654:	68db      	ldr	r3, [r3, #12]
 8004656:	68db      	ldr	r3, [r3, #12]
 8004658:	61bb      	str	r3, [r7, #24]
		( void ) uxListRemove( &( pxTimer->xTimerListItem ) );
 800465a:	69bb      	ldr	r3, [r7, #24]
 800465c:	3304      	adds	r3, #4
 800465e:	4618      	mov	r0, r3
 8004660:	f7ff fc44 	bl	8003eec <uxListRemove>

		/* Execute its callback, then send a command to restart the timer if
		it is an auto-reload timer.  It cannot be restarted here as the lists
		have not yet been switched. */
		pxTimer->pxCallbackFunction( ( xTimerHandle ) pxTimer );
 8004664:	69bb      	ldr	r3, [r7, #24]
 8004666:	6a5b      	ldr	r3, [r3, #36]	; 0x24
 8004668:	69b8      	ldr	r0, [r7, #24]
 800466a:	4798      	blx	r3

		if( pxTimer->uxAutoReload == ( unsigned portBASE_TYPE ) pdTRUE )
 800466c:	69bb      	ldr	r3, [r7, #24]
 800466e:	69db      	ldr	r3, [r3, #28]
 8004670:	2b01      	cmp	r3, #1
 8004672:	d126      	bne.n	80046c2 <prvSwitchTimerLists+0x86>
			the timer going into the same timer list then it has already expired
			and the timer should be re-inserted into the current list so it is
			processed again within this loop.  Otherwise a command should be sent
			to restart the timer to ensure it is only inserted into a list after
			the lists have been swapped. */
			xReloadTime = ( xNextExpireTime + pxTimer->xTimerPeriodInTicks );
 8004674:	69bb      	ldr	r3, [r7, #24]
 8004676:	699a      	ldr	r2, [r3, #24]
 8004678:	69fb      	ldr	r3, [r7, #28]
 800467a:	4413      	add	r3, r2
 800467c:	617b      	str	r3, [r7, #20]
			if( xReloadTime > xNextExpireTime )
 800467e:	697a      	ldr	r2, [r7, #20]
 8004680:	69fb      	ldr	r3, [r7, #28]
 8004682:	429a      	cmp	r2, r3
 8004684:	d90e      	bls.n	80046a4 <prvSwitchTimerLists+0x68>
			{
				listSET_LIST_ITEM_VALUE( &( pxTimer->xTimerListItem ), xReloadTime );
 8004686:	69bb      	ldr	r3, [r7, #24]
 8004688:	697a      	ldr	r2, [r7, #20]
 800468a:	605a      	str	r2, [r3, #4]
				listSET_LIST_ITEM_OWNER( &( pxTimer->xTimerListItem ), pxTimer );
 800468c:	69bb      	ldr	r3, [r7, #24]
 800468e:	69ba      	ldr	r2, [r7, #24]
 8004690:	611a      	str	r2, [r3, #16]
				vListInsert( pxCurrentTimerList, &( pxTimer->xTimerListItem ) );
 8004692:	4b15      	ldr	r3, [pc, #84]	; (80046e8 <prvSwitchTimerLists+0xac>)
 8004694:	681a      	ldr	r2, [r3, #0]
 8004696:	69bb      	ldr	r3, [r7, #24]
 8004698:	3304      	adds	r3, #4
 800469a:	4610      	mov	r0, r2
 800469c:	4619      	mov	r1, r3
 800469e:	f7ff fbed 	bl	8003e7c <vListInsert>
 80046a2:	e00e      	b.n	80046c2 <prvSwitchTimerLists+0x86>
			}
			else
			{
				xResult = xTimerGenericCommand( pxTimer, tmrCOMMAND_START, xNextExpireTime, NULL, tmrNO_DELAY );
 80046a4:	2300      	movs	r3, #0
 80046a6:	9300      	str	r3, [sp, #0]
 80046a8:	69b8      	ldr	r0, [r7, #24]
 80046aa:	2100      	movs	r1, #0
 80046ac:	69fa      	ldr	r2, [r7, #28]
 80046ae:	2300      	movs	r3, #0
 80046b0:	f7ff fdfe 	bl	80042b0 <xTimerGenericCommand>
 80046b4:	6138      	str	r0, [r7, #16]
				configASSERT( xResult );
 80046b6:	693b      	ldr	r3, [r7, #16]
 80046b8:	2b00      	cmp	r3, #0
 80046ba:	d102      	bne.n	80046c2 <prvSwitchTimerLists+0x86>
 80046bc:	f7ff fd32 	bl	8004124 <ulPortSetInterruptMask>
 80046c0:	e7fe      	b.n	80046c0 <prvSwitchTimerLists+0x84>

	/* The tick count has overflowed.  The timer lists must be switched.
	If there are any timers still referenced from the current timer list
	then they must have expired and should be processed before the lists
	are switched. */
	while( listLIST_IS_EMPTY( pxCurrentTimerList ) == pdFALSE )
 80046c2:	4b09      	ldr	r3, [pc, #36]	; (80046e8 <prvSwitchTimerLists+0xac>)
 80046c4:	681b      	ldr	r3, [r3, #0]
 80046c6:	681b      	ldr	r3, [r3, #0]
 80046c8:	2b00      	cmp	r3, #0
 80046ca:	d1bc      	bne.n	8004646 <prvSwitchTimerLists+0xa>
				( void ) xResult;
			}
		}
	}

	pxTemp = pxCurrentTimerList;
 80046cc:	4b06      	ldr	r3, [pc, #24]	; (80046e8 <prvSwitchTimerLists+0xac>)
 80046ce:	681b      	ldr	r3, [r3, #0]
 80046d0:	60fb      	str	r3, [r7, #12]
	pxCurrentTimerList = pxOverflowTimerList;
 80046d2:	4b06      	ldr	r3, [pc, #24]	; (80046ec <prvSwitchTimerLists+0xb0>)
 80046d4:	681a      	ldr	r2, [r3, #0]
 80046d6:	4b04      	ldr	r3, [pc, #16]	; (80046e8 <prvSwitchTimerLists+0xac>)
 80046d8:	601a      	str	r2, [r3, #0]
	pxOverflowTimerList = pxTemp;
 80046da:	4b04      	ldr	r3, [pc, #16]	; (80046ec <prvSwitchTimerLists+0xb0>)
 80046dc:	68fa      	ldr	r2, [r7, #12]
 80046de:	601a      	str	r2, [r3, #0]
}
 80046e0:	3720      	adds	r7, #32
 80046e2:	46bd      	mov	sp, r7
 80046e4:	bd80      	pop	{r7, pc}
 80046e6:	bf00      	nop
 80046e8:	200005c4 	.word	0x200005c4
 80046ec:	200005c8 	.word	0x200005c8

080046f0 <prvCheckForValidListAndQueue>:
/*-----------------------------------------------------------*/

static void prvCheckForValidListAndQueue( void )
{
 80046f0:	b580      	push	{r7, lr}
 80046f2:	af00      	add	r7, sp, #0
	/* Check that the list from which active timers are referenced, and the
	queue used to communicate with the timer service, have been
	initialised. */
	taskENTER_CRITICAL();
 80046f4:	f7ff fcf4 	bl	80040e0 <vPortEnterCritical>
	{
		if( xTimerQueue == NULL )
 80046f8:	4b0d      	ldr	r3, [pc, #52]	; (8004730 <prvCheckForValidListAndQueue+0x40>)
 80046fa:	681b      	ldr	r3, [r3, #0]
 80046fc:	2b00      	cmp	r3, #0
 80046fe:	d113      	bne.n	8004728 <prvCheckForValidListAndQueue+0x38>
		{
			vListInitialise( &xActiveTimerList1 );
 8004700:	480c      	ldr	r0, [pc, #48]	; (8004734 <prvCheckForValidListAndQueue+0x44>)
 8004702:	f7ff fb6b 	bl	8003ddc <vListInitialise>
			vListInitialise( &xActiveTimerList2 );
 8004706:	480c      	ldr	r0, [pc, #48]	; (8004738 <prvCheckForValidListAndQueue+0x48>)
 8004708:	f7ff fb68 	bl	8003ddc <vListInitialise>
			pxCurrentTimerList = &xActiveTimerList1;
 800470c:	4b0b      	ldr	r3, [pc, #44]	; (800473c <prvCheckForValidListAndQueue+0x4c>)
 800470e:	4a09      	ldr	r2, [pc, #36]	; (8004734 <prvCheckForValidListAndQueue+0x44>)
 8004710:	601a      	str	r2, [r3, #0]
			pxOverflowTimerList = &xActiveTimerList2;
 8004712:	4b0b      	ldr	r3, [pc, #44]	; (8004740 <prvCheckForValidListAndQueue+0x50>)
 8004714:	4a08      	ldr	r2, [pc, #32]	; (8004738 <prvCheckForValidListAndQueue+0x48>)
 8004716:	601a      	str	r2, [r3, #0]
			xTimerQueue = xQueueCreate( ( unsigned portBASE_TYPE ) configTIMER_QUEUE_LENGTH, sizeof( xTIMER_MESSAGE ) );
 8004718:	200a      	movs	r0, #10
 800471a:	210c      	movs	r1, #12
 800471c:	2200      	movs	r2, #0
 800471e:	f7fe ffff 	bl	8003720 <xQueueGenericCreate>
 8004722:	4602      	mov	r2, r0
 8004724:	4b02      	ldr	r3, [pc, #8]	; (8004730 <prvCheckForValidListAndQueue+0x40>)
 8004726:	601a      	str	r2, [r3, #0]
		}
	}
	taskEXIT_CRITICAL();
 8004728:	f7ff fcea 	bl	8004100 <vPortExitCritical>
}
 800472c:	bd80      	pop	{r7, pc}
 800472e:	bf00      	nop
 8004730:	200005cc 	.word	0x200005cc
 8004734:	2000059c 	.word	0x2000059c
 8004738:	200005b0 	.word	0x200005b0
 800473c:	200005c4 	.word	0x200005c4
 8004740:	200005c8 	.word	0x200005c8

08004744 <FreeRTOS_CLIRegisterCommand>:
static int8_t cOutputBuffer[ configCOMMAND_INT_MAX_OUTPUT_SIZE ];

/*-----------------------------------------------------------*/

portBASE_TYPE FreeRTOS_CLIRegisterCommand( const CLI_Command_Definition_t * const pxCommandToRegister )
{
 8004744:	b580      	push	{r7, lr}
 8004746:	b084      	sub	sp, #16
 8004748:	af00      	add	r7, sp, #0
 800474a:	6078      	str	r0, [r7, #4]
static CLI_Definition_List_Item_t *pxLastCommandInList = &xRegisteredCommands;
CLI_Definition_List_Item_t *pxNewListItem;
portBASE_TYPE xReturn = pdFAIL;
 800474c:	2300      	movs	r3, #0
 800474e:	60fb      	str	r3, [r7, #12]

	/* Check the parameter is not NULL. */
	configASSERT( pxCommandToRegister );
 8004750:	687b      	ldr	r3, [r7, #4]
 8004752:	2b00      	cmp	r3, #0
 8004754:	d102      	bne.n	800475c <FreeRTOS_CLIRegisterCommand+0x18>
 8004756:	f7ff fce5 	bl	8004124 <ulPortSetInterruptMask>
 800475a:	e7fe      	b.n	800475a <FreeRTOS_CLIRegisterCommand+0x16>

	/* Create a new list item that will reference the command being registered. */
	pxNewListItem = ( CLI_Definition_List_Item_t * ) pvPortMalloc( sizeof( CLI_Definition_List_Item_t ) );
 800475c:	2008      	movs	r0, #8
 800475e:	f000 f963 	bl	8004a28 <pvPortMalloc>
 8004762:	60b8      	str	r0, [r7, #8]
	configASSERT( pxNewListItem );
 8004764:	68bb      	ldr	r3, [r7, #8]
 8004766:	2b00      	cmp	r3, #0
 8004768:	d102      	bne.n	8004770 <FreeRTOS_CLIRegisterCommand+0x2c>
 800476a:	f7ff fcdb 	bl	8004124 <ulPortSetInterruptMask>
 800476e:	e7fe      	b.n	800476e <FreeRTOS_CLIRegisterCommand+0x2a>

	if( pxNewListItem != NULL )
 8004770:	68bb      	ldr	r3, [r7, #8]
 8004772:	2b00      	cmp	r3, #0
 8004774:	d012      	beq.n	800479c <FreeRTOS_CLIRegisterCommand+0x58>
	{
		taskENTER_CRITICAL();
 8004776:	f7ff fcb3 	bl	80040e0 <vPortEnterCritical>
		{
			/* Reference the command being registered from the newly created
			list item. */
			pxNewListItem->pxCommandLineDefinition = pxCommandToRegister;
 800477a:	68bb      	ldr	r3, [r7, #8]
 800477c:	687a      	ldr	r2, [r7, #4]
 800477e:	601a      	str	r2, [r3, #0]

			/* The new list item will get added to the end of the list, so
			pxNext has nowhere to point. */
			pxNewListItem->pxNext = NULL;
 8004780:	68bb      	ldr	r3, [r7, #8]
 8004782:	2200      	movs	r2, #0
 8004784:	605a      	str	r2, [r3, #4]

			/* Add the newly created list item to the end of the already existing
			list. */
			pxLastCommandInList->pxNext = pxNewListItem;
 8004786:	4b08      	ldr	r3, [pc, #32]	; (80047a8 <FreeRTOS_CLIRegisterCommand+0x64>)
 8004788:	681b      	ldr	r3, [r3, #0]
 800478a:	68ba      	ldr	r2, [r7, #8]
 800478c:	605a      	str	r2, [r3, #4]

			/* Set the end of list marker to the new list item. */
			pxLastCommandInList = pxNewListItem;
 800478e:	4b06      	ldr	r3, [pc, #24]	; (80047a8 <FreeRTOS_CLIRegisterCommand+0x64>)
 8004790:	68ba      	ldr	r2, [r7, #8]
 8004792:	601a      	str	r2, [r3, #0]
		}
		taskEXIT_CRITICAL();
 8004794:	f7ff fcb4 	bl	8004100 <vPortExitCritical>

		xReturn = pdPASS;
 8004798:	2301      	movs	r3, #1
 800479a:	60fb      	str	r3, [r7, #12]
	}

	return xReturn;
 800479c:	68fb      	ldr	r3, [r7, #12]
}
 800479e:	4618      	mov	r0, r3
 80047a0:	3710      	adds	r7, #16
 80047a2:	46bd      	mov	sp, r7
 80047a4:	bd80      	pop	{r7, pc}
 80047a6:	bf00      	nop
 80047a8:	20000014 	.word	0x20000014

080047ac <FreeRTOS_CLIProcessCommand>:
/*-----------------------------------------------------------*/

portBASE_TYPE FreeRTOS_CLIProcessCommand( const int8_t * const pcCommandInput, int8_t * pcWriteBuffer, size_t xWriteBufferLen  )
{
 80047ac:	b580      	push	{r7, lr}
 80047ae:	b088      	sub	sp, #32
 80047b0:	af00      	add	r7, sp, #0
 80047b2:	60f8      	str	r0, [r7, #12]
 80047b4:	60b9      	str	r1, [r7, #8]
 80047b6:	607a      	str	r2, [r7, #4]
static const CLI_Definition_List_Item_t *pxCommand = NULL;
portBASE_TYPE xReturn = pdTRUE;
 80047b8:	2301      	movs	r3, #1
 80047ba:	61fb      	str	r3, [r7, #28]
size_t xCommandStringLength;

	/* Note:  This function is not re-entrant.  It must not be called from more
	thank one task. */

	if( pxCommand == NULL )
 80047bc:	4b3a      	ldr	r3, [pc, #232]	; (80048a8 <FreeRTOS_CLIProcessCommand+0xfc>)
 80047be:	681b      	ldr	r3, [r3, #0]
 80047c0:	2b00      	cmp	r3, #0
 80047c2:	d141      	bne.n	8004848 <FreeRTOS_CLIProcessCommand+0x9c>
	{
		/* Search for the command string in the list of registered commands. */
		for( pxCommand = &xRegisteredCommands; pxCommand != NULL; pxCommand = pxCommand->pxNext )
 80047c4:	4b38      	ldr	r3, [pc, #224]	; (80048a8 <FreeRTOS_CLIProcessCommand+0xfc>)
 80047c6:	4a39      	ldr	r2, [pc, #228]	; (80048ac <FreeRTOS_CLIProcessCommand+0x100>)
 80047c8:	601a      	str	r2, [r3, #0]
 80047ca:	e039      	b.n	8004840 <FreeRTOS_CLIProcessCommand+0x94>
		{
			pcRegisteredCommandString = pxCommand->pxCommandLineDefinition->pcCommand;
 80047cc:	4b36      	ldr	r3, [pc, #216]	; (80048a8 <FreeRTOS_CLIProcessCommand+0xfc>)
 80047ce:	681b      	ldr	r3, [r3, #0]
 80047d0:	681b      	ldr	r3, [r3, #0]
 80047d2:	681b      	ldr	r3, [r3, #0]
 80047d4:	61bb      	str	r3, [r7, #24]
			xCommandStringLength = strlen( ( const char * ) pcRegisteredCommandString );
 80047d6:	69b8      	ldr	r0, [r7, #24]
 80047d8:	f002 fe3a 	bl	8007450 <strlen>
 80047dc:	6178      	str	r0, [r7, #20]

			/* To ensure the string lengths match exactly, so as not to pick up
			a sub-string of a longer command, check the byte after the expected
			end of the string is either the end of the string or a space before
			a parameter. */
			if( ( pcCommandInput[ xCommandStringLength ] == ' ' ) || ( pcCommandInput[ xCommandStringLength ] == 0x00 ) )
 80047de:	68fa      	ldr	r2, [r7, #12]
 80047e0:	697b      	ldr	r3, [r7, #20]
 80047e2:	4413      	add	r3, r2
 80047e4:	781b      	ldrb	r3, [r3, #0]
 80047e6:	b25b      	sxtb	r3, r3
 80047e8:	2b20      	cmp	r3, #32
 80047ea:	d005      	beq.n	80047f8 <FreeRTOS_CLIProcessCommand+0x4c>
 80047ec:	68fa      	ldr	r2, [r7, #12]
 80047ee:	697b      	ldr	r3, [r7, #20]
 80047f0:	4413      	add	r3, r2
 80047f2:	781b      	ldrb	r3, [r3, #0]
 80047f4:	2b00      	cmp	r3, #0
 80047f6:	d11e      	bne.n	8004836 <FreeRTOS_CLIProcessCommand+0x8a>
			{
				if( strncmp( ( const char * ) pcCommandInput, ( const char * ) pcRegisteredCommandString, xCommandStringLength ) == 0 )
 80047f8:	68f8      	ldr	r0, [r7, #12]
 80047fa:	69b9      	ldr	r1, [r7, #24]
 80047fc:	697a      	ldr	r2, [r7, #20]
 80047fe:	f002 fe57 	bl	80074b0 <strncmp>
 8004802:	4603      	mov	r3, r0
 8004804:	2b00      	cmp	r3, #0
 8004806:	d116      	bne.n	8004836 <FreeRTOS_CLIProcessCommand+0x8a>
				{
					/* The command has been found.  Check it has the expected
					number of parameters.  If cExpectedNumberOfParameters is -1,
					then there could be a variable number of parameters and no
					check is made. */
					if( pxCommand->pxCommandLineDefinition->cExpectedNumberOfParameters >= 0 )
 8004808:	4b27      	ldr	r3, [pc, #156]	; (80048a8 <FreeRTOS_CLIProcessCommand+0xfc>)
 800480a:	681b      	ldr	r3, [r3, #0]
 800480c:	681b      	ldr	r3, [r3, #0]
 800480e:	7b1b      	ldrb	r3, [r3, #12]
 8004810:	b25b      	sxtb	r3, r3
 8004812:	2b00      	cmp	r3, #0
 8004814:	db0e      	blt.n	8004834 <FreeRTOS_CLIProcessCommand+0x88>
					{
						if( prvGetNumberOfParameters( pcCommandInput ) != pxCommand->pxCommandLineDefinition->cExpectedNumberOfParameters )
 8004816:	68f8      	ldr	r0, [r7, #12]
 8004818:	f000 f8d8 	bl	80049cc <prvGetNumberOfParameters>
 800481c:	4603      	mov	r3, r0
 800481e:	461a      	mov	r2, r3
 8004820:	4b21      	ldr	r3, [pc, #132]	; (80048a8 <FreeRTOS_CLIProcessCommand+0xfc>)
 8004822:	681b      	ldr	r3, [r3, #0]
 8004824:	681b      	ldr	r3, [r3, #0]
 8004826:	7b1b      	ldrb	r3, [r3, #12]
 8004828:	b25b      	sxtb	r3, r3
 800482a:	429a      	cmp	r2, r3
 800482c:	d002      	beq.n	8004834 <FreeRTOS_CLIProcessCommand+0x88>
						{
							xReturn = pdFALSE;
 800482e:	2300      	movs	r3, #0
 8004830:	61fb      	str	r3, [r7, #28]
						}
					}

					break;
 8004832:	e009      	b.n	8004848 <FreeRTOS_CLIProcessCommand+0x9c>
 8004834:	e008      	b.n	8004848 <FreeRTOS_CLIProcessCommand+0x9c>
	thank one task. */

	if( pxCommand == NULL )
	{
		/* Search for the command string in the list of registered commands. */
		for( pxCommand = &xRegisteredCommands; pxCommand != NULL; pxCommand = pxCommand->pxNext )
 8004836:	4b1c      	ldr	r3, [pc, #112]	; (80048a8 <FreeRTOS_CLIProcessCommand+0xfc>)
 8004838:	681b      	ldr	r3, [r3, #0]
 800483a:	685a      	ldr	r2, [r3, #4]
 800483c:	4b1a      	ldr	r3, [pc, #104]	; (80048a8 <FreeRTOS_CLIProcessCommand+0xfc>)
 800483e:	601a      	str	r2, [r3, #0]
 8004840:	4b19      	ldr	r3, [pc, #100]	; (80048a8 <FreeRTOS_CLIProcessCommand+0xfc>)
 8004842:	681b      	ldr	r3, [r3, #0]
 8004844:	2b00      	cmp	r3, #0
 8004846:	d1c1      	bne.n	80047cc <FreeRTOS_CLIProcessCommand+0x20>
				}
			}
		}
	}

	if( ( pxCommand != NULL ) && ( xReturn == pdFALSE ) )
 8004848:	4b17      	ldr	r3, [pc, #92]	; (80048a8 <FreeRTOS_CLIProcessCommand+0xfc>)
 800484a:	681b      	ldr	r3, [r3, #0]
 800484c:	2b00      	cmp	r3, #0
 800484e:	d00b      	beq.n	8004868 <FreeRTOS_CLIProcessCommand+0xbc>
 8004850:	69fb      	ldr	r3, [r7, #28]
 8004852:	2b00      	cmp	r3, #0
 8004854:	d108      	bne.n	8004868 <FreeRTOS_CLIProcessCommand+0xbc>
	{
		/* The command was found, but the number of parameters with the command
		was incorrect. */
		strncpy( ( char * ) pcWriteBuffer, "Incorrect command parameter(s).  Enter \"help\" to view a list of available commands.\r\n\r\n", xWriteBufferLen );
 8004856:	68b8      	ldr	r0, [r7, #8]
 8004858:	4915      	ldr	r1, [pc, #84]	; (80048b0 <FreeRTOS_CLIProcessCommand+0x104>)
 800485a:	687a      	ldr	r2, [r7, #4]
 800485c:	f002 fe82 	bl	8007564 <strncpy>
		pxCommand = NULL;
 8004860:	4b11      	ldr	r3, [pc, #68]	; (80048a8 <FreeRTOS_CLIProcessCommand+0xfc>)
 8004862:	2200      	movs	r2, #0
 8004864:	601a      	str	r2, [r3, #0]
 8004866:	e01a      	b.n	800489e <FreeRTOS_CLIProcessCommand+0xf2>
	}
	else if( pxCommand != NULL )
 8004868:	4b0f      	ldr	r3, [pc, #60]	; (80048a8 <FreeRTOS_CLIProcessCommand+0xfc>)
 800486a:	681b      	ldr	r3, [r3, #0]
 800486c:	2b00      	cmp	r3, #0
 800486e:	d00f      	beq.n	8004890 <FreeRTOS_CLIProcessCommand+0xe4>
	{
		/* Call the callback function that is registered to this command. */
		xReturn = pxCommand->pxCommandLineDefinition->pxCommandInterpreter( pcWriteBuffer, xWriteBufferLen, pcCommandInput );
 8004870:	4b0d      	ldr	r3, [pc, #52]	; (80048a8 <FreeRTOS_CLIProcessCommand+0xfc>)
 8004872:	681b      	ldr	r3, [r3, #0]
 8004874:	681b      	ldr	r3, [r3, #0]
 8004876:	689b      	ldr	r3, [r3, #8]
 8004878:	68b8      	ldr	r0, [r7, #8]
 800487a:	6879      	ldr	r1, [r7, #4]
 800487c:	68fa      	ldr	r2, [r7, #12]
 800487e:	4798      	blx	r3
 8004880:	61f8      	str	r0, [r7, #28]

		/* If xReturn is pdFALSE, then no further strings will be returned
		after this one, and	pxCommand can be reset to NULL ready to search
		for the next entered command. */
		if( xReturn == pdFALSE )
 8004882:	69fb      	ldr	r3, [r7, #28]
 8004884:	2b00      	cmp	r3, #0
 8004886:	d10a      	bne.n	800489e <FreeRTOS_CLIProcessCommand+0xf2>
		{
			pxCommand = NULL;
 8004888:	4b07      	ldr	r3, [pc, #28]	; (80048a8 <FreeRTOS_CLIProcessCommand+0xfc>)
 800488a:	2200      	movs	r2, #0
 800488c:	601a      	str	r2, [r3, #0]
 800488e:	e006      	b.n	800489e <FreeRTOS_CLIProcessCommand+0xf2>
		}
	}
	else
	{
		/* pxCommand was NULL, the command was not found. */
		strncpy( ( char * ) pcWriteBuffer, ( const char * const ) "Command not recognised.  Enter 'help' to view a list of available commands.\r\n\r\n", xWriteBufferLen );
 8004890:	68b8      	ldr	r0, [r7, #8]
 8004892:	4908      	ldr	r1, [pc, #32]	; (80048b4 <FreeRTOS_CLIProcessCommand+0x108>)
 8004894:	687a      	ldr	r2, [r7, #4]
 8004896:	f002 fe65 	bl	8007564 <strncpy>
		xReturn = pdFALSE;
 800489a:	2300      	movs	r3, #0
 800489c:	61fb      	str	r3, [r7, #28]
	}

	return xReturn;
 800489e:	69fb      	ldr	r3, [r7, #28]
}
 80048a0:	4618      	mov	r0, r3
 80048a2:	3720      	adds	r7, #32
 80048a4:	46bd      	mov	sp, r7
 80048a6:	bd80      	pop	{r7, pc}
 80048a8:	200005d4 	.word	0x200005d4
 80048ac:	2000000c 	.word	0x2000000c
 80048b0:	080079ec 	.word	0x080079ec
 80048b4:	08007a44 	.word	0x08007a44

080048b8 <FreeRTOS_CLIGetParameter>:
	return cOutputBuffer;
}
/*-----------------------------------------------------------*/

const int8_t *FreeRTOS_CLIGetParameter( const int8_t *pcCommandString, unsigned portBASE_TYPE uxWantedParameter, portBASE_TYPE *pxParameterStringLength )
{
 80048b8:	b480      	push	{r7}
 80048ba:	b087      	sub	sp, #28
 80048bc:	af00      	add	r7, sp, #0
 80048be:	60f8      	str	r0, [r7, #12]
 80048c0:	60b9      	str	r1, [r7, #8]
 80048c2:	607a      	str	r2, [r7, #4]
unsigned portBASE_TYPE uxParametersFound = 0;
 80048c4:	2300      	movs	r3, #0
 80048c6:	617b      	str	r3, [r7, #20]
const int8_t *pcReturn = NULL;
 80048c8:	2300      	movs	r3, #0
 80048ca:	613b      	str	r3, [r7, #16]

	*pxParameterStringLength = 0;
 80048cc:	687b      	ldr	r3, [r7, #4]
 80048ce:	2200      	movs	r2, #0
 80048d0:	601a      	str	r2, [r3, #0]

	while( uxParametersFound < uxWantedParameter )
 80048d2:	e041      	b.n	8004958 <FreeRTOS_CLIGetParameter+0xa0>
	{
		/* Index the character pointer past the current word.  If this is the start
		of the command string then the first word is the command itself. */
		while( ( ( *pcCommandString ) != 0x00 ) && ( ( *pcCommandString ) != ' ' ) )
 80048d4:	e002      	b.n	80048dc <FreeRTOS_CLIGetParameter+0x24>
		{
			pcCommandString++;
 80048d6:	68fb      	ldr	r3, [r7, #12]
 80048d8:	3301      	adds	r3, #1
 80048da:	60fb      	str	r3, [r7, #12]

	while( uxParametersFound < uxWantedParameter )
	{
		/* Index the character pointer past the current word.  If this is the start
		of the command string then the first word is the command itself. */
		while( ( ( *pcCommandString ) != 0x00 ) && ( ( *pcCommandString ) != ' ' ) )
 80048dc:	68fb      	ldr	r3, [r7, #12]
 80048de:	781b      	ldrb	r3, [r3, #0]
 80048e0:	2b00      	cmp	r3, #0
 80048e2:	d004      	beq.n	80048ee <FreeRTOS_CLIGetParameter+0x36>
 80048e4:	68fb      	ldr	r3, [r7, #12]
 80048e6:	781b      	ldrb	r3, [r3, #0]
 80048e8:	b25b      	sxtb	r3, r3
 80048ea:	2b20      	cmp	r3, #32
 80048ec:	d1f3      	bne.n	80048d6 <FreeRTOS_CLIGetParameter+0x1e>
		{
			pcCommandString++;
		}

		/* Find the start of the next string. */
		while( ( ( *pcCommandString ) != 0x00 ) && ( ( *pcCommandString ) == ' ' ) )
 80048ee:	e002      	b.n	80048f6 <FreeRTOS_CLIGetParameter+0x3e>
		{
			pcCommandString++;
 80048f0:	68fb      	ldr	r3, [r7, #12]
 80048f2:	3301      	adds	r3, #1
 80048f4:	60fb      	str	r3, [r7, #12]
		{
			pcCommandString++;
		}

		/* Find the start of the next string. */
		while( ( ( *pcCommandString ) != 0x00 ) && ( ( *pcCommandString ) == ' ' ) )
 80048f6:	68fb      	ldr	r3, [r7, #12]
 80048f8:	781b      	ldrb	r3, [r3, #0]
 80048fa:	2b00      	cmp	r3, #0
 80048fc:	d004      	beq.n	8004908 <FreeRTOS_CLIGetParameter+0x50>
 80048fe:	68fb      	ldr	r3, [r7, #12]
 8004900:	781b      	ldrb	r3, [r3, #0]
 8004902:	b25b      	sxtb	r3, r3
 8004904:	2b20      	cmp	r3, #32
 8004906:	d0f3      	beq.n	80048f0 <FreeRTOS_CLIGetParameter+0x38>
		{
			pcCommandString++;
		}

		/* Was a string found? */
		if( *pcCommandString != 0x00 )
 8004908:	68fb      	ldr	r3, [r7, #12]
 800490a:	781b      	ldrb	r3, [r3, #0]
 800490c:	2b00      	cmp	r3, #0
 800490e:	d022      	beq.n	8004956 <FreeRTOS_CLIGetParameter+0x9e>
		{
			/* Is this the start of the required parameter? */
			uxParametersFound++;
 8004910:	697b      	ldr	r3, [r7, #20]
 8004912:	3301      	adds	r3, #1
 8004914:	617b      	str	r3, [r7, #20]

			if( uxParametersFound == uxWantedParameter )
 8004916:	697a      	ldr	r2, [r7, #20]
 8004918:	68bb      	ldr	r3, [r7, #8]
 800491a:	429a      	cmp	r2, r3
 800491c:	d11c      	bne.n	8004958 <FreeRTOS_CLIGetParameter+0xa0>
			{
				/* How long is the parameter? */
				pcReturn = pcCommandString;
 800491e:	68fb      	ldr	r3, [r7, #12]
 8004920:	613b      	str	r3, [r7, #16]
				while( ( ( *pcCommandString ) != 0x00 ) && ( ( *pcCommandString ) != ' ' ) )
 8004922:	e007      	b.n	8004934 <FreeRTOS_CLIGetParameter+0x7c>
				{
					( *pxParameterStringLength )++;
 8004924:	687b      	ldr	r3, [r7, #4]
 8004926:	681b      	ldr	r3, [r3, #0]
 8004928:	1c5a      	adds	r2, r3, #1
 800492a:	687b      	ldr	r3, [r7, #4]
 800492c:	601a      	str	r2, [r3, #0]
					pcCommandString++;
 800492e:	68fb      	ldr	r3, [r7, #12]
 8004930:	3301      	adds	r3, #1
 8004932:	60fb      	str	r3, [r7, #12]

			if( uxParametersFound == uxWantedParameter )
			{
				/* How long is the parameter? */
				pcReturn = pcCommandString;
				while( ( ( *pcCommandString ) != 0x00 ) && ( ( *pcCommandString ) != ' ' ) )
 8004934:	68fb      	ldr	r3, [r7, #12]
 8004936:	781b      	ldrb	r3, [r3, #0]
 8004938:	2b00      	cmp	r3, #0
 800493a:	d004      	beq.n	8004946 <FreeRTOS_CLIGetParameter+0x8e>
 800493c:	68fb      	ldr	r3, [r7, #12]
 800493e:	781b      	ldrb	r3, [r3, #0]
 8004940:	b25b      	sxtb	r3, r3
 8004942:	2b20      	cmp	r3, #32
 8004944:	d1ee      	bne.n	8004924 <FreeRTOS_CLIGetParameter+0x6c>
				{
					( *pxParameterStringLength )++;
					pcCommandString++;
				}

				if( *pxParameterStringLength == 0 )
 8004946:	687b      	ldr	r3, [r7, #4]
 8004948:	681b      	ldr	r3, [r3, #0]
 800494a:	2b00      	cmp	r3, #0
 800494c:	d102      	bne.n	8004954 <FreeRTOS_CLIGetParameter+0x9c>
				{
					pcReturn = NULL;
 800494e:	2300      	movs	r3, #0
 8004950:	613b      	str	r3, [r7, #16]
				}

				break;
 8004952:	e005      	b.n	8004960 <FreeRTOS_CLIGetParameter+0xa8>
 8004954:	e004      	b.n	8004960 <FreeRTOS_CLIGetParameter+0xa8>
			}
		}
		else
		{
			break;
 8004956:	e003      	b.n	8004960 <FreeRTOS_CLIGetParameter+0xa8>
unsigned portBASE_TYPE uxParametersFound = 0;
const int8_t *pcReturn = NULL;

	*pxParameterStringLength = 0;

	while( uxParametersFound < uxWantedParameter )
 8004958:	697a      	ldr	r2, [r7, #20]
 800495a:	68bb      	ldr	r3, [r7, #8]
 800495c:	429a      	cmp	r2, r3
 800495e:	d3b9      	bcc.n	80048d4 <FreeRTOS_CLIGetParameter+0x1c>
		{
			break;
		}
	}

	return pcReturn;
 8004960:	693b      	ldr	r3, [r7, #16]
}
 8004962:	4618      	mov	r0, r3
 8004964:	371c      	adds	r7, #28
 8004966:	46bd      	mov	sp, r7
 8004968:	f85d 7b04 	ldr.w	r7, [sp], #4
 800496c:	4770      	bx	lr
 800496e:	bf00      	nop

08004970 <prvHelpCommand>:
/*-----------------------------------------------------------*/

static portBASE_TYPE prvHelpCommand( int8_t *pcWriteBuffer, size_t xWriteBufferLen, const int8_t *pcCommandString )
{
 8004970:	b580      	push	{r7, lr}
 8004972:	b086      	sub	sp, #24
 8004974:	af00      	add	r7, sp, #0
 8004976:	60f8      	str	r0, [r7, #12]
 8004978:	60b9      	str	r1, [r7, #8]
 800497a:	607a      	str	r2, [r7, #4]
static const CLI_Definition_List_Item_t * pxCommand = NULL;
signed portBASE_TYPE xReturn;

	( void ) pcCommandString;

	if( pxCommand == NULL )
 800497c:	4b11      	ldr	r3, [pc, #68]	; (80049c4 <prvHelpCommand+0x54>)
 800497e:	681b      	ldr	r3, [r3, #0]
 8004980:	2b00      	cmp	r3, #0
 8004982:	d102      	bne.n	800498a <prvHelpCommand+0x1a>
	{
		/* Reset the pxCommand pointer back to the start of the list. */
		pxCommand = &xRegisteredCommands;
 8004984:	4b0f      	ldr	r3, [pc, #60]	; (80049c4 <prvHelpCommand+0x54>)
 8004986:	4a10      	ldr	r2, [pc, #64]	; (80049c8 <prvHelpCommand+0x58>)
 8004988:	601a      	str	r2, [r3, #0]
	}

	/* Return the next command help string, before moving the pointer on to
	the next command in the list. */
	strncpy( ( char * ) pcWriteBuffer, ( const char * ) pxCommand->pxCommandLineDefinition->pcHelpString, xWriteBufferLen );
 800498a:	4b0e      	ldr	r3, [pc, #56]	; (80049c4 <prvHelpCommand+0x54>)
 800498c:	681b      	ldr	r3, [r3, #0]
 800498e:	681b      	ldr	r3, [r3, #0]
 8004990:	685b      	ldr	r3, [r3, #4]
 8004992:	68f8      	ldr	r0, [r7, #12]
 8004994:	4619      	mov	r1, r3
 8004996:	68ba      	ldr	r2, [r7, #8]
 8004998:	f002 fde4 	bl	8007564 <strncpy>
	pxCommand = pxCommand->pxNext;
 800499c:	4b09      	ldr	r3, [pc, #36]	; (80049c4 <prvHelpCommand+0x54>)
 800499e:	681b      	ldr	r3, [r3, #0]
 80049a0:	685a      	ldr	r2, [r3, #4]
 80049a2:	4b08      	ldr	r3, [pc, #32]	; (80049c4 <prvHelpCommand+0x54>)
 80049a4:	601a      	str	r2, [r3, #0]

	if( pxCommand == NULL )
 80049a6:	4b07      	ldr	r3, [pc, #28]	; (80049c4 <prvHelpCommand+0x54>)
 80049a8:	681b      	ldr	r3, [r3, #0]
 80049aa:	2b00      	cmp	r3, #0
 80049ac:	d102      	bne.n	80049b4 <prvHelpCommand+0x44>
	{
		/* There are no more commands in the list, so there will be no more
		strings to return after this one and pdFALSE should be returned. */
		xReturn = pdFALSE;
 80049ae:	2300      	movs	r3, #0
 80049b0:	617b      	str	r3, [r7, #20]
 80049b2:	e001      	b.n	80049b8 <prvHelpCommand+0x48>
	}
	else
	{
		xReturn = pdTRUE;
 80049b4:	2301      	movs	r3, #1
 80049b6:	617b      	str	r3, [r7, #20]
	}

	return xReturn;
 80049b8:	697b      	ldr	r3, [r7, #20]
}
 80049ba:	4618      	mov	r0, r3
 80049bc:	3718      	adds	r7, #24
 80049be:	46bd      	mov	sp, r7
 80049c0:	bd80      	pop	{r7, pc}
 80049c2:	bf00      	nop
 80049c4:	200005d8 	.word	0x200005d8
 80049c8:	2000000c 	.word	0x2000000c

080049cc <prvGetNumberOfParameters>:
/*-----------------------------------------------------------*/

static int8_t prvGetNumberOfParameters( const int8_t * pcCommandString )
{
 80049cc:	b480      	push	{r7}
 80049ce:	b085      	sub	sp, #20
 80049d0:	af00      	add	r7, sp, #0
 80049d2:	6078      	str	r0, [r7, #4]
int8_t cParameters = 0;
 80049d4:	2300      	movs	r3, #0
 80049d6:	73fb      	strb	r3, [r7, #15]
portBASE_TYPE xLastCharacterWasSpace = pdFALSE;
 80049d8:	2300      	movs	r3, #0
 80049da:	60bb      	str	r3, [r7, #8]

	/* Count the number of space delimited words in pcCommandString. */
	while( *pcCommandString != 0x00 )
 80049dc:	e012      	b.n	8004a04 <prvGetNumberOfParameters+0x38>
	{
		if( ( *pcCommandString ) == ' ' )
 80049de:	687b      	ldr	r3, [r7, #4]
 80049e0:	781b      	ldrb	r3, [r3, #0]
 80049e2:	b25b      	sxtb	r3, r3
 80049e4:	2b20      	cmp	r3, #32
 80049e6:	d108      	bne.n	80049fa <prvGetNumberOfParameters+0x2e>
		{
			if( xLastCharacterWasSpace != pdTRUE )
 80049e8:	68bb      	ldr	r3, [r7, #8]
 80049ea:	2b01      	cmp	r3, #1
 80049ec:	d007      	beq.n	80049fe <prvGetNumberOfParameters+0x32>
			{
				cParameters++;
 80049ee:	7bfb      	ldrb	r3, [r7, #15]
 80049f0:	3301      	adds	r3, #1
 80049f2:	73fb      	strb	r3, [r7, #15]
				xLastCharacterWasSpace = pdTRUE;
 80049f4:	2301      	movs	r3, #1
 80049f6:	60bb      	str	r3, [r7, #8]
 80049f8:	e001      	b.n	80049fe <prvGetNumberOfParameters+0x32>
			}
		}
		else
		{
			xLastCharacterWasSpace = pdFALSE;
 80049fa:	2300      	movs	r3, #0
 80049fc:	60bb      	str	r3, [r7, #8]
		}

		pcCommandString++;
 80049fe:	687b      	ldr	r3, [r7, #4]
 8004a00:	3301      	adds	r3, #1
 8004a02:	607b      	str	r3, [r7, #4]
{
int8_t cParameters = 0;
portBASE_TYPE xLastCharacterWasSpace = pdFALSE;

	/* Count the number of space delimited words in pcCommandString. */
	while( *pcCommandString != 0x00 )
 8004a04:	687b      	ldr	r3, [r7, #4]
 8004a06:	781b      	ldrb	r3, [r3, #0]
 8004a08:	2b00      	cmp	r3, #0
 8004a0a:	d1e8      	bne.n	80049de <prvGetNumberOfParameters+0x12>
		pcCommandString++;
	}

	/* If the command string ended with spaces, then there will have been too
	many parameters counted. */
	if( xLastCharacterWasSpace == pdTRUE )
 8004a0c:	68bb      	ldr	r3, [r7, #8]
 8004a0e:	2b01      	cmp	r3, #1
 8004a10:	d102      	bne.n	8004a18 <prvGetNumberOfParameters+0x4c>
	{
		cParameters--;
 8004a12:	7bfb      	ldrb	r3, [r7, #15]
 8004a14:	3b01      	subs	r3, #1
 8004a16:	73fb      	strb	r3, [r7, #15]
	}

	/* The value returned is one less than the number of space delimited words,
	as the first word should be the command itself. */
	return cParameters;
 8004a18:	7bfb      	ldrb	r3, [r7, #15]
 8004a1a:	b25b      	sxtb	r3, r3
}
 8004a1c:	4618      	mov	r0, r3
 8004a1e:	3714      	adds	r7, #20
 8004a20:	46bd      	mov	sp, r7
 8004a22:	f85d 7b04 	ldr.w	r7, [sp], #4
 8004a26:	4770      	bx	lr

08004a28 <pvPortMalloc>:
static size_t xBlockAllocatedBit = 0;

/*-----------------------------------------------------------*/

void *pvPortMalloc( size_t xWantedSize )
{
 8004a28:	b580      	push	{r7, lr}
 8004a2a:	b086      	sub	sp, #24
 8004a2c:	af00      	add	r7, sp, #0
 8004a2e:	6078      	str	r0, [r7, #4]
xBlockLink *pxBlock, *pxPreviousBlock, *pxNewBlockLink;
void *pvReturn = NULL;
 8004a30:	2300      	movs	r3, #0
 8004a32:	60fb      	str	r3, [r7, #12]

	vTaskSuspendAll();
 8004a34:	f7fe f8e6 	bl	8002c04 <vTaskSuspendAll>
	{
		/* If this is the first call to malloc then the heap will require
		initialisation to setup the list of free blocks. */
		if( pxEnd == NULL )
 8004a38:	4b3d      	ldr	r3, [pc, #244]	; (8004b30 <pvPortMalloc+0x108>)
 8004a3a:	681b      	ldr	r3, [r3, #0]
 8004a3c:	2b00      	cmp	r3, #0
 8004a3e:	d101      	bne.n	8004a44 <pvPortMalloc+0x1c>
		{
			prvHeapInit();
 8004a40:	f000 f8c8 	bl	8004bd4 <prvHeapInit>

		/* Check the requested block size is not so large that the top bit is
		set.  The top bit of the block size member of the xBlockLink structure 
		is used to determine who owns the block - the application or the
		kernel, so it must be free. */
		if( ( xWantedSize & xBlockAllocatedBit ) == 0 )
 8004a44:	4b3b      	ldr	r3, [pc, #236]	; (8004b34 <pvPortMalloc+0x10c>)
 8004a46:	681a      	ldr	r2, [r3, #0]
 8004a48:	687b      	ldr	r3, [r7, #4]
 8004a4a:	4013      	ands	r3, r2
 8004a4c:	2b00      	cmp	r3, #0
 8004a4e:	d163      	bne.n	8004b18 <pvPortMalloc+0xf0>
		{
			/* The wanted size is increased so it can contain a xBlockLink
			structure in addition to the requested amount of bytes. */
			if( xWantedSize > 0 )
 8004a50:	687b      	ldr	r3, [r7, #4]
 8004a52:	2b00      	cmp	r3, #0
 8004a54:	d00d      	beq.n	8004a72 <pvPortMalloc+0x4a>
			{
				xWantedSize += heapSTRUCT_SIZE;
 8004a56:	2308      	movs	r3, #8
 8004a58:	687a      	ldr	r2, [r7, #4]
 8004a5a:	4413      	add	r3, r2
 8004a5c:	607b      	str	r3, [r7, #4]

				/* Ensure that blocks are always aligned to the required number 
				of bytes. */
				if( ( xWantedSize & portBYTE_ALIGNMENT_MASK ) != 0x00 )
 8004a5e:	687b      	ldr	r3, [r7, #4]
 8004a60:	f003 0307 	and.w	r3, r3, #7
 8004a64:	2b00      	cmp	r3, #0
 8004a66:	d004      	beq.n	8004a72 <pvPortMalloc+0x4a>
				{
					/* Byte alignment required. */
					xWantedSize += ( portBYTE_ALIGNMENT - ( xWantedSize & portBYTE_ALIGNMENT_MASK ) );
 8004a68:	687b      	ldr	r3, [r7, #4]
 8004a6a:	f023 0307 	bic.w	r3, r3, #7
 8004a6e:	3308      	adds	r3, #8
 8004a70:	607b      	str	r3, [r7, #4]
				}
			}

			if( ( xWantedSize > 0 ) && ( xWantedSize <= xFreeBytesRemaining ) )
 8004a72:	687b      	ldr	r3, [r7, #4]
 8004a74:	2b00      	cmp	r3, #0
 8004a76:	d04f      	beq.n	8004b18 <pvPortMalloc+0xf0>
 8004a78:	4b2f      	ldr	r3, [pc, #188]	; (8004b38 <pvPortMalloc+0x110>)
 8004a7a:	681b      	ldr	r3, [r3, #0]
 8004a7c:	687a      	ldr	r2, [r7, #4]
 8004a7e:	429a      	cmp	r2, r3
 8004a80:	d84a      	bhi.n	8004b18 <pvPortMalloc+0xf0>
			{
				/* Traverse the list from the start	(lowest address) block until 
				one	of adequate size is found. */
				pxPreviousBlock = &xStart;
 8004a82:	4b2e      	ldr	r3, [pc, #184]	; (8004b3c <pvPortMalloc+0x114>)
 8004a84:	613b      	str	r3, [r7, #16]
				pxBlock = xStart.pxNextFreeBlock;
 8004a86:	4b2d      	ldr	r3, [pc, #180]	; (8004b3c <pvPortMalloc+0x114>)
 8004a88:	681b      	ldr	r3, [r3, #0]
 8004a8a:	617b      	str	r3, [r7, #20]
				while( ( pxBlock->xBlockSize < xWantedSize ) && ( pxBlock->pxNextFreeBlock != NULL ) )
 8004a8c:	e004      	b.n	8004a98 <pvPortMalloc+0x70>
				{
					pxPreviousBlock = pxBlock;
 8004a8e:	697b      	ldr	r3, [r7, #20]
 8004a90:	613b      	str	r3, [r7, #16]
					pxBlock = pxBlock->pxNextFreeBlock;
 8004a92:	697b      	ldr	r3, [r7, #20]
 8004a94:	681b      	ldr	r3, [r3, #0]
 8004a96:	617b      	str	r3, [r7, #20]
			{
				/* Traverse the list from the start	(lowest address) block until 
				one	of adequate size is found. */
				pxPreviousBlock = &xStart;
				pxBlock = xStart.pxNextFreeBlock;
				while( ( pxBlock->xBlockSize < xWantedSize ) && ( pxBlock->pxNextFreeBlock != NULL ) )
 8004a98:	697b      	ldr	r3, [r7, #20]
 8004a9a:	685a      	ldr	r2, [r3, #4]
 8004a9c:	687b      	ldr	r3, [r7, #4]
 8004a9e:	429a      	cmp	r2, r3
 8004aa0:	d203      	bcs.n	8004aaa <pvPortMalloc+0x82>
 8004aa2:	697b      	ldr	r3, [r7, #20]
 8004aa4:	681b      	ldr	r3, [r3, #0]
 8004aa6:	2b00      	cmp	r3, #0
 8004aa8:	d1f1      	bne.n	8004a8e <pvPortMalloc+0x66>
					pxBlock = pxBlock->pxNextFreeBlock;
				}

				/* If the end marker was reached then a block of adequate size 
				was	not found. */
				if( pxBlock != pxEnd )
 8004aaa:	4b21      	ldr	r3, [pc, #132]	; (8004b30 <pvPortMalloc+0x108>)
 8004aac:	681b      	ldr	r3, [r3, #0]
 8004aae:	697a      	ldr	r2, [r7, #20]
 8004ab0:	429a      	cmp	r2, r3
 8004ab2:	d031      	beq.n	8004b18 <pvPortMalloc+0xf0>
				{
					/* Return the memory space pointed to - jumping over the 
					xBlockLink structure at its start. */
					pvReturn = ( void * ) ( ( ( unsigned char * ) pxPreviousBlock->pxNextFreeBlock ) + heapSTRUCT_SIZE );
 8004ab4:	693b      	ldr	r3, [r7, #16]
 8004ab6:	681a      	ldr	r2, [r3, #0]
 8004ab8:	2308      	movs	r3, #8
 8004aba:	4413      	add	r3, r2
 8004abc:	60fb      	str	r3, [r7, #12]

					/* This block is being returned for use so must be taken out 
					of the list of free blocks. */
					pxPreviousBlock->pxNextFreeBlock = pxBlock->pxNextFreeBlock;
 8004abe:	697b      	ldr	r3, [r7, #20]
 8004ac0:	681a      	ldr	r2, [r3, #0]
 8004ac2:	693b      	ldr	r3, [r7, #16]
 8004ac4:	601a      	str	r2, [r3, #0]

					/* If the block is larger than required it can be split into 
					two. */
					if( ( pxBlock->xBlockSize - xWantedSize ) > heapMINIMUM_BLOCK_SIZE )
 8004ac6:	697b      	ldr	r3, [r7, #20]
 8004ac8:	685a      	ldr	r2, [r3, #4]
 8004aca:	687b      	ldr	r3, [r7, #4]
 8004acc:	1ad2      	subs	r2, r2, r3
 8004ace:	2308      	movs	r3, #8
 8004ad0:	005b      	lsls	r3, r3, #1
 8004ad2:	429a      	cmp	r2, r3
 8004ad4:	d90f      	bls.n	8004af6 <pvPortMalloc+0xce>
					{
						/* This block is to be split into two.  Create a new 
						block following the number of bytes requested. The void 
						cast is used to prevent byte alignment warnings from the 
						compiler. */
						pxNewBlockLink = ( void * ) ( ( ( unsigned char * ) pxBlock ) + xWantedSize );
 8004ad6:	697a      	ldr	r2, [r7, #20]
 8004ad8:	687b      	ldr	r3, [r7, #4]
 8004ada:	4413      	add	r3, r2
 8004adc:	60bb      	str	r3, [r7, #8]

						/* Calculate the sizes of two blocks split from the 
						single block. */
						pxNewBlockLink->xBlockSize = pxBlock->xBlockSize - xWantedSize;
 8004ade:	697b      	ldr	r3, [r7, #20]
 8004ae0:	685a      	ldr	r2, [r3, #4]
 8004ae2:	687b      	ldr	r3, [r7, #4]
 8004ae4:	1ad2      	subs	r2, r2, r3
 8004ae6:	68bb      	ldr	r3, [r7, #8]
 8004ae8:	605a      	str	r2, [r3, #4]
						pxBlock->xBlockSize = xWantedSize;
 8004aea:	697b      	ldr	r3, [r7, #20]
 8004aec:	687a      	ldr	r2, [r7, #4]
 8004aee:	605a      	str	r2, [r3, #4]

						/* Insert the new block into the list of free blocks. */
						prvInsertBlockIntoFreeList( ( pxNewBlockLink ) );
 8004af0:	68b8      	ldr	r0, [r7, #8]
 8004af2:	f000 f8bd 	bl	8004c70 <prvInsertBlockIntoFreeList>
					}

					xFreeBytesRemaining -= pxBlock->xBlockSize;
 8004af6:	4b10      	ldr	r3, [pc, #64]	; (8004b38 <pvPortMalloc+0x110>)
 8004af8:	681a      	ldr	r2, [r3, #0]
 8004afa:	697b      	ldr	r3, [r7, #20]
 8004afc:	685b      	ldr	r3, [r3, #4]
 8004afe:	1ad2      	subs	r2, r2, r3
 8004b00:	4b0d      	ldr	r3, [pc, #52]	; (8004b38 <pvPortMalloc+0x110>)
 8004b02:	601a      	str	r2, [r3, #0]

					/* The block is being returned - it is allocated and owned
					by the application and has no "next" block. */
					pxBlock->xBlockSize |= xBlockAllocatedBit;
 8004b04:	697b      	ldr	r3, [r7, #20]
 8004b06:	685a      	ldr	r2, [r3, #4]
 8004b08:	4b0a      	ldr	r3, [pc, #40]	; (8004b34 <pvPortMalloc+0x10c>)
 8004b0a:	681b      	ldr	r3, [r3, #0]
 8004b0c:	431a      	orrs	r2, r3
 8004b0e:	697b      	ldr	r3, [r7, #20]
 8004b10:	605a      	str	r2, [r3, #4]
					pxBlock->pxNextFreeBlock = NULL;
 8004b12:	697b      	ldr	r3, [r7, #20]
 8004b14:	2200      	movs	r2, #0
 8004b16:	601a      	str	r2, [r3, #0]
			}
		}

		traceMALLOC( pvReturn, xWantedSize );
	}
	xTaskResumeAll();
 8004b18:	f7fe f882 	bl	8002c20 <xTaskResumeAll>

	#if( configUSE_MALLOC_FAILED_HOOK == 1 )
	{
		if( pvReturn == NULL )
 8004b1c:	68fb      	ldr	r3, [r7, #12]
 8004b1e:	2b00      	cmp	r3, #0
 8004b20:	d101      	bne.n	8004b26 <pvPortMalloc+0xfe>
		{
			extern void vApplicationMallocFailedHook( void );
			vApplicationMallocFailedHook();
 8004b22:	f7fd fcf7 	bl	8002514 <vApplicationMallocFailedHook>
		}
	}
	#endif

	return pvReturn;
 8004b26:	68fb      	ldr	r3, [r7, #12]
}
 8004b28:	4618      	mov	r0, r3
 8004b2a:	3718      	adds	r7, #24
 8004b2c:	46bd      	mov	sp, r7
 8004b2e:	bd80      	pop	{r7, pc}
 8004b30:	200131e4 	.word	0x200131e4
 8004b34:	200131e8 	.word	0x200131e8
 8004b38:	20000018 	.word	0x20000018
 8004b3c:	200131dc 	.word	0x200131dc

08004b40 <vPortFree>:
/*-----------------------------------------------------------*/

void vPortFree( void *pv )
{
 8004b40:	b580      	push	{r7, lr}
 8004b42:	b084      	sub	sp, #16
 8004b44:	af00      	add	r7, sp, #0
 8004b46:	6078      	str	r0, [r7, #4]
unsigned char *puc = ( unsigned char * ) pv;
 8004b48:	687b      	ldr	r3, [r7, #4]
 8004b4a:	60fb      	str	r3, [r7, #12]
xBlockLink *pxLink;

	if( pv != NULL )
 8004b4c:	687b      	ldr	r3, [r7, #4]
 8004b4e:	2b00      	cmp	r3, #0
 8004b50:	d038      	beq.n	8004bc4 <vPortFree+0x84>
	{
		/* The memory being freed will have an xBlockLink structure immediately
		before it. */
		puc -= heapSTRUCT_SIZE;
 8004b52:	2308      	movs	r3, #8
 8004b54:	425b      	negs	r3, r3
 8004b56:	68fa      	ldr	r2, [r7, #12]
 8004b58:	4413      	add	r3, r2
 8004b5a:	60fb      	str	r3, [r7, #12]

		/* This casting is to keep the compiler from issuing warnings. */
		pxLink = ( void * ) puc;
 8004b5c:	68fb      	ldr	r3, [r7, #12]
 8004b5e:	60bb      	str	r3, [r7, #8]

		/* Check the block is actually allocated. */
		configASSERT( ( pxLink->xBlockSize & xBlockAllocatedBit ) != 0 );
 8004b60:	68bb      	ldr	r3, [r7, #8]
 8004b62:	685a      	ldr	r2, [r3, #4]
 8004b64:	4b19      	ldr	r3, [pc, #100]	; (8004bcc <vPortFree+0x8c>)
 8004b66:	681b      	ldr	r3, [r3, #0]
 8004b68:	4013      	ands	r3, r2
 8004b6a:	2b00      	cmp	r3, #0
 8004b6c:	d102      	bne.n	8004b74 <vPortFree+0x34>
 8004b6e:	f7ff fad9 	bl	8004124 <ulPortSetInterruptMask>
 8004b72:	e7fe      	b.n	8004b72 <vPortFree+0x32>
		configASSERT( pxLink->pxNextFreeBlock == NULL );
 8004b74:	68bb      	ldr	r3, [r7, #8]
 8004b76:	681b      	ldr	r3, [r3, #0]
 8004b78:	2b00      	cmp	r3, #0
 8004b7a:	d002      	beq.n	8004b82 <vPortFree+0x42>
 8004b7c:	f7ff fad2 	bl	8004124 <ulPortSetInterruptMask>
 8004b80:	e7fe      	b.n	8004b80 <vPortFree+0x40>
		
		if( ( pxLink->xBlockSize & xBlockAllocatedBit ) != 0 )
 8004b82:	68bb      	ldr	r3, [r7, #8]
 8004b84:	685a      	ldr	r2, [r3, #4]
 8004b86:	4b11      	ldr	r3, [pc, #68]	; (8004bcc <vPortFree+0x8c>)
 8004b88:	681b      	ldr	r3, [r3, #0]
 8004b8a:	4013      	ands	r3, r2
 8004b8c:	2b00      	cmp	r3, #0
 8004b8e:	d019      	beq.n	8004bc4 <vPortFree+0x84>
		{
			if( pxLink->pxNextFreeBlock == NULL )
 8004b90:	68bb      	ldr	r3, [r7, #8]
 8004b92:	681b      	ldr	r3, [r3, #0]
 8004b94:	2b00      	cmp	r3, #0
 8004b96:	d115      	bne.n	8004bc4 <vPortFree+0x84>
			{
				/* The block is being returned to the heap - it is no longer
				allocated. */
				pxLink->xBlockSize &= ~xBlockAllocatedBit;
 8004b98:	68bb      	ldr	r3, [r7, #8]
 8004b9a:	685a      	ldr	r2, [r3, #4]
 8004b9c:	4b0b      	ldr	r3, [pc, #44]	; (8004bcc <vPortFree+0x8c>)
 8004b9e:	681b      	ldr	r3, [r3, #0]
 8004ba0:	43db      	mvns	r3, r3
 8004ba2:	401a      	ands	r2, r3
 8004ba4:	68bb      	ldr	r3, [r7, #8]
 8004ba6:	605a      	str	r2, [r3, #4]

				vTaskSuspendAll();
 8004ba8:	f7fe f82c 	bl	8002c04 <vTaskSuspendAll>
				{
					/* Add this block to the list of free blocks. */
					xFreeBytesRemaining += pxLink->xBlockSize;
 8004bac:	68bb      	ldr	r3, [r7, #8]
 8004bae:	685a      	ldr	r2, [r3, #4]
 8004bb0:	4b07      	ldr	r3, [pc, #28]	; (8004bd0 <vPortFree+0x90>)
 8004bb2:	681b      	ldr	r3, [r3, #0]
 8004bb4:	441a      	add	r2, r3
 8004bb6:	4b06      	ldr	r3, [pc, #24]	; (8004bd0 <vPortFree+0x90>)
 8004bb8:	601a      	str	r2, [r3, #0]
					prvInsertBlockIntoFreeList( ( ( xBlockLink * ) pxLink ) );
 8004bba:	68b8      	ldr	r0, [r7, #8]
 8004bbc:	f000 f858 	bl	8004c70 <prvInsertBlockIntoFreeList>
					traceFREE( pv, pxLink->xBlockSize );
				}
				xTaskResumeAll();
 8004bc0:	f7fe f82e 	bl	8002c20 <xTaskResumeAll>
			}
		}
	}
}
 8004bc4:	3710      	adds	r7, #16
 8004bc6:	46bd      	mov	sp, r7
 8004bc8:	bd80      	pop	{r7, pc}
 8004bca:	bf00      	nop
 8004bcc:	200131e8 	.word	0x200131e8
 8004bd0:	20000018 	.word	0x20000018

08004bd4 <prvHeapInit>:
	/* This just exists to keep the linker quiet. */
}
/*-----------------------------------------------------------*/

static void prvHeapInit( void )
{
 8004bd4:	b580      	push	{r7, lr}
 8004bd6:	b084      	sub	sp, #16
 8004bd8:	af00      	add	r7, sp, #0
xBlockLink *pxFirstFreeBlock;
unsigned char *pucHeapEnd, *pucAlignedHeap;

	/* Ensure the heap starts on a correctly aligned boundary. */
	pucAlignedHeap = ( unsigned char * ) ( ( ( portPOINTER_SIZE_TYPE ) &ucHeap[ portBYTE_ALIGNMENT ] ) & ( ( portPOINTER_SIZE_TYPE ) ~portBYTE_ALIGNMENT_MASK ) );
 8004bda:	4b1f      	ldr	r3, [pc, #124]	; (8004c58 <prvHeapInit+0x84>)
 8004bdc:	f023 0307 	bic.w	r3, r3, #7
 8004be0:	60fb      	str	r3, [r7, #12]

	/* xStart is used to hold a pointer to the first item in the list of free
	blocks.  The void cast is used to prevent compiler warnings. */
	xStart.pxNextFreeBlock = ( void * ) pucAlignedHeap;
 8004be2:	4b1e      	ldr	r3, [pc, #120]	; (8004c5c <prvHeapInit+0x88>)
 8004be4:	68fa      	ldr	r2, [r7, #12]
 8004be6:	601a      	str	r2, [r3, #0]
	xStart.xBlockSize = ( size_t ) 0;
 8004be8:	4b1c      	ldr	r3, [pc, #112]	; (8004c5c <prvHeapInit+0x88>)
 8004bea:	2200      	movs	r2, #0
 8004bec:	605a      	str	r2, [r3, #4]

	/* pxEnd is used to mark the end of the list of free blocks and is inserted
	at the end of the heap space. */
	pucHeapEnd = pucAlignedHeap + xTotalHeapSize;
 8004bee:	4b1c      	ldr	r3, [pc, #112]	; (8004c60 <prvHeapInit+0x8c>)
 8004bf0:	68fa      	ldr	r2, [r7, #12]
 8004bf2:	4413      	add	r3, r2
 8004bf4:	60bb      	str	r3, [r7, #8]
	pucHeapEnd -= heapSTRUCT_SIZE;
 8004bf6:	2308      	movs	r3, #8
 8004bf8:	425b      	negs	r3, r3
 8004bfa:	68ba      	ldr	r2, [r7, #8]
 8004bfc:	4413      	add	r3, r2
 8004bfe:	60bb      	str	r3, [r7, #8]
	pxEnd = ( void * ) pucHeapEnd;
 8004c00:	4b18      	ldr	r3, [pc, #96]	; (8004c64 <prvHeapInit+0x90>)
 8004c02:	68ba      	ldr	r2, [r7, #8]
 8004c04:	601a      	str	r2, [r3, #0]
	configASSERT( ( ( ( unsigned long ) pxEnd ) & ( ( unsigned long ) portBYTE_ALIGNMENT_MASK ) ) == 0UL );
 8004c06:	4b17      	ldr	r3, [pc, #92]	; (8004c64 <prvHeapInit+0x90>)
 8004c08:	681b      	ldr	r3, [r3, #0]
 8004c0a:	f003 0307 	and.w	r3, r3, #7
 8004c0e:	2b00      	cmp	r3, #0
 8004c10:	d002      	beq.n	8004c18 <prvHeapInit+0x44>
 8004c12:	f7ff fa87 	bl	8004124 <ulPortSetInterruptMask>
 8004c16:	e7fe      	b.n	8004c16 <prvHeapInit+0x42>
	pxEnd->xBlockSize = 0;
 8004c18:	4b12      	ldr	r3, [pc, #72]	; (8004c64 <prvHeapInit+0x90>)
 8004c1a:	681b      	ldr	r3, [r3, #0]
 8004c1c:	2200      	movs	r2, #0
 8004c1e:	605a      	str	r2, [r3, #4]
	pxEnd->pxNextFreeBlock = NULL;
 8004c20:	4b10      	ldr	r3, [pc, #64]	; (8004c64 <prvHeapInit+0x90>)
 8004c22:	681b      	ldr	r3, [r3, #0]
 8004c24:	2200      	movs	r2, #0
 8004c26:	601a      	str	r2, [r3, #0]

	/* To start with there is a single free block that is sized to take up the
	entire heap space, minus the space taken by pxEnd. */
	pxFirstFreeBlock = ( void * ) pucAlignedHeap;
 8004c28:	68fb      	ldr	r3, [r7, #12]
 8004c2a:	607b      	str	r3, [r7, #4]
	pxFirstFreeBlock->xBlockSize = xTotalHeapSize - heapSTRUCT_SIZE;
 8004c2c:	4a0c      	ldr	r2, [pc, #48]	; (8004c60 <prvHeapInit+0x8c>)
 8004c2e:	2308      	movs	r3, #8
 8004c30:	1ad2      	subs	r2, r2, r3
 8004c32:	687b      	ldr	r3, [r7, #4]
 8004c34:	605a      	str	r2, [r3, #4]
	pxFirstFreeBlock->pxNextFreeBlock = pxEnd;
 8004c36:	4b0b      	ldr	r3, [pc, #44]	; (8004c64 <prvHeapInit+0x90>)
 8004c38:	681a      	ldr	r2, [r3, #0]
 8004c3a:	687b      	ldr	r3, [r7, #4]
 8004c3c:	601a      	str	r2, [r3, #0]

	/* The heap now contains pxEnd. */
	xFreeBytesRemaining -= heapSTRUCT_SIZE;
 8004c3e:	4b0a      	ldr	r3, [pc, #40]	; (8004c68 <prvHeapInit+0x94>)
 8004c40:	681a      	ldr	r2, [r3, #0]
 8004c42:	2308      	movs	r3, #8
 8004c44:	1ad2      	subs	r2, r2, r3
 8004c46:	4b08      	ldr	r3, [pc, #32]	; (8004c68 <prvHeapInit+0x94>)
 8004c48:	601a      	str	r2, [r3, #0]

	/* Work out the position of the top bit in a size_t variable. */
	xBlockAllocatedBit = ( ( size_t ) 1 ) << ( ( sizeof( size_t ) * heapBITS_PER_BYTE ) - 1 );
 8004c4a:	4b08      	ldr	r3, [pc, #32]	; (8004c6c <prvHeapInit+0x98>)
 8004c4c:	f04f 4200 	mov.w	r2, #2147483648	; 0x80000000
 8004c50:	601a      	str	r2, [r3, #0]
}
 8004c52:	3710      	adds	r7, #16
 8004c54:	46bd      	mov	sp, r7
 8004c56:	bd80      	pop	{r7, pc}
 8004c58:	200005e4 	.word	0x200005e4
 8004c5c:	200131dc 	.word	0x200131dc
 8004c60:	00012bf8 	.word	0x00012bf8
 8004c64:	200131e4 	.word	0x200131e4
 8004c68:	20000018 	.word	0x20000018
 8004c6c:	200131e8 	.word	0x200131e8

08004c70 <prvInsertBlockIntoFreeList>:
/*-----------------------------------------------------------*/

static void prvInsertBlockIntoFreeList( xBlockLink *pxBlockToInsert )
{
 8004c70:	b480      	push	{r7}
 8004c72:	b085      	sub	sp, #20
 8004c74:	af00      	add	r7, sp, #0
 8004c76:	6078      	str	r0, [r7, #4]
xBlockLink *pxIterator;
unsigned char *puc;

	/* Iterate through the list until a block is found that has a higher address
	than the block being inserted. */
	for( pxIterator = &xStart; pxIterator->pxNextFreeBlock < pxBlockToInsert; pxIterator = pxIterator->pxNextFreeBlock )
 8004c78:	4b27      	ldr	r3, [pc, #156]	; (8004d18 <prvInsertBlockIntoFreeList+0xa8>)
 8004c7a:	60fb      	str	r3, [r7, #12]
 8004c7c:	e002      	b.n	8004c84 <prvInsertBlockIntoFreeList+0x14>
 8004c7e:	68fb      	ldr	r3, [r7, #12]
 8004c80:	681b      	ldr	r3, [r3, #0]
 8004c82:	60fb      	str	r3, [r7, #12]
 8004c84:	68fb      	ldr	r3, [r7, #12]
 8004c86:	681a      	ldr	r2, [r3, #0]
 8004c88:	687b      	ldr	r3, [r7, #4]
 8004c8a:	429a      	cmp	r2, r3
 8004c8c:	d3f7      	bcc.n	8004c7e <prvInsertBlockIntoFreeList+0xe>
		/* Nothing to do here, just iterate to the right position. */
	}

	/* Do the block being inserted, and the block it is being inserted after
	make a contiguous block of memory? */	
	puc = ( unsigned char * ) pxIterator;
 8004c8e:	68fb      	ldr	r3, [r7, #12]
 8004c90:	60bb      	str	r3, [r7, #8]
	if( ( puc + pxIterator->xBlockSize ) == ( unsigned char * ) pxBlockToInsert )
 8004c92:	68fb      	ldr	r3, [r7, #12]
 8004c94:	685b      	ldr	r3, [r3, #4]
 8004c96:	68ba      	ldr	r2, [r7, #8]
 8004c98:	441a      	add	r2, r3
 8004c9a:	687b      	ldr	r3, [r7, #4]
 8004c9c:	429a      	cmp	r2, r3
 8004c9e:	d108      	bne.n	8004cb2 <prvInsertBlockIntoFreeList+0x42>
	{
		pxIterator->xBlockSize += pxBlockToInsert->xBlockSize;
 8004ca0:	68fb      	ldr	r3, [r7, #12]
 8004ca2:	685a      	ldr	r2, [r3, #4]
 8004ca4:	687b      	ldr	r3, [r7, #4]
 8004ca6:	685b      	ldr	r3, [r3, #4]
 8004ca8:	441a      	add	r2, r3
 8004caa:	68fb      	ldr	r3, [r7, #12]
 8004cac:	605a      	str	r2, [r3, #4]
		pxBlockToInsert = pxIterator;
 8004cae:	68fb      	ldr	r3, [r7, #12]
 8004cb0:	607b      	str	r3, [r7, #4]
	}

	/* Do the block being inserted, and the block it is being inserted before
	make a contiguous block of memory? */
	puc = ( unsigned char * ) pxBlockToInsert;
 8004cb2:	687b      	ldr	r3, [r7, #4]
 8004cb4:	60bb      	str	r3, [r7, #8]
	if( ( puc + pxBlockToInsert->xBlockSize ) == ( unsigned char * ) pxIterator->pxNextFreeBlock )
 8004cb6:	687b      	ldr	r3, [r7, #4]
 8004cb8:	685b      	ldr	r3, [r3, #4]
 8004cba:	68ba      	ldr	r2, [r7, #8]
 8004cbc:	441a      	add	r2, r3
 8004cbe:	68fb      	ldr	r3, [r7, #12]
 8004cc0:	681b      	ldr	r3, [r3, #0]
 8004cc2:	429a      	cmp	r2, r3
 8004cc4:	d118      	bne.n	8004cf8 <prvInsertBlockIntoFreeList+0x88>
	{
		if( pxIterator->pxNextFreeBlock != pxEnd )
 8004cc6:	68fb      	ldr	r3, [r7, #12]
 8004cc8:	681a      	ldr	r2, [r3, #0]
 8004cca:	4b14      	ldr	r3, [pc, #80]	; (8004d1c <prvInsertBlockIntoFreeList+0xac>)
 8004ccc:	681b      	ldr	r3, [r3, #0]
 8004cce:	429a      	cmp	r2, r3
 8004cd0:	d00d      	beq.n	8004cee <prvInsertBlockIntoFreeList+0x7e>
		{
			/* Form one big block from the two blocks. */
			pxBlockToInsert->xBlockSize += pxIterator->pxNextFreeBlock->xBlockSize;
 8004cd2:	687b      	ldr	r3, [r7, #4]
 8004cd4:	685a      	ldr	r2, [r3, #4]
 8004cd6:	68fb      	ldr	r3, [r7, #12]
 8004cd8:	681b      	ldr	r3, [r3, #0]
 8004cda:	685b      	ldr	r3, [r3, #4]
 8004cdc:	441a      	add	r2, r3
 8004cde:	687b      	ldr	r3, [r7, #4]
 8004ce0:	605a      	str	r2, [r3, #4]
			pxBlockToInsert->pxNextFreeBlock = pxIterator->pxNextFreeBlock->pxNextFreeBlock;
 8004ce2:	68fb      	ldr	r3, [r7, #12]
 8004ce4:	681b      	ldr	r3, [r3, #0]
 8004ce6:	681a      	ldr	r2, [r3, #0]
 8004ce8:	687b      	ldr	r3, [r7, #4]
 8004cea:	601a      	str	r2, [r3, #0]
 8004cec:	e008      	b.n	8004d00 <prvInsertBlockIntoFreeList+0x90>
		}
		else
		{
			pxBlockToInsert->pxNextFreeBlock = pxEnd;
 8004cee:	4b0b      	ldr	r3, [pc, #44]	; (8004d1c <prvInsertBlockIntoFreeList+0xac>)
 8004cf0:	681a      	ldr	r2, [r3, #0]
 8004cf2:	687b      	ldr	r3, [r7, #4]
 8004cf4:	601a      	str	r2, [r3, #0]
 8004cf6:	e003      	b.n	8004d00 <prvInsertBlockIntoFreeList+0x90>
		}
	}
	else
	{
		pxBlockToInsert->pxNextFreeBlock = pxIterator->pxNextFreeBlock;		
 8004cf8:	68fb      	ldr	r3, [r7, #12]
 8004cfa:	681a      	ldr	r2, [r3, #0]
 8004cfc:	687b      	ldr	r3, [r7, #4]
 8004cfe:	601a      	str	r2, [r3, #0]

	/* If the block being inserted plugged a gab, so was merged with the block
	before and the block after, then it's pxNextFreeBlock pointer will have
	already been set, and should not be set here as that would make it point
	to itself. */
	if( pxIterator != pxBlockToInsert )
 8004d00:	68fa      	ldr	r2, [r7, #12]
 8004d02:	687b      	ldr	r3, [r7, #4]
 8004d04:	429a      	cmp	r2, r3
 8004d06:	d002      	beq.n	8004d0e <prvInsertBlockIntoFreeList+0x9e>
	{
		pxIterator->pxNextFreeBlock = pxBlockToInsert;
 8004d08:	68fb      	ldr	r3, [r7, #12]
 8004d0a:	687a      	ldr	r2, [r7, #4]
 8004d0c:	601a      	str	r2, [r3, #0]
	}
}
 8004d0e:	3714      	adds	r7, #20
 8004d10:	46bd      	mov	sp, r7
 8004d12:	f85d 7b04 	ldr.w	r7, [sp], #4
 8004d16:	4770      	bx	lr
 8004d18:	200131dc 	.word	0x200131dc
 8004d1c:	200131e4 	.word	0x200131e4

08004d20 <NVIC_PriorityGroupConfig>:
  * @note   When the NVIC_PriorityGroup_0 is selected, IRQ pre-emption is no more possible. 
  *         The pending IRQ priority will be managed only by the subpriority. 
  * @retval None
  */
void NVIC_PriorityGroupConfig(uint32_t NVIC_PriorityGroup)
{
 8004d20:	b580      	push	{r7, lr}
 8004d22:	b082      	sub	sp, #8
 8004d24:	af00      	add	r7, sp, #0
 8004d26:	6078      	str	r0, [r7, #4]
  /* Check the parameters */
  assert_param(IS_NVIC_PRIORITY_GROUP(NVIC_PriorityGroup));
 8004d28:	687b      	ldr	r3, [r7, #4]
 8004d2a:	f5b3 6fe0 	cmp.w	r3, #1792	; 0x700
 8004d2e:	d013      	beq.n	8004d58 <NVIC_PriorityGroupConfig+0x38>
 8004d30:	687b      	ldr	r3, [r7, #4]
 8004d32:	f5b3 6fc0 	cmp.w	r3, #1536	; 0x600
 8004d36:	d00f      	beq.n	8004d58 <NVIC_PriorityGroupConfig+0x38>
 8004d38:	687b      	ldr	r3, [r7, #4]
 8004d3a:	f5b3 6fa0 	cmp.w	r3, #1280	; 0x500
 8004d3e:	d00b      	beq.n	8004d58 <NVIC_PriorityGroupConfig+0x38>
 8004d40:	687b      	ldr	r3, [r7, #4]
 8004d42:	f5b3 6f80 	cmp.w	r3, #1024	; 0x400
 8004d46:	d007      	beq.n	8004d58 <NVIC_PriorityGroupConfig+0x38>
 8004d48:	687b      	ldr	r3, [r7, #4]
 8004d4a:	f5b3 7f40 	cmp.w	r3, #768	; 0x300
 8004d4e:	d003      	beq.n	8004d58 <NVIC_PriorityGroupConfig+0x38>
 8004d50:	4806      	ldr	r0, [pc, #24]	; (8004d6c <NVIC_PriorityGroupConfig+0x4c>)
 8004d52:	2173      	movs	r1, #115	; 0x73
 8004d54:	f7fd fbf2 	bl	800253c <assert_failed>
  
  /* Set the PRIGROUP[10:8] bits according to NVIC_PriorityGroup value */
  SCB->AIRCR = AIRCR_VECTKEY_MASK | NVIC_PriorityGroup;
 8004d58:	4a05      	ldr	r2, [pc, #20]	; (8004d70 <NVIC_PriorityGroupConfig+0x50>)
 8004d5a:	687b      	ldr	r3, [r7, #4]
 8004d5c:	f043 63bf 	orr.w	r3, r3, #100139008	; 0x5f80000
 8004d60:	f443 3300 	orr.w	r3, r3, #131072	; 0x20000
 8004d64:	60d3      	str	r3, [r2, #12]
}
 8004d66:	3708      	adds	r7, #8
 8004d68:	46bd      	mov	sp, r7
 8004d6a:	bd80      	pop	{r7, pc}
 8004d6c:	08007a94 	.word	0x08007a94
 8004d70:	e000ed00 	.word	0xe000ed00

08004d74 <NVIC_Init>:
  * @param  NVIC_InitStruct: pointer to a NVIC_InitTypeDef structure that contains
  *         the configuration information for the specified NVIC peripheral.
  * @retval None
  */
void NVIC_Init(NVIC_InitTypeDef* NVIC_InitStruct)
{
 8004d74:	b580      	push	{r7, lr}
 8004d76:	b084      	sub	sp, #16
 8004d78:	af00      	add	r7, sp, #0
 8004d7a:	6078      	str	r0, [r7, #4]
  uint8_t tmppriority = 0x00, tmppre = 0x00, tmpsub = 0x0F;
 8004d7c:	2300      	movs	r3, #0
 8004d7e:	73fb      	strb	r3, [r7, #15]
 8004d80:	2300      	movs	r3, #0
 8004d82:	73bb      	strb	r3, [r7, #14]
 8004d84:	230f      	movs	r3, #15
 8004d86:	737b      	strb	r3, [r7, #13]
  
  /* Check the parameters */
  assert_param(IS_FUNCTIONAL_STATE(NVIC_InitStruct->NVIC_IRQChannelCmd));
 8004d88:	687b      	ldr	r3, [r7, #4]
 8004d8a:	78db      	ldrb	r3, [r3, #3]
 8004d8c:	2b00      	cmp	r3, #0
 8004d8e:	d007      	beq.n	8004da0 <NVIC_Init+0x2c>
 8004d90:	687b      	ldr	r3, [r7, #4]
 8004d92:	78db      	ldrb	r3, [r3, #3]
 8004d94:	2b01      	cmp	r3, #1
 8004d96:	d003      	beq.n	8004da0 <NVIC_Init+0x2c>
 8004d98:	4830      	ldr	r0, [pc, #192]	; (8004e5c <NVIC_Init+0xe8>)
 8004d9a:	2187      	movs	r1, #135	; 0x87
 8004d9c:	f7fd fbce 	bl	800253c <assert_failed>
  assert_param(IS_NVIC_PREEMPTION_PRIORITY(NVIC_InitStruct->NVIC_IRQChannelPreemptionPriority));  
 8004da0:	687b      	ldr	r3, [r7, #4]
 8004da2:	785b      	ldrb	r3, [r3, #1]
 8004da4:	2b0f      	cmp	r3, #15
 8004da6:	d903      	bls.n	8004db0 <NVIC_Init+0x3c>
 8004da8:	482c      	ldr	r0, [pc, #176]	; (8004e5c <NVIC_Init+0xe8>)
 8004daa:	2188      	movs	r1, #136	; 0x88
 8004dac:	f7fd fbc6 	bl	800253c <assert_failed>
  assert_param(IS_NVIC_SUB_PRIORITY(NVIC_InitStruct->NVIC_IRQChannelSubPriority));
 8004db0:	687b      	ldr	r3, [r7, #4]
 8004db2:	789b      	ldrb	r3, [r3, #2]
 8004db4:	2b0f      	cmp	r3, #15
 8004db6:	d903      	bls.n	8004dc0 <NVIC_Init+0x4c>
 8004db8:	4828      	ldr	r0, [pc, #160]	; (8004e5c <NVIC_Init+0xe8>)
 8004dba:	2189      	movs	r1, #137	; 0x89
 8004dbc:	f7fd fbbe 	bl	800253c <assert_failed>
    
  if (NVIC_InitStruct->NVIC_IRQChannelCmd != DISABLE)
 8004dc0:	687b      	ldr	r3, [r7, #4]
 8004dc2:	78db      	ldrb	r3, [r3, #3]
 8004dc4:	2b00      	cmp	r3, #0
 8004dc6:	d037      	beq.n	8004e38 <NVIC_Init+0xc4>
  {
    /* Compute the Corresponding IRQ Priority --------------------------------*/    
    tmppriority = (0x700 - ((SCB->AIRCR) & (uint32_t)0x700))>> 0x08;
 8004dc8:	4b25      	ldr	r3, [pc, #148]	; (8004e60 <NVIC_Init+0xec>)
 8004dca:	68db      	ldr	r3, [r3, #12]
 8004dcc:	43db      	mvns	r3, r3
 8004dce:	f403 63e0 	and.w	r3, r3, #1792	; 0x700
 8004dd2:	0a1b      	lsrs	r3, r3, #8
 8004dd4:	73fb      	strb	r3, [r7, #15]
    tmppre = (0x4 - tmppriority);
 8004dd6:	7bfb      	ldrb	r3, [r7, #15]
 8004dd8:	f1c3 0304 	rsb	r3, r3, #4
 8004ddc:	73bb      	strb	r3, [r7, #14]
    tmpsub = tmpsub >> tmppriority;
 8004dde:	7b7a      	ldrb	r2, [r7, #13]
 8004de0:	7bfb      	ldrb	r3, [r7, #15]
 8004de2:	fa42 f303 	asr.w	r3, r2, r3
 8004de6:	737b      	strb	r3, [r7, #13]

    tmppriority = NVIC_InitStruct->NVIC_IRQChannelPreemptionPriority << tmppre;
 8004de8:	687b      	ldr	r3, [r7, #4]
 8004dea:	785b      	ldrb	r3, [r3, #1]
 8004dec:	461a      	mov	r2, r3
 8004dee:	7bbb      	ldrb	r3, [r7, #14]
 8004df0:	fa02 f303 	lsl.w	r3, r2, r3
 8004df4:	73fb      	strb	r3, [r7, #15]
    tmppriority |=  (uint8_t)(NVIC_InitStruct->NVIC_IRQChannelSubPriority & tmpsub);
 8004df6:	687b      	ldr	r3, [r7, #4]
 8004df8:	789a      	ldrb	r2, [r3, #2]
 8004dfa:	7b7b      	ldrb	r3, [r7, #13]
 8004dfc:	4013      	ands	r3, r2
 8004dfe:	b2da      	uxtb	r2, r3
 8004e00:	7bfb      	ldrb	r3, [r7, #15]
 8004e02:	4313      	orrs	r3, r2
 8004e04:	73fb      	strb	r3, [r7, #15]
        
    tmppriority = tmppriority << 0x04;
 8004e06:	7bfb      	ldrb	r3, [r7, #15]
 8004e08:	011b      	lsls	r3, r3, #4
 8004e0a:	73fb      	strb	r3, [r7, #15]
        
    NVIC->IP[NVIC_InitStruct->NVIC_IRQChannel] = tmppriority;
 8004e0c:	4a15      	ldr	r2, [pc, #84]	; (8004e64 <NVIC_Init+0xf0>)
 8004e0e:	687b      	ldr	r3, [r7, #4]
 8004e10:	781b      	ldrb	r3, [r3, #0]
 8004e12:	4413      	add	r3, r2
 8004e14:	7bfa      	ldrb	r2, [r7, #15]
 8004e16:	f883 2300 	strb.w	r2, [r3, #768]	; 0x300
    
    /* Enable the Selected IRQ Channels --------------------------------------*/
    NVIC->ISER[NVIC_InitStruct->NVIC_IRQChannel >> 0x05] =
 8004e1a:	4b12      	ldr	r3, [pc, #72]	; (8004e64 <NVIC_Init+0xf0>)
 8004e1c:	687a      	ldr	r2, [r7, #4]
 8004e1e:	7812      	ldrb	r2, [r2, #0]
 8004e20:	0952      	lsrs	r2, r2, #5
 8004e22:	b2d2      	uxtb	r2, r2
      (uint32_t)0x01 << (NVIC_InitStruct->NVIC_IRQChannel & (uint8_t)0x1F);
 8004e24:	6879      	ldr	r1, [r7, #4]
 8004e26:	7809      	ldrb	r1, [r1, #0]
 8004e28:	f001 011f 	and.w	r1, r1, #31
 8004e2c:	2001      	movs	r0, #1
 8004e2e:	fa00 f101 	lsl.w	r1, r0, r1
    tmppriority = tmppriority << 0x04;
        
    NVIC->IP[NVIC_InitStruct->NVIC_IRQChannel] = tmppriority;
    
    /* Enable the Selected IRQ Channels --------------------------------------*/
    NVIC->ISER[NVIC_InitStruct->NVIC_IRQChannel >> 0x05] =
 8004e32:	f843 1022 	str.w	r1, [r3, r2, lsl #2]
 8004e36:	e00e      	b.n	8004e56 <NVIC_Init+0xe2>
      (uint32_t)0x01 << (NVIC_InitStruct->NVIC_IRQChannel & (uint8_t)0x1F);
  }
  else
  {
    /* Disable the Selected IRQ Channels -------------------------------------*/
    NVIC->ICER[NVIC_InitStruct->NVIC_IRQChannel >> 0x05] =
 8004e38:	4b0a      	ldr	r3, [pc, #40]	; (8004e64 <NVIC_Init+0xf0>)
 8004e3a:	687a      	ldr	r2, [r7, #4]
 8004e3c:	7812      	ldrb	r2, [r2, #0]
 8004e3e:	0952      	lsrs	r2, r2, #5
 8004e40:	b2d2      	uxtb	r2, r2
      (uint32_t)0x01 << (NVIC_InitStruct->NVIC_IRQChannel & (uint8_t)0x1F);
 8004e42:	6879      	ldr	r1, [r7, #4]
 8004e44:	7809      	ldrb	r1, [r1, #0]
 8004e46:	f001 011f 	and.w	r1, r1, #31
 8004e4a:	2001      	movs	r0, #1
 8004e4c:	fa00 f101 	lsl.w	r1, r0, r1
      (uint32_t)0x01 << (NVIC_InitStruct->NVIC_IRQChannel & (uint8_t)0x1F);
  }
  else
  {
    /* Disable the Selected IRQ Channels -------------------------------------*/
    NVIC->ICER[NVIC_InitStruct->NVIC_IRQChannel >> 0x05] =
 8004e50:	3220      	adds	r2, #32
 8004e52:	f843 1022 	str.w	r1, [r3, r2, lsl #2]
      (uint32_t)0x01 << (NVIC_InitStruct->NVIC_IRQChannel & (uint8_t)0x1F);
  }
}
 8004e56:	3710      	adds	r7, #16
 8004e58:	46bd      	mov	sp, r7
 8004e5a:	bd80      	pop	{r7, pc}
 8004e5c:	08007a94 	.word	0x08007a94
 8004e60:	e000ed00 	.word	0xe000ed00
 8004e64:	e000e100 	.word	0xe000e100

08004e68 <DMA_DeInit>:
  * @param  DMAy_Streamx: where y can be 1 or 2 to select the DMA and x can be 0
  *         to 7 to select the DMA Stream.
  * @retval None
  */
void DMA_DeInit(DMA_Stream_TypeDef* DMAy_Streamx)
{
 8004e68:	b580      	push	{r7, lr}
 8004e6a:	b082      	sub	sp, #8
 8004e6c:	af00      	add	r7, sp, #0
 8004e6e:	6078      	str	r0, [r7, #4]
  /* Check the parameters */
  assert_param(IS_DMA_ALL_PERIPH(DMAy_Streamx));
 8004e70:	687a      	ldr	r2, [r7, #4]
 8004e72:	4b72      	ldr	r3, [pc, #456]	; (800503c <DMA_DeInit+0x1d4>)
 8004e74:	429a      	cmp	r2, r3
 8004e76:	d03f      	beq.n	8004ef8 <DMA_DeInit+0x90>
 8004e78:	687a      	ldr	r2, [r7, #4]
 8004e7a:	4b71      	ldr	r3, [pc, #452]	; (8005040 <DMA_DeInit+0x1d8>)
 8004e7c:	429a      	cmp	r2, r3
 8004e7e:	d03b      	beq.n	8004ef8 <DMA_DeInit+0x90>
 8004e80:	687a      	ldr	r2, [r7, #4]
 8004e82:	4b70      	ldr	r3, [pc, #448]	; (8005044 <DMA_DeInit+0x1dc>)
 8004e84:	429a      	cmp	r2, r3
 8004e86:	d037      	beq.n	8004ef8 <DMA_DeInit+0x90>
 8004e88:	687a      	ldr	r2, [r7, #4]
 8004e8a:	4b6f      	ldr	r3, [pc, #444]	; (8005048 <DMA_DeInit+0x1e0>)
 8004e8c:	429a      	cmp	r2, r3
 8004e8e:	d033      	beq.n	8004ef8 <DMA_DeInit+0x90>
 8004e90:	687a      	ldr	r2, [r7, #4]
 8004e92:	4b6e      	ldr	r3, [pc, #440]	; (800504c <DMA_DeInit+0x1e4>)
 8004e94:	429a      	cmp	r2, r3
 8004e96:	d02f      	beq.n	8004ef8 <DMA_DeInit+0x90>
 8004e98:	687a      	ldr	r2, [r7, #4]
 8004e9a:	4b6d      	ldr	r3, [pc, #436]	; (8005050 <DMA_DeInit+0x1e8>)
 8004e9c:	429a      	cmp	r2, r3
 8004e9e:	d02b      	beq.n	8004ef8 <DMA_DeInit+0x90>
 8004ea0:	687a      	ldr	r2, [r7, #4]
 8004ea2:	4b6c      	ldr	r3, [pc, #432]	; (8005054 <DMA_DeInit+0x1ec>)
 8004ea4:	429a      	cmp	r2, r3
 8004ea6:	d027      	beq.n	8004ef8 <DMA_DeInit+0x90>
 8004ea8:	687a      	ldr	r2, [r7, #4]
 8004eaa:	4b6b      	ldr	r3, [pc, #428]	; (8005058 <DMA_DeInit+0x1f0>)
 8004eac:	429a      	cmp	r2, r3
 8004eae:	d023      	beq.n	8004ef8 <DMA_DeInit+0x90>
 8004eb0:	687a      	ldr	r2, [r7, #4]
 8004eb2:	4b6a      	ldr	r3, [pc, #424]	; (800505c <DMA_DeInit+0x1f4>)
 8004eb4:	429a      	cmp	r2, r3
 8004eb6:	d01f      	beq.n	8004ef8 <DMA_DeInit+0x90>
 8004eb8:	687a      	ldr	r2, [r7, #4]
 8004eba:	4b69      	ldr	r3, [pc, #420]	; (8005060 <DMA_DeInit+0x1f8>)
 8004ebc:	429a      	cmp	r2, r3
 8004ebe:	d01b      	beq.n	8004ef8 <DMA_DeInit+0x90>
 8004ec0:	687a      	ldr	r2, [r7, #4]
 8004ec2:	4b68      	ldr	r3, [pc, #416]	; (8005064 <DMA_DeInit+0x1fc>)
 8004ec4:	429a      	cmp	r2, r3
 8004ec6:	d017      	beq.n	8004ef8 <DMA_DeInit+0x90>
 8004ec8:	687a      	ldr	r2, [r7, #4]
 8004eca:	4b67      	ldr	r3, [pc, #412]	; (8005068 <DMA_DeInit+0x200>)
 8004ecc:	429a      	cmp	r2, r3
 8004ece:	d013      	beq.n	8004ef8 <DMA_DeInit+0x90>
 8004ed0:	687a      	ldr	r2, [r7, #4]
 8004ed2:	4b66      	ldr	r3, [pc, #408]	; (800506c <DMA_DeInit+0x204>)
 8004ed4:	429a      	cmp	r2, r3
 8004ed6:	d00f      	beq.n	8004ef8 <DMA_DeInit+0x90>
 8004ed8:	687a      	ldr	r2, [r7, #4]
 8004eda:	4b65      	ldr	r3, [pc, #404]	; (8005070 <DMA_DeInit+0x208>)
 8004edc:	429a      	cmp	r2, r3
 8004ede:	d00b      	beq.n	8004ef8 <DMA_DeInit+0x90>
 8004ee0:	687a      	ldr	r2, [r7, #4]
 8004ee2:	4b64      	ldr	r3, [pc, #400]	; (8005074 <DMA_DeInit+0x20c>)
 8004ee4:	429a      	cmp	r2, r3
 8004ee6:	d007      	beq.n	8004ef8 <DMA_DeInit+0x90>
 8004ee8:	687a      	ldr	r2, [r7, #4]
 8004eea:	4b63      	ldr	r3, [pc, #396]	; (8005078 <DMA_DeInit+0x210>)
 8004eec:	429a      	cmp	r2, r3
 8004eee:	d003      	beq.n	8004ef8 <DMA_DeInit+0x90>
 8004ef0:	4862      	ldr	r0, [pc, #392]	; (800507c <DMA_DeInit+0x214>)
 8004ef2:	21bf      	movs	r1, #191	; 0xbf
 8004ef4:	f7fd fb22 	bl	800253c <assert_failed>

  /* Disable the selected DMAy Streamx */
  DMAy_Streamx->CR &= ~((uint32_t)DMA_SxCR_EN);
 8004ef8:	687b      	ldr	r3, [r7, #4]
 8004efa:	681b      	ldr	r3, [r3, #0]
 8004efc:	f023 0201 	bic.w	r2, r3, #1
 8004f00:	687b      	ldr	r3, [r7, #4]
 8004f02:	601a      	str	r2, [r3, #0]

  /* Reset DMAy Streamx control register */
  DMAy_Streamx->CR  = 0;
 8004f04:	687b      	ldr	r3, [r7, #4]
 8004f06:	2200      	movs	r2, #0
 8004f08:	601a      	str	r2, [r3, #0]
  
  /* Reset DMAy Streamx Number of Data to Transfer register */
  DMAy_Streamx->NDTR = 0;
 8004f0a:	687b      	ldr	r3, [r7, #4]
 8004f0c:	2200      	movs	r2, #0
 8004f0e:	605a      	str	r2, [r3, #4]
  
  /* Reset DMAy Streamx peripheral address register */
  DMAy_Streamx->PAR  = 0;
 8004f10:	687b      	ldr	r3, [r7, #4]
 8004f12:	2200      	movs	r2, #0
 8004f14:	609a      	str	r2, [r3, #8]
  
  /* Reset DMAy Streamx memory 0 address register */
  DMAy_Streamx->M0AR = 0;
 8004f16:	687b      	ldr	r3, [r7, #4]
 8004f18:	2200      	movs	r2, #0
 8004f1a:	60da      	str	r2, [r3, #12]

  /* Reset DMAy Streamx memory 1 address register */
  DMAy_Streamx->M1AR = 0;
 8004f1c:	687b      	ldr	r3, [r7, #4]
 8004f1e:	2200      	movs	r2, #0
 8004f20:	611a      	str	r2, [r3, #16]

  /* Reset DMAy Streamx FIFO control register */
  DMAy_Streamx->FCR = (uint32_t)0x00000021; 
 8004f22:	687b      	ldr	r3, [r7, #4]
 8004f24:	2221      	movs	r2, #33	; 0x21
 8004f26:	615a      	str	r2, [r3, #20]

  /* Reset interrupt pending bits for the selected stream */
  if (DMAy_Streamx == DMA1_Stream0)
 8004f28:	687a      	ldr	r2, [r7, #4]
 8004f2a:	4b44      	ldr	r3, [pc, #272]	; (800503c <DMA_DeInit+0x1d4>)
 8004f2c:	429a      	cmp	r2, r3
 8004f2e:	d103      	bne.n	8004f38 <DMA_DeInit+0xd0>
  {
    /* Reset interrupt pending bits for DMA1 Stream0 */
    DMA1->LIFCR = DMA_Stream0_IT_MASK;
 8004f30:	4b53      	ldr	r3, [pc, #332]	; (8005080 <DMA_DeInit+0x218>)
 8004f32:	223d      	movs	r2, #61	; 0x3d
 8004f34:	609a      	str	r2, [r3, #8]
 8004f36:	e07e      	b.n	8005036 <DMA_DeInit+0x1ce>
  }
  else if (DMAy_Streamx == DMA1_Stream1)
 8004f38:	687a      	ldr	r2, [r7, #4]
 8004f3a:	4b41      	ldr	r3, [pc, #260]	; (8005040 <DMA_DeInit+0x1d8>)
 8004f3c:	429a      	cmp	r2, r3
 8004f3e:	d104      	bne.n	8004f4a <DMA_DeInit+0xe2>
  {
    /* Reset interrupt pending bits for DMA1 Stream1 */
    DMA1->LIFCR = DMA_Stream1_IT_MASK;
 8004f40:	4b4f      	ldr	r3, [pc, #316]	; (8005080 <DMA_DeInit+0x218>)
 8004f42:	f44f 6274 	mov.w	r2, #3904	; 0xf40
 8004f46:	609a      	str	r2, [r3, #8]
 8004f48:	e075      	b.n	8005036 <DMA_DeInit+0x1ce>
  }
  else if (DMAy_Streamx == DMA1_Stream2)
 8004f4a:	687a      	ldr	r2, [r7, #4]
 8004f4c:	4b3d      	ldr	r3, [pc, #244]	; (8005044 <DMA_DeInit+0x1dc>)
 8004f4e:	429a      	cmp	r2, r3
 8004f50:	d104      	bne.n	8004f5c <DMA_DeInit+0xf4>
  {
    /* Reset interrupt pending bits for DMA1 Stream2 */
    DMA1->LIFCR = DMA_Stream2_IT_MASK;
 8004f52:	4b4b      	ldr	r3, [pc, #300]	; (8005080 <DMA_DeInit+0x218>)
 8004f54:	f44f 1274 	mov.w	r2, #3997696	; 0x3d0000
 8004f58:	609a      	str	r2, [r3, #8]
 8004f5a:	e06c      	b.n	8005036 <DMA_DeInit+0x1ce>
  }
  else if (DMAy_Streamx == DMA1_Stream3)
 8004f5c:	687a      	ldr	r2, [r7, #4]
 8004f5e:	4b3a      	ldr	r3, [pc, #232]	; (8005048 <DMA_DeInit+0x1e0>)
 8004f60:	429a      	cmp	r2, r3
 8004f62:	d104      	bne.n	8004f6e <DMA_DeInit+0x106>
  {
    /* Reset interrupt pending bits for DMA1 Stream3 */
    DMA1->LIFCR = DMA_Stream3_IT_MASK;
 8004f64:	4b46      	ldr	r3, [pc, #280]	; (8005080 <DMA_DeInit+0x218>)
 8004f66:	f04f 6274 	mov.w	r2, #255852544	; 0xf400000
 8004f6a:	609a      	str	r2, [r3, #8]
 8004f6c:	e063      	b.n	8005036 <DMA_DeInit+0x1ce>
  }
  else if (DMAy_Streamx == DMA1_Stream4)
 8004f6e:	687a      	ldr	r2, [r7, #4]
 8004f70:	4b36      	ldr	r3, [pc, #216]	; (800504c <DMA_DeInit+0x1e4>)
 8004f72:	429a      	cmp	r2, r3
 8004f74:	d103      	bne.n	8004f7e <DMA_DeInit+0x116>
  {
    /* Reset interrupt pending bits for DMA1 Stream4 */
    DMA1->HIFCR = DMA_Stream4_IT_MASK;
 8004f76:	4b42      	ldr	r3, [pc, #264]	; (8005080 <DMA_DeInit+0x218>)
 8004f78:	4a42      	ldr	r2, [pc, #264]	; (8005084 <DMA_DeInit+0x21c>)
 8004f7a:	60da      	str	r2, [r3, #12]
 8004f7c:	e05b      	b.n	8005036 <DMA_DeInit+0x1ce>
  }
  else if (DMAy_Streamx == DMA1_Stream5)
 8004f7e:	687a      	ldr	r2, [r7, #4]
 8004f80:	4b33      	ldr	r3, [pc, #204]	; (8005050 <DMA_DeInit+0x1e8>)
 8004f82:	429a      	cmp	r2, r3
 8004f84:	d103      	bne.n	8004f8e <DMA_DeInit+0x126>
  {
    /* Reset interrupt pending bits for DMA1 Stream5 */
    DMA1->HIFCR = DMA_Stream5_IT_MASK;
 8004f86:	4b3e      	ldr	r3, [pc, #248]	; (8005080 <DMA_DeInit+0x218>)
 8004f88:	4a3f      	ldr	r2, [pc, #252]	; (8005088 <DMA_DeInit+0x220>)
 8004f8a:	60da      	str	r2, [r3, #12]
 8004f8c:	e053      	b.n	8005036 <DMA_DeInit+0x1ce>
  }
  else if (DMAy_Streamx == DMA1_Stream6)
 8004f8e:	687a      	ldr	r2, [r7, #4]
 8004f90:	4b30      	ldr	r3, [pc, #192]	; (8005054 <DMA_DeInit+0x1ec>)
 8004f92:	429a      	cmp	r2, r3
 8004f94:	d103      	bne.n	8004f9e <DMA_DeInit+0x136>
  {
    /* Reset interrupt pending bits for DMA1 Stream6 */
    DMA1->HIFCR = (uint32_t)DMA_Stream6_IT_MASK;
 8004f96:	4b3a      	ldr	r3, [pc, #232]	; (8005080 <DMA_DeInit+0x218>)
 8004f98:	4a3c      	ldr	r2, [pc, #240]	; (800508c <DMA_DeInit+0x224>)
 8004f9a:	60da      	str	r2, [r3, #12]
 8004f9c:	e04b      	b.n	8005036 <DMA_DeInit+0x1ce>
  }
  else if (DMAy_Streamx == DMA1_Stream7)
 8004f9e:	687a      	ldr	r2, [r7, #4]
 8004fa0:	4b2d      	ldr	r3, [pc, #180]	; (8005058 <DMA_DeInit+0x1f0>)
 8004fa2:	429a      	cmp	r2, r3
 8004fa4:	d104      	bne.n	8004fb0 <DMA_DeInit+0x148>
  {
    /* Reset interrupt pending bits for DMA1 Stream7 */
    DMA1->HIFCR = DMA_Stream7_IT_MASK;
 8004fa6:	4b36      	ldr	r3, [pc, #216]	; (8005080 <DMA_DeInit+0x218>)
 8004fa8:	f04f 523d 	mov.w	r2, #792723456	; 0x2f400000
 8004fac:	60da      	str	r2, [r3, #12]
 8004fae:	e042      	b.n	8005036 <DMA_DeInit+0x1ce>
  }
  else if (DMAy_Streamx == DMA2_Stream0)
 8004fb0:	687a      	ldr	r2, [r7, #4]
 8004fb2:	4b2a      	ldr	r3, [pc, #168]	; (800505c <DMA_DeInit+0x1f4>)
 8004fb4:	429a      	cmp	r2, r3
 8004fb6:	d103      	bne.n	8004fc0 <DMA_DeInit+0x158>
  {
    /* Reset interrupt pending bits for DMA2 Stream0 */
    DMA2->LIFCR = DMA_Stream0_IT_MASK;
 8004fb8:	4b35      	ldr	r3, [pc, #212]	; (8005090 <DMA_DeInit+0x228>)
 8004fba:	223d      	movs	r2, #61	; 0x3d
 8004fbc:	609a      	str	r2, [r3, #8]
 8004fbe:	e03a      	b.n	8005036 <DMA_DeInit+0x1ce>
  }
  else if (DMAy_Streamx == DMA2_Stream1)
 8004fc0:	687a      	ldr	r2, [r7, #4]
 8004fc2:	4b27      	ldr	r3, [pc, #156]	; (8005060 <DMA_DeInit+0x1f8>)
 8004fc4:	429a      	cmp	r2, r3
 8004fc6:	d104      	bne.n	8004fd2 <DMA_DeInit+0x16a>
  {
    /* Reset interrupt pending bits for DMA2 Stream1 */
    DMA2->LIFCR = DMA_Stream1_IT_MASK;
 8004fc8:	4b31      	ldr	r3, [pc, #196]	; (8005090 <DMA_DeInit+0x228>)
 8004fca:	f44f 6274 	mov.w	r2, #3904	; 0xf40
 8004fce:	609a      	str	r2, [r3, #8]
 8004fd0:	e031      	b.n	8005036 <DMA_DeInit+0x1ce>
  }
  else if (DMAy_Streamx == DMA2_Stream2)
 8004fd2:	687a      	ldr	r2, [r7, #4]
 8004fd4:	4b23      	ldr	r3, [pc, #140]	; (8005064 <DMA_DeInit+0x1fc>)
 8004fd6:	429a      	cmp	r2, r3
 8004fd8:	d104      	bne.n	8004fe4 <DMA_DeInit+0x17c>
  {
    /* Reset interrupt pending bits for DMA2 Stream2 */
    DMA2->LIFCR = DMA_Stream2_IT_MASK;
 8004fda:	4b2d      	ldr	r3, [pc, #180]	; (8005090 <DMA_DeInit+0x228>)
 8004fdc:	f44f 1274 	mov.w	r2, #3997696	; 0x3d0000
 8004fe0:	609a      	str	r2, [r3, #8]
 8004fe2:	e028      	b.n	8005036 <DMA_DeInit+0x1ce>
  }
  else if (DMAy_Streamx == DMA2_Stream3)
 8004fe4:	687a      	ldr	r2, [r7, #4]
 8004fe6:	4b20      	ldr	r3, [pc, #128]	; (8005068 <DMA_DeInit+0x200>)
 8004fe8:	429a      	cmp	r2, r3
 8004fea:	d104      	bne.n	8004ff6 <DMA_DeInit+0x18e>
  {
    /* Reset interrupt pending bits for DMA2 Stream3 */
    DMA2->LIFCR = DMA_Stream3_IT_MASK;
 8004fec:	4b28      	ldr	r3, [pc, #160]	; (8005090 <DMA_DeInit+0x228>)
 8004fee:	f04f 6274 	mov.w	r2, #255852544	; 0xf400000
 8004ff2:	609a      	str	r2, [r3, #8]
 8004ff4:	e01f      	b.n	8005036 <DMA_DeInit+0x1ce>
  }
  else if (DMAy_Streamx == DMA2_Stream4)
 8004ff6:	687a      	ldr	r2, [r7, #4]
 8004ff8:	4b1c      	ldr	r3, [pc, #112]	; (800506c <DMA_DeInit+0x204>)
 8004ffa:	429a      	cmp	r2, r3
 8004ffc:	d103      	bne.n	8005006 <DMA_DeInit+0x19e>
  {
    /* Reset interrupt pending bits for DMA2 Stream4 */
    DMA2->HIFCR = DMA_Stream4_IT_MASK;
 8004ffe:	4b24      	ldr	r3, [pc, #144]	; (8005090 <DMA_DeInit+0x228>)
 8005000:	4a20      	ldr	r2, [pc, #128]	; (8005084 <DMA_DeInit+0x21c>)
 8005002:	60da      	str	r2, [r3, #12]
 8005004:	e017      	b.n	8005036 <DMA_DeInit+0x1ce>
  }
  else if (DMAy_Streamx == DMA2_Stream5)
 8005006:	687a      	ldr	r2, [r7, #4]
 8005008:	4b19      	ldr	r3, [pc, #100]	; (8005070 <DMA_DeInit+0x208>)
 800500a:	429a      	cmp	r2, r3
 800500c:	d103      	bne.n	8005016 <DMA_DeInit+0x1ae>
  {
    /* Reset interrupt pending bits for DMA2 Stream5 */
    DMA2->HIFCR = DMA_Stream5_IT_MASK;
 800500e:	4b20      	ldr	r3, [pc, #128]	; (8005090 <DMA_DeInit+0x228>)
 8005010:	4a1d      	ldr	r2, [pc, #116]	; (8005088 <DMA_DeInit+0x220>)
 8005012:	60da      	str	r2, [r3, #12]
 8005014:	e00f      	b.n	8005036 <DMA_DeInit+0x1ce>
  }
  else if (DMAy_Streamx == DMA2_Stream6)
 8005016:	687a      	ldr	r2, [r7, #4]
 8005018:	4b16      	ldr	r3, [pc, #88]	; (8005074 <DMA_DeInit+0x20c>)
 800501a:	429a      	cmp	r2, r3
 800501c:	d103      	bne.n	8005026 <DMA_DeInit+0x1be>
  {
    /* Reset interrupt pending bits for DMA2 Stream6 */
    DMA2->HIFCR = DMA_Stream6_IT_MASK;
 800501e:	4b1c      	ldr	r3, [pc, #112]	; (8005090 <DMA_DeInit+0x228>)
 8005020:	4a1a      	ldr	r2, [pc, #104]	; (800508c <DMA_DeInit+0x224>)
 8005022:	60da      	str	r2, [r3, #12]
 8005024:	e007      	b.n	8005036 <DMA_DeInit+0x1ce>
  }
  else 
  {
    if (DMAy_Streamx == DMA2_Stream7)
 8005026:	687a      	ldr	r2, [r7, #4]
 8005028:	4b13      	ldr	r3, [pc, #76]	; (8005078 <DMA_DeInit+0x210>)
 800502a:	429a      	cmp	r2, r3
 800502c:	d103      	bne.n	8005036 <DMA_DeInit+0x1ce>
    {
      /* Reset interrupt pending bits for DMA2 Stream7 */
      DMA2->HIFCR = DMA_Stream7_IT_MASK;
 800502e:	4b18      	ldr	r3, [pc, #96]	; (8005090 <DMA_DeInit+0x228>)
 8005030:	f04f 523d 	mov.w	r2, #792723456	; 0x2f400000
 8005034:	60da      	str	r2, [r3, #12]
    }
  }
}
 8005036:	3708      	adds	r7, #8
 8005038:	46bd      	mov	sp, r7
 800503a:	bd80      	pop	{r7, pc}
 800503c:	40026010 	.word	0x40026010
 8005040:	40026028 	.word	0x40026028
 8005044:	40026040 	.word	0x40026040
 8005048:	40026058 	.word	0x40026058
 800504c:	40026070 	.word	0x40026070
 8005050:	40026088 	.word	0x40026088
 8005054:	400260a0 	.word	0x400260a0
 8005058:	400260b8 	.word	0x400260b8
 800505c:	40026410 	.word	0x40026410
 8005060:	40026428 	.word	0x40026428
 8005064:	40026440 	.word	0x40026440
 8005068:	40026458 	.word	0x40026458
 800506c:	40026470 	.word	0x40026470
 8005070:	40026488 	.word	0x40026488
 8005074:	400264a0 	.word	0x400264a0
 8005078:	400264b8 	.word	0x400264b8
 800507c:	08007adc 	.word	0x08007adc
 8005080:	40026000 	.word	0x40026000
 8005084:	2000003d 	.word	0x2000003d
 8005088:	20000f40 	.word	0x20000f40
 800508c:	203d0000 	.word	0x203d0000
 8005090:	40026400 	.word	0x40026400

08005094 <DMA_Init>:
  * @param  DMA_InitStruct: pointer to a DMA_InitTypeDef structure that contains
  *         the configuration information for the specified DMA Stream.  
  * @retval None
  */
void DMA_Init(DMA_Stream_TypeDef* DMAy_Streamx, DMA_InitTypeDef* DMA_InitStruct)
{
 8005094:	b580      	push	{r7, lr}
 8005096:	b084      	sub	sp, #16
 8005098:	af00      	add	r7, sp, #0
 800509a:	6078      	str	r0, [r7, #4]
 800509c:	6039      	str	r1, [r7, #0]
  uint32_t tmpreg = 0;
 800509e:	2300      	movs	r3, #0
 80050a0:	60fb      	str	r3, [r7, #12]

  /* Check the parameters */
  assert_param(IS_DMA_ALL_PERIPH(DMAy_Streamx));
 80050a2:	687a      	ldr	r2, [r7, #4]
 80050a4:	4b98      	ldr	r3, [pc, #608]	; (8005308 <DMA_Init+0x274>)
 80050a6:	429a      	cmp	r2, r3
 80050a8:	d040      	beq.n	800512c <DMA_Init+0x98>
 80050aa:	687a      	ldr	r2, [r7, #4]
 80050ac:	4b97      	ldr	r3, [pc, #604]	; (800530c <DMA_Init+0x278>)
 80050ae:	429a      	cmp	r2, r3
 80050b0:	d03c      	beq.n	800512c <DMA_Init+0x98>
 80050b2:	687a      	ldr	r2, [r7, #4]
 80050b4:	4b96      	ldr	r3, [pc, #600]	; (8005310 <DMA_Init+0x27c>)
 80050b6:	429a      	cmp	r2, r3
 80050b8:	d038      	beq.n	800512c <DMA_Init+0x98>
 80050ba:	687a      	ldr	r2, [r7, #4]
 80050bc:	4b95      	ldr	r3, [pc, #596]	; (8005314 <DMA_Init+0x280>)
 80050be:	429a      	cmp	r2, r3
 80050c0:	d034      	beq.n	800512c <DMA_Init+0x98>
 80050c2:	687a      	ldr	r2, [r7, #4]
 80050c4:	4b94      	ldr	r3, [pc, #592]	; (8005318 <DMA_Init+0x284>)
 80050c6:	429a      	cmp	r2, r3
 80050c8:	d030      	beq.n	800512c <DMA_Init+0x98>
 80050ca:	687a      	ldr	r2, [r7, #4]
 80050cc:	4b93      	ldr	r3, [pc, #588]	; (800531c <DMA_Init+0x288>)
 80050ce:	429a      	cmp	r2, r3
 80050d0:	d02c      	beq.n	800512c <DMA_Init+0x98>
 80050d2:	687a      	ldr	r2, [r7, #4]
 80050d4:	4b92      	ldr	r3, [pc, #584]	; (8005320 <DMA_Init+0x28c>)
 80050d6:	429a      	cmp	r2, r3
 80050d8:	d028      	beq.n	800512c <DMA_Init+0x98>
 80050da:	687a      	ldr	r2, [r7, #4]
 80050dc:	4b91      	ldr	r3, [pc, #580]	; (8005324 <DMA_Init+0x290>)
 80050de:	429a      	cmp	r2, r3
 80050e0:	d024      	beq.n	800512c <DMA_Init+0x98>
 80050e2:	687a      	ldr	r2, [r7, #4]
 80050e4:	4b90      	ldr	r3, [pc, #576]	; (8005328 <DMA_Init+0x294>)
 80050e6:	429a      	cmp	r2, r3
 80050e8:	d020      	beq.n	800512c <DMA_Init+0x98>
 80050ea:	687a      	ldr	r2, [r7, #4]
 80050ec:	4b8f      	ldr	r3, [pc, #572]	; (800532c <DMA_Init+0x298>)
 80050ee:	429a      	cmp	r2, r3
 80050f0:	d01c      	beq.n	800512c <DMA_Init+0x98>
 80050f2:	687a      	ldr	r2, [r7, #4]
 80050f4:	4b8e      	ldr	r3, [pc, #568]	; (8005330 <DMA_Init+0x29c>)
 80050f6:	429a      	cmp	r2, r3
 80050f8:	d018      	beq.n	800512c <DMA_Init+0x98>
 80050fa:	687a      	ldr	r2, [r7, #4]
 80050fc:	4b8d      	ldr	r3, [pc, #564]	; (8005334 <DMA_Init+0x2a0>)
 80050fe:	429a      	cmp	r2, r3
 8005100:	d014      	beq.n	800512c <DMA_Init+0x98>
 8005102:	687a      	ldr	r2, [r7, #4]
 8005104:	4b8c      	ldr	r3, [pc, #560]	; (8005338 <DMA_Init+0x2a4>)
 8005106:	429a      	cmp	r2, r3
 8005108:	d010      	beq.n	800512c <DMA_Init+0x98>
 800510a:	687a      	ldr	r2, [r7, #4]
 800510c:	4b8b      	ldr	r3, [pc, #556]	; (800533c <DMA_Init+0x2a8>)
 800510e:	429a      	cmp	r2, r3
 8005110:	d00c      	beq.n	800512c <DMA_Init+0x98>
 8005112:	687a      	ldr	r2, [r7, #4]
 8005114:	4b8a      	ldr	r3, [pc, #552]	; (8005340 <DMA_Init+0x2ac>)
 8005116:	429a      	cmp	r2, r3
 8005118:	d008      	beq.n	800512c <DMA_Init+0x98>
 800511a:	687a      	ldr	r2, [r7, #4]
 800511c:	4b89      	ldr	r3, [pc, #548]	; (8005344 <DMA_Init+0x2b0>)
 800511e:	429a      	cmp	r2, r3
 8005120:	d004      	beq.n	800512c <DMA_Init+0x98>
 8005122:	4889      	ldr	r0, [pc, #548]	; (8005348 <DMA_Init+0x2b4>)
 8005124:	f44f 719e 	mov.w	r1, #316	; 0x13c
 8005128:	f7fd fa08 	bl	800253c <assert_failed>
  assert_param(IS_DMA_CHANNEL(DMA_InitStruct->DMA_Channel));
 800512c:	683b      	ldr	r3, [r7, #0]
 800512e:	681b      	ldr	r3, [r3, #0]
 8005130:	2b00      	cmp	r3, #0
 8005132:	d027      	beq.n	8005184 <DMA_Init+0xf0>
 8005134:	683b      	ldr	r3, [r7, #0]
 8005136:	681b      	ldr	r3, [r3, #0]
 8005138:	f1b3 7f00 	cmp.w	r3, #33554432	; 0x2000000
 800513c:	d022      	beq.n	8005184 <DMA_Init+0xf0>
 800513e:	683b      	ldr	r3, [r7, #0]
 8005140:	681b      	ldr	r3, [r3, #0]
 8005142:	f1b3 6f80 	cmp.w	r3, #67108864	; 0x4000000
 8005146:	d01d      	beq.n	8005184 <DMA_Init+0xf0>
 8005148:	683b      	ldr	r3, [r7, #0]
 800514a:	681b      	ldr	r3, [r3, #0]
 800514c:	f1b3 6fc0 	cmp.w	r3, #100663296	; 0x6000000
 8005150:	d018      	beq.n	8005184 <DMA_Init+0xf0>
 8005152:	683b      	ldr	r3, [r7, #0]
 8005154:	681b      	ldr	r3, [r3, #0]
 8005156:	f1b3 6f00 	cmp.w	r3, #134217728	; 0x8000000
 800515a:	d013      	beq.n	8005184 <DMA_Init+0xf0>
 800515c:	683b      	ldr	r3, [r7, #0]
 800515e:	681b      	ldr	r3, [r3, #0]
 8005160:	f1b3 6f20 	cmp.w	r3, #167772160	; 0xa000000
 8005164:	d00e      	beq.n	8005184 <DMA_Init+0xf0>
 8005166:	683b      	ldr	r3, [r7, #0]
 8005168:	681b      	ldr	r3, [r3, #0]
 800516a:	f1b3 6f40 	cmp.w	r3, #201326592	; 0xc000000
 800516e:	d009      	beq.n	8005184 <DMA_Init+0xf0>
 8005170:	683b      	ldr	r3, [r7, #0]
 8005172:	681b      	ldr	r3, [r3, #0]
 8005174:	f1b3 6f60 	cmp.w	r3, #234881024	; 0xe000000
 8005178:	d004      	beq.n	8005184 <DMA_Init+0xf0>
 800517a:	4873      	ldr	r0, [pc, #460]	; (8005348 <DMA_Init+0x2b4>)
 800517c:	f240 113d 	movw	r1, #317	; 0x13d
 8005180:	f7fd f9dc 	bl	800253c <assert_failed>
  assert_param(IS_DMA_DIRECTION(DMA_InitStruct->DMA_DIR));
 8005184:	683b      	ldr	r3, [r7, #0]
 8005186:	68db      	ldr	r3, [r3, #12]
 8005188:	2b00      	cmp	r3, #0
 800518a:	d00c      	beq.n	80051a6 <DMA_Init+0x112>
 800518c:	683b      	ldr	r3, [r7, #0]
 800518e:	68db      	ldr	r3, [r3, #12]
 8005190:	2b40      	cmp	r3, #64	; 0x40
 8005192:	d008      	beq.n	80051a6 <DMA_Init+0x112>
 8005194:	683b      	ldr	r3, [r7, #0]
 8005196:	68db      	ldr	r3, [r3, #12]
 8005198:	2b80      	cmp	r3, #128	; 0x80
 800519a:	d004      	beq.n	80051a6 <DMA_Init+0x112>
 800519c:	486a      	ldr	r0, [pc, #424]	; (8005348 <DMA_Init+0x2b4>)
 800519e:	f44f 719f 	mov.w	r1, #318	; 0x13e
 80051a2:	f7fd f9cb 	bl	800253c <assert_failed>
  assert_param(IS_DMA_BUFFER_SIZE(DMA_InitStruct->DMA_BufferSize));
 80051a6:	683b      	ldr	r3, [r7, #0]
 80051a8:	691b      	ldr	r3, [r3, #16]
 80051aa:	2b00      	cmp	r3, #0
 80051ac:	d004      	beq.n	80051b8 <DMA_Init+0x124>
 80051ae:	683b      	ldr	r3, [r7, #0]
 80051b0:	691b      	ldr	r3, [r3, #16]
 80051b2:	f5b3 3f80 	cmp.w	r3, #65536	; 0x10000
 80051b6:	d304      	bcc.n	80051c2 <DMA_Init+0x12e>
 80051b8:	4863      	ldr	r0, [pc, #396]	; (8005348 <DMA_Init+0x2b4>)
 80051ba:	f240 113f 	movw	r1, #319	; 0x13f
 80051be:	f7fd f9bd 	bl	800253c <assert_failed>
  assert_param(IS_DMA_PERIPHERAL_INC_STATE(DMA_InitStruct->DMA_PeripheralInc));
 80051c2:	683b      	ldr	r3, [r7, #0]
 80051c4:	695b      	ldr	r3, [r3, #20]
 80051c6:	f5b3 7f00 	cmp.w	r3, #512	; 0x200
 80051ca:	d008      	beq.n	80051de <DMA_Init+0x14a>
 80051cc:	683b      	ldr	r3, [r7, #0]
 80051ce:	695b      	ldr	r3, [r3, #20]
 80051d0:	2b00      	cmp	r3, #0
 80051d2:	d004      	beq.n	80051de <DMA_Init+0x14a>
 80051d4:	485c      	ldr	r0, [pc, #368]	; (8005348 <DMA_Init+0x2b4>)
 80051d6:	f44f 71a0 	mov.w	r1, #320	; 0x140
 80051da:	f7fd f9af 	bl	800253c <assert_failed>
  assert_param(IS_DMA_MEMORY_INC_STATE(DMA_InitStruct->DMA_MemoryInc));
 80051de:	683b      	ldr	r3, [r7, #0]
 80051e0:	699b      	ldr	r3, [r3, #24]
 80051e2:	f5b3 6f80 	cmp.w	r3, #1024	; 0x400
 80051e6:	d008      	beq.n	80051fa <DMA_Init+0x166>
 80051e8:	683b      	ldr	r3, [r7, #0]
 80051ea:	699b      	ldr	r3, [r3, #24]
 80051ec:	2b00      	cmp	r3, #0
 80051ee:	d004      	beq.n	80051fa <DMA_Init+0x166>
 80051f0:	4855      	ldr	r0, [pc, #340]	; (8005348 <DMA_Init+0x2b4>)
 80051f2:	f240 1141 	movw	r1, #321	; 0x141
 80051f6:	f7fd f9a1 	bl	800253c <assert_failed>
  assert_param(IS_DMA_PERIPHERAL_DATA_SIZE(DMA_InitStruct->DMA_PeripheralDataSize));
 80051fa:	683b      	ldr	r3, [r7, #0]
 80051fc:	69db      	ldr	r3, [r3, #28]
 80051fe:	2b00      	cmp	r3, #0
 8005200:	d00e      	beq.n	8005220 <DMA_Init+0x18c>
 8005202:	683b      	ldr	r3, [r7, #0]
 8005204:	69db      	ldr	r3, [r3, #28]
 8005206:	f5b3 6f00 	cmp.w	r3, #2048	; 0x800
 800520a:	d009      	beq.n	8005220 <DMA_Init+0x18c>
 800520c:	683b      	ldr	r3, [r7, #0]
 800520e:	69db      	ldr	r3, [r3, #28]
 8005210:	f5b3 5f80 	cmp.w	r3, #4096	; 0x1000
 8005214:	d004      	beq.n	8005220 <DMA_Init+0x18c>
 8005216:	484c      	ldr	r0, [pc, #304]	; (8005348 <DMA_Init+0x2b4>)
 8005218:	f44f 71a1 	mov.w	r1, #322	; 0x142
 800521c:	f7fd f98e 	bl	800253c <assert_failed>
  assert_param(IS_DMA_MEMORY_DATA_SIZE(DMA_InitStruct->DMA_MemoryDataSize));
 8005220:	683b      	ldr	r3, [r7, #0]
 8005222:	6a1b      	ldr	r3, [r3, #32]
 8005224:	2b00      	cmp	r3, #0
 8005226:	d00e      	beq.n	8005246 <DMA_Init+0x1b2>
 8005228:	683b      	ldr	r3, [r7, #0]
 800522a:	6a1b      	ldr	r3, [r3, #32]
 800522c:	f5b3 5f00 	cmp.w	r3, #8192	; 0x2000
 8005230:	d009      	beq.n	8005246 <DMA_Init+0x1b2>
 8005232:	683b      	ldr	r3, [r7, #0]
 8005234:	6a1b      	ldr	r3, [r3, #32]
 8005236:	f5b3 4f80 	cmp.w	r3, #16384	; 0x4000
 800523a:	d004      	beq.n	8005246 <DMA_Init+0x1b2>
 800523c:	4842      	ldr	r0, [pc, #264]	; (8005348 <DMA_Init+0x2b4>)
 800523e:	f240 1143 	movw	r1, #323	; 0x143
 8005242:	f7fd f97b 	bl	800253c <assert_failed>
  assert_param(IS_DMA_MODE(DMA_InitStruct->DMA_Mode));
 8005246:	683b      	ldr	r3, [r7, #0]
 8005248:	6a5b      	ldr	r3, [r3, #36]	; 0x24
 800524a:	2b00      	cmp	r3, #0
 800524c:	d009      	beq.n	8005262 <DMA_Init+0x1ce>
 800524e:	683b      	ldr	r3, [r7, #0]
 8005250:	6a5b      	ldr	r3, [r3, #36]	; 0x24
 8005252:	f5b3 7f80 	cmp.w	r3, #256	; 0x100
 8005256:	d004      	beq.n	8005262 <DMA_Init+0x1ce>
 8005258:	483b      	ldr	r0, [pc, #236]	; (8005348 <DMA_Init+0x2b4>)
 800525a:	f44f 71a2 	mov.w	r1, #324	; 0x144
 800525e:	f7fd f96d 	bl	800253c <assert_failed>
  assert_param(IS_DMA_PRIORITY(DMA_InitStruct->DMA_Priority));
 8005262:	683b      	ldr	r3, [r7, #0]
 8005264:	6a9b      	ldr	r3, [r3, #40]	; 0x28
 8005266:	2b00      	cmp	r3, #0
 8005268:	d013      	beq.n	8005292 <DMA_Init+0x1fe>
 800526a:	683b      	ldr	r3, [r7, #0]
 800526c:	6a9b      	ldr	r3, [r3, #40]	; 0x28
 800526e:	f5b3 3f80 	cmp.w	r3, #65536	; 0x10000
 8005272:	d00e      	beq.n	8005292 <DMA_Init+0x1fe>
 8005274:	683b      	ldr	r3, [r7, #0]
 8005276:	6a9b      	ldr	r3, [r3, #40]	; 0x28
 8005278:	f5b3 3f00 	cmp.w	r3, #131072	; 0x20000
 800527c:	d009      	beq.n	8005292 <DMA_Init+0x1fe>
 800527e:	683b      	ldr	r3, [r7, #0]
 8005280:	6a9b      	ldr	r3, [r3, #40]	; 0x28
 8005282:	f5b3 3f40 	cmp.w	r3, #196608	; 0x30000
 8005286:	d004      	beq.n	8005292 <DMA_Init+0x1fe>
 8005288:	482f      	ldr	r0, [pc, #188]	; (8005348 <DMA_Init+0x2b4>)
 800528a:	f240 1145 	movw	r1, #325	; 0x145
 800528e:	f7fd f955 	bl	800253c <assert_failed>
  assert_param(IS_DMA_FIFO_MODE_STATE(DMA_InitStruct->DMA_FIFOMode));
 8005292:	683b      	ldr	r3, [r7, #0]
 8005294:	6adb      	ldr	r3, [r3, #44]	; 0x2c
 8005296:	2b00      	cmp	r3, #0
 8005298:	d008      	beq.n	80052ac <DMA_Init+0x218>
 800529a:	683b      	ldr	r3, [r7, #0]
 800529c:	6adb      	ldr	r3, [r3, #44]	; 0x2c
 800529e:	2b04      	cmp	r3, #4
 80052a0:	d004      	beq.n	80052ac <DMA_Init+0x218>
 80052a2:	4829      	ldr	r0, [pc, #164]	; (8005348 <DMA_Init+0x2b4>)
 80052a4:	f44f 71a3 	mov.w	r1, #326	; 0x146
 80052a8:	f7fd f948 	bl	800253c <assert_failed>
  assert_param(IS_DMA_FIFO_THRESHOLD(DMA_InitStruct->DMA_FIFOThreshold));
 80052ac:	683b      	ldr	r3, [r7, #0]
 80052ae:	6b1b      	ldr	r3, [r3, #48]	; 0x30
 80052b0:	2b00      	cmp	r3, #0
 80052b2:	d010      	beq.n	80052d6 <DMA_Init+0x242>
 80052b4:	683b      	ldr	r3, [r7, #0]
 80052b6:	6b1b      	ldr	r3, [r3, #48]	; 0x30
 80052b8:	2b01      	cmp	r3, #1
 80052ba:	d00c      	beq.n	80052d6 <DMA_Init+0x242>
 80052bc:	683b      	ldr	r3, [r7, #0]
 80052be:	6b1b      	ldr	r3, [r3, #48]	; 0x30
 80052c0:	2b02      	cmp	r3, #2
 80052c2:	d008      	beq.n	80052d6 <DMA_Init+0x242>
 80052c4:	683b      	ldr	r3, [r7, #0]
 80052c6:	6b1b      	ldr	r3, [r3, #48]	; 0x30
 80052c8:	2b03      	cmp	r3, #3
 80052ca:	d004      	beq.n	80052d6 <DMA_Init+0x242>
 80052cc:	481e      	ldr	r0, [pc, #120]	; (8005348 <DMA_Init+0x2b4>)
 80052ce:	f240 1147 	movw	r1, #327	; 0x147
 80052d2:	f7fd f933 	bl	800253c <assert_failed>
  assert_param(IS_DMA_MEMORY_BURST(DMA_InitStruct->DMA_MemoryBurst));
 80052d6:	683b      	ldr	r3, [r7, #0]
 80052d8:	6b5b      	ldr	r3, [r3, #52]	; 0x34
 80052da:	2b00      	cmp	r3, #0
 80052dc:	d036      	beq.n	800534c <DMA_Init+0x2b8>
 80052de:	683b      	ldr	r3, [r7, #0]
 80052e0:	6b5b      	ldr	r3, [r3, #52]	; 0x34
 80052e2:	f5b3 0f00 	cmp.w	r3, #8388608	; 0x800000
 80052e6:	d031      	beq.n	800534c <DMA_Init+0x2b8>
 80052e8:	683b      	ldr	r3, [r7, #0]
 80052ea:	6b5b      	ldr	r3, [r3, #52]	; 0x34
 80052ec:	f1b3 7f80 	cmp.w	r3, #16777216	; 0x1000000
 80052f0:	d02c      	beq.n	800534c <DMA_Init+0x2b8>
 80052f2:	683b      	ldr	r3, [r7, #0]
 80052f4:	6b5b      	ldr	r3, [r3, #52]	; 0x34
 80052f6:	f1b3 7fc0 	cmp.w	r3, #25165824	; 0x1800000
 80052fa:	d027      	beq.n	800534c <DMA_Init+0x2b8>
 80052fc:	4812      	ldr	r0, [pc, #72]	; (8005348 <DMA_Init+0x2b4>)
 80052fe:	f44f 71a4 	mov.w	r1, #328	; 0x148
 8005302:	f7fd f91b 	bl	800253c <assert_failed>
 8005306:	e021      	b.n	800534c <DMA_Init+0x2b8>
 8005308:	40026010 	.word	0x40026010
 800530c:	40026028 	.word	0x40026028
 8005310:	40026040 	.word	0x40026040
 8005314:	40026058 	.word	0x40026058
 8005318:	40026070 	.word	0x40026070
 800531c:	40026088 	.word	0x40026088
 8005320:	400260a0 	.word	0x400260a0
 8005324:	400260b8 	.word	0x400260b8
 8005328:	40026410 	.word	0x40026410
 800532c:	40026428 	.word	0x40026428
 8005330:	40026440 	.word	0x40026440
 8005334:	40026458 	.word	0x40026458
 8005338:	40026470 	.word	0x40026470
 800533c:	40026488 	.word	0x40026488
 8005340:	400264a0 	.word	0x400264a0
 8005344:	400264b8 	.word	0x400264b8
 8005348:	08007adc 	.word	0x08007adc
  assert_param(IS_DMA_PERIPHERAL_BURST(DMA_InitStruct->DMA_PeripheralBurst));
 800534c:	683b      	ldr	r3, [r7, #0]
 800534e:	6b9b      	ldr	r3, [r3, #56]	; 0x38
 8005350:	2b00      	cmp	r3, #0
 8005352:	d013      	beq.n	800537c <DMA_Init+0x2e8>
 8005354:	683b      	ldr	r3, [r7, #0]
 8005356:	6b9b      	ldr	r3, [r3, #56]	; 0x38
 8005358:	f5b3 1f00 	cmp.w	r3, #2097152	; 0x200000
 800535c:	d00e      	beq.n	800537c <DMA_Init+0x2e8>
 800535e:	683b      	ldr	r3, [r7, #0]
 8005360:	6b9b      	ldr	r3, [r3, #56]	; 0x38
 8005362:	f5b3 0f80 	cmp.w	r3, #4194304	; 0x400000
 8005366:	d009      	beq.n	800537c <DMA_Init+0x2e8>
 8005368:	683b      	ldr	r3, [r7, #0]
 800536a:	6b9b      	ldr	r3, [r3, #56]	; 0x38
 800536c:	f5b3 0fc0 	cmp.w	r3, #6291456	; 0x600000
 8005370:	d004      	beq.n	800537c <DMA_Init+0x2e8>
 8005372:	4828      	ldr	r0, [pc, #160]	; (8005414 <DMA_Init+0x380>)
 8005374:	f240 1149 	movw	r1, #329	; 0x149
 8005378:	f7fd f8e0 	bl	800253c <assert_failed>

  /*------------------------- DMAy Streamx CR Configuration ------------------*/
  /* Get the DMAy_Streamx CR value */
  tmpreg = DMAy_Streamx->CR;
 800537c:	687b      	ldr	r3, [r7, #4]
 800537e:	681b      	ldr	r3, [r3, #0]
 8005380:	60fb      	str	r3, [r7, #12]

  /* Clear CHSEL, MBURST, PBURST, PL, MSIZE, PSIZE, MINC, PINC, CIRC and DIR bits */
  tmpreg &= ((uint32_t)~(DMA_SxCR_CHSEL | DMA_SxCR_MBURST | DMA_SxCR_PBURST | \
 8005382:	68fa      	ldr	r2, [r7, #12]
 8005384:	4b24      	ldr	r3, [pc, #144]	; (8005418 <DMA_Init+0x384>)
 8005386:	4013      	ands	r3, r2
 8005388:	60fb      	str	r3, [r7, #12]
  /* Set MSIZE bits according to DMA_MemoryDataSize value */
  /* Set CIRC bit according to DMA_Mode value */
  /* Set PL bits according to DMA_Priority value */
  /* Set MBURST bits according to DMA_MemoryBurst value */
  /* Set PBURST bits according to DMA_PeripheralBurst value */
  tmpreg |= DMA_InitStruct->DMA_Channel | DMA_InitStruct->DMA_DIR |
 800538a:	683b      	ldr	r3, [r7, #0]
 800538c:	681a      	ldr	r2, [r3, #0]
 800538e:	683b      	ldr	r3, [r7, #0]
 8005390:	68db      	ldr	r3, [r3, #12]
 8005392:	431a      	orrs	r2, r3
            DMA_InitStruct->DMA_PeripheralInc | DMA_InitStruct->DMA_MemoryInc |
 8005394:	683b      	ldr	r3, [r7, #0]
 8005396:	695b      	ldr	r3, [r3, #20]
  /* Set MSIZE bits according to DMA_MemoryDataSize value */
  /* Set CIRC bit according to DMA_Mode value */
  /* Set PL bits according to DMA_Priority value */
  /* Set MBURST bits according to DMA_MemoryBurst value */
  /* Set PBURST bits according to DMA_PeripheralBurst value */
  tmpreg |= DMA_InitStruct->DMA_Channel | DMA_InitStruct->DMA_DIR |
 8005398:	431a      	orrs	r2, r3
            DMA_InitStruct->DMA_PeripheralInc | DMA_InitStruct->DMA_MemoryInc |
 800539a:	683b      	ldr	r3, [r7, #0]
 800539c:	699b      	ldr	r3, [r3, #24]
 800539e:	431a      	orrs	r2, r3
            DMA_InitStruct->DMA_PeripheralDataSize | DMA_InitStruct->DMA_MemoryDataSize |
 80053a0:	683b      	ldr	r3, [r7, #0]
 80053a2:	69db      	ldr	r3, [r3, #28]
  /* Set CIRC bit according to DMA_Mode value */
  /* Set PL bits according to DMA_Priority value */
  /* Set MBURST bits according to DMA_MemoryBurst value */
  /* Set PBURST bits according to DMA_PeripheralBurst value */
  tmpreg |= DMA_InitStruct->DMA_Channel | DMA_InitStruct->DMA_DIR |
            DMA_InitStruct->DMA_PeripheralInc | DMA_InitStruct->DMA_MemoryInc |
 80053a4:	431a      	orrs	r2, r3
            DMA_InitStruct->DMA_PeripheralDataSize | DMA_InitStruct->DMA_MemoryDataSize |
 80053a6:	683b      	ldr	r3, [r7, #0]
 80053a8:	6a1b      	ldr	r3, [r3, #32]
 80053aa:	431a      	orrs	r2, r3
            DMA_InitStruct->DMA_Mode | DMA_InitStruct->DMA_Priority |
 80053ac:	683b      	ldr	r3, [r7, #0]
 80053ae:	6a5b      	ldr	r3, [r3, #36]	; 0x24
  /* Set PL bits according to DMA_Priority value */
  /* Set MBURST bits according to DMA_MemoryBurst value */
  /* Set PBURST bits according to DMA_PeripheralBurst value */
  tmpreg |= DMA_InitStruct->DMA_Channel | DMA_InitStruct->DMA_DIR |
            DMA_InitStruct->DMA_PeripheralInc | DMA_InitStruct->DMA_MemoryInc |
            DMA_InitStruct->DMA_PeripheralDataSize | DMA_InitStruct->DMA_MemoryDataSize |
 80053b0:	431a      	orrs	r2, r3
            DMA_InitStruct->DMA_Mode | DMA_InitStruct->DMA_Priority |
 80053b2:	683b      	ldr	r3, [r7, #0]
 80053b4:	6a9b      	ldr	r3, [r3, #40]	; 0x28
 80053b6:	431a      	orrs	r2, r3
            DMA_InitStruct->DMA_MemoryBurst | DMA_InitStruct->DMA_PeripheralBurst;
 80053b8:	683b      	ldr	r3, [r7, #0]
 80053ba:	6b5b      	ldr	r3, [r3, #52]	; 0x34
  /* Set MBURST bits according to DMA_MemoryBurst value */
  /* Set PBURST bits according to DMA_PeripheralBurst value */
  tmpreg |= DMA_InitStruct->DMA_Channel | DMA_InitStruct->DMA_DIR |
            DMA_InitStruct->DMA_PeripheralInc | DMA_InitStruct->DMA_MemoryInc |
            DMA_InitStruct->DMA_PeripheralDataSize | DMA_InitStruct->DMA_MemoryDataSize |
            DMA_InitStruct->DMA_Mode | DMA_InitStruct->DMA_Priority |
 80053bc:	431a      	orrs	r2, r3
            DMA_InitStruct->DMA_MemoryBurst | DMA_InitStruct->DMA_PeripheralBurst;
 80053be:	683b      	ldr	r3, [r7, #0]
 80053c0:	6b9b      	ldr	r3, [r3, #56]	; 0x38
 80053c2:	4313      	orrs	r3, r2
  /* Set MSIZE bits according to DMA_MemoryDataSize value */
  /* Set CIRC bit according to DMA_Mode value */
  /* Set PL bits according to DMA_Priority value */
  /* Set MBURST bits according to DMA_MemoryBurst value */
  /* Set PBURST bits according to DMA_PeripheralBurst value */
  tmpreg |= DMA_InitStruct->DMA_Channel | DMA_InitStruct->DMA_DIR |
 80053c4:	68fa      	ldr	r2, [r7, #12]
 80053c6:	4313      	orrs	r3, r2
 80053c8:	60fb      	str	r3, [r7, #12]
            DMA_InitStruct->DMA_PeripheralDataSize | DMA_InitStruct->DMA_MemoryDataSize |
            DMA_InitStruct->DMA_Mode | DMA_InitStruct->DMA_Priority |
            DMA_InitStruct->DMA_MemoryBurst | DMA_InitStruct->DMA_PeripheralBurst;

  /* Write to DMAy Streamx CR register */
  DMAy_Streamx->CR = tmpreg;
 80053ca:	687b      	ldr	r3, [r7, #4]
 80053cc:	68fa      	ldr	r2, [r7, #12]
 80053ce:	601a      	str	r2, [r3, #0]

  /*------------------------- DMAy Streamx FCR Configuration -----------------*/
  /* Get the DMAy_Streamx FCR value */
  tmpreg = DMAy_Streamx->FCR;
 80053d0:	687b      	ldr	r3, [r7, #4]
 80053d2:	695b      	ldr	r3, [r3, #20]
 80053d4:	60fb      	str	r3, [r7, #12]

  /* Clear DMDIS and FTH bits */
  tmpreg &= (uint32_t)~(DMA_SxFCR_DMDIS | DMA_SxFCR_FTH);
 80053d6:	68fb      	ldr	r3, [r7, #12]
 80053d8:	f023 0307 	bic.w	r3, r3, #7
 80053dc:	60fb      	str	r3, [r7, #12]

  /* Configure DMAy Streamx FIFO: 
    Set DMDIS bits according to DMA_FIFOMode value 
    Set FTH bits according to DMA_FIFOThreshold value */
  tmpreg |= DMA_InitStruct->DMA_FIFOMode | DMA_InitStruct->DMA_FIFOThreshold;
 80053de:	683b      	ldr	r3, [r7, #0]
 80053e0:	6ada      	ldr	r2, [r3, #44]	; 0x2c
 80053e2:	683b      	ldr	r3, [r7, #0]
 80053e4:	6b1b      	ldr	r3, [r3, #48]	; 0x30
 80053e6:	4313      	orrs	r3, r2
 80053e8:	68fa      	ldr	r2, [r7, #12]
 80053ea:	4313      	orrs	r3, r2
 80053ec:	60fb      	str	r3, [r7, #12]

  /* Write to DMAy Streamx CR */
  DMAy_Streamx->FCR = tmpreg;
 80053ee:	687b      	ldr	r3, [r7, #4]
 80053f0:	68fa      	ldr	r2, [r7, #12]
 80053f2:	615a      	str	r2, [r3, #20]

  /*------------------------- DMAy Streamx NDTR Configuration ----------------*/
  /* Write to DMAy Streamx NDTR register */
  DMAy_Streamx->NDTR = DMA_InitStruct->DMA_BufferSize;
 80053f4:	683b      	ldr	r3, [r7, #0]
 80053f6:	691a      	ldr	r2, [r3, #16]
 80053f8:	687b      	ldr	r3, [r7, #4]
 80053fa:	605a      	str	r2, [r3, #4]

  /*------------------------- DMAy Streamx PAR Configuration -----------------*/
  /* Write to DMAy Streamx PAR */
  DMAy_Streamx->PAR = DMA_InitStruct->DMA_PeripheralBaseAddr;
 80053fc:	683b      	ldr	r3, [r7, #0]
 80053fe:	685a      	ldr	r2, [r3, #4]
 8005400:	687b      	ldr	r3, [r7, #4]
 8005402:	609a      	str	r2, [r3, #8]

  /*------------------------- DMAy Streamx M0AR Configuration ----------------*/
  /* Write to DMAy Streamx M0AR */
  DMAy_Streamx->M0AR = DMA_InitStruct->DMA_Memory0BaseAddr;
 8005404:	683b      	ldr	r3, [r7, #0]
 8005406:	689a      	ldr	r2, [r3, #8]
 8005408:	687b      	ldr	r3, [r7, #4]
 800540a:	60da      	str	r2, [r3, #12]
}
 800540c:	3710      	adds	r7, #16
 800540e:	46bd      	mov	sp, r7
 8005410:	bd80      	pop	{r7, pc}
 8005412:	bf00      	nop
 8005414:	08007adc 	.word	0x08007adc
 8005418:	f01c803f 	.word	0xf01c803f

0800541c <DMA_StructInit>:
  * @param  DMA_InitStruct : pointer to a DMA_InitTypeDef structure which will 
  *         be initialized.
  * @retval None
  */
void DMA_StructInit(DMA_InitTypeDef* DMA_InitStruct)
{
 800541c:	b480      	push	{r7}
 800541e:	b083      	sub	sp, #12
 8005420:	af00      	add	r7, sp, #0
 8005422:	6078      	str	r0, [r7, #4]
  /*-------------- Reset DMA init structure parameters values ----------------*/
  /* Initialize the DMA_Channel member */
  DMA_InitStruct->DMA_Channel = 0;
 8005424:	687b      	ldr	r3, [r7, #4]
 8005426:	2200      	movs	r2, #0
 8005428:	601a      	str	r2, [r3, #0]

  /* Initialize the DMA_PeripheralBaseAddr member */
  DMA_InitStruct->DMA_PeripheralBaseAddr = 0;
 800542a:	687b      	ldr	r3, [r7, #4]
 800542c:	2200      	movs	r2, #0
 800542e:	605a      	str	r2, [r3, #4]

  /* Initialize the DMA_Memory0BaseAddr member */
  DMA_InitStruct->DMA_Memory0BaseAddr = 0;
 8005430:	687b      	ldr	r3, [r7, #4]
 8005432:	2200      	movs	r2, #0
 8005434:	609a      	str	r2, [r3, #8]

  /* Initialize the DMA_DIR member */
  DMA_InitStruct->DMA_DIR = DMA_DIR_PeripheralToMemory;
 8005436:	687b      	ldr	r3, [r7, #4]
 8005438:	2200      	movs	r2, #0
 800543a:	60da      	str	r2, [r3, #12]

  /* Initialize the DMA_BufferSize member */
  DMA_InitStruct->DMA_BufferSize = 0;
 800543c:	687b      	ldr	r3, [r7, #4]
 800543e:	2200      	movs	r2, #0
 8005440:	611a      	str	r2, [r3, #16]

  /* Initialize the DMA_PeripheralInc member */
  DMA_InitStruct->DMA_PeripheralInc = DMA_PeripheralInc_Disable;
 8005442:	687b      	ldr	r3, [r7, #4]
 8005444:	2200      	movs	r2, #0
 8005446:	615a      	str	r2, [r3, #20]

  /* Initialize the DMA_MemoryInc member */
  DMA_InitStruct->DMA_MemoryInc = DMA_MemoryInc_Disable;
 8005448:	687b      	ldr	r3, [r7, #4]
 800544a:	2200      	movs	r2, #0
 800544c:	619a      	str	r2, [r3, #24]

  /* Initialize the DMA_PeripheralDataSize member */
  DMA_InitStruct->DMA_PeripheralDataSize = DMA_PeripheralDataSize_Byte;
 800544e:	687b      	ldr	r3, [r7, #4]
 8005450:	2200      	movs	r2, #0
 8005452:	61da      	str	r2, [r3, #28]

  /* Initialize the DMA_MemoryDataSize member */
  DMA_InitStruct->DMA_MemoryDataSize = DMA_MemoryDataSize_Byte;
 8005454:	687b      	ldr	r3, [r7, #4]
 8005456:	2200      	movs	r2, #0
 8005458:	621a      	str	r2, [r3, #32]

  /* Initialize the DMA_Mode member */
  DMA_InitStruct->DMA_Mode = DMA_Mode_Normal;
 800545a:	687b      	ldr	r3, [r7, #4]
 800545c:	2200      	movs	r2, #0
 800545e:	625a      	str	r2, [r3, #36]	; 0x24

  /* Initialize the DMA_Priority member */
  DMA_InitStruct->DMA_Priority = DMA_Priority_Low;
 8005460:	687b      	ldr	r3, [r7, #4]
 8005462:	2200      	movs	r2, #0
 8005464:	629a      	str	r2, [r3, #40]	; 0x28

  /* Initialize the DMA_FIFOMode member */
  DMA_InitStruct->DMA_FIFOMode = DMA_FIFOMode_Disable;
 8005466:	687b      	ldr	r3, [r7, #4]
 8005468:	2200      	movs	r2, #0
 800546a:	62da      	str	r2, [r3, #44]	; 0x2c

  /* Initialize the DMA_FIFOThreshold member */
  DMA_InitStruct->DMA_FIFOThreshold = DMA_FIFOThreshold_1QuarterFull;
 800546c:	687b      	ldr	r3, [r7, #4]
 800546e:	2200      	movs	r2, #0
 8005470:	631a      	str	r2, [r3, #48]	; 0x30

  /* Initialize the DMA_MemoryBurst member */
  DMA_InitStruct->DMA_MemoryBurst = DMA_MemoryBurst_Single;
 8005472:	687b      	ldr	r3, [r7, #4]
 8005474:	2200      	movs	r2, #0
 8005476:	635a      	str	r2, [r3, #52]	; 0x34

  /* Initialize the DMA_PeripheralBurst member */
  DMA_InitStruct->DMA_PeripheralBurst = DMA_PeripheralBurst_Single;
 8005478:	687b      	ldr	r3, [r7, #4]
 800547a:	2200      	movs	r2, #0
 800547c:	639a      	str	r2, [r3, #56]	; 0x38
}
 800547e:	370c      	adds	r7, #12
 8005480:	46bd      	mov	sp, r7
 8005482:	f85d 7b04 	ldr.w	r7, [sp], #4
 8005486:	4770      	bx	lr

08005488 <DMA_Cmd>:
  *        this single data is finished.            
  *    
  * @retval None
  */
void DMA_Cmd(DMA_Stream_TypeDef* DMAy_Streamx, FunctionalState NewState)
{
 8005488:	b580      	push	{r7, lr}
 800548a:	b082      	sub	sp, #8
 800548c:	af00      	add	r7, sp, #0
 800548e:	6078      	str	r0, [r7, #4]
 8005490:	460b      	mov	r3, r1
 8005492:	70fb      	strb	r3, [r7, #3]
  /* Check the parameters */
  assert_param(IS_DMA_ALL_PERIPH(DMAy_Streamx));
 8005494:	687a      	ldr	r2, [r7, #4]
 8005496:	4b31      	ldr	r3, [pc, #196]	; (800555c <DMA_Cmd+0xd4>)
 8005498:	429a      	cmp	r2, r3
 800549a:	d040      	beq.n	800551e <DMA_Cmd+0x96>
 800549c:	687a      	ldr	r2, [r7, #4]
 800549e:	4b30      	ldr	r3, [pc, #192]	; (8005560 <DMA_Cmd+0xd8>)
 80054a0:	429a      	cmp	r2, r3
 80054a2:	d03c      	beq.n	800551e <DMA_Cmd+0x96>
 80054a4:	687a      	ldr	r2, [r7, #4]
 80054a6:	4b2f      	ldr	r3, [pc, #188]	; (8005564 <DMA_Cmd+0xdc>)
 80054a8:	429a      	cmp	r2, r3
 80054aa:	d038      	beq.n	800551e <DMA_Cmd+0x96>
 80054ac:	687a      	ldr	r2, [r7, #4]
 80054ae:	4b2e      	ldr	r3, [pc, #184]	; (8005568 <DMA_Cmd+0xe0>)
 80054b0:	429a      	cmp	r2, r3
 80054b2:	d034      	beq.n	800551e <DMA_Cmd+0x96>
 80054b4:	687a      	ldr	r2, [r7, #4]
 80054b6:	4b2d      	ldr	r3, [pc, #180]	; (800556c <DMA_Cmd+0xe4>)
 80054b8:	429a      	cmp	r2, r3
 80054ba:	d030      	beq.n	800551e <DMA_Cmd+0x96>
 80054bc:	687a      	ldr	r2, [r7, #4]
 80054be:	4b2c      	ldr	r3, [pc, #176]	; (8005570 <DMA_Cmd+0xe8>)
 80054c0:	429a      	cmp	r2, r3
 80054c2:	d02c      	beq.n	800551e <DMA_Cmd+0x96>
 80054c4:	687a      	ldr	r2, [r7, #4]
 80054c6:	4b2b      	ldr	r3, [pc, #172]	; (8005574 <DMA_Cmd+0xec>)
 80054c8:	429a      	cmp	r2, r3
 80054ca:	d028      	beq.n	800551e <DMA_Cmd+0x96>
 80054cc:	687a      	ldr	r2, [r7, #4]
 80054ce:	4b2a      	ldr	r3, [pc, #168]	; (8005578 <DMA_Cmd+0xf0>)
 80054d0:	429a      	cmp	r2, r3
 80054d2:	d024      	beq.n	800551e <DMA_Cmd+0x96>
 80054d4:	687a      	ldr	r2, [r7, #4]
 80054d6:	4b29      	ldr	r3, [pc, #164]	; (800557c <DMA_Cmd+0xf4>)
 80054d8:	429a      	cmp	r2, r3
 80054da:	d020      	beq.n	800551e <DMA_Cmd+0x96>
 80054dc:	687a      	ldr	r2, [r7, #4]
 80054de:	4b28      	ldr	r3, [pc, #160]	; (8005580 <DMA_Cmd+0xf8>)
 80054e0:	429a      	cmp	r2, r3
 80054e2:	d01c      	beq.n	800551e <DMA_Cmd+0x96>
 80054e4:	687a      	ldr	r2, [r7, #4]
 80054e6:	4b27      	ldr	r3, [pc, #156]	; (8005584 <DMA_Cmd+0xfc>)
 80054e8:	429a      	cmp	r2, r3
 80054ea:	d018      	beq.n	800551e <DMA_Cmd+0x96>
 80054ec:	687a      	ldr	r2, [r7, #4]
 80054ee:	4b26      	ldr	r3, [pc, #152]	; (8005588 <DMA_Cmd+0x100>)
 80054f0:	429a      	cmp	r2, r3
 80054f2:	d014      	beq.n	800551e <DMA_Cmd+0x96>
 80054f4:	687a      	ldr	r2, [r7, #4]
 80054f6:	4b25      	ldr	r3, [pc, #148]	; (800558c <DMA_Cmd+0x104>)
 80054f8:	429a      	cmp	r2, r3
 80054fa:	d010      	beq.n	800551e <DMA_Cmd+0x96>
 80054fc:	687a      	ldr	r2, [r7, #4]
 80054fe:	4b24      	ldr	r3, [pc, #144]	; (8005590 <DMA_Cmd+0x108>)
 8005500:	429a      	cmp	r2, r3
 8005502:	d00c      	beq.n	800551e <DMA_Cmd+0x96>
 8005504:	687a      	ldr	r2, [r7, #4]
 8005506:	4b23      	ldr	r3, [pc, #140]	; (8005594 <DMA_Cmd+0x10c>)
 8005508:	429a      	cmp	r2, r3
 800550a:	d008      	beq.n	800551e <DMA_Cmd+0x96>
 800550c:	687a      	ldr	r2, [r7, #4]
 800550e:	4b22      	ldr	r3, [pc, #136]	; (8005598 <DMA_Cmd+0x110>)
 8005510:	429a      	cmp	r2, r3
 8005512:	d004      	beq.n	800551e <DMA_Cmd+0x96>
 8005514:	4821      	ldr	r0, [pc, #132]	; (800559c <DMA_Cmd+0x114>)
 8005516:	f240 11d9 	movw	r1, #473	; 0x1d9
 800551a:	f7fd f80f 	bl	800253c <assert_failed>
  assert_param(IS_FUNCTIONAL_STATE(NewState));
 800551e:	78fb      	ldrb	r3, [r7, #3]
 8005520:	2b00      	cmp	r3, #0
 8005522:	d007      	beq.n	8005534 <DMA_Cmd+0xac>
 8005524:	78fb      	ldrb	r3, [r7, #3]
 8005526:	2b01      	cmp	r3, #1
 8005528:	d004      	beq.n	8005534 <DMA_Cmd+0xac>
 800552a:	481c      	ldr	r0, [pc, #112]	; (800559c <DMA_Cmd+0x114>)
 800552c:	f44f 71ed 	mov.w	r1, #474	; 0x1da
 8005530:	f7fd f804 	bl	800253c <assert_failed>

  if (NewState != DISABLE)
 8005534:	78fb      	ldrb	r3, [r7, #3]
 8005536:	2b00      	cmp	r3, #0
 8005538:	d006      	beq.n	8005548 <DMA_Cmd+0xc0>
  {
    /* Enable the selected DMAy Streamx by setting EN bit */
    DMAy_Streamx->CR |= (uint32_t)DMA_SxCR_EN;
 800553a:	687b      	ldr	r3, [r7, #4]
 800553c:	681b      	ldr	r3, [r3, #0]
 800553e:	f043 0201 	orr.w	r2, r3, #1
 8005542:	687b      	ldr	r3, [r7, #4]
 8005544:	601a      	str	r2, [r3, #0]
 8005546:	e005      	b.n	8005554 <DMA_Cmd+0xcc>
  }
  else
  {
    /* Disable the selected DMAy Streamx by clearing EN bit */
    DMAy_Streamx->CR &= ~(uint32_t)DMA_SxCR_EN;
 8005548:	687b      	ldr	r3, [r7, #4]
 800554a:	681b      	ldr	r3, [r3, #0]
 800554c:	f023 0201 	bic.w	r2, r3, #1
 8005550:	687b      	ldr	r3, [r7, #4]
 8005552:	601a      	str	r2, [r3, #0]
  }
}
 8005554:	3708      	adds	r7, #8
 8005556:	46bd      	mov	sp, r7
 8005558:	bd80      	pop	{r7, pc}
 800555a:	bf00      	nop
 800555c:	40026010 	.word	0x40026010
 8005560:	40026028 	.word	0x40026028
 8005564:	40026040 	.word	0x40026040
 8005568:	40026058 	.word	0x40026058
 800556c:	40026070 	.word	0x40026070
 8005570:	40026088 	.word	0x40026088
 8005574:	400260a0 	.word	0x400260a0
 8005578:	400260b8 	.word	0x400260b8
 800557c:	40026410 	.word	0x40026410
 8005580:	40026428 	.word	0x40026428
 8005584:	40026440 	.word	0x40026440
 8005588:	40026458 	.word	0x40026458
 800558c:	40026470 	.word	0x40026470
 8005590:	40026488 	.word	0x40026488
 8005594:	400264a0 	.word	0x400264a0
 8005598:	400264b8 	.word	0x400264b8
 800559c:	08007adc 	.word	0x08007adc

080055a0 <DMA_SetCurrDataCounter>:
  *         DMAy_SxPAR register is considered as Peripheral.
  *      
  * @retval The number of remaining data units in the current DMAy Streamx transfer.
  */
void DMA_SetCurrDataCounter(DMA_Stream_TypeDef* DMAy_Streamx, uint16_t Counter)
{
 80055a0:	b580      	push	{r7, lr}
 80055a2:	b082      	sub	sp, #8
 80055a4:	af00      	add	r7, sp, #0
 80055a6:	6078      	str	r0, [r7, #4]
 80055a8:	460b      	mov	r3, r1
 80055aa:	807b      	strh	r3, [r7, #2]
  /* Check the parameters */
  assert_param(IS_DMA_ALL_PERIPH(DMAy_Streamx));
 80055ac:	687a      	ldr	r2, [r7, #4]
 80055ae:	4b25      	ldr	r3, [pc, #148]	; (8005644 <DMA_SetCurrDataCounter+0xa4>)
 80055b0:	429a      	cmp	r2, r3
 80055b2:	d040      	beq.n	8005636 <DMA_SetCurrDataCounter+0x96>
 80055b4:	687a      	ldr	r2, [r7, #4]
 80055b6:	4b24      	ldr	r3, [pc, #144]	; (8005648 <DMA_SetCurrDataCounter+0xa8>)
 80055b8:	429a      	cmp	r2, r3
 80055ba:	d03c      	beq.n	8005636 <DMA_SetCurrDataCounter+0x96>
 80055bc:	687a      	ldr	r2, [r7, #4]
 80055be:	4b23      	ldr	r3, [pc, #140]	; (800564c <DMA_SetCurrDataCounter+0xac>)
 80055c0:	429a      	cmp	r2, r3
 80055c2:	d038      	beq.n	8005636 <DMA_SetCurrDataCounter+0x96>
 80055c4:	687a      	ldr	r2, [r7, #4]
 80055c6:	4b22      	ldr	r3, [pc, #136]	; (8005650 <DMA_SetCurrDataCounter+0xb0>)
 80055c8:	429a      	cmp	r2, r3
 80055ca:	d034      	beq.n	8005636 <DMA_SetCurrDataCounter+0x96>
 80055cc:	687a      	ldr	r2, [r7, #4]
 80055ce:	4b21      	ldr	r3, [pc, #132]	; (8005654 <DMA_SetCurrDataCounter+0xb4>)
 80055d0:	429a      	cmp	r2, r3
 80055d2:	d030      	beq.n	8005636 <DMA_SetCurrDataCounter+0x96>
 80055d4:	687a      	ldr	r2, [r7, #4]
 80055d6:	4b20      	ldr	r3, [pc, #128]	; (8005658 <DMA_SetCurrDataCounter+0xb8>)
 80055d8:	429a      	cmp	r2, r3
 80055da:	d02c      	beq.n	8005636 <DMA_SetCurrDataCounter+0x96>
 80055dc:	687a      	ldr	r2, [r7, #4]
 80055de:	4b1f      	ldr	r3, [pc, #124]	; (800565c <DMA_SetCurrDataCounter+0xbc>)
 80055e0:	429a      	cmp	r2, r3
 80055e2:	d028      	beq.n	8005636 <DMA_SetCurrDataCounter+0x96>
 80055e4:	687a      	ldr	r2, [r7, #4]
 80055e6:	4b1e      	ldr	r3, [pc, #120]	; (8005660 <DMA_SetCurrDataCounter+0xc0>)
 80055e8:	429a      	cmp	r2, r3
 80055ea:	d024      	beq.n	8005636 <DMA_SetCurrDataCounter+0x96>
 80055ec:	687a      	ldr	r2, [r7, #4]
 80055ee:	4b1d      	ldr	r3, [pc, #116]	; (8005664 <DMA_SetCurrDataCounter+0xc4>)
 80055f0:	429a      	cmp	r2, r3
 80055f2:	d020      	beq.n	8005636 <DMA_SetCurrDataCounter+0x96>
 80055f4:	687a      	ldr	r2, [r7, #4]
 80055f6:	4b1c      	ldr	r3, [pc, #112]	; (8005668 <DMA_SetCurrDataCounter+0xc8>)
 80055f8:	429a      	cmp	r2, r3
 80055fa:	d01c      	beq.n	8005636 <DMA_SetCurrDataCounter+0x96>
 80055fc:	687a      	ldr	r2, [r7, #4]
 80055fe:	4b1b      	ldr	r3, [pc, #108]	; (800566c <DMA_SetCurrDataCounter+0xcc>)
 8005600:	429a      	cmp	r2, r3
 8005602:	d018      	beq.n	8005636 <DMA_SetCurrDataCounter+0x96>
 8005604:	687a      	ldr	r2, [r7, #4]
 8005606:	4b1a      	ldr	r3, [pc, #104]	; (8005670 <DMA_SetCurrDataCounter+0xd0>)
 8005608:	429a      	cmp	r2, r3
 800560a:	d014      	beq.n	8005636 <DMA_SetCurrDataCounter+0x96>
 800560c:	687a      	ldr	r2, [r7, #4]
 800560e:	4b19      	ldr	r3, [pc, #100]	; (8005674 <DMA_SetCurrDataCounter+0xd4>)
 8005610:	429a      	cmp	r2, r3
 8005612:	d010      	beq.n	8005636 <DMA_SetCurrDataCounter+0x96>
 8005614:	687a      	ldr	r2, [r7, #4]
 8005616:	4b18      	ldr	r3, [pc, #96]	; (8005678 <DMA_SetCurrDataCounter+0xd8>)
 8005618:	429a      	cmp	r2, r3
 800561a:	d00c      	beq.n	8005636 <DMA_SetCurrDataCounter+0x96>
 800561c:	687a      	ldr	r2, [r7, #4]
 800561e:	4b17      	ldr	r3, [pc, #92]	; (800567c <DMA_SetCurrDataCounter+0xdc>)
 8005620:	429a      	cmp	r2, r3
 8005622:	d008      	beq.n	8005636 <DMA_SetCurrDataCounter+0x96>
 8005624:	687a      	ldr	r2, [r7, #4]
 8005626:	4b16      	ldr	r3, [pc, #88]	; (8005680 <DMA_SetCurrDataCounter+0xe0>)
 8005628:	429a      	cmp	r2, r3
 800562a:	d004      	beq.n	8005636 <DMA_SetCurrDataCounter+0x96>
 800562c:	4815      	ldr	r0, [pc, #84]	; (8005684 <DMA_SetCurrDataCounter+0xe4>)
 800562e:	f240 2175 	movw	r1, #629	; 0x275
 8005632:	f7fc ff83 	bl	800253c <assert_failed>

  /* Write the number of data units to be transferred */
  DMAy_Streamx->NDTR = (uint16_t)Counter;
 8005636:	887a      	ldrh	r2, [r7, #2]
 8005638:	687b      	ldr	r3, [r7, #4]
 800563a:	605a      	str	r2, [r3, #4]
}
 800563c:	3708      	adds	r7, #8
 800563e:	46bd      	mov	sp, r7
 8005640:	bd80      	pop	{r7, pc}
 8005642:	bf00      	nop
 8005644:	40026010 	.word	0x40026010
 8005648:	40026028 	.word	0x40026028
 800564c:	40026040 	.word	0x40026040
 8005650:	40026058 	.word	0x40026058
 8005654:	40026070 	.word	0x40026070
 8005658:	40026088 	.word	0x40026088
 800565c:	400260a0 	.word	0x400260a0
 8005660:	400260b8 	.word	0x400260b8
 8005664:	40026410 	.word	0x40026410
 8005668:	40026428 	.word	0x40026428
 800566c:	40026440 	.word	0x40026440
 8005670:	40026458 	.word	0x40026458
 8005674:	40026470 	.word	0x40026470
 8005678:	40026488 	.word	0x40026488
 800567c:	400264a0 	.word	0x400264a0
 8005680:	400264b8 	.word	0x400264b8
 8005684:	08007adc 	.word	0x08007adc

08005688 <DMA_GetCmdStatus>:
  *          of this single data is finished.  
  *      
  * @retval Current state of the DMAy Streamx (ENABLE or DISABLE).
  */
FunctionalState DMA_GetCmdStatus(DMA_Stream_TypeDef* DMAy_Streamx)
{
 8005688:	b580      	push	{r7, lr}
 800568a:	b084      	sub	sp, #16
 800568c:	af00      	add	r7, sp, #0
 800568e:	6078      	str	r0, [r7, #4]
  FunctionalState state = DISABLE;
 8005690:	2300      	movs	r3, #0
 8005692:	73fb      	strb	r3, [r7, #15]

  /* Check the parameters */
  assert_param(IS_DMA_ALL_PERIPH(DMAy_Streamx));
 8005694:	687a      	ldr	r2, [r7, #4]
 8005696:	4b2a      	ldr	r3, [pc, #168]	; (8005740 <DMA_GetCmdStatus+0xb8>)
 8005698:	429a      	cmp	r2, r3
 800569a:	d040      	beq.n	800571e <DMA_GetCmdStatus+0x96>
 800569c:	687a      	ldr	r2, [r7, #4]
 800569e:	4b29      	ldr	r3, [pc, #164]	; (8005744 <DMA_GetCmdStatus+0xbc>)
 80056a0:	429a      	cmp	r2, r3
 80056a2:	d03c      	beq.n	800571e <DMA_GetCmdStatus+0x96>
 80056a4:	687a      	ldr	r2, [r7, #4]
 80056a6:	4b28      	ldr	r3, [pc, #160]	; (8005748 <DMA_GetCmdStatus+0xc0>)
 80056a8:	429a      	cmp	r2, r3
 80056aa:	d038      	beq.n	800571e <DMA_GetCmdStatus+0x96>
 80056ac:	687a      	ldr	r2, [r7, #4]
 80056ae:	4b27      	ldr	r3, [pc, #156]	; (800574c <DMA_GetCmdStatus+0xc4>)
 80056b0:	429a      	cmp	r2, r3
 80056b2:	d034      	beq.n	800571e <DMA_GetCmdStatus+0x96>
 80056b4:	687a      	ldr	r2, [r7, #4]
 80056b6:	4b26      	ldr	r3, [pc, #152]	; (8005750 <DMA_GetCmdStatus+0xc8>)
 80056b8:	429a      	cmp	r2, r3
 80056ba:	d030      	beq.n	800571e <DMA_GetCmdStatus+0x96>
 80056bc:	687a      	ldr	r2, [r7, #4]
 80056be:	4b25      	ldr	r3, [pc, #148]	; (8005754 <DMA_GetCmdStatus+0xcc>)
 80056c0:	429a      	cmp	r2, r3
 80056c2:	d02c      	beq.n	800571e <DMA_GetCmdStatus+0x96>
 80056c4:	687a      	ldr	r2, [r7, #4]
 80056c6:	4b24      	ldr	r3, [pc, #144]	; (8005758 <DMA_GetCmdStatus+0xd0>)
 80056c8:	429a      	cmp	r2, r3
 80056ca:	d028      	beq.n	800571e <DMA_GetCmdStatus+0x96>
 80056cc:	687a      	ldr	r2, [r7, #4]
 80056ce:	4b23      	ldr	r3, [pc, #140]	; (800575c <DMA_GetCmdStatus+0xd4>)
 80056d0:	429a      	cmp	r2, r3
 80056d2:	d024      	beq.n	800571e <DMA_GetCmdStatus+0x96>
 80056d4:	687a      	ldr	r2, [r7, #4]
 80056d6:	4b22      	ldr	r3, [pc, #136]	; (8005760 <DMA_GetCmdStatus+0xd8>)
 80056d8:	429a      	cmp	r2, r3
 80056da:	d020      	beq.n	800571e <DMA_GetCmdStatus+0x96>
 80056dc:	687a      	ldr	r2, [r7, #4]
 80056de:	4b21      	ldr	r3, [pc, #132]	; (8005764 <DMA_GetCmdStatus+0xdc>)
 80056e0:	429a      	cmp	r2, r3
 80056e2:	d01c      	beq.n	800571e <DMA_GetCmdStatus+0x96>
 80056e4:	687a      	ldr	r2, [r7, #4]
 80056e6:	4b20      	ldr	r3, [pc, #128]	; (8005768 <DMA_GetCmdStatus+0xe0>)
 80056e8:	429a      	cmp	r2, r3
 80056ea:	d018      	beq.n	800571e <DMA_GetCmdStatus+0x96>
 80056ec:	687a      	ldr	r2, [r7, #4]
 80056ee:	4b1f      	ldr	r3, [pc, #124]	; (800576c <DMA_GetCmdStatus+0xe4>)
 80056f0:	429a      	cmp	r2, r3
 80056f2:	d014      	beq.n	800571e <DMA_GetCmdStatus+0x96>
 80056f4:	687a      	ldr	r2, [r7, #4]
 80056f6:	4b1e      	ldr	r3, [pc, #120]	; (8005770 <DMA_GetCmdStatus+0xe8>)
 80056f8:	429a      	cmp	r2, r3
 80056fa:	d010      	beq.n	800571e <DMA_GetCmdStatus+0x96>
 80056fc:	687a      	ldr	r2, [r7, #4]
 80056fe:	4b1d      	ldr	r3, [pc, #116]	; (8005774 <DMA_GetCmdStatus+0xec>)
 8005700:	429a      	cmp	r2, r3
 8005702:	d00c      	beq.n	800571e <DMA_GetCmdStatus+0x96>
 8005704:	687a      	ldr	r2, [r7, #4]
 8005706:	4b1c      	ldr	r3, [pc, #112]	; (8005778 <DMA_GetCmdStatus+0xf0>)
 8005708:	429a      	cmp	r2, r3
 800570a:	d008      	beq.n	800571e <DMA_GetCmdStatus+0x96>
 800570c:	687a      	ldr	r2, [r7, #4]
 800570e:	4b1b      	ldr	r3, [pc, #108]	; (800577c <DMA_GetCmdStatus+0xf4>)
 8005710:	429a      	cmp	r2, r3
 8005712:	d004      	beq.n	800571e <DMA_GetCmdStatus+0x96>
 8005714:	481a      	ldr	r0, [pc, #104]	; (8005780 <DMA_GetCmdStatus+0xf8>)
 8005716:	f240 31a2 	movw	r1, #930	; 0x3a2
 800571a:	f7fc ff0f 	bl	800253c <assert_failed>

  if ((DMAy_Streamx->CR & (uint32_t)DMA_SxCR_EN) != 0)
 800571e:	687b      	ldr	r3, [r7, #4]
 8005720:	681b      	ldr	r3, [r3, #0]
 8005722:	f003 0301 	and.w	r3, r3, #1
 8005726:	2b00      	cmp	r3, #0
 8005728:	d002      	beq.n	8005730 <DMA_GetCmdStatus+0xa8>
  {
    /* The selected DMAy Streamx EN bit is set (DMA is still transferring) */
    state = ENABLE;
 800572a:	2301      	movs	r3, #1
 800572c:	73fb      	strb	r3, [r7, #15]
 800572e:	e001      	b.n	8005734 <DMA_GetCmdStatus+0xac>
  }
  else
  {
    /* The selected DMAy Streamx EN bit is cleared (DMA is disabled and 
        all transfers are complete) */
    state = DISABLE;
 8005730:	2300      	movs	r3, #0
 8005732:	73fb      	strb	r3, [r7, #15]
  }
  return state;
 8005734:	7bfb      	ldrb	r3, [r7, #15]
}
 8005736:	4618      	mov	r0, r3
 8005738:	3710      	adds	r7, #16
 800573a:	46bd      	mov	sp, r7
 800573c:	bd80      	pop	{r7, pc}
 800573e:	bf00      	nop
 8005740:	40026010 	.word	0x40026010
 8005744:	40026028 	.word	0x40026028
 8005748:	40026040 	.word	0x40026040
 800574c:	40026058 	.word	0x40026058
 8005750:	40026070 	.word	0x40026070
 8005754:	40026088 	.word	0x40026088
 8005758:	400260a0 	.word	0x400260a0
 800575c:	400260b8 	.word	0x400260b8
 8005760:	40026410 	.word	0x40026410
 8005764:	40026428 	.word	0x40026428
 8005768:	40026440 	.word	0x40026440
 800576c:	40026458 	.word	0x40026458
 8005770:	40026470 	.word	0x40026470
 8005774:	40026488 	.word	0x40026488
 8005778:	400264a0 	.word	0x400264a0
 800577c:	400264b8 	.word	0x400264b8
 8005780:	08007adc 	.word	0x08007adc

08005784 <DMA_ITConfig>:
  * @param  NewState: new state of the specified DMA interrupts.
  *          This parameter can be: ENABLE or DISABLE.
  * @retval None
  */
void DMA_ITConfig(DMA_Stream_TypeDef* DMAy_Streamx, uint32_t DMA_IT, FunctionalState NewState)
{
 8005784:	b580      	push	{r7, lr}
 8005786:	b084      	sub	sp, #16
 8005788:	af00      	add	r7, sp, #0
 800578a:	60f8      	str	r0, [r7, #12]
 800578c:	60b9      	str	r1, [r7, #8]
 800578e:	4613      	mov	r3, r2
 8005790:	71fb      	strb	r3, [r7, #7]
  /* Check the parameters */
  assert_param(IS_DMA_ALL_PERIPH(DMAy_Streamx));
 8005792:	68fa      	ldr	r2, [r7, #12]
 8005794:	4b45      	ldr	r3, [pc, #276]	; (80058ac <DMA_ITConfig+0x128>)
 8005796:	429a      	cmp	r2, r3
 8005798:	d040      	beq.n	800581c <DMA_ITConfig+0x98>
 800579a:	68fa      	ldr	r2, [r7, #12]
 800579c:	4b44      	ldr	r3, [pc, #272]	; (80058b0 <DMA_ITConfig+0x12c>)
 800579e:	429a      	cmp	r2, r3
 80057a0:	d03c      	beq.n	800581c <DMA_ITConfig+0x98>
 80057a2:	68fa      	ldr	r2, [r7, #12]
 80057a4:	4b43      	ldr	r3, [pc, #268]	; (80058b4 <DMA_ITConfig+0x130>)
 80057a6:	429a      	cmp	r2, r3
 80057a8:	d038      	beq.n	800581c <DMA_ITConfig+0x98>
 80057aa:	68fa      	ldr	r2, [r7, #12]
 80057ac:	4b42      	ldr	r3, [pc, #264]	; (80058b8 <DMA_ITConfig+0x134>)
 80057ae:	429a      	cmp	r2, r3
 80057b0:	d034      	beq.n	800581c <DMA_ITConfig+0x98>
 80057b2:	68fa      	ldr	r2, [r7, #12]
 80057b4:	4b41      	ldr	r3, [pc, #260]	; (80058bc <DMA_ITConfig+0x138>)
 80057b6:	429a      	cmp	r2, r3
 80057b8:	d030      	beq.n	800581c <DMA_ITConfig+0x98>
 80057ba:	68fa      	ldr	r2, [r7, #12]
 80057bc:	4b40      	ldr	r3, [pc, #256]	; (80058c0 <DMA_ITConfig+0x13c>)
 80057be:	429a      	cmp	r2, r3
 80057c0:	d02c      	beq.n	800581c <DMA_ITConfig+0x98>
 80057c2:	68fa      	ldr	r2, [r7, #12]
 80057c4:	4b3f      	ldr	r3, [pc, #252]	; (80058c4 <DMA_ITConfig+0x140>)
 80057c6:	429a      	cmp	r2, r3
 80057c8:	d028      	beq.n	800581c <DMA_ITConfig+0x98>
 80057ca:	68fa      	ldr	r2, [r7, #12]
 80057cc:	4b3e      	ldr	r3, [pc, #248]	; (80058c8 <DMA_ITConfig+0x144>)
 80057ce:	429a      	cmp	r2, r3
 80057d0:	d024      	beq.n	800581c <DMA_ITConfig+0x98>
 80057d2:	68fa      	ldr	r2, [r7, #12]
 80057d4:	4b3d      	ldr	r3, [pc, #244]	; (80058cc <DMA_ITConfig+0x148>)
 80057d6:	429a      	cmp	r2, r3
 80057d8:	d020      	beq.n	800581c <DMA_ITConfig+0x98>
 80057da:	68fa      	ldr	r2, [r7, #12]
 80057dc:	4b3c      	ldr	r3, [pc, #240]	; (80058d0 <DMA_ITConfig+0x14c>)
 80057de:	429a      	cmp	r2, r3
 80057e0:	d01c      	beq.n	800581c <DMA_ITConfig+0x98>
 80057e2:	68fa      	ldr	r2, [r7, #12]
 80057e4:	4b3b      	ldr	r3, [pc, #236]	; (80058d4 <DMA_ITConfig+0x150>)
 80057e6:	429a      	cmp	r2, r3
 80057e8:	d018      	beq.n	800581c <DMA_ITConfig+0x98>
 80057ea:	68fa      	ldr	r2, [r7, #12]
 80057ec:	4b3a      	ldr	r3, [pc, #232]	; (80058d8 <DMA_ITConfig+0x154>)
 80057ee:	429a      	cmp	r2, r3
 80057f0:	d014      	beq.n	800581c <DMA_ITConfig+0x98>
 80057f2:	68fa      	ldr	r2, [r7, #12]
 80057f4:	4b39      	ldr	r3, [pc, #228]	; (80058dc <DMA_ITConfig+0x158>)
 80057f6:	429a      	cmp	r2, r3
 80057f8:	d010      	beq.n	800581c <DMA_ITConfig+0x98>
 80057fa:	68fa      	ldr	r2, [r7, #12]
 80057fc:	4b38      	ldr	r3, [pc, #224]	; (80058e0 <DMA_ITConfig+0x15c>)
 80057fe:	429a      	cmp	r2, r3
 8005800:	d00c      	beq.n	800581c <DMA_ITConfig+0x98>
 8005802:	68fa      	ldr	r2, [r7, #12]
 8005804:	4b37      	ldr	r3, [pc, #220]	; (80058e4 <DMA_ITConfig+0x160>)
 8005806:	429a      	cmp	r2, r3
 8005808:	d008      	beq.n	800581c <DMA_ITConfig+0x98>
 800580a:	68fa      	ldr	r2, [r7, #12]
 800580c:	4b36      	ldr	r3, [pc, #216]	; (80058e8 <DMA_ITConfig+0x164>)
 800580e:	429a      	cmp	r2, r3
 8005810:	d004      	beq.n	800581c <DMA_ITConfig+0x98>
 8005812:	4836      	ldr	r0, [pc, #216]	; (80058ec <DMA_ITConfig+0x168>)
 8005814:	f240 414f 	movw	r1, #1103	; 0x44f
 8005818:	f7fc fe90 	bl	800253c <assert_failed>
  assert_param(IS_DMA_CONFIG_IT(DMA_IT));
 800581c:	68bb      	ldr	r3, [r7, #8]
 800581e:	f023 039e 	bic.w	r3, r3, #158	; 0x9e
 8005822:	2b00      	cmp	r3, #0
 8005824:	d102      	bne.n	800582c <DMA_ITConfig+0xa8>
 8005826:	68bb      	ldr	r3, [r7, #8]
 8005828:	2b00      	cmp	r3, #0
 800582a:	d104      	bne.n	8005836 <DMA_ITConfig+0xb2>
 800582c:	482f      	ldr	r0, [pc, #188]	; (80058ec <DMA_ITConfig+0x168>)
 800582e:	f44f 618a 	mov.w	r1, #1104	; 0x450
 8005832:	f7fc fe83 	bl	800253c <assert_failed>
  assert_param(IS_FUNCTIONAL_STATE(NewState));
 8005836:	79fb      	ldrb	r3, [r7, #7]
 8005838:	2b00      	cmp	r3, #0
 800583a:	d007      	beq.n	800584c <DMA_ITConfig+0xc8>
 800583c:	79fb      	ldrb	r3, [r7, #7]
 800583e:	2b01      	cmp	r3, #1
 8005840:	d004      	beq.n	800584c <DMA_ITConfig+0xc8>
 8005842:	482a      	ldr	r0, [pc, #168]	; (80058ec <DMA_ITConfig+0x168>)
 8005844:	f240 4151 	movw	r1, #1105	; 0x451
 8005848:	f7fc fe78 	bl	800253c <assert_failed>

  /* Check if the DMA_IT parameter contains a FIFO interrupt */
  if ((DMA_IT & DMA_IT_FE) != 0)
 800584c:	68bb      	ldr	r3, [r7, #8]
 800584e:	f003 0380 	and.w	r3, r3, #128	; 0x80
 8005852:	2b00      	cmp	r3, #0
 8005854:	d00f      	beq.n	8005876 <DMA_ITConfig+0xf2>
  {
    if (NewState != DISABLE)
 8005856:	79fb      	ldrb	r3, [r7, #7]
 8005858:	2b00      	cmp	r3, #0
 800585a:	d006      	beq.n	800586a <DMA_ITConfig+0xe6>
    {
      /* Enable the selected DMA FIFO interrupts */
      DMAy_Streamx->FCR |= (uint32_t)DMA_IT_FE;
 800585c:	68fb      	ldr	r3, [r7, #12]
 800585e:	695b      	ldr	r3, [r3, #20]
 8005860:	f043 0280 	orr.w	r2, r3, #128	; 0x80
 8005864:	68fb      	ldr	r3, [r7, #12]
 8005866:	615a      	str	r2, [r3, #20]
 8005868:	e005      	b.n	8005876 <DMA_ITConfig+0xf2>
    }    
    else 
    {
      /* Disable the selected DMA FIFO interrupts */
      DMAy_Streamx->FCR &= ~(uint32_t)DMA_IT_FE;  
 800586a:	68fb      	ldr	r3, [r7, #12]
 800586c:	695b      	ldr	r3, [r3, #20]
 800586e:	f023 0280 	bic.w	r2, r3, #128	; 0x80
 8005872:	68fb      	ldr	r3, [r7, #12]
 8005874:	615a      	str	r2, [r3, #20]
    }
  }

  /* Check if the DMA_IT parameter contains a Transfer interrupt */
  if (DMA_IT != DMA_IT_FE)
 8005876:	68bb      	ldr	r3, [r7, #8]
 8005878:	2b80      	cmp	r3, #128	; 0x80
 800587a:	d014      	beq.n	80058a6 <DMA_ITConfig+0x122>
  {
    if (NewState != DISABLE)
 800587c:	79fb      	ldrb	r3, [r7, #7]
 800587e:	2b00      	cmp	r3, #0
 8005880:	d008      	beq.n	8005894 <DMA_ITConfig+0x110>
    {
      /* Enable the selected DMA transfer interrupts */
      DMAy_Streamx->CR |= (uint32_t)(DMA_IT  & TRANSFER_IT_ENABLE_MASK);
 8005882:	68fb      	ldr	r3, [r7, #12]
 8005884:	681a      	ldr	r2, [r3, #0]
 8005886:	68bb      	ldr	r3, [r7, #8]
 8005888:	f003 031e 	and.w	r3, r3, #30
 800588c:	431a      	orrs	r2, r3
 800588e:	68fb      	ldr	r3, [r7, #12]
 8005890:	601a      	str	r2, [r3, #0]
 8005892:	e008      	b.n	80058a6 <DMA_ITConfig+0x122>
    }
    else
    {
      /* Disable the selected DMA transfer interrupts */
      DMAy_Streamx->CR &= ~(uint32_t)(DMA_IT & TRANSFER_IT_ENABLE_MASK);
 8005894:	68fb      	ldr	r3, [r7, #12]
 8005896:	681a      	ldr	r2, [r3, #0]
 8005898:	68bb      	ldr	r3, [r7, #8]
 800589a:	f003 031e 	and.w	r3, r3, #30
 800589e:	43db      	mvns	r3, r3
 80058a0:	401a      	ands	r2, r3
 80058a2:	68fb      	ldr	r3, [r7, #12]
 80058a4:	601a      	str	r2, [r3, #0]
    }    
  }
}
 80058a6:	3710      	adds	r7, #16
 80058a8:	46bd      	mov	sp, r7
 80058aa:	bd80      	pop	{r7, pc}
 80058ac:	40026010 	.word	0x40026010
 80058b0:	40026028 	.word	0x40026028
 80058b4:	40026040 	.word	0x40026040
 80058b8:	40026058 	.word	0x40026058
 80058bc:	40026070 	.word	0x40026070
 80058c0:	40026088 	.word	0x40026088
 80058c4:	400260a0 	.word	0x400260a0
 80058c8:	400260b8 	.word	0x400260b8
 80058cc:	40026410 	.word	0x40026410
 80058d0:	40026428 	.word	0x40026428
 80058d4:	40026440 	.word	0x40026440
 80058d8:	40026458 	.word	0x40026458
 80058dc:	40026470 	.word	0x40026470
 80058e0:	40026488 	.word	0x40026488
 80058e4:	400264a0 	.word	0x400264a0
 80058e8:	400264b8 	.word	0x400264b8
 80058ec:	08007adc 	.word	0x08007adc

080058f0 <DMA_GetITStatus>:
  *            @arg DMA_IT_FEIFx:  Streamx FIFO error interrupt
  *         Where x can be 0 to 7 to select the DMA Stream.
  * @retval The new state of DMA_IT (SET or RESET).
  */
ITStatus DMA_GetITStatus(DMA_Stream_TypeDef* DMAy_Streamx, uint32_t DMA_IT)
{
 80058f0:	b580      	push	{r7, lr}
 80058f2:	b086      	sub	sp, #24
 80058f4:	af00      	add	r7, sp, #0
 80058f6:	6078      	str	r0, [r7, #4]
 80058f8:	6039      	str	r1, [r7, #0]
  ITStatus bitstatus = RESET;
 80058fa:	2300      	movs	r3, #0
 80058fc:	75fb      	strb	r3, [r7, #23]
  DMA_TypeDef* DMAy;
  uint32_t tmpreg = 0, enablestatus = 0;
 80058fe:	2300      	movs	r3, #0
 8005900:	60fb      	str	r3, [r7, #12]
 8005902:	2300      	movs	r3, #0
 8005904:	60bb      	str	r3, [r7, #8]

  /* Check the parameters */
  assert_param(IS_DMA_ALL_PERIPH(DMAy_Streamx));
 8005906:	687a      	ldr	r2, [r7, #4]
 8005908:	4b97      	ldr	r3, [pc, #604]	; (8005b68 <DMA_GetITStatus+0x278>)
 800590a:	429a      	cmp	r2, r3
 800590c:	d040      	beq.n	8005990 <DMA_GetITStatus+0xa0>
 800590e:	687a      	ldr	r2, [r7, #4]
 8005910:	4b96      	ldr	r3, [pc, #600]	; (8005b6c <DMA_GetITStatus+0x27c>)
 8005912:	429a      	cmp	r2, r3
 8005914:	d03c      	beq.n	8005990 <DMA_GetITStatus+0xa0>
 8005916:	687a      	ldr	r2, [r7, #4]
 8005918:	4b95      	ldr	r3, [pc, #596]	; (8005b70 <DMA_GetITStatus+0x280>)
 800591a:	429a      	cmp	r2, r3
 800591c:	d038      	beq.n	8005990 <DMA_GetITStatus+0xa0>
 800591e:	687a      	ldr	r2, [r7, #4]
 8005920:	4b94      	ldr	r3, [pc, #592]	; (8005b74 <DMA_GetITStatus+0x284>)
 8005922:	429a      	cmp	r2, r3
 8005924:	d034      	beq.n	8005990 <DMA_GetITStatus+0xa0>
 8005926:	687a      	ldr	r2, [r7, #4]
 8005928:	4b93      	ldr	r3, [pc, #588]	; (8005b78 <DMA_GetITStatus+0x288>)
 800592a:	429a      	cmp	r2, r3
 800592c:	d030      	beq.n	8005990 <DMA_GetITStatus+0xa0>
 800592e:	687a      	ldr	r2, [r7, #4]
 8005930:	4b92      	ldr	r3, [pc, #584]	; (8005b7c <DMA_GetITStatus+0x28c>)
 8005932:	429a      	cmp	r2, r3
 8005934:	d02c      	beq.n	8005990 <DMA_GetITStatus+0xa0>
 8005936:	687a      	ldr	r2, [r7, #4]
 8005938:	4b91      	ldr	r3, [pc, #580]	; (8005b80 <DMA_GetITStatus+0x290>)
 800593a:	429a      	cmp	r2, r3
 800593c:	d028      	beq.n	8005990 <DMA_GetITStatus+0xa0>
 800593e:	687a      	ldr	r2, [r7, #4]
 8005940:	4b90      	ldr	r3, [pc, #576]	; (8005b84 <DMA_GetITStatus+0x294>)
 8005942:	429a      	cmp	r2, r3
 8005944:	d024      	beq.n	8005990 <DMA_GetITStatus+0xa0>
 8005946:	687a      	ldr	r2, [r7, #4]
 8005948:	4b8f      	ldr	r3, [pc, #572]	; (8005b88 <DMA_GetITStatus+0x298>)
 800594a:	429a      	cmp	r2, r3
 800594c:	d020      	beq.n	8005990 <DMA_GetITStatus+0xa0>
 800594e:	687a      	ldr	r2, [r7, #4]
 8005950:	4b8e      	ldr	r3, [pc, #568]	; (8005b8c <DMA_GetITStatus+0x29c>)
 8005952:	429a      	cmp	r2, r3
 8005954:	d01c      	beq.n	8005990 <DMA_GetITStatus+0xa0>
 8005956:	687a      	ldr	r2, [r7, #4]
 8005958:	4b8d      	ldr	r3, [pc, #564]	; (8005b90 <DMA_GetITStatus+0x2a0>)
 800595a:	429a      	cmp	r2, r3
 800595c:	d018      	beq.n	8005990 <DMA_GetITStatus+0xa0>
 800595e:	687a      	ldr	r2, [r7, #4]
 8005960:	4b8c      	ldr	r3, [pc, #560]	; (8005b94 <DMA_GetITStatus+0x2a4>)
 8005962:	429a      	cmp	r2, r3
 8005964:	d014      	beq.n	8005990 <DMA_GetITStatus+0xa0>
 8005966:	687a      	ldr	r2, [r7, #4]
 8005968:	4b8b      	ldr	r3, [pc, #556]	; (8005b98 <DMA_GetITStatus+0x2a8>)
 800596a:	429a      	cmp	r2, r3
 800596c:	d010      	beq.n	8005990 <DMA_GetITStatus+0xa0>
 800596e:	687a      	ldr	r2, [r7, #4]
 8005970:	4b8a      	ldr	r3, [pc, #552]	; (8005b9c <DMA_GetITStatus+0x2ac>)
 8005972:	429a      	cmp	r2, r3
 8005974:	d00c      	beq.n	8005990 <DMA_GetITStatus+0xa0>
 8005976:	687a      	ldr	r2, [r7, #4]
 8005978:	4b89      	ldr	r3, [pc, #548]	; (8005ba0 <DMA_GetITStatus+0x2b0>)
 800597a:	429a      	cmp	r2, r3
 800597c:	d008      	beq.n	8005990 <DMA_GetITStatus+0xa0>
 800597e:	687a      	ldr	r2, [r7, #4]
 8005980:	4b88      	ldr	r3, [pc, #544]	; (8005ba4 <DMA_GetITStatus+0x2b4>)
 8005982:	429a      	cmp	r2, r3
 8005984:	d004      	beq.n	8005990 <DMA_GetITStatus+0xa0>
 8005986:	4888      	ldr	r0, [pc, #544]	; (8005ba8 <DMA_GetITStatus+0x2b8>)
 8005988:	f240 4187 	movw	r1, #1159	; 0x487
 800598c:	f7fc fdd6 	bl	800253c <assert_failed>
  assert_param(IS_DMA_GET_IT(DMA_IT));
 8005990:	683a      	ldr	r2, [r7, #0]
 8005992:	4b86      	ldr	r3, [pc, #536]	; (8005bac <DMA_GetITStatus+0x2bc>)
 8005994:	429a      	cmp	r2, r3
 8005996:	f000 80a9 	beq.w	8005aec <DMA_GetITStatus+0x1fc>
 800599a:	683a      	ldr	r2, [r7, #0]
 800599c:	4b84      	ldr	r3, [pc, #528]	; (8005bb0 <DMA_GetITStatus+0x2c0>)
 800599e:	429a      	cmp	r2, r3
 80059a0:	f000 80a4 	beq.w	8005aec <DMA_GetITStatus+0x1fc>
 80059a4:	683a      	ldr	r2, [r7, #0]
 80059a6:	4b83      	ldr	r3, [pc, #524]	; (8005bb4 <DMA_GetITStatus+0x2c4>)
 80059a8:	429a      	cmp	r2, r3
 80059aa:	f000 809f 	beq.w	8005aec <DMA_GetITStatus+0x1fc>
 80059ae:	683a      	ldr	r2, [r7, #0]
 80059b0:	4b81      	ldr	r3, [pc, #516]	; (8005bb8 <DMA_GetITStatus+0x2c8>)
 80059b2:	429a      	cmp	r2, r3
 80059b4:	f000 809a 	beq.w	8005aec <DMA_GetITStatus+0x1fc>
 80059b8:	683a      	ldr	r2, [r7, #0]
 80059ba:	4b80      	ldr	r3, [pc, #512]	; (8005bbc <DMA_GetITStatus+0x2cc>)
 80059bc:	429a      	cmp	r2, r3
 80059be:	f000 8095 	beq.w	8005aec <DMA_GetITStatus+0x1fc>
 80059c2:	683a      	ldr	r2, [r7, #0]
 80059c4:	4b7e      	ldr	r3, [pc, #504]	; (8005bc0 <DMA_GetITStatus+0x2d0>)
 80059c6:	429a      	cmp	r2, r3
 80059c8:	f000 8090 	beq.w	8005aec <DMA_GetITStatus+0x1fc>
 80059cc:	683a      	ldr	r2, [r7, #0]
 80059ce:	4b7d      	ldr	r3, [pc, #500]	; (8005bc4 <DMA_GetITStatus+0x2d4>)
 80059d0:	429a      	cmp	r2, r3
 80059d2:	f000 808b 	beq.w	8005aec <DMA_GetITStatus+0x1fc>
 80059d6:	683a      	ldr	r2, [r7, #0]
 80059d8:	4b7b      	ldr	r3, [pc, #492]	; (8005bc8 <DMA_GetITStatus+0x2d8>)
 80059da:	429a      	cmp	r2, r3
 80059dc:	f000 8086 	beq.w	8005aec <DMA_GetITStatus+0x1fc>
 80059e0:	683a      	ldr	r2, [r7, #0]
 80059e2:	4b7a      	ldr	r3, [pc, #488]	; (8005bcc <DMA_GetITStatus+0x2dc>)
 80059e4:	429a      	cmp	r2, r3
 80059e6:	f000 8081 	beq.w	8005aec <DMA_GetITStatus+0x1fc>
 80059ea:	683a      	ldr	r2, [r7, #0]
 80059ec:	4b78      	ldr	r3, [pc, #480]	; (8005bd0 <DMA_GetITStatus+0x2e0>)
 80059ee:	429a      	cmp	r2, r3
 80059f0:	d07c      	beq.n	8005aec <DMA_GetITStatus+0x1fc>
 80059f2:	683a      	ldr	r2, [r7, #0]
 80059f4:	4b77      	ldr	r3, [pc, #476]	; (8005bd4 <DMA_GetITStatus+0x2e4>)
 80059f6:	429a      	cmp	r2, r3
 80059f8:	d078      	beq.n	8005aec <DMA_GetITStatus+0x1fc>
 80059fa:	683a      	ldr	r2, [r7, #0]
 80059fc:	4b76      	ldr	r3, [pc, #472]	; (8005bd8 <DMA_GetITStatus+0x2e8>)
 80059fe:	429a      	cmp	r2, r3
 8005a00:	d074      	beq.n	8005aec <DMA_GetITStatus+0x1fc>
 8005a02:	683a      	ldr	r2, [r7, #0]
 8005a04:	4b75      	ldr	r3, [pc, #468]	; (8005bdc <DMA_GetITStatus+0x2ec>)
 8005a06:	429a      	cmp	r2, r3
 8005a08:	d070      	beq.n	8005aec <DMA_GetITStatus+0x1fc>
 8005a0a:	683a      	ldr	r2, [r7, #0]
 8005a0c:	4b74      	ldr	r3, [pc, #464]	; (8005be0 <DMA_GetITStatus+0x2f0>)
 8005a0e:	429a      	cmp	r2, r3
 8005a10:	d06c      	beq.n	8005aec <DMA_GetITStatus+0x1fc>
 8005a12:	683a      	ldr	r2, [r7, #0]
 8005a14:	4b73      	ldr	r3, [pc, #460]	; (8005be4 <DMA_GetITStatus+0x2f4>)
 8005a16:	429a      	cmp	r2, r3
 8005a18:	d068      	beq.n	8005aec <DMA_GetITStatus+0x1fc>
 8005a1a:	683a      	ldr	r2, [r7, #0]
 8005a1c:	4b72      	ldr	r3, [pc, #456]	; (8005be8 <DMA_GetITStatus+0x2f8>)
 8005a1e:	429a      	cmp	r2, r3
 8005a20:	d064      	beq.n	8005aec <DMA_GetITStatus+0x1fc>
 8005a22:	683a      	ldr	r2, [r7, #0]
 8005a24:	4b71      	ldr	r3, [pc, #452]	; (8005bec <DMA_GetITStatus+0x2fc>)
 8005a26:	429a      	cmp	r2, r3
 8005a28:	d060      	beq.n	8005aec <DMA_GetITStatus+0x1fc>
 8005a2a:	683a      	ldr	r2, [r7, #0]
 8005a2c:	4b70      	ldr	r3, [pc, #448]	; (8005bf0 <DMA_GetITStatus+0x300>)
 8005a2e:	429a      	cmp	r2, r3
 8005a30:	d05c      	beq.n	8005aec <DMA_GetITStatus+0x1fc>
 8005a32:	683a      	ldr	r2, [r7, #0]
 8005a34:	4b6f      	ldr	r3, [pc, #444]	; (8005bf4 <DMA_GetITStatus+0x304>)
 8005a36:	429a      	cmp	r2, r3
 8005a38:	d058      	beq.n	8005aec <DMA_GetITStatus+0x1fc>
 8005a3a:	683a      	ldr	r2, [r7, #0]
 8005a3c:	4b6e      	ldr	r3, [pc, #440]	; (8005bf8 <DMA_GetITStatus+0x308>)
 8005a3e:	429a      	cmp	r2, r3
 8005a40:	d054      	beq.n	8005aec <DMA_GetITStatus+0x1fc>
 8005a42:	683a      	ldr	r2, [r7, #0]
 8005a44:	4b6d      	ldr	r3, [pc, #436]	; (8005bfc <DMA_GetITStatus+0x30c>)
 8005a46:	429a      	cmp	r2, r3
 8005a48:	d050      	beq.n	8005aec <DMA_GetITStatus+0x1fc>
 8005a4a:	683a      	ldr	r2, [r7, #0]
 8005a4c:	4b6c      	ldr	r3, [pc, #432]	; (8005c00 <DMA_GetITStatus+0x310>)
 8005a4e:	429a      	cmp	r2, r3
 8005a50:	d04c      	beq.n	8005aec <DMA_GetITStatus+0x1fc>
 8005a52:	683a      	ldr	r2, [r7, #0]
 8005a54:	4b6b      	ldr	r3, [pc, #428]	; (8005c04 <DMA_GetITStatus+0x314>)
 8005a56:	429a      	cmp	r2, r3
 8005a58:	d048      	beq.n	8005aec <DMA_GetITStatus+0x1fc>
 8005a5a:	683a      	ldr	r2, [r7, #0]
 8005a5c:	4b6a      	ldr	r3, [pc, #424]	; (8005c08 <DMA_GetITStatus+0x318>)
 8005a5e:	429a      	cmp	r2, r3
 8005a60:	d044      	beq.n	8005aec <DMA_GetITStatus+0x1fc>
 8005a62:	683a      	ldr	r2, [r7, #0]
 8005a64:	4b69      	ldr	r3, [pc, #420]	; (8005c0c <DMA_GetITStatus+0x31c>)
 8005a66:	429a      	cmp	r2, r3
 8005a68:	d040      	beq.n	8005aec <DMA_GetITStatus+0x1fc>
 8005a6a:	683a      	ldr	r2, [r7, #0]
 8005a6c:	4b68      	ldr	r3, [pc, #416]	; (8005c10 <DMA_GetITStatus+0x320>)
 8005a6e:	429a      	cmp	r2, r3
 8005a70:	d03c      	beq.n	8005aec <DMA_GetITStatus+0x1fc>
 8005a72:	683a      	ldr	r2, [r7, #0]
 8005a74:	4b67      	ldr	r3, [pc, #412]	; (8005c14 <DMA_GetITStatus+0x324>)
 8005a76:	429a      	cmp	r2, r3
 8005a78:	d038      	beq.n	8005aec <DMA_GetITStatus+0x1fc>
 8005a7a:	683a      	ldr	r2, [r7, #0]
 8005a7c:	4b66      	ldr	r3, [pc, #408]	; (8005c18 <DMA_GetITStatus+0x328>)
 8005a7e:	429a      	cmp	r2, r3
 8005a80:	d034      	beq.n	8005aec <DMA_GetITStatus+0x1fc>
 8005a82:	683a      	ldr	r2, [r7, #0]
 8005a84:	4b65      	ldr	r3, [pc, #404]	; (8005c1c <DMA_GetITStatus+0x32c>)
 8005a86:	429a      	cmp	r2, r3
 8005a88:	d030      	beq.n	8005aec <DMA_GetITStatus+0x1fc>
 8005a8a:	683a      	ldr	r2, [r7, #0]
 8005a8c:	4b64      	ldr	r3, [pc, #400]	; (8005c20 <DMA_GetITStatus+0x330>)
 8005a8e:	429a      	cmp	r2, r3
 8005a90:	d02c      	beq.n	8005aec <DMA_GetITStatus+0x1fc>
 8005a92:	683a      	ldr	r2, [r7, #0]
 8005a94:	4b63      	ldr	r3, [pc, #396]	; (8005c24 <DMA_GetITStatus+0x334>)
 8005a96:	429a      	cmp	r2, r3
 8005a98:	d028      	beq.n	8005aec <DMA_GetITStatus+0x1fc>
 8005a9a:	683a      	ldr	r2, [r7, #0]
 8005a9c:	4b62      	ldr	r3, [pc, #392]	; (8005c28 <DMA_GetITStatus+0x338>)
 8005a9e:	429a      	cmp	r2, r3
 8005aa0:	d024      	beq.n	8005aec <DMA_GetITStatus+0x1fc>
 8005aa2:	683a      	ldr	r2, [r7, #0]
 8005aa4:	4b61      	ldr	r3, [pc, #388]	; (8005c2c <DMA_GetITStatus+0x33c>)
 8005aa6:	429a      	cmp	r2, r3
 8005aa8:	d020      	beq.n	8005aec <DMA_GetITStatus+0x1fc>
 8005aaa:	683a      	ldr	r2, [r7, #0]
 8005aac:	4b60      	ldr	r3, [pc, #384]	; (8005c30 <DMA_GetITStatus+0x340>)
 8005aae:	429a      	cmp	r2, r3
 8005ab0:	d01c      	beq.n	8005aec <DMA_GetITStatus+0x1fc>
 8005ab2:	683a      	ldr	r2, [r7, #0]
 8005ab4:	4b5f      	ldr	r3, [pc, #380]	; (8005c34 <DMA_GetITStatus+0x344>)
 8005ab6:	429a      	cmp	r2, r3
 8005ab8:	d018      	beq.n	8005aec <DMA_GetITStatus+0x1fc>
 8005aba:	683a      	ldr	r2, [r7, #0]
 8005abc:	4b5e      	ldr	r3, [pc, #376]	; (8005c38 <DMA_GetITStatus+0x348>)
 8005abe:	429a      	cmp	r2, r3
 8005ac0:	d014      	beq.n	8005aec <DMA_GetITStatus+0x1fc>
 8005ac2:	683a      	ldr	r2, [r7, #0]
 8005ac4:	4b5d      	ldr	r3, [pc, #372]	; (8005c3c <DMA_GetITStatus+0x34c>)
 8005ac6:	429a      	cmp	r2, r3
 8005ac8:	d010      	beq.n	8005aec <DMA_GetITStatus+0x1fc>
 8005aca:	683a      	ldr	r2, [r7, #0]
 8005acc:	4b5c      	ldr	r3, [pc, #368]	; (8005c40 <DMA_GetITStatus+0x350>)
 8005ace:	429a      	cmp	r2, r3
 8005ad0:	d00c      	beq.n	8005aec <DMA_GetITStatus+0x1fc>
 8005ad2:	683a      	ldr	r2, [r7, #0]
 8005ad4:	4b5b      	ldr	r3, [pc, #364]	; (8005c44 <DMA_GetITStatus+0x354>)
 8005ad6:	429a      	cmp	r2, r3
 8005ad8:	d008      	beq.n	8005aec <DMA_GetITStatus+0x1fc>
 8005ada:	683a      	ldr	r2, [r7, #0]
 8005adc:	4b5a      	ldr	r3, [pc, #360]	; (8005c48 <DMA_GetITStatus+0x358>)
 8005ade:	429a      	cmp	r2, r3
 8005ae0:	d004      	beq.n	8005aec <DMA_GetITStatus+0x1fc>
 8005ae2:	4831      	ldr	r0, [pc, #196]	; (8005ba8 <DMA_GetITStatus+0x2b8>)
 8005ae4:	f44f 6191 	mov.w	r1, #1160	; 0x488
 8005ae8:	f7fc fd28 	bl	800253c <assert_failed>
 
  /* Determine the DMA to which belongs the stream */
  if (DMAy_Streamx < DMA2_Stream0)
 8005aec:	687a      	ldr	r2, [r7, #4]
 8005aee:	4b57      	ldr	r3, [pc, #348]	; (8005c4c <DMA_GetITStatus+0x35c>)
 8005af0:	429a      	cmp	r2, r3
 8005af2:	d802      	bhi.n	8005afa <DMA_GetITStatus+0x20a>
  {
    /* DMAy_Streamx belongs to DMA1 */
    DMAy = DMA1; 
 8005af4:	4b56      	ldr	r3, [pc, #344]	; (8005c50 <DMA_GetITStatus+0x360>)
 8005af6:	613b      	str	r3, [r7, #16]
 8005af8:	e001      	b.n	8005afe <DMA_GetITStatus+0x20e>
  } 
  else 
  {
    /* DMAy_Streamx belongs to DMA2 */
    DMAy = DMA2; 
 8005afa:	4b56      	ldr	r3, [pc, #344]	; (8005c54 <DMA_GetITStatus+0x364>)
 8005afc:	613b      	str	r3, [r7, #16]
  }

  /* Check if the interrupt enable bit is in the CR or FCR register */
  if ((DMA_IT & TRANSFER_IT_MASK) != (uint32_t)RESET)
 8005afe:	683b      	ldr	r3, [r7, #0]
 8005b00:	f023 23f0 	bic.w	r3, r3, #4026593280	; 0xf000f000
 8005b04:	f023 13c3 	bic.w	r3, r3, #12779715	; 0xc300c3
 8005b08:	2b00      	cmp	r3, #0
 8005b0a:	d00a      	beq.n	8005b22 <DMA_GetITStatus+0x232>
  {
    /* Get the interrupt enable position mask in CR register */
    tmpreg = (uint32_t)((DMA_IT >> 11) & TRANSFER_IT_ENABLE_MASK);   
 8005b0c:	683b      	ldr	r3, [r7, #0]
 8005b0e:	0adb      	lsrs	r3, r3, #11
 8005b10:	f003 031e 	and.w	r3, r3, #30
 8005b14:	60fb      	str	r3, [r7, #12]
    
    /* Check the enable bit in CR register */
    enablestatus = (uint32_t)(DMAy_Streamx->CR & tmpreg);
 8005b16:	687b      	ldr	r3, [r7, #4]
 8005b18:	681a      	ldr	r2, [r3, #0]
 8005b1a:	68fb      	ldr	r3, [r7, #12]
 8005b1c:	4013      	ands	r3, r2
 8005b1e:	60bb      	str	r3, [r7, #8]
 8005b20:	e004      	b.n	8005b2c <DMA_GetITStatus+0x23c>
  }
  else 
  {
    /* Check the enable bit in FCR register */
    enablestatus = (uint32_t)(DMAy_Streamx->FCR & DMA_IT_FE); 
 8005b22:	687b      	ldr	r3, [r7, #4]
 8005b24:	695b      	ldr	r3, [r3, #20]
 8005b26:	f003 0380 	and.w	r3, r3, #128	; 0x80
 8005b2a:	60bb      	str	r3, [r7, #8]
  }
 
  /* Check if the interrupt pending flag is in LISR or HISR */
  if ((DMA_IT & HIGH_ISR_MASK) != (uint32_t)RESET)
 8005b2c:	683b      	ldr	r3, [r7, #0]
 8005b2e:	f003 5300 	and.w	r3, r3, #536870912	; 0x20000000
 8005b32:	2b00      	cmp	r3, #0
 8005b34:	d003      	beq.n	8005b3e <DMA_GetITStatus+0x24e>
  {
    /* Get DMAy HISR register value */
    tmpreg = DMAy->HISR ;
 8005b36:	693b      	ldr	r3, [r7, #16]
 8005b38:	685b      	ldr	r3, [r3, #4]
 8005b3a:	60fb      	str	r3, [r7, #12]
 8005b3c:	e002      	b.n	8005b44 <DMA_GetITStatus+0x254>
  }
  else
  {
    /* Get DMAy LISR register value */
    tmpreg = DMAy->LISR ;
 8005b3e:	693b      	ldr	r3, [r7, #16]
 8005b40:	681b      	ldr	r3, [r3, #0]
 8005b42:	60fb      	str	r3, [r7, #12]
  } 

  /* mask all reserved bits */
  tmpreg &= (uint32_t)RESERVED_MASK;
 8005b44:	68fb      	ldr	r3, [r7, #12]
 8005b46:	f023 23f0 	bic.w	r3, r3, #4026593280	; 0xf000f000
 8005b4a:	f023 1382 	bic.w	r3, r3, #8519810	; 0x820082
 8005b4e:	60fb      	str	r3, [r7, #12]

  /* Check the status of the specified DMA interrupt */
  if (((tmpreg & DMA_IT) != (uint32_t)RESET) && (enablestatus != (uint32_t)RESET))
 8005b50:	68fa      	ldr	r2, [r7, #12]
 8005b52:	683b      	ldr	r3, [r7, #0]
 8005b54:	4013      	ands	r3, r2
 8005b56:	2b00      	cmp	r3, #0
 8005b58:	d07e      	beq.n	8005c58 <DMA_GetITStatus+0x368>
 8005b5a:	68bb      	ldr	r3, [r7, #8]
 8005b5c:	2b00      	cmp	r3, #0
 8005b5e:	d07b      	beq.n	8005c58 <DMA_GetITStatus+0x368>
  {
    /* DMA_IT is set */
    bitstatus = SET;
 8005b60:	2301      	movs	r3, #1
 8005b62:	75fb      	strb	r3, [r7, #23]
 8005b64:	e07a      	b.n	8005c5c <DMA_GetITStatus+0x36c>
 8005b66:	bf00      	nop
 8005b68:	40026010 	.word	0x40026010
 8005b6c:	40026028 	.word	0x40026028
 8005b70:	40026040 	.word	0x40026040
 8005b74:	40026058 	.word	0x40026058
 8005b78:	40026070 	.word	0x40026070
 8005b7c:	40026088 	.word	0x40026088
 8005b80:	400260a0 	.word	0x400260a0
 8005b84:	400260b8 	.word	0x400260b8
 8005b88:	40026410 	.word	0x40026410
 8005b8c:	40026428 	.word	0x40026428
 8005b90:	40026440 	.word	0x40026440
 8005b94:	40026458 	.word	0x40026458
 8005b98:	40026470 	.word	0x40026470
 8005b9c:	40026488 	.word	0x40026488
 8005ba0:	400264a0 	.word	0x400264a0
 8005ba4:	400264b8 	.word	0x400264b8
 8005ba8:	08007adc 	.word	0x08007adc
 8005bac:	10008020 	.word	0x10008020
 8005bb0:	10004010 	.word	0x10004010
 8005bb4:	10002008 	.word	0x10002008
 8005bb8:	10001004 	.word	0x10001004
 8005bbc:	90000001 	.word	0x90000001
 8005bc0:	10008800 	.word	0x10008800
 8005bc4:	10004400 	.word	0x10004400
 8005bc8:	10002200 	.word	0x10002200
 8005bcc:	10001100 	.word	0x10001100
 8005bd0:	90000040 	.word	0x90000040
 8005bd4:	10208000 	.word	0x10208000
 8005bd8:	10104000 	.word	0x10104000
 8005bdc:	10082000 	.word	0x10082000
 8005be0:	10041000 	.word	0x10041000
 8005be4:	90010000 	.word	0x90010000
 8005be8:	18008000 	.word	0x18008000
 8005bec:	14004000 	.word	0x14004000
 8005bf0:	12002000 	.word	0x12002000
 8005bf4:	11001000 	.word	0x11001000
 8005bf8:	90400000 	.word	0x90400000
 8005bfc:	20008020 	.word	0x20008020
 8005c00:	20004010 	.word	0x20004010
 8005c04:	20002008 	.word	0x20002008
 8005c08:	20001004 	.word	0x20001004
 8005c0c:	a0000001 	.word	0xa0000001
 8005c10:	20008800 	.word	0x20008800
 8005c14:	20004400 	.word	0x20004400
 8005c18:	20002200 	.word	0x20002200
 8005c1c:	20001100 	.word	0x20001100
 8005c20:	a0000040 	.word	0xa0000040
 8005c24:	20208000 	.word	0x20208000
 8005c28:	20104000 	.word	0x20104000
 8005c2c:	20082000 	.word	0x20082000
 8005c30:	20041000 	.word	0x20041000
 8005c34:	a0010000 	.word	0xa0010000
 8005c38:	28008000 	.word	0x28008000
 8005c3c:	24004000 	.word	0x24004000
 8005c40:	22002000 	.word	0x22002000
 8005c44:	21001000 	.word	0x21001000
 8005c48:	a0400000 	.word	0xa0400000
 8005c4c:	4002640f 	.word	0x4002640f
 8005c50:	40026000 	.word	0x40026000
 8005c54:	40026400 	.word	0x40026400
  }
  else
  {
    /* DMA_IT is reset */
    bitstatus = RESET;
 8005c58:	2300      	movs	r3, #0
 8005c5a:	75fb      	strb	r3, [r7, #23]
  }

  /* Return the DMA_IT status */
  return  bitstatus;
 8005c5c:	7dfb      	ldrb	r3, [r7, #23]
}
 8005c5e:	4618      	mov	r0, r3
 8005c60:	3718      	adds	r7, #24
 8005c62:	46bd      	mov	sp, r7
 8005c64:	bd80      	pop	{r7, pc}
 8005c66:	bf00      	nop

08005c68 <DMA_ClearITPendingBit>:
  *            @arg DMA_IT_FEIFx:  Streamx FIFO error interrupt
  *         Where x can be 0 to 7 to select the DMA Stream.
  * @retval None
  */
void DMA_ClearITPendingBit(DMA_Stream_TypeDef* DMAy_Streamx, uint32_t DMA_IT)
{
 8005c68:	b580      	push	{r7, lr}
 8005c6a:	b084      	sub	sp, #16
 8005c6c:	af00      	add	r7, sp, #0
 8005c6e:	6078      	str	r0, [r7, #4]
 8005c70:	6039      	str	r1, [r7, #0]
  DMA_TypeDef* DMAy;

  /* Check the parameters */
  assert_param(IS_DMA_ALL_PERIPH(DMAy_Streamx));
 8005c72:	687a      	ldr	r2, [r7, #4]
 8005c74:	4b3d      	ldr	r3, [pc, #244]	; (8005d6c <DMA_ClearITPendingBit+0x104>)
 8005c76:	429a      	cmp	r2, r3
 8005c78:	d040      	beq.n	8005cfc <DMA_ClearITPendingBit+0x94>
 8005c7a:	687a      	ldr	r2, [r7, #4]
 8005c7c:	4b3c      	ldr	r3, [pc, #240]	; (8005d70 <DMA_ClearITPendingBit+0x108>)
 8005c7e:	429a      	cmp	r2, r3
 8005c80:	d03c      	beq.n	8005cfc <DMA_ClearITPendingBit+0x94>
 8005c82:	687a      	ldr	r2, [r7, #4]
 8005c84:	4b3b      	ldr	r3, [pc, #236]	; (8005d74 <DMA_ClearITPendingBit+0x10c>)
 8005c86:	429a      	cmp	r2, r3
 8005c88:	d038      	beq.n	8005cfc <DMA_ClearITPendingBit+0x94>
 8005c8a:	687a      	ldr	r2, [r7, #4]
 8005c8c:	4b3a      	ldr	r3, [pc, #232]	; (8005d78 <DMA_ClearITPendingBit+0x110>)
 8005c8e:	429a      	cmp	r2, r3
 8005c90:	d034      	beq.n	8005cfc <DMA_ClearITPendingBit+0x94>
 8005c92:	687a      	ldr	r2, [r7, #4]
 8005c94:	4b39      	ldr	r3, [pc, #228]	; (8005d7c <DMA_ClearITPendingBit+0x114>)
 8005c96:	429a      	cmp	r2, r3
 8005c98:	d030      	beq.n	8005cfc <DMA_ClearITPendingBit+0x94>
 8005c9a:	687a      	ldr	r2, [r7, #4]
 8005c9c:	4b38      	ldr	r3, [pc, #224]	; (8005d80 <DMA_ClearITPendingBit+0x118>)
 8005c9e:	429a      	cmp	r2, r3
 8005ca0:	d02c      	beq.n	8005cfc <DMA_ClearITPendingBit+0x94>
 8005ca2:	687a      	ldr	r2, [r7, #4]
 8005ca4:	4b37      	ldr	r3, [pc, #220]	; (8005d84 <DMA_ClearITPendingBit+0x11c>)
 8005ca6:	429a      	cmp	r2, r3
 8005ca8:	d028      	beq.n	8005cfc <DMA_ClearITPendingBit+0x94>
 8005caa:	687a      	ldr	r2, [r7, #4]
 8005cac:	4b36      	ldr	r3, [pc, #216]	; (8005d88 <DMA_ClearITPendingBit+0x120>)
 8005cae:	429a      	cmp	r2, r3
 8005cb0:	d024      	beq.n	8005cfc <DMA_ClearITPendingBit+0x94>
 8005cb2:	687a      	ldr	r2, [r7, #4]
 8005cb4:	4b35      	ldr	r3, [pc, #212]	; (8005d8c <DMA_ClearITPendingBit+0x124>)
 8005cb6:	429a      	cmp	r2, r3
 8005cb8:	d020      	beq.n	8005cfc <DMA_ClearITPendingBit+0x94>
 8005cba:	687a      	ldr	r2, [r7, #4]
 8005cbc:	4b34      	ldr	r3, [pc, #208]	; (8005d90 <DMA_ClearITPendingBit+0x128>)
 8005cbe:	429a      	cmp	r2, r3
 8005cc0:	d01c      	beq.n	8005cfc <DMA_ClearITPendingBit+0x94>
 8005cc2:	687a      	ldr	r2, [r7, #4]
 8005cc4:	4b33      	ldr	r3, [pc, #204]	; (8005d94 <DMA_ClearITPendingBit+0x12c>)
 8005cc6:	429a      	cmp	r2, r3
 8005cc8:	d018      	beq.n	8005cfc <DMA_ClearITPendingBit+0x94>
 8005cca:	687a      	ldr	r2, [r7, #4]
 8005ccc:	4b32      	ldr	r3, [pc, #200]	; (8005d98 <DMA_ClearITPendingBit+0x130>)
 8005cce:	429a      	cmp	r2, r3
 8005cd0:	d014      	beq.n	8005cfc <DMA_ClearITPendingBit+0x94>
 8005cd2:	687a      	ldr	r2, [r7, #4]
 8005cd4:	4b31      	ldr	r3, [pc, #196]	; (8005d9c <DMA_ClearITPendingBit+0x134>)
 8005cd6:	429a      	cmp	r2, r3
 8005cd8:	d010      	beq.n	8005cfc <DMA_ClearITPendingBit+0x94>
 8005cda:	687a      	ldr	r2, [r7, #4]
 8005cdc:	4b30      	ldr	r3, [pc, #192]	; (8005da0 <DMA_ClearITPendingBit+0x138>)
 8005cde:	429a      	cmp	r2, r3
 8005ce0:	d00c      	beq.n	8005cfc <DMA_ClearITPendingBit+0x94>
 8005ce2:	687a      	ldr	r2, [r7, #4]
 8005ce4:	4b2f      	ldr	r3, [pc, #188]	; (8005da4 <DMA_ClearITPendingBit+0x13c>)
 8005ce6:	429a      	cmp	r2, r3
 8005ce8:	d008      	beq.n	8005cfc <DMA_ClearITPendingBit+0x94>
 8005cea:	687a      	ldr	r2, [r7, #4]
 8005cec:	4b2e      	ldr	r3, [pc, #184]	; (8005da8 <DMA_ClearITPendingBit+0x140>)
 8005cee:	429a      	cmp	r2, r3
 8005cf0:	d004      	beq.n	8005cfc <DMA_ClearITPendingBit+0x94>
 8005cf2:	482e      	ldr	r0, [pc, #184]	; (8005dac <DMA_ClearITPendingBit+0x144>)
 8005cf4:	f240 41d7 	movw	r1, #1239	; 0x4d7
 8005cf8:	f7fc fc20 	bl	800253c <assert_failed>
  assert_param(IS_DMA_CLEAR_IT(DMA_IT));
 8005cfc:	683b      	ldr	r3, [r7, #0]
 8005cfe:	f003 5340 	and.w	r3, r3, #805306368	; 0x30000000
 8005d02:	f1b3 5f40 	cmp.w	r3, #805306368	; 0x30000000
 8005d06:	d00c      	beq.n	8005d22 <DMA_ClearITPendingBit+0xba>
 8005d08:	683b      	ldr	r3, [r7, #0]
 8005d0a:	f003 5340 	and.w	r3, r3, #805306368	; 0x30000000
 8005d0e:	2b00      	cmp	r3, #0
 8005d10:	d007      	beq.n	8005d22 <DMA_ClearITPendingBit+0xba>
 8005d12:	683b      	ldr	r3, [r7, #0]
 8005d14:	2b00      	cmp	r3, #0
 8005d16:	d004      	beq.n	8005d22 <DMA_ClearITPendingBit+0xba>
 8005d18:	683a      	ldr	r2, [r7, #0]
 8005d1a:	4b25      	ldr	r3, [pc, #148]	; (8005db0 <DMA_ClearITPendingBit+0x148>)
 8005d1c:	4013      	ands	r3, r2
 8005d1e:	2b00      	cmp	r3, #0
 8005d20:	d004      	beq.n	8005d2c <DMA_ClearITPendingBit+0xc4>
 8005d22:	4822      	ldr	r0, [pc, #136]	; (8005dac <DMA_ClearITPendingBit+0x144>)
 8005d24:	f44f 619b 	mov.w	r1, #1240	; 0x4d8
 8005d28:	f7fc fc08 	bl	800253c <assert_failed>

  /* Determine the DMA to which belongs the stream */
  if (DMAy_Streamx < DMA2_Stream0)
 8005d2c:	687a      	ldr	r2, [r7, #4]
 8005d2e:	4b21      	ldr	r3, [pc, #132]	; (8005db4 <DMA_ClearITPendingBit+0x14c>)
 8005d30:	429a      	cmp	r2, r3
 8005d32:	d802      	bhi.n	8005d3a <DMA_ClearITPendingBit+0xd2>
  {
    /* DMAy_Streamx belongs to DMA1 */
    DMAy = DMA1; 
 8005d34:	4b20      	ldr	r3, [pc, #128]	; (8005db8 <DMA_ClearITPendingBit+0x150>)
 8005d36:	60fb      	str	r3, [r7, #12]
 8005d38:	e001      	b.n	8005d3e <DMA_ClearITPendingBit+0xd6>
  } 
  else 
  {
    /* DMAy_Streamx belongs to DMA2 */
    DMAy = DMA2; 
 8005d3a:	4b20      	ldr	r3, [pc, #128]	; (8005dbc <DMA_ClearITPendingBit+0x154>)
 8005d3c:	60fb      	str	r3, [r7, #12]
  }

  /* Check if LIFCR or HIFCR register is targeted */
  if ((DMA_IT & HIGH_ISR_MASK) != (uint32_t)RESET)
 8005d3e:	683b      	ldr	r3, [r7, #0]
 8005d40:	f003 5300 	and.w	r3, r3, #536870912	; 0x20000000
 8005d44:	2b00      	cmp	r3, #0
 8005d46:	d007      	beq.n	8005d58 <DMA_ClearITPendingBit+0xf0>
  {
    /* Set DMAy HIFCR register clear interrupt bits */
    DMAy->HIFCR = (uint32_t)(DMA_IT & RESERVED_MASK);
 8005d48:	683b      	ldr	r3, [r7, #0]
 8005d4a:	f023 23f0 	bic.w	r3, r3, #4026593280	; 0xf000f000
 8005d4e:	f023 1382 	bic.w	r3, r3, #8519810	; 0x820082
 8005d52:	68fa      	ldr	r2, [r7, #12]
 8005d54:	60d3      	str	r3, [r2, #12]
 8005d56:	e006      	b.n	8005d66 <DMA_ClearITPendingBit+0xfe>
  }
  else 
  {
    /* Set DMAy LIFCR register clear interrupt bits */
    DMAy->LIFCR = (uint32_t)(DMA_IT & RESERVED_MASK);
 8005d58:	683b      	ldr	r3, [r7, #0]
 8005d5a:	f023 23f0 	bic.w	r3, r3, #4026593280	; 0xf000f000
 8005d5e:	f023 1382 	bic.w	r3, r3, #8519810	; 0x820082
 8005d62:	68fa      	ldr	r2, [r7, #12]
 8005d64:	6093      	str	r3, [r2, #8]
  }   
}
 8005d66:	3710      	adds	r7, #16
 8005d68:	46bd      	mov	sp, r7
 8005d6a:	bd80      	pop	{r7, pc}
 8005d6c:	40026010 	.word	0x40026010
 8005d70:	40026028 	.word	0x40026028
 8005d74:	40026040 	.word	0x40026040
 8005d78:	40026058 	.word	0x40026058
 8005d7c:	40026070 	.word	0x40026070
 8005d80:	40026088 	.word	0x40026088
 8005d84:	400260a0 	.word	0x400260a0
 8005d88:	400260b8 	.word	0x400260b8
 8005d8c:	40026410 	.word	0x40026410
 8005d90:	40026428 	.word	0x40026428
 8005d94:	40026440 	.word	0x40026440
 8005d98:	40026458 	.word	0x40026458
 8005d9c:	40026470 	.word	0x40026470
 8005da0:	40026488 	.word	0x40026488
 8005da4:	400264a0 	.word	0x400264a0
 8005da8:	400264b8 	.word	0x400264b8
 8005dac:	08007adc 	.word	0x08007adc
 8005db0:	40820082 	.word	0x40820082
 8005db4:	4002640f 	.word	0x4002640f
 8005db8:	40026000 	.word	0x40026000
 8005dbc:	40026400 	.word	0x40026400

08005dc0 <EXTI_Init>:
  * @param  EXTI_InitStruct: pointer to a EXTI_InitTypeDef structure
  *         that contains the configuration information for the EXTI peripheral.
  * @retval None
  */
void EXTI_Init(EXTI_InitTypeDef* EXTI_InitStruct)
{
 8005dc0:	b580      	push	{r7, lr}
 8005dc2:	b084      	sub	sp, #16
 8005dc4:	af00      	add	r7, sp, #0
 8005dc6:	6078      	str	r0, [r7, #4]
  uint32_t tmp = 0;
 8005dc8:	2300      	movs	r3, #0
 8005dca:	60fb      	str	r3, [r7, #12]

  /* Check the parameters */
  assert_param(IS_EXTI_MODE(EXTI_InitStruct->EXTI_Mode));
 8005dcc:	687b      	ldr	r3, [r7, #4]
 8005dce:	791b      	ldrb	r3, [r3, #4]
 8005dd0:	2b00      	cmp	r3, #0
 8005dd2:	d007      	beq.n	8005de4 <EXTI_Init+0x24>
 8005dd4:	687b      	ldr	r3, [r7, #4]
 8005dd6:	791b      	ldrb	r3, [r3, #4]
 8005dd8:	2b04      	cmp	r3, #4
 8005dda:	d003      	beq.n	8005de4 <EXTI_Init+0x24>
 8005ddc:	4848      	ldr	r0, [pc, #288]	; (8005f00 <EXTI_Init+0x140>)
 8005dde:	217c      	movs	r1, #124	; 0x7c
 8005de0:	f7fc fbac 	bl	800253c <assert_failed>
  assert_param(IS_EXTI_TRIGGER(EXTI_InitStruct->EXTI_Trigger));
 8005de4:	687b      	ldr	r3, [r7, #4]
 8005de6:	795b      	ldrb	r3, [r3, #5]
 8005de8:	2b08      	cmp	r3, #8
 8005dea:	d00b      	beq.n	8005e04 <EXTI_Init+0x44>
 8005dec:	687b      	ldr	r3, [r7, #4]
 8005dee:	795b      	ldrb	r3, [r3, #5]
 8005df0:	2b0c      	cmp	r3, #12
 8005df2:	d007      	beq.n	8005e04 <EXTI_Init+0x44>
 8005df4:	687b      	ldr	r3, [r7, #4]
 8005df6:	795b      	ldrb	r3, [r3, #5]
 8005df8:	2b10      	cmp	r3, #16
 8005dfa:	d003      	beq.n	8005e04 <EXTI_Init+0x44>
 8005dfc:	4840      	ldr	r0, [pc, #256]	; (8005f00 <EXTI_Init+0x140>)
 8005dfe:	217d      	movs	r1, #125	; 0x7d
 8005e00:	f7fc fb9c 	bl	800253c <assert_failed>
  assert_param(IS_EXTI_LINE(EXTI_InitStruct->EXTI_Line));  
 8005e04:	687b      	ldr	r3, [r7, #4]
 8005e06:	681b      	ldr	r3, [r3, #0]
 8005e08:	0ddb      	lsrs	r3, r3, #23
 8005e0a:	05db      	lsls	r3, r3, #23
 8005e0c:	2b00      	cmp	r3, #0
 8005e0e:	d103      	bne.n	8005e18 <EXTI_Init+0x58>
 8005e10:	687b      	ldr	r3, [r7, #4]
 8005e12:	681b      	ldr	r3, [r3, #0]
 8005e14:	2b00      	cmp	r3, #0
 8005e16:	d103      	bne.n	8005e20 <EXTI_Init+0x60>
 8005e18:	4839      	ldr	r0, [pc, #228]	; (8005f00 <EXTI_Init+0x140>)
 8005e1a:	217e      	movs	r1, #126	; 0x7e
 8005e1c:	f7fc fb8e 	bl	800253c <assert_failed>
  assert_param(IS_FUNCTIONAL_STATE(EXTI_InitStruct->EXTI_LineCmd));
 8005e20:	687b      	ldr	r3, [r7, #4]
 8005e22:	799b      	ldrb	r3, [r3, #6]
 8005e24:	2b00      	cmp	r3, #0
 8005e26:	d007      	beq.n	8005e38 <EXTI_Init+0x78>
 8005e28:	687b      	ldr	r3, [r7, #4]
 8005e2a:	799b      	ldrb	r3, [r3, #6]
 8005e2c:	2b01      	cmp	r3, #1
 8005e2e:	d003      	beq.n	8005e38 <EXTI_Init+0x78>
 8005e30:	4833      	ldr	r0, [pc, #204]	; (8005f00 <EXTI_Init+0x140>)
 8005e32:	217f      	movs	r1, #127	; 0x7f
 8005e34:	f7fc fb82 	bl	800253c <assert_failed>

  tmp = (uint32_t)EXTI_BASE;
 8005e38:	4b32      	ldr	r3, [pc, #200]	; (8005f04 <EXTI_Init+0x144>)
 8005e3a:	60fb      	str	r3, [r7, #12]
     
  if (EXTI_InitStruct->EXTI_LineCmd != DISABLE)
 8005e3c:	687b      	ldr	r3, [r7, #4]
 8005e3e:	799b      	ldrb	r3, [r3, #6]
 8005e40:	2b00      	cmp	r3, #0
 8005e42:	d04d      	beq.n	8005ee0 <EXTI_Init+0x120>
  {
    /* Clear EXTI line configuration */
    EXTI->IMR &= ~EXTI_InitStruct->EXTI_Line;
 8005e44:	4b2f      	ldr	r3, [pc, #188]	; (8005f04 <EXTI_Init+0x144>)
 8005e46:	4a2f      	ldr	r2, [pc, #188]	; (8005f04 <EXTI_Init+0x144>)
 8005e48:	6811      	ldr	r1, [r2, #0]
 8005e4a:	687a      	ldr	r2, [r7, #4]
 8005e4c:	6812      	ldr	r2, [r2, #0]
 8005e4e:	43d2      	mvns	r2, r2
 8005e50:	400a      	ands	r2, r1
 8005e52:	601a      	str	r2, [r3, #0]
    EXTI->EMR &= ~EXTI_InitStruct->EXTI_Line;
 8005e54:	4b2b      	ldr	r3, [pc, #172]	; (8005f04 <EXTI_Init+0x144>)
 8005e56:	4a2b      	ldr	r2, [pc, #172]	; (8005f04 <EXTI_Init+0x144>)
 8005e58:	6851      	ldr	r1, [r2, #4]
 8005e5a:	687a      	ldr	r2, [r7, #4]
 8005e5c:	6812      	ldr	r2, [r2, #0]
 8005e5e:	43d2      	mvns	r2, r2
 8005e60:	400a      	ands	r2, r1
 8005e62:	605a      	str	r2, [r3, #4]
    
    tmp += EXTI_InitStruct->EXTI_Mode;
 8005e64:	687b      	ldr	r3, [r7, #4]
 8005e66:	791b      	ldrb	r3, [r3, #4]
 8005e68:	68fa      	ldr	r2, [r7, #12]
 8005e6a:	4413      	add	r3, r2
 8005e6c:	60fb      	str	r3, [r7, #12]

    *(__IO uint32_t *) tmp |= EXTI_InitStruct->EXTI_Line;
 8005e6e:	68fb      	ldr	r3, [r7, #12]
 8005e70:	68fa      	ldr	r2, [r7, #12]
 8005e72:	6811      	ldr	r1, [r2, #0]
 8005e74:	687a      	ldr	r2, [r7, #4]
 8005e76:	6812      	ldr	r2, [r2, #0]
 8005e78:	430a      	orrs	r2, r1
 8005e7a:	601a      	str	r2, [r3, #0]

    /* Clear Rising Falling edge configuration */
    EXTI->RTSR &= ~EXTI_InitStruct->EXTI_Line;
 8005e7c:	4b21      	ldr	r3, [pc, #132]	; (8005f04 <EXTI_Init+0x144>)
 8005e7e:	4a21      	ldr	r2, [pc, #132]	; (8005f04 <EXTI_Init+0x144>)
 8005e80:	6891      	ldr	r1, [r2, #8]
 8005e82:	687a      	ldr	r2, [r7, #4]
 8005e84:	6812      	ldr	r2, [r2, #0]
 8005e86:	43d2      	mvns	r2, r2
 8005e88:	400a      	ands	r2, r1
 8005e8a:	609a      	str	r2, [r3, #8]
    EXTI->FTSR &= ~EXTI_InitStruct->EXTI_Line;
 8005e8c:	4b1d      	ldr	r3, [pc, #116]	; (8005f04 <EXTI_Init+0x144>)
 8005e8e:	4a1d      	ldr	r2, [pc, #116]	; (8005f04 <EXTI_Init+0x144>)
 8005e90:	68d1      	ldr	r1, [r2, #12]
 8005e92:	687a      	ldr	r2, [r7, #4]
 8005e94:	6812      	ldr	r2, [r2, #0]
 8005e96:	43d2      	mvns	r2, r2
 8005e98:	400a      	ands	r2, r1
 8005e9a:	60da      	str	r2, [r3, #12]
    
    /* Select the trigger for the selected external interrupts */
    if (EXTI_InitStruct->EXTI_Trigger == EXTI_Trigger_Rising_Falling)
 8005e9c:	687b      	ldr	r3, [r7, #4]
 8005e9e:	795b      	ldrb	r3, [r3, #5]
 8005ea0:	2b10      	cmp	r3, #16
 8005ea2:	d10e      	bne.n	8005ec2 <EXTI_Init+0x102>
    {
      /* Rising Falling edge */
      EXTI->RTSR |= EXTI_InitStruct->EXTI_Line;
 8005ea4:	4b17      	ldr	r3, [pc, #92]	; (8005f04 <EXTI_Init+0x144>)
 8005ea6:	4a17      	ldr	r2, [pc, #92]	; (8005f04 <EXTI_Init+0x144>)
 8005ea8:	6891      	ldr	r1, [r2, #8]
 8005eaa:	687a      	ldr	r2, [r7, #4]
 8005eac:	6812      	ldr	r2, [r2, #0]
 8005eae:	430a      	orrs	r2, r1
 8005eb0:	609a      	str	r2, [r3, #8]
      EXTI->FTSR |= EXTI_InitStruct->EXTI_Line;
 8005eb2:	4b14      	ldr	r3, [pc, #80]	; (8005f04 <EXTI_Init+0x144>)
 8005eb4:	4a13      	ldr	r2, [pc, #76]	; (8005f04 <EXTI_Init+0x144>)
 8005eb6:	68d1      	ldr	r1, [r2, #12]
 8005eb8:	687a      	ldr	r2, [r7, #4]
 8005eba:	6812      	ldr	r2, [r2, #0]
 8005ebc:	430a      	orrs	r2, r1
 8005ebe:	60da      	str	r2, [r3, #12]
 8005ec0:	e01b      	b.n	8005efa <EXTI_Init+0x13a>
    }
    else
    {
      tmp = (uint32_t)EXTI_BASE;
 8005ec2:	4b10      	ldr	r3, [pc, #64]	; (8005f04 <EXTI_Init+0x144>)
 8005ec4:	60fb      	str	r3, [r7, #12]
      tmp += EXTI_InitStruct->EXTI_Trigger;
 8005ec6:	687b      	ldr	r3, [r7, #4]
 8005ec8:	795b      	ldrb	r3, [r3, #5]
 8005eca:	68fa      	ldr	r2, [r7, #12]
 8005ecc:	4413      	add	r3, r2
 8005ece:	60fb      	str	r3, [r7, #12]

      *(__IO uint32_t *) tmp |= EXTI_InitStruct->EXTI_Line;
 8005ed0:	68fb      	ldr	r3, [r7, #12]
 8005ed2:	68fa      	ldr	r2, [r7, #12]
 8005ed4:	6811      	ldr	r1, [r2, #0]
 8005ed6:	687a      	ldr	r2, [r7, #4]
 8005ed8:	6812      	ldr	r2, [r2, #0]
 8005eda:	430a      	orrs	r2, r1
 8005edc:	601a      	str	r2, [r3, #0]
 8005ede:	e00c      	b.n	8005efa <EXTI_Init+0x13a>
    }
  }
  else
  {
    tmp += EXTI_InitStruct->EXTI_Mode;
 8005ee0:	687b      	ldr	r3, [r7, #4]
 8005ee2:	791b      	ldrb	r3, [r3, #4]
 8005ee4:	68fa      	ldr	r2, [r7, #12]
 8005ee6:	4413      	add	r3, r2
 8005ee8:	60fb      	str	r3, [r7, #12]

    /* Disable the selected external lines */
    *(__IO uint32_t *) tmp &= ~EXTI_InitStruct->EXTI_Line;
 8005eea:	68fb      	ldr	r3, [r7, #12]
 8005eec:	68fa      	ldr	r2, [r7, #12]
 8005eee:	6811      	ldr	r1, [r2, #0]
 8005ef0:	687a      	ldr	r2, [r7, #4]
 8005ef2:	6812      	ldr	r2, [r2, #0]
 8005ef4:	43d2      	mvns	r2, r2
 8005ef6:	400a      	ands	r2, r1
 8005ef8:	601a      	str	r2, [r3, #0]
  }
}
 8005efa:	3710      	adds	r7, #16
 8005efc:	46bd      	mov	sp, r7
 8005efe:	bd80      	pop	{r7, pc}
 8005f00:	08007b2c 	.word	0x08007b2c
 8005f04:	40013c00 	.word	0x40013c00

08005f08 <EXTI_ClearFlag>:
  * @param  EXTI_Line: specifies the EXTI lines flags to clear.
  *          This parameter can be any combination of EXTI_Linex where x can be (0..22)
  * @retval None
  */
void EXTI_ClearFlag(uint32_t EXTI_Line)
{
 8005f08:	b580      	push	{r7, lr}
 8005f0a:	b082      	sub	sp, #8
 8005f0c:	af00      	add	r7, sp, #0
 8005f0e:	6078      	str	r0, [r7, #4]
  /* Check the parameters */
  assert_param(IS_EXTI_LINE(EXTI_Line));
 8005f10:	687b      	ldr	r3, [r7, #4]
 8005f12:	0ddb      	lsrs	r3, r3, #23
 8005f14:	05db      	lsls	r3, r3, #23
 8005f16:	2b00      	cmp	r3, #0
 8005f18:	d102      	bne.n	8005f20 <EXTI_ClearFlag+0x18>
 8005f1a:	687b      	ldr	r3, [r7, #4]
 8005f1c:	2b00      	cmp	r3, #0
 8005f1e:	d103      	bne.n	8005f28 <EXTI_ClearFlag+0x20>
 8005f20:	4804      	ldr	r0, [pc, #16]	; (8005f34 <EXTI_ClearFlag+0x2c>)
 8005f22:	21f6      	movs	r1, #246	; 0xf6
 8005f24:	f7fc fb0a 	bl	800253c <assert_failed>
  
  EXTI->PR = EXTI_Line;
 8005f28:	4b03      	ldr	r3, [pc, #12]	; (8005f38 <EXTI_ClearFlag+0x30>)
 8005f2a:	687a      	ldr	r2, [r7, #4]
 8005f2c:	615a      	str	r2, [r3, #20]
}
 8005f2e:	3708      	adds	r7, #8
 8005f30:	46bd      	mov	sp, r7
 8005f32:	bd80      	pop	{r7, pc}
 8005f34:	08007b2c 	.word	0x08007b2c
 8005f38:	40013c00 	.word	0x40013c00

08005f3c <EXTI_GetITStatus>:
  * @param  EXTI_Line: specifies the EXTI line to check.
  *          This parameter can be EXTI_Linex where x can be(0..22)
  * @retval The new state of EXTI_Line (SET or RESET).
  */
ITStatus EXTI_GetITStatus(uint32_t EXTI_Line)
{
 8005f3c:	b580      	push	{r7, lr}
 8005f3e:	b084      	sub	sp, #16
 8005f40:	af00      	add	r7, sp, #0
 8005f42:	6078      	str	r0, [r7, #4]
  ITStatus bitstatus = RESET;
 8005f44:	2300      	movs	r3, #0
 8005f46:	73fb      	strb	r3, [r7, #15]
  uint32_t enablestatus = 0;
 8005f48:	2300      	movs	r3, #0
 8005f4a:	60bb      	str	r3, [r7, #8]
  /* Check the parameters */
  assert_param(IS_GET_EXTI_LINE(EXTI_Line));
 8005f4c:	687b      	ldr	r3, [r7, #4]
 8005f4e:	2b01      	cmp	r3, #1
 8005f50:	d055      	beq.n	8005ffe <EXTI_GetITStatus+0xc2>
 8005f52:	687b      	ldr	r3, [r7, #4]
 8005f54:	2b02      	cmp	r3, #2
 8005f56:	d052      	beq.n	8005ffe <EXTI_GetITStatus+0xc2>
 8005f58:	687b      	ldr	r3, [r7, #4]
 8005f5a:	2b04      	cmp	r3, #4
 8005f5c:	d04f      	beq.n	8005ffe <EXTI_GetITStatus+0xc2>
 8005f5e:	687b      	ldr	r3, [r7, #4]
 8005f60:	2b08      	cmp	r3, #8
 8005f62:	d04c      	beq.n	8005ffe <EXTI_GetITStatus+0xc2>
 8005f64:	687b      	ldr	r3, [r7, #4]
 8005f66:	2b10      	cmp	r3, #16
 8005f68:	d049      	beq.n	8005ffe <EXTI_GetITStatus+0xc2>
 8005f6a:	687b      	ldr	r3, [r7, #4]
 8005f6c:	2b20      	cmp	r3, #32
 8005f6e:	d046      	beq.n	8005ffe <EXTI_GetITStatus+0xc2>
 8005f70:	687b      	ldr	r3, [r7, #4]
 8005f72:	2b40      	cmp	r3, #64	; 0x40
 8005f74:	d043      	beq.n	8005ffe <EXTI_GetITStatus+0xc2>
 8005f76:	687b      	ldr	r3, [r7, #4]
 8005f78:	2b80      	cmp	r3, #128	; 0x80
 8005f7a:	d040      	beq.n	8005ffe <EXTI_GetITStatus+0xc2>
 8005f7c:	687b      	ldr	r3, [r7, #4]
 8005f7e:	f5b3 7f80 	cmp.w	r3, #256	; 0x100
 8005f82:	d03c      	beq.n	8005ffe <EXTI_GetITStatus+0xc2>
 8005f84:	687b      	ldr	r3, [r7, #4]
 8005f86:	f5b3 7f00 	cmp.w	r3, #512	; 0x200
 8005f8a:	d038      	beq.n	8005ffe <EXTI_GetITStatus+0xc2>
 8005f8c:	687b      	ldr	r3, [r7, #4]
 8005f8e:	f5b3 6f80 	cmp.w	r3, #1024	; 0x400
 8005f92:	d034      	beq.n	8005ffe <EXTI_GetITStatus+0xc2>
 8005f94:	687b      	ldr	r3, [r7, #4]
 8005f96:	f5b3 6f00 	cmp.w	r3, #2048	; 0x800
 8005f9a:	d030      	beq.n	8005ffe <EXTI_GetITStatus+0xc2>
 8005f9c:	687b      	ldr	r3, [r7, #4]
 8005f9e:	f5b3 5f80 	cmp.w	r3, #4096	; 0x1000
 8005fa2:	d02c      	beq.n	8005ffe <EXTI_GetITStatus+0xc2>
 8005fa4:	687b      	ldr	r3, [r7, #4]
 8005fa6:	f5b3 5f00 	cmp.w	r3, #8192	; 0x2000
 8005faa:	d028      	beq.n	8005ffe <EXTI_GetITStatus+0xc2>
 8005fac:	687b      	ldr	r3, [r7, #4]
 8005fae:	f5b3 4f80 	cmp.w	r3, #16384	; 0x4000
 8005fb2:	d024      	beq.n	8005ffe <EXTI_GetITStatus+0xc2>
 8005fb4:	687b      	ldr	r3, [r7, #4]
 8005fb6:	f5b3 4f00 	cmp.w	r3, #32768	; 0x8000
 8005fba:	d020      	beq.n	8005ffe <EXTI_GetITStatus+0xc2>
 8005fbc:	687b      	ldr	r3, [r7, #4]
 8005fbe:	f5b3 3f80 	cmp.w	r3, #65536	; 0x10000
 8005fc2:	d01c      	beq.n	8005ffe <EXTI_GetITStatus+0xc2>
 8005fc4:	687b      	ldr	r3, [r7, #4]
 8005fc6:	f5b3 3f00 	cmp.w	r3, #131072	; 0x20000
 8005fca:	d018      	beq.n	8005ffe <EXTI_GetITStatus+0xc2>
 8005fcc:	687b      	ldr	r3, [r7, #4]
 8005fce:	f5b3 2f80 	cmp.w	r3, #262144	; 0x40000
 8005fd2:	d014      	beq.n	8005ffe <EXTI_GetITStatus+0xc2>
 8005fd4:	687b      	ldr	r3, [r7, #4]
 8005fd6:	f5b3 2f00 	cmp.w	r3, #524288	; 0x80000
 8005fda:	d010      	beq.n	8005ffe <EXTI_GetITStatus+0xc2>
 8005fdc:	687b      	ldr	r3, [r7, #4]
 8005fde:	f5b3 1f80 	cmp.w	r3, #1048576	; 0x100000
 8005fe2:	d00c      	beq.n	8005ffe <EXTI_GetITStatus+0xc2>
 8005fe4:	687b      	ldr	r3, [r7, #4]
 8005fe6:	f5b3 1f00 	cmp.w	r3, #2097152	; 0x200000
 8005fea:	d008      	beq.n	8005ffe <EXTI_GetITStatus+0xc2>
 8005fec:	687b      	ldr	r3, [r7, #4]
 8005fee:	f5b3 0f80 	cmp.w	r3, #4194304	; 0x400000
 8005ff2:	d004      	beq.n	8005ffe <EXTI_GetITStatus+0xc2>
 8005ff4:	480e      	ldr	r0, [pc, #56]	; (8006030 <EXTI_GetITStatus+0xf4>)
 8005ff6:	f44f 7183 	mov.w	r1, #262	; 0x106
 8005ffa:	f7fc fa9f 	bl	800253c <assert_failed>
  
  enablestatus =  EXTI->IMR & EXTI_Line;
 8005ffe:	4b0d      	ldr	r3, [pc, #52]	; (8006034 <EXTI_GetITStatus+0xf8>)
 8006000:	681a      	ldr	r2, [r3, #0]
 8006002:	687b      	ldr	r3, [r7, #4]
 8006004:	4013      	ands	r3, r2
 8006006:	60bb      	str	r3, [r7, #8]
  if (((EXTI->PR & EXTI_Line) != (uint32_t)RESET) && (enablestatus != (uint32_t)RESET))
 8006008:	4b0a      	ldr	r3, [pc, #40]	; (8006034 <EXTI_GetITStatus+0xf8>)
 800600a:	695a      	ldr	r2, [r3, #20]
 800600c:	687b      	ldr	r3, [r7, #4]
 800600e:	4013      	ands	r3, r2
 8006010:	2b00      	cmp	r3, #0
 8006012:	d005      	beq.n	8006020 <EXTI_GetITStatus+0xe4>
 8006014:	68bb      	ldr	r3, [r7, #8]
 8006016:	2b00      	cmp	r3, #0
 8006018:	d002      	beq.n	8006020 <EXTI_GetITStatus+0xe4>
  {
    bitstatus = SET;
 800601a:	2301      	movs	r3, #1
 800601c:	73fb      	strb	r3, [r7, #15]
 800601e:	e001      	b.n	8006024 <EXTI_GetITStatus+0xe8>
  }
  else
  {
    bitstatus = RESET;
 8006020:	2300      	movs	r3, #0
 8006022:	73fb      	strb	r3, [r7, #15]
  }
  return bitstatus;
 8006024:	7bfb      	ldrb	r3, [r7, #15]
}
 8006026:	4618      	mov	r0, r3
 8006028:	3710      	adds	r7, #16
 800602a:	46bd      	mov	sp, r7
 800602c:	bd80      	pop	{r7, pc}
 800602e:	bf00      	nop
 8006030:	08007b2c 	.word	0x08007b2c
 8006034:	40013c00 	.word	0x40013c00

08006038 <GPIO_Init>:
  * @param  GPIO_InitStruct: pointer to a GPIO_InitTypeDef structure that contains
  *         the configuration information for the specified GPIO peripheral.
  * @retval None
  */
void GPIO_Init(GPIO_TypeDef* GPIOx, GPIO_InitTypeDef* GPIO_InitStruct)
{
 8006038:	b580      	push	{r7, lr}
 800603a:	b086      	sub	sp, #24
 800603c:	af00      	add	r7, sp, #0
 800603e:	6078      	str	r0, [r7, #4]
 8006040:	6039      	str	r1, [r7, #0]
  uint32_t pinpos = 0x00, pos = 0x00 , currentpin = 0x00;
 8006042:	2300      	movs	r3, #0
 8006044:	617b      	str	r3, [r7, #20]
 8006046:	2300      	movs	r3, #0
 8006048:	613b      	str	r3, [r7, #16]
 800604a:	2300      	movs	r3, #0
 800604c:	60fb      	str	r3, [r7, #12]

  /* Check the parameters */
  assert_param(IS_GPIO_ALL_PERIPH(GPIOx));
 800604e:	687a      	ldr	r2, [r7, #4]
 8006050:	4b7a      	ldr	r3, [pc, #488]	; (800623c <GPIO_Init+0x204>)
 8006052:	429a      	cmp	r2, r3
 8006054:	d023      	beq.n	800609e <GPIO_Init+0x66>
 8006056:	687a      	ldr	r2, [r7, #4]
 8006058:	4b79      	ldr	r3, [pc, #484]	; (8006240 <GPIO_Init+0x208>)
 800605a:	429a      	cmp	r2, r3
 800605c:	d01f      	beq.n	800609e <GPIO_Init+0x66>
 800605e:	687a      	ldr	r2, [r7, #4]
 8006060:	4b78      	ldr	r3, [pc, #480]	; (8006244 <GPIO_Init+0x20c>)
 8006062:	429a      	cmp	r2, r3
 8006064:	d01b      	beq.n	800609e <GPIO_Init+0x66>
 8006066:	687a      	ldr	r2, [r7, #4]
 8006068:	4b77      	ldr	r3, [pc, #476]	; (8006248 <GPIO_Init+0x210>)
 800606a:	429a      	cmp	r2, r3
 800606c:	d017      	beq.n	800609e <GPIO_Init+0x66>
 800606e:	687a      	ldr	r2, [r7, #4]
 8006070:	4b76      	ldr	r3, [pc, #472]	; (800624c <GPIO_Init+0x214>)
 8006072:	429a      	cmp	r2, r3
 8006074:	d013      	beq.n	800609e <GPIO_Init+0x66>
 8006076:	687a      	ldr	r2, [r7, #4]
 8006078:	4b75      	ldr	r3, [pc, #468]	; (8006250 <GPIO_Init+0x218>)
 800607a:	429a      	cmp	r2, r3
 800607c:	d00f      	beq.n	800609e <GPIO_Init+0x66>
 800607e:	687a      	ldr	r2, [r7, #4]
 8006080:	4b74      	ldr	r3, [pc, #464]	; (8006254 <GPIO_Init+0x21c>)
 8006082:	429a      	cmp	r2, r3
 8006084:	d00b      	beq.n	800609e <GPIO_Init+0x66>
 8006086:	687a      	ldr	r2, [r7, #4]
 8006088:	4b73      	ldr	r3, [pc, #460]	; (8006258 <GPIO_Init+0x220>)
 800608a:	429a      	cmp	r2, r3
 800608c:	d007      	beq.n	800609e <GPIO_Init+0x66>
 800608e:	687a      	ldr	r2, [r7, #4]
 8006090:	4b72      	ldr	r3, [pc, #456]	; (800625c <GPIO_Init+0x224>)
 8006092:	429a      	cmp	r2, r3
 8006094:	d003      	beq.n	800609e <GPIO_Init+0x66>
 8006096:	4872      	ldr	r0, [pc, #456]	; (8006260 <GPIO_Init+0x228>)
 8006098:	21bb      	movs	r1, #187	; 0xbb
 800609a:	f7fc fa4f 	bl	800253c <assert_failed>
  assert_param(IS_GPIO_PIN(GPIO_InitStruct->GPIO_Pin));
 800609e:	683b      	ldr	r3, [r7, #0]
 80060a0:	681b      	ldr	r3, [r3, #0]
 80060a2:	2b00      	cmp	r3, #0
 80060a4:	d103      	bne.n	80060ae <GPIO_Init+0x76>
 80060a6:	486e      	ldr	r0, [pc, #440]	; (8006260 <GPIO_Init+0x228>)
 80060a8:	21bc      	movs	r1, #188	; 0xbc
 80060aa:	f7fc fa47 	bl	800253c <assert_failed>
  assert_param(IS_GPIO_MODE(GPIO_InitStruct->GPIO_Mode));
 80060ae:	683b      	ldr	r3, [r7, #0]
 80060b0:	791b      	ldrb	r3, [r3, #4]
 80060b2:	2b00      	cmp	r3, #0
 80060b4:	d00f      	beq.n	80060d6 <GPIO_Init+0x9e>
 80060b6:	683b      	ldr	r3, [r7, #0]
 80060b8:	791b      	ldrb	r3, [r3, #4]
 80060ba:	2b01      	cmp	r3, #1
 80060bc:	d00b      	beq.n	80060d6 <GPIO_Init+0x9e>
 80060be:	683b      	ldr	r3, [r7, #0]
 80060c0:	791b      	ldrb	r3, [r3, #4]
 80060c2:	2b02      	cmp	r3, #2
 80060c4:	d007      	beq.n	80060d6 <GPIO_Init+0x9e>
 80060c6:	683b      	ldr	r3, [r7, #0]
 80060c8:	791b      	ldrb	r3, [r3, #4]
 80060ca:	2b03      	cmp	r3, #3
 80060cc:	d003      	beq.n	80060d6 <GPIO_Init+0x9e>
 80060ce:	4864      	ldr	r0, [pc, #400]	; (8006260 <GPIO_Init+0x228>)
 80060d0:	21bd      	movs	r1, #189	; 0xbd
 80060d2:	f7fc fa33 	bl	800253c <assert_failed>
  assert_param(IS_GPIO_PUPD(GPIO_InitStruct->GPIO_PuPd));
 80060d6:	683b      	ldr	r3, [r7, #0]
 80060d8:	79db      	ldrb	r3, [r3, #7]
 80060da:	2b00      	cmp	r3, #0
 80060dc:	d00b      	beq.n	80060f6 <GPIO_Init+0xbe>
 80060de:	683b      	ldr	r3, [r7, #0]
 80060e0:	79db      	ldrb	r3, [r3, #7]
 80060e2:	2b01      	cmp	r3, #1
 80060e4:	d007      	beq.n	80060f6 <GPIO_Init+0xbe>
 80060e6:	683b      	ldr	r3, [r7, #0]
 80060e8:	79db      	ldrb	r3, [r3, #7]
 80060ea:	2b02      	cmp	r3, #2
 80060ec:	d003      	beq.n	80060f6 <GPIO_Init+0xbe>
 80060ee:	485c      	ldr	r0, [pc, #368]	; (8006260 <GPIO_Init+0x228>)
 80060f0:	21be      	movs	r1, #190	; 0xbe
 80060f2:	f7fc fa23 	bl	800253c <assert_failed>

  /* -------------------------Configure the port pins---------------- */
  /*-- GPIO Mode Configuration --*/
  for (pinpos = 0x00; pinpos < 0x10; pinpos++)
 80060f6:	2300      	movs	r3, #0
 80060f8:	617b      	str	r3, [r7, #20]
 80060fa:	e097      	b.n	800622c <GPIO_Init+0x1f4>
  {
    pos = ((uint32_t)0x01) << pinpos;
 80060fc:	697b      	ldr	r3, [r7, #20]
 80060fe:	2201      	movs	r2, #1
 8006100:	fa02 f303 	lsl.w	r3, r2, r3
 8006104:	613b      	str	r3, [r7, #16]
    /* Get the port pins position */
    currentpin = (GPIO_InitStruct->GPIO_Pin) & pos;
 8006106:	683b      	ldr	r3, [r7, #0]
 8006108:	681a      	ldr	r2, [r3, #0]
 800610a:	693b      	ldr	r3, [r7, #16]
 800610c:	4013      	ands	r3, r2
 800610e:	60fb      	str	r3, [r7, #12]

    if (currentpin == pos)
 8006110:	68fa      	ldr	r2, [r7, #12]
 8006112:	693b      	ldr	r3, [r7, #16]
 8006114:	429a      	cmp	r2, r3
 8006116:	f040 8086 	bne.w	8006226 <GPIO_Init+0x1ee>
    {
      GPIOx->MODER  &= ~(GPIO_MODER_MODER0 << (pinpos * 2));
 800611a:	687b      	ldr	r3, [r7, #4]
 800611c:	681a      	ldr	r2, [r3, #0]
 800611e:	697b      	ldr	r3, [r7, #20]
 8006120:	005b      	lsls	r3, r3, #1
 8006122:	2103      	movs	r1, #3
 8006124:	fa01 f303 	lsl.w	r3, r1, r3
 8006128:	43db      	mvns	r3, r3
 800612a:	401a      	ands	r2, r3
 800612c:	687b      	ldr	r3, [r7, #4]
 800612e:	601a      	str	r2, [r3, #0]
      GPIOx->MODER |= (((uint32_t)GPIO_InitStruct->GPIO_Mode) << (pinpos * 2));
 8006130:	687b      	ldr	r3, [r7, #4]
 8006132:	681a      	ldr	r2, [r3, #0]
 8006134:	683b      	ldr	r3, [r7, #0]
 8006136:	791b      	ldrb	r3, [r3, #4]
 8006138:	4619      	mov	r1, r3
 800613a:	697b      	ldr	r3, [r7, #20]
 800613c:	005b      	lsls	r3, r3, #1
 800613e:	fa01 f303 	lsl.w	r3, r1, r3
 8006142:	431a      	orrs	r2, r3
 8006144:	687b      	ldr	r3, [r7, #4]
 8006146:	601a      	str	r2, [r3, #0]

      if ((GPIO_InitStruct->GPIO_Mode == GPIO_Mode_OUT) || (GPIO_InitStruct->GPIO_Mode == GPIO_Mode_AF))
 8006148:	683b      	ldr	r3, [r7, #0]
 800614a:	791b      	ldrb	r3, [r3, #4]
 800614c:	2b01      	cmp	r3, #1
 800614e:	d003      	beq.n	8006158 <GPIO_Init+0x120>
 8006150:	683b      	ldr	r3, [r7, #0]
 8006152:	791b      	ldrb	r3, [r3, #4]
 8006154:	2b02      	cmp	r3, #2
 8006156:	d14e      	bne.n	80061f6 <GPIO_Init+0x1be>
      {
        /* Check Speed mode parameters */
        assert_param(IS_GPIO_SPEED(GPIO_InitStruct->GPIO_Speed));
 8006158:	683b      	ldr	r3, [r7, #0]
 800615a:	795b      	ldrb	r3, [r3, #5]
 800615c:	2b00      	cmp	r3, #0
 800615e:	d00f      	beq.n	8006180 <GPIO_Init+0x148>
 8006160:	683b      	ldr	r3, [r7, #0]
 8006162:	795b      	ldrb	r3, [r3, #5]
 8006164:	2b01      	cmp	r3, #1
 8006166:	d00b      	beq.n	8006180 <GPIO_Init+0x148>
 8006168:	683b      	ldr	r3, [r7, #0]
 800616a:	795b      	ldrb	r3, [r3, #5]
 800616c:	2b02      	cmp	r3, #2
 800616e:	d007      	beq.n	8006180 <GPIO_Init+0x148>
 8006170:	683b      	ldr	r3, [r7, #0]
 8006172:	795b      	ldrb	r3, [r3, #5]
 8006174:	2b03      	cmp	r3, #3
 8006176:	d003      	beq.n	8006180 <GPIO_Init+0x148>
 8006178:	4839      	ldr	r0, [pc, #228]	; (8006260 <GPIO_Init+0x228>)
 800617a:	21d0      	movs	r1, #208	; 0xd0
 800617c:	f7fc f9de 	bl	800253c <assert_failed>

        /* Speed mode configuration */
        GPIOx->OSPEEDR &= ~(GPIO_OSPEEDER_OSPEEDR0 << (pinpos * 2));
 8006180:	687b      	ldr	r3, [r7, #4]
 8006182:	689a      	ldr	r2, [r3, #8]
 8006184:	697b      	ldr	r3, [r7, #20]
 8006186:	005b      	lsls	r3, r3, #1
 8006188:	2103      	movs	r1, #3
 800618a:	fa01 f303 	lsl.w	r3, r1, r3
 800618e:	43db      	mvns	r3, r3
 8006190:	401a      	ands	r2, r3
 8006192:	687b      	ldr	r3, [r7, #4]
 8006194:	609a      	str	r2, [r3, #8]
        GPIOx->OSPEEDR |= ((uint32_t)(GPIO_InitStruct->GPIO_Speed) << (pinpos * 2));
 8006196:	687b      	ldr	r3, [r7, #4]
 8006198:	689a      	ldr	r2, [r3, #8]
 800619a:	683b      	ldr	r3, [r7, #0]
 800619c:	795b      	ldrb	r3, [r3, #5]
 800619e:	4619      	mov	r1, r3
 80061a0:	697b      	ldr	r3, [r7, #20]
 80061a2:	005b      	lsls	r3, r3, #1
 80061a4:	fa01 f303 	lsl.w	r3, r1, r3
 80061a8:	431a      	orrs	r2, r3
 80061aa:	687b      	ldr	r3, [r7, #4]
 80061ac:	609a      	str	r2, [r3, #8]

        /* Check Output mode parameters */
        assert_param(IS_GPIO_OTYPE(GPIO_InitStruct->GPIO_OType));
 80061ae:	683b      	ldr	r3, [r7, #0]
 80061b0:	799b      	ldrb	r3, [r3, #6]
 80061b2:	2b00      	cmp	r3, #0
 80061b4:	d007      	beq.n	80061c6 <GPIO_Init+0x18e>
 80061b6:	683b      	ldr	r3, [r7, #0]
 80061b8:	799b      	ldrb	r3, [r3, #6]
 80061ba:	2b01      	cmp	r3, #1
 80061bc:	d003      	beq.n	80061c6 <GPIO_Init+0x18e>
 80061be:	4828      	ldr	r0, [pc, #160]	; (8006260 <GPIO_Init+0x228>)
 80061c0:	21d7      	movs	r1, #215	; 0xd7
 80061c2:	f7fc f9bb 	bl	800253c <assert_failed>

        /* Output mode configuration*/
        GPIOx->OTYPER  &= ~((GPIO_OTYPER_OT_0) << ((uint16_t)pinpos)) ;
 80061c6:	687b      	ldr	r3, [r7, #4]
 80061c8:	685a      	ldr	r2, [r3, #4]
 80061ca:	697b      	ldr	r3, [r7, #20]
 80061cc:	b29b      	uxth	r3, r3
 80061ce:	2101      	movs	r1, #1
 80061d0:	fa01 f303 	lsl.w	r3, r1, r3
 80061d4:	43db      	mvns	r3, r3
 80061d6:	401a      	ands	r2, r3
 80061d8:	687b      	ldr	r3, [r7, #4]
 80061da:	605a      	str	r2, [r3, #4]
        GPIOx->OTYPER |= (uint16_t)(((uint16_t)GPIO_InitStruct->GPIO_OType) << ((uint16_t)pinpos));
 80061dc:	687b      	ldr	r3, [r7, #4]
 80061de:	685a      	ldr	r2, [r3, #4]
 80061e0:	683b      	ldr	r3, [r7, #0]
 80061e2:	799b      	ldrb	r3, [r3, #6]
 80061e4:	4619      	mov	r1, r3
 80061e6:	697b      	ldr	r3, [r7, #20]
 80061e8:	b29b      	uxth	r3, r3
 80061ea:	fa01 f303 	lsl.w	r3, r1, r3
 80061ee:	b29b      	uxth	r3, r3
 80061f0:	431a      	orrs	r2, r3
 80061f2:	687b      	ldr	r3, [r7, #4]
 80061f4:	605a      	str	r2, [r3, #4]
      }

      /* Pull-up Pull down resistor configuration*/
      GPIOx->PUPDR &= ~(GPIO_PUPDR_PUPDR0 << ((uint16_t)pinpos * 2));
 80061f6:	687b      	ldr	r3, [r7, #4]
 80061f8:	68da      	ldr	r2, [r3, #12]
 80061fa:	697b      	ldr	r3, [r7, #20]
 80061fc:	b29b      	uxth	r3, r3
 80061fe:	005b      	lsls	r3, r3, #1
 8006200:	2103      	movs	r1, #3
 8006202:	fa01 f303 	lsl.w	r3, r1, r3
 8006206:	43db      	mvns	r3, r3
 8006208:	401a      	ands	r2, r3
 800620a:	687b      	ldr	r3, [r7, #4]
 800620c:	60da      	str	r2, [r3, #12]
      GPIOx->PUPDR |= (((uint32_t)GPIO_InitStruct->GPIO_PuPd) << (pinpos * 2));
 800620e:	687b      	ldr	r3, [r7, #4]
 8006210:	68da      	ldr	r2, [r3, #12]
 8006212:	683b      	ldr	r3, [r7, #0]
 8006214:	79db      	ldrb	r3, [r3, #7]
 8006216:	4619      	mov	r1, r3
 8006218:	697b      	ldr	r3, [r7, #20]
 800621a:	005b      	lsls	r3, r3, #1
 800621c:	fa01 f303 	lsl.w	r3, r1, r3
 8006220:	431a      	orrs	r2, r3
 8006222:	687b      	ldr	r3, [r7, #4]
 8006224:	60da      	str	r2, [r3, #12]
  assert_param(IS_GPIO_MODE(GPIO_InitStruct->GPIO_Mode));
  assert_param(IS_GPIO_PUPD(GPIO_InitStruct->GPIO_PuPd));

  /* -------------------------Configure the port pins---------------- */
  /*-- GPIO Mode Configuration --*/
  for (pinpos = 0x00; pinpos < 0x10; pinpos++)
 8006226:	697b      	ldr	r3, [r7, #20]
 8006228:	3301      	adds	r3, #1
 800622a:	617b      	str	r3, [r7, #20]
 800622c:	697b      	ldr	r3, [r7, #20]
 800622e:	2b0f      	cmp	r3, #15
 8006230:	f67f af64 	bls.w	80060fc <GPIO_Init+0xc4>
      /* Pull-up Pull down resistor configuration*/
      GPIOx->PUPDR &= ~(GPIO_PUPDR_PUPDR0 << ((uint16_t)pinpos * 2));
      GPIOx->PUPDR |= (((uint32_t)GPIO_InitStruct->GPIO_PuPd) << (pinpos * 2));
    }
  }
}
 8006234:	3718      	adds	r7, #24
 8006236:	46bd      	mov	sp, r7
 8006238:	bd80      	pop	{r7, pc}
 800623a:	bf00      	nop
 800623c:	40020000 	.word	0x40020000
 8006240:	40020400 	.word	0x40020400
 8006244:	40020800 	.word	0x40020800
 8006248:	40020c00 	.word	0x40020c00
 800624c:	40021000 	.word	0x40021000
 8006250:	40021400 	.word	0x40021400
 8006254:	40021800 	.word	0x40021800
 8006258:	40021c00 	.word	0x40021c00
 800625c:	40022000 	.word	0x40022000
 8006260:	08007b7c 	.word	0x08007b7c

08006264 <GPIO_PinAFConfig>:
  *            @arg GPIO_AF_DCMI: Connect DCMI pins to AF13
  *            @arg GPIO_AF_EVENTOUT: Connect EVENTOUT pins to AF15
  * @retval None
  */
void GPIO_PinAFConfig(GPIO_TypeDef* GPIOx, uint16_t GPIO_PinSource, uint8_t GPIO_AF)
{
 8006264:	b580      	push	{r7, lr}
 8006266:	b084      	sub	sp, #16
 8006268:	af00      	add	r7, sp, #0
 800626a:	6078      	str	r0, [r7, #4]
 800626c:	4613      	mov	r3, r2
 800626e:	460a      	mov	r2, r1
 8006270:	807a      	strh	r2, [r7, #2]
 8006272:	707b      	strb	r3, [r7, #1]
  uint32_t temp = 0x00;
 8006274:	2300      	movs	r3, #0
 8006276:	60fb      	str	r3, [r7, #12]
  uint32_t temp_2 = 0x00;
 8006278:	2300      	movs	r3, #0
 800627a:	60bb      	str	r3, [r7, #8]
  
  /* Check the parameters */
  assert_param(IS_GPIO_ALL_PERIPH(GPIOx));
 800627c:	687a      	ldr	r2, [r7, #4]
 800627e:	4b83      	ldr	r3, [pc, #524]	; (800648c <GPIO_PinAFConfig+0x228>)
 8006280:	429a      	cmp	r2, r3
 8006282:	d024      	beq.n	80062ce <GPIO_PinAFConfig+0x6a>
 8006284:	687a      	ldr	r2, [r7, #4]
 8006286:	4b82      	ldr	r3, [pc, #520]	; (8006490 <GPIO_PinAFConfig+0x22c>)
 8006288:	429a      	cmp	r2, r3
 800628a:	d020      	beq.n	80062ce <GPIO_PinAFConfig+0x6a>
 800628c:	687a      	ldr	r2, [r7, #4]
 800628e:	4b81      	ldr	r3, [pc, #516]	; (8006494 <GPIO_PinAFConfig+0x230>)
 8006290:	429a      	cmp	r2, r3
 8006292:	d01c      	beq.n	80062ce <GPIO_PinAFConfig+0x6a>
 8006294:	687a      	ldr	r2, [r7, #4]
 8006296:	4b80      	ldr	r3, [pc, #512]	; (8006498 <GPIO_PinAFConfig+0x234>)
 8006298:	429a      	cmp	r2, r3
 800629a:	d018      	beq.n	80062ce <GPIO_PinAFConfig+0x6a>
 800629c:	687a      	ldr	r2, [r7, #4]
 800629e:	4b7f      	ldr	r3, [pc, #508]	; (800649c <GPIO_PinAFConfig+0x238>)
 80062a0:	429a      	cmp	r2, r3
 80062a2:	d014      	beq.n	80062ce <GPIO_PinAFConfig+0x6a>
 80062a4:	687a      	ldr	r2, [r7, #4]
 80062a6:	4b7e      	ldr	r3, [pc, #504]	; (80064a0 <GPIO_PinAFConfig+0x23c>)
 80062a8:	429a      	cmp	r2, r3
 80062aa:	d010      	beq.n	80062ce <GPIO_PinAFConfig+0x6a>
 80062ac:	687a      	ldr	r2, [r7, #4]
 80062ae:	4b7d      	ldr	r3, [pc, #500]	; (80064a4 <GPIO_PinAFConfig+0x240>)
 80062b0:	429a      	cmp	r2, r3
 80062b2:	d00c      	beq.n	80062ce <GPIO_PinAFConfig+0x6a>
 80062b4:	687a      	ldr	r2, [r7, #4]
 80062b6:	4b7c      	ldr	r3, [pc, #496]	; (80064a8 <GPIO_PinAFConfig+0x244>)
 80062b8:	429a      	cmp	r2, r3
 80062ba:	d008      	beq.n	80062ce <GPIO_PinAFConfig+0x6a>
 80062bc:	687a      	ldr	r2, [r7, #4]
 80062be:	4b7b      	ldr	r3, [pc, #492]	; (80064ac <GPIO_PinAFConfig+0x248>)
 80062c0:	429a      	cmp	r2, r3
 80062c2:	d004      	beq.n	80062ce <GPIO_PinAFConfig+0x6a>
 80062c4:	487a      	ldr	r0, [pc, #488]	; (80064b0 <GPIO_PinAFConfig+0x24c>)
 80062c6:	f240 2117 	movw	r1, #535	; 0x217
 80062ca:	f7fc f937 	bl	800253c <assert_failed>
  assert_param(IS_GPIO_PIN_SOURCE(GPIO_PinSource));
 80062ce:	887b      	ldrh	r3, [r7, #2]
 80062d0:	2b00      	cmp	r3, #0
 80062d2:	d031      	beq.n	8006338 <GPIO_PinAFConfig+0xd4>
 80062d4:	887b      	ldrh	r3, [r7, #2]
 80062d6:	2b01      	cmp	r3, #1
 80062d8:	d02e      	beq.n	8006338 <GPIO_PinAFConfig+0xd4>
 80062da:	887b      	ldrh	r3, [r7, #2]
 80062dc:	2b02      	cmp	r3, #2
 80062de:	d02b      	beq.n	8006338 <GPIO_PinAFConfig+0xd4>
 80062e0:	887b      	ldrh	r3, [r7, #2]
 80062e2:	2b03      	cmp	r3, #3
 80062e4:	d028      	beq.n	8006338 <GPIO_PinAFConfig+0xd4>
 80062e6:	887b      	ldrh	r3, [r7, #2]
 80062e8:	2b04      	cmp	r3, #4
 80062ea:	d025      	beq.n	8006338 <GPIO_PinAFConfig+0xd4>
 80062ec:	887b      	ldrh	r3, [r7, #2]
 80062ee:	2b05      	cmp	r3, #5
 80062f0:	d022      	beq.n	8006338 <GPIO_PinAFConfig+0xd4>
 80062f2:	887b      	ldrh	r3, [r7, #2]
 80062f4:	2b06      	cmp	r3, #6
 80062f6:	d01f      	beq.n	8006338 <GPIO_PinAFConfig+0xd4>
 80062f8:	887b      	ldrh	r3, [r7, #2]
 80062fa:	2b07      	cmp	r3, #7
 80062fc:	d01c      	beq.n	8006338 <GPIO_PinAFConfig+0xd4>
 80062fe:	887b      	ldrh	r3, [r7, #2]
 8006300:	2b08      	cmp	r3, #8
 8006302:	d019      	beq.n	8006338 <GPIO_PinAFConfig+0xd4>
 8006304:	887b      	ldrh	r3, [r7, #2]
 8006306:	2b09      	cmp	r3, #9
 8006308:	d016      	beq.n	8006338 <GPIO_PinAFConfig+0xd4>
 800630a:	887b      	ldrh	r3, [r7, #2]
 800630c:	2b0a      	cmp	r3, #10
 800630e:	d013      	beq.n	8006338 <GPIO_PinAFConfig+0xd4>
 8006310:	887b      	ldrh	r3, [r7, #2]
 8006312:	2b0b      	cmp	r3, #11
 8006314:	d010      	beq.n	8006338 <GPIO_PinAFConfig+0xd4>
 8006316:	887b      	ldrh	r3, [r7, #2]
 8006318:	2b0c      	cmp	r3, #12
 800631a:	d00d      	beq.n	8006338 <GPIO_PinAFConfig+0xd4>
 800631c:	887b      	ldrh	r3, [r7, #2]
 800631e:	2b0d      	cmp	r3, #13
 8006320:	d00a      	beq.n	8006338 <GPIO_PinAFConfig+0xd4>
 8006322:	887b      	ldrh	r3, [r7, #2]
 8006324:	2b0e      	cmp	r3, #14
 8006326:	d007      	beq.n	8006338 <GPIO_PinAFConfig+0xd4>
 8006328:	887b      	ldrh	r3, [r7, #2]
 800632a:	2b0f      	cmp	r3, #15
 800632c:	d004      	beq.n	8006338 <GPIO_PinAFConfig+0xd4>
 800632e:	4860      	ldr	r0, [pc, #384]	; (80064b0 <GPIO_PinAFConfig+0x24c>)
 8006330:	f44f 7106 	mov.w	r1, #536	; 0x218
 8006334:	f7fc f902 	bl	800253c <assert_failed>
  assert_param(IS_GPIO_AF(GPIO_AF));
 8006338:	787b      	ldrb	r3, [r7, #1]
 800633a:	2b00      	cmp	r3, #0
 800633c:	d06d      	beq.n	800641a <GPIO_PinAFConfig+0x1b6>
 800633e:	787b      	ldrb	r3, [r7, #1]
 8006340:	2b09      	cmp	r3, #9
 8006342:	d06a      	beq.n	800641a <GPIO_PinAFConfig+0x1b6>
 8006344:	787b      	ldrb	r3, [r7, #1]
 8006346:	2b00      	cmp	r3, #0
 8006348:	d067      	beq.n	800641a <GPIO_PinAFConfig+0x1b6>
 800634a:	787b      	ldrb	r3, [r7, #1]
 800634c:	2b00      	cmp	r3, #0
 800634e:	d064      	beq.n	800641a <GPIO_PinAFConfig+0x1b6>
 8006350:	787b      	ldrb	r3, [r7, #1]
 8006352:	2b00      	cmp	r3, #0
 8006354:	d061      	beq.n	800641a <GPIO_PinAFConfig+0x1b6>
 8006356:	787b      	ldrb	r3, [r7, #1]
 8006358:	2b00      	cmp	r3, #0
 800635a:	d05e      	beq.n	800641a <GPIO_PinAFConfig+0x1b6>
 800635c:	787b      	ldrb	r3, [r7, #1]
 800635e:	2b01      	cmp	r3, #1
 8006360:	d05b      	beq.n	800641a <GPIO_PinAFConfig+0x1b6>
 8006362:	787b      	ldrb	r3, [r7, #1]
 8006364:	2b01      	cmp	r3, #1
 8006366:	d058      	beq.n	800641a <GPIO_PinAFConfig+0x1b6>
 8006368:	787b      	ldrb	r3, [r7, #1]
 800636a:	2b02      	cmp	r3, #2
 800636c:	d055      	beq.n	800641a <GPIO_PinAFConfig+0x1b6>
 800636e:	787b      	ldrb	r3, [r7, #1]
 8006370:	2b02      	cmp	r3, #2
 8006372:	d052      	beq.n	800641a <GPIO_PinAFConfig+0x1b6>
 8006374:	787b      	ldrb	r3, [r7, #1]
 8006376:	2b02      	cmp	r3, #2
 8006378:	d04f      	beq.n	800641a <GPIO_PinAFConfig+0x1b6>
 800637a:	787b      	ldrb	r3, [r7, #1]
 800637c:	2b03      	cmp	r3, #3
 800637e:	d04c      	beq.n	800641a <GPIO_PinAFConfig+0x1b6>
 8006380:	787b      	ldrb	r3, [r7, #1]
 8006382:	2b04      	cmp	r3, #4
 8006384:	d049      	beq.n	800641a <GPIO_PinAFConfig+0x1b6>
 8006386:	787b      	ldrb	r3, [r7, #1]
 8006388:	2b04      	cmp	r3, #4
 800638a:	d046      	beq.n	800641a <GPIO_PinAFConfig+0x1b6>
 800638c:	787b      	ldrb	r3, [r7, #1]
 800638e:	2b04      	cmp	r3, #4
 8006390:	d043      	beq.n	800641a <GPIO_PinAFConfig+0x1b6>
 8006392:	787b      	ldrb	r3, [r7, #1]
 8006394:	2b05      	cmp	r3, #5
 8006396:	d040      	beq.n	800641a <GPIO_PinAFConfig+0x1b6>
 8006398:	787b      	ldrb	r3, [r7, #1]
 800639a:	2b05      	cmp	r3, #5
 800639c:	d03d      	beq.n	800641a <GPIO_PinAFConfig+0x1b6>
 800639e:	787b      	ldrb	r3, [r7, #1]
 80063a0:	2b09      	cmp	r3, #9
 80063a2:	d03a      	beq.n	800641a <GPIO_PinAFConfig+0x1b6>
 80063a4:	787b      	ldrb	r3, [r7, #1]
 80063a6:	2b06      	cmp	r3, #6
 80063a8:	d037      	beq.n	800641a <GPIO_PinAFConfig+0x1b6>
 80063aa:	787b      	ldrb	r3, [r7, #1]
 80063ac:	2b09      	cmp	r3, #9
 80063ae:	d034      	beq.n	800641a <GPIO_PinAFConfig+0x1b6>
 80063b0:	787b      	ldrb	r3, [r7, #1]
 80063b2:	2b07      	cmp	r3, #7
 80063b4:	d031      	beq.n	800641a <GPIO_PinAFConfig+0x1b6>
 80063b6:	787b      	ldrb	r3, [r7, #1]
 80063b8:	2b07      	cmp	r3, #7
 80063ba:	d02e      	beq.n	800641a <GPIO_PinAFConfig+0x1b6>
 80063bc:	787b      	ldrb	r3, [r7, #1]
 80063be:	2b07      	cmp	r3, #7
 80063c0:	d02b      	beq.n	800641a <GPIO_PinAFConfig+0x1b6>
 80063c2:	787b      	ldrb	r3, [r7, #1]
 80063c4:	2b08      	cmp	r3, #8
 80063c6:	d028      	beq.n	800641a <GPIO_PinAFConfig+0x1b6>
 80063c8:	787b      	ldrb	r3, [r7, #1]
 80063ca:	2b08      	cmp	r3, #8
 80063cc:	d025      	beq.n	800641a <GPIO_PinAFConfig+0x1b6>
 80063ce:	787b      	ldrb	r3, [r7, #1]
 80063d0:	2b08      	cmp	r3, #8
 80063d2:	d022      	beq.n	800641a <GPIO_PinAFConfig+0x1b6>
 80063d4:	787b      	ldrb	r3, [r7, #1]
 80063d6:	2b09      	cmp	r3, #9
 80063d8:	d01f      	beq.n	800641a <GPIO_PinAFConfig+0x1b6>
 80063da:	787b      	ldrb	r3, [r7, #1]
 80063dc:	2b09      	cmp	r3, #9
 80063de:	d01c      	beq.n	800641a <GPIO_PinAFConfig+0x1b6>
 80063e0:	787b      	ldrb	r3, [r7, #1]
 80063e2:	2b0a      	cmp	r3, #10
 80063e4:	d019      	beq.n	800641a <GPIO_PinAFConfig+0x1b6>
 80063e6:	787b      	ldrb	r3, [r7, #1]
 80063e8:	2b0a      	cmp	r3, #10
 80063ea:	d016      	beq.n	800641a <GPIO_PinAFConfig+0x1b6>
 80063ec:	787b      	ldrb	r3, [r7, #1]
 80063ee:	2b0b      	cmp	r3, #11
 80063f0:	d013      	beq.n	800641a <GPIO_PinAFConfig+0x1b6>
 80063f2:	787b      	ldrb	r3, [r7, #1]
 80063f4:	2b0c      	cmp	r3, #12
 80063f6:	d010      	beq.n	800641a <GPIO_PinAFConfig+0x1b6>
 80063f8:	787b      	ldrb	r3, [r7, #1]
 80063fa:	2b0c      	cmp	r3, #12
 80063fc:	d00d      	beq.n	800641a <GPIO_PinAFConfig+0x1b6>
 80063fe:	787b      	ldrb	r3, [r7, #1]
 8006400:	2b0c      	cmp	r3, #12
 8006402:	d00a      	beq.n	800641a <GPIO_PinAFConfig+0x1b6>
 8006404:	787b      	ldrb	r3, [r7, #1]
 8006406:	2b0d      	cmp	r3, #13
 8006408:	d007      	beq.n	800641a <GPIO_PinAFConfig+0x1b6>
 800640a:	787b      	ldrb	r3, [r7, #1]
 800640c:	2b0f      	cmp	r3, #15
 800640e:	d004      	beq.n	800641a <GPIO_PinAFConfig+0x1b6>
 8006410:	4827      	ldr	r0, [pc, #156]	; (80064b0 <GPIO_PinAFConfig+0x24c>)
 8006412:	f240 2119 	movw	r1, #537	; 0x219
 8006416:	f7fc f891 	bl	800253c <assert_failed>
  
  temp = ((uint32_t)(GPIO_AF) << ((uint32_t)((uint32_t)GPIO_PinSource & (uint32_t)0x07) * 4)) ;
 800641a:	787a      	ldrb	r2, [r7, #1]
 800641c:	887b      	ldrh	r3, [r7, #2]
 800641e:	f003 0307 	and.w	r3, r3, #7
 8006422:	009b      	lsls	r3, r3, #2
 8006424:	fa02 f303 	lsl.w	r3, r2, r3
 8006428:	60fb      	str	r3, [r7, #12]
  GPIOx->AFR[GPIO_PinSource >> 0x03] &= ~((uint32_t)0xF << ((uint32_t)((uint32_t)GPIO_PinSource & (uint32_t)0x07) * 4)) ;
 800642a:	887b      	ldrh	r3, [r7, #2]
 800642c:	08db      	lsrs	r3, r3, #3
 800642e:	b29b      	uxth	r3, r3
 8006430:	461a      	mov	r2, r3
 8006432:	887b      	ldrh	r3, [r7, #2]
 8006434:	08db      	lsrs	r3, r3, #3
 8006436:	b29b      	uxth	r3, r3
 8006438:	4619      	mov	r1, r3
 800643a:	687b      	ldr	r3, [r7, #4]
 800643c:	3108      	adds	r1, #8
 800643e:	f853 1021 	ldr.w	r1, [r3, r1, lsl #2]
 8006442:	887b      	ldrh	r3, [r7, #2]
 8006444:	f003 0307 	and.w	r3, r3, #7
 8006448:	009b      	lsls	r3, r3, #2
 800644a:	200f      	movs	r0, #15
 800644c:	fa00 f303 	lsl.w	r3, r0, r3
 8006450:	43db      	mvns	r3, r3
 8006452:	4019      	ands	r1, r3
 8006454:	687b      	ldr	r3, [r7, #4]
 8006456:	3208      	adds	r2, #8
 8006458:	f843 1022 	str.w	r1, [r3, r2, lsl #2]
  temp_2 = GPIOx->AFR[GPIO_PinSource >> 0x03] | temp;
 800645c:	887b      	ldrh	r3, [r7, #2]
 800645e:	08db      	lsrs	r3, r3, #3
 8006460:	b29b      	uxth	r3, r3
 8006462:	461a      	mov	r2, r3
 8006464:	687b      	ldr	r3, [r7, #4]
 8006466:	3208      	adds	r2, #8
 8006468:	f853 2022 	ldr.w	r2, [r3, r2, lsl #2]
 800646c:	68fb      	ldr	r3, [r7, #12]
 800646e:	4313      	orrs	r3, r2
 8006470:	60bb      	str	r3, [r7, #8]
  GPIOx->AFR[GPIO_PinSource >> 0x03] = temp_2;
 8006472:	887b      	ldrh	r3, [r7, #2]
 8006474:	08db      	lsrs	r3, r3, #3
 8006476:	b29b      	uxth	r3, r3
 8006478:	461a      	mov	r2, r3
 800647a:	687b      	ldr	r3, [r7, #4]
 800647c:	3208      	adds	r2, #8
 800647e:	68b9      	ldr	r1, [r7, #8]
 8006480:	f843 1022 	str.w	r1, [r3, r2, lsl #2]
}
 8006484:	3710      	adds	r7, #16
 8006486:	46bd      	mov	sp, r7
 8006488:	bd80      	pop	{r7, pc}
 800648a:	bf00      	nop
 800648c:	40020000 	.word	0x40020000
 8006490:	40020400 	.word	0x40020400
 8006494:	40020800 	.word	0x40020800
 8006498:	40020c00 	.word	0x40020c00
 800649c:	40021000 	.word	0x40021000
 80064a0:	40021400 	.word	0x40021400
 80064a4:	40021800 	.word	0x40021800
 80064a8:	40021c00 	.word	0x40021c00
 80064ac:	40022000 	.word	0x40022000
 80064b0:	08007b7c 	.word	0x08007b7c

080064b4 <RCC_GetClocksFreq>:
  *         configuration based on this function will be incorrect.
  *    
  * @retval None
  */
void RCC_GetClocksFreq(RCC_ClocksTypeDef* RCC_Clocks)
{
 80064b4:	b480      	push	{r7}
 80064b6:	b089      	sub	sp, #36	; 0x24
 80064b8:	af00      	add	r7, sp, #0
 80064ba:	6078      	str	r0, [r7, #4]
  uint32_t tmp = 0, presc = 0, pllvco = 0, pllp = 2, pllsource = 0, pllm = 2;
 80064bc:	2300      	movs	r3, #0
 80064be:	61bb      	str	r3, [r7, #24]
 80064c0:	2300      	movs	r3, #0
 80064c2:	617b      	str	r3, [r7, #20]
 80064c4:	2300      	movs	r3, #0
 80064c6:	61fb      	str	r3, [r7, #28]
 80064c8:	2302      	movs	r3, #2
 80064ca:	613b      	str	r3, [r7, #16]
 80064cc:	2300      	movs	r3, #0
 80064ce:	60fb      	str	r3, [r7, #12]
 80064d0:	2302      	movs	r3, #2
 80064d2:	60bb      	str	r3, [r7, #8]

  /* Get SYSCLK source -------------------------------------------------------*/
  tmp = RCC->CFGR & RCC_CFGR_SWS;
 80064d4:	4b48      	ldr	r3, [pc, #288]	; (80065f8 <RCC_GetClocksFreq+0x144>)
 80064d6:	689b      	ldr	r3, [r3, #8]
 80064d8:	f003 030c 	and.w	r3, r3, #12
 80064dc:	61bb      	str	r3, [r7, #24]

  switch (tmp)
 80064de:	69bb      	ldr	r3, [r7, #24]
 80064e0:	2b04      	cmp	r3, #4
 80064e2:	d007      	beq.n	80064f4 <RCC_GetClocksFreq+0x40>
 80064e4:	2b08      	cmp	r3, #8
 80064e6:	d009      	beq.n	80064fc <RCC_GetClocksFreq+0x48>
 80064e8:	2b00      	cmp	r3, #0
 80064ea:	d13f      	bne.n	800656c <RCC_GetClocksFreq+0xb8>
  {
    case 0x00:  /* HSI used as system clock source */
      RCC_Clocks->SYSCLK_Frequency = HSI_VALUE;
 80064ec:	687b      	ldr	r3, [r7, #4]
 80064ee:	4a43      	ldr	r2, [pc, #268]	; (80065fc <RCC_GetClocksFreq+0x148>)
 80064f0:	601a      	str	r2, [r3, #0]
      break;
 80064f2:	e03f      	b.n	8006574 <RCC_GetClocksFreq+0xc0>
    case 0x04:  /* HSE used as system clock  source */
      RCC_Clocks->SYSCLK_Frequency = HSE_VALUE;
 80064f4:	687b      	ldr	r3, [r7, #4]
 80064f6:	4a42      	ldr	r2, [pc, #264]	; (8006600 <RCC_GetClocksFreq+0x14c>)
 80064f8:	601a      	str	r2, [r3, #0]
      break;
 80064fa:	e03b      	b.n	8006574 <RCC_GetClocksFreq+0xc0>
    case 0x08:  /* PLL used as system clock  source */

      /* PLL_VCO = (HSE_VALUE or HSI_VALUE / PLLM) * PLLN
         SYSCLK = PLL_VCO / PLLP
         */    
      pllsource = (RCC->PLLCFGR & RCC_PLLCFGR_PLLSRC) >> 22;
 80064fc:	4b3e      	ldr	r3, [pc, #248]	; (80065f8 <RCC_GetClocksFreq+0x144>)
 80064fe:	685b      	ldr	r3, [r3, #4]
 8006500:	f403 0380 	and.w	r3, r3, #4194304	; 0x400000
 8006504:	0d9b      	lsrs	r3, r3, #22
 8006506:	60fb      	str	r3, [r7, #12]
      pllm = RCC->PLLCFGR & RCC_PLLCFGR_PLLM;
 8006508:	4b3b      	ldr	r3, [pc, #236]	; (80065f8 <RCC_GetClocksFreq+0x144>)
 800650a:	685b      	ldr	r3, [r3, #4]
 800650c:	f003 033f 	and.w	r3, r3, #63	; 0x3f
 8006510:	60bb      	str	r3, [r7, #8]
      
      if (pllsource != 0)
 8006512:	68fb      	ldr	r3, [r7, #12]
 8006514:	2b00      	cmp	r3, #0
 8006516:	d00d      	beq.n	8006534 <RCC_GetClocksFreq+0x80>
      {
        /* HSE used as PLL clock source */
        pllvco = (HSE_VALUE / pllm) * ((RCC->PLLCFGR & RCC_PLLCFGR_PLLN) >> 6);
 8006518:	4a39      	ldr	r2, [pc, #228]	; (8006600 <RCC_GetClocksFreq+0x14c>)
 800651a:	68bb      	ldr	r3, [r7, #8]
 800651c:	fbb2 f2f3 	udiv	r2, r2, r3
 8006520:	4b35      	ldr	r3, [pc, #212]	; (80065f8 <RCC_GetClocksFreq+0x144>)
 8006522:	6859      	ldr	r1, [r3, #4]
 8006524:	f647 73c0 	movw	r3, #32704	; 0x7fc0
 8006528:	400b      	ands	r3, r1
 800652a:	099b      	lsrs	r3, r3, #6
 800652c:	fb03 f302 	mul.w	r3, r3, r2
 8006530:	61fb      	str	r3, [r7, #28]
 8006532:	e00c      	b.n	800654e <RCC_GetClocksFreq+0x9a>
      }
      else
      {
        /* HSI used as PLL clock source */
        pllvco = (HSI_VALUE / pllm) * ((RCC->PLLCFGR & RCC_PLLCFGR_PLLN) >> 6);      
 8006534:	4a31      	ldr	r2, [pc, #196]	; (80065fc <RCC_GetClocksFreq+0x148>)
 8006536:	68bb      	ldr	r3, [r7, #8]
 8006538:	fbb2 f2f3 	udiv	r2, r2, r3
 800653c:	4b2e      	ldr	r3, [pc, #184]	; (80065f8 <RCC_GetClocksFreq+0x144>)
 800653e:	6859      	ldr	r1, [r3, #4]
 8006540:	f647 73c0 	movw	r3, #32704	; 0x7fc0
 8006544:	400b      	ands	r3, r1
 8006546:	099b      	lsrs	r3, r3, #6
 8006548:	fb03 f302 	mul.w	r3, r3, r2
 800654c:	61fb      	str	r3, [r7, #28]
      }

      pllp = (((RCC->PLLCFGR & RCC_PLLCFGR_PLLP) >>16) + 1 ) *2;
 800654e:	4b2a      	ldr	r3, [pc, #168]	; (80065f8 <RCC_GetClocksFreq+0x144>)
 8006550:	685b      	ldr	r3, [r3, #4]
 8006552:	f403 3340 	and.w	r3, r3, #196608	; 0x30000
 8006556:	0c1b      	lsrs	r3, r3, #16
 8006558:	3301      	adds	r3, #1
 800655a:	005b      	lsls	r3, r3, #1
 800655c:	613b      	str	r3, [r7, #16]
      RCC_Clocks->SYSCLK_Frequency = pllvco/pllp;
 800655e:	69fa      	ldr	r2, [r7, #28]
 8006560:	693b      	ldr	r3, [r7, #16]
 8006562:	fbb2 f2f3 	udiv	r2, r2, r3
 8006566:	687b      	ldr	r3, [r7, #4]
 8006568:	601a      	str	r2, [r3, #0]
      break;
 800656a:	e003      	b.n	8006574 <RCC_GetClocksFreq+0xc0>
    default:
      RCC_Clocks->SYSCLK_Frequency = HSI_VALUE;
 800656c:	687b      	ldr	r3, [r7, #4]
 800656e:	4a23      	ldr	r2, [pc, #140]	; (80065fc <RCC_GetClocksFreq+0x148>)
 8006570:	601a      	str	r2, [r3, #0]
      break;
 8006572:	bf00      	nop
  }
  /* Compute HCLK, PCLK1 and PCLK2 clocks frequencies ------------------------*/

  /* Get HCLK prescaler */
  tmp = RCC->CFGR & RCC_CFGR_HPRE;
 8006574:	4b20      	ldr	r3, [pc, #128]	; (80065f8 <RCC_GetClocksFreq+0x144>)
 8006576:	689b      	ldr	r3, [r3, #8]
 8006578:	f003 03f0 	and.w	r3, r3, #240	; 0xf0
 800657c:	61bb      	str	r3, [r7, #24]
  tmp = tmp >> 4;
 800657e:	69bb      	ldr	r3, [r7, #24]
 8006580:	091b      	lsrs	r3, r3, #4
 8006582:	61bb      	str	r3, [r7, #24]
  presc = APBAHBPrescTable[tmp];
 8006584:	4a1f      	ldr	r2, [pc, #124]	; (8006604 <RCC_GetClocksFreq+0x150>)
 8006586:	69bb      	ldr	r3, [r7, #24]
 8006588:	4413      	add	r3, r2
 800658a:	781b      	ldrb	r3, [r3, #0]
 800658c:	b2db      	uxtb	r3, r3
 800658e:	617b      	str	r3, [r7, #20]
  /* HCLK clock frequency */
  RCC_Clocks->HCLK_Frequency = RCC_Clocks->SYSCLK_Frequency >> presc;
 8006590:	687b      	ldr	r3, [r7, #4]
 8006592:	681a      	ldr	r2, [r3, #0]
 8006594:	697b      	ldr	r3, [r7, #20]
 8006596:	40da      	lsrs	r2, r3
 8006598:	687b      	ldr	r3, [r7, #4]
 800659a:	605a      	str	r2, [r3, #4]

  /* Get PCLK1 prescaler */
  tmp = RCC->CFGR & RCC_CFGR_PPRE1;
 800659c:	4b16      	ldr	r3, [pc, #88]	; (80065f8 <RCC_GetClocksFreq+0x144>)
 800659e:	689b      	ldr	r3, [r3, #8]
 80065a0:	f403 53e0 	and.w	r3, r3, #7168	; 0x1c00
 80065a4:	61bb      	str	r3, [r7, #24]
  tmp = tmp >> 10;
 80065a6:	69bb      	ldr	r3, [r7, #24]
 80065a8:	0a9b      	lsrs	r3, r3, #10
 80065aa:	61bb      	str	r3, [r7, #24]
  presc = APBAHBPrescTable[tmp];
 80065ac:	4a15      	ldr	r2, [pc, #84]	; (8006604 <RCC_GetClocksFreq+0x150>)
 80065ae:	69bb      	ldr	r3, [r7, #24]
 80065b0:	4413      	add	r3, r2
 80065b2:	781b      	ldrb	r3, [r3, #0]
 80065b4:	b2db      	uxtb	r3, r3
 80065b6:	617b      	str	r3, [r7, #20]
  /* PCLK1 clock frequency */
  RCC_Clocks->PCLK1_Frequency = RCC_Clocks->HCLK_Frequency >> presc;
 80065b8:	687b      	ldr	r3, [r7, #4]
 80065ba:	685a      	ldr	r2, [r3, #4]
 80065bc:	697b      	ldr	r3, [r7, #20]
 80065be:	40da      	lsrs	r2, r3
 80065c0:	687b      	ldr	r3, [r7, #4]
 80065c2:	609a      	str	r2, [r3, #8]

  /* Get PCLK2 prescaler */
  tmp = RCC->CFGR & RCC_CFGR_PPRE2;
 80065c4:	4b0c      	ldr	r3, [pc, #48]	; (80065f8 <RCC_GetClocksFreq+0x144>)
 80065c6:	689b      	ldr	r3, [r3, #8]
 80065c8:	f403 4360 	and.w	r3, r3, #57344	; 0xe000
 80065cc:	61bb      	str	r3, [r7, #24]
  tmp = tmp >> 13;
 80065ce:	69bb      	ldr	r3, [r7, #24]
 80065d0:	0b5b      	lsrs	r3, r3, #13
 80065d2:	61bb      	str	r3, [r7, #24]
  presc = APBAHBPrescTable[tmp];
 80065d4:	4a0b      	ldr	r2, [pc, #44]	; (8006604 <RCC_GetClocksFreq+0x150>)
 80065d6:	69bb      	ldr	r3, [r7, #24]
 80065d8:	4413      	add	r3, r2
 80065da:	781b      	ldrb	r3, [r3, #0]
 80065dc:	b2db      	uxtb	r3, r3
 80065de:	617b      	str	r3, [r7, #20]
  /* PCLK2 clock frequency */
  RCC_Clocks->PCLK2_Frequency = RCC_Clocks->HCLK_Frequency >> presc;
 80065e0:	687b      	ldr	r3, [r7, #4]
 80065e2:	685a      	ldr	r2, [r3, #4]
 80065e4:	697b      	ldr	r3, [r7, #20]
 80065e6:	40da      	lsrs	r2, r3
 80065e8:	687b      	ldr	r3, [r7, #4]
 80065ea:	60da      	str	r2, [r3, #12]
}
 80065ec:	3724      	adds	r7, #36	; 0x24
 80065ee:	46bd      	mov	sp, r7
 80065f0:	f85d 7b04 	ldr.w	r7, [sp], #4
 80065f4:	4770      	bx	lr
 80065f6:	bf00      	nop
 80065f8:	40023800 	.word	0x40023800
 80065fc:	00f42400 	.word	0x00f42400
 8006600:	017d7840 	.word	0x017d7840
 8006604:	2000001c 	.word	0x2000001c

08006608 <RCC_AHB1PeriphClockCmd>:
  * @param  NewState: new state of the specified peripheral clock.
  *          This parameter can be: ENABLE or DISABLE.
  * @retval None
  */
void RCC_AHB1PeriphClockCmd(uint32_t RCC_AHB1Periph, FunctionalState NewState)
{
 8006608:	b580      	push	{r7, lr}
 800660a:	b082      	sub	sp, #8
 800660c:	af00      	add	r7, sp, #0
 800660e:	6078      	str	r0, [r7, #4]
 8006610:	460b      	mov	r3, r1
 8006612:	70fb      	strb	r3, [r7, #3]
  /* Check the parameters */
  assert_param(IS_RCC_AHB1_CLOCK_PERIPH(RCC_AHB1Periph));
 8006614:	687a      	ldr	r2, [r7, #4]
 8006616:	4b15      	ldr	r3, [pc, #84]	; (800666c <RCC_AHB1PeriphClockCmd+0x64>)
 8006618:	4013      	ands	r3, r2
 800661a:	2b00      	cmp	r3, #0
 800661c:	d102      	bne.n	8006624 <RCC_AHB1PeriphClockCmd+0x1c>
 800661e:	687b      	ldr	r3, [r7, #4]
 8006620:	2b00      	cmp	r3, #0
 8006622:	d104      	bne.n	800662e <RCC_AHB1PeriphClockCmd+0x26>
 8006624:	4812      	ldr	r0, [pc, #72]	; (8006670 <RCC_AHB1PeriphClockCmd+0x68>)
 8006626:	f44f 6188 	mov.w	r1, #1088	; 0x440
 800662a:	f7fb ff87 	bl	800253c <assert_failed>

  assert_param(IS_FUNCTIONAL_STATE(NewState));
 800662e:	78fb      	ldrb	r3, [r7, #3]
 8006630:	2b00      	cmp	r3, #0
 8006632:	d007      	beq.n	8006644 <RCC_AHB1PeriphClockCmd+0x3c>
 8006634:	78fb      	ldrb	r3, [r7, #3]
 8006636:	2b01      	cmp	r3, #1
 8006638:	d004      	beq.n	8006644 <RCC_AHB1PeriphClockCmd+0x3c>
 800663a:	480d      	ldr	r0, [pc, #52]	; (8006670 <RCC_AHB1PeriphClockCmd+0x68>)
 800663c:	f240 4142 	movw	r1, #1090	; 0x442
 8006640:	f7fb ff7c 	bl	800253c <assert_failed>
  if (NewState != DISABLE)
 8006644:	78fb      	ldrb	r3, [r7, #3]
 8006646:	2b00      	cmp	r3, #0
 8006648:	d006      	beq.n	8006658 <RCC_AHB1PeriphClockCmd+0x50>
  {
    RCC->AHB1ENR |= RCC_AHB1Periph;
 800664a:	4b0a      	ldr	r3, [pc, #40]	; (8006674 <RCC_AHB1PeriphClockCmd+0x6c>)
 800664c:	4a09      	ldr	r2, [pc, #36]	; (8006674 <RCC_AHB1PeriphClockCmd+0x6c>)
 800664e:	6b11      	ldr	r1, [r2, #48]	; 0x30
 8006650:	687a      	ldr	r2, [r7, #4]
 8006652:	430a      	orrs	r2, r1
 8006654:	631a      	str	r2, [r3, #48]	; 0x30
 8006656:	e006      	b.n	8006666 <RCC_AHB1PeriphClockCmd+0x5e>
  }
  else
  {
    RCC->AHB1ENR &= ~RCC_AHB1Periph;
 8006658:	4b06      	ldr	r3, [pc, #24]	; (8006674 <RCC_AHB1PeriphClockCmd+0x6c>)
 800665a:	4a06      	ldr	r2, [pc, #24]	; (8006674 <RCC_AHB1PeriphClockCmd+0x6c>)
 800665c:	6b11      	ldr	r1, [r2, #48]	; 0x30
 800665e:	687a      	ldr	r2, [r7, #4]
 8006660:	43d2      	mvns	r2, r2
 8006662:	400a      	ands	r2, r1
 8006664:	631a      	str	r2, [r3, #48]	; 0x30
  }
}
 8006666:	3708      	adds	r7, #8
 8006668:	46bd      	mov	sp, r7
 800666a:	bd80      	pop	{r7, pc}
 800666c:	818bee00 	.word	0x818bee00
 8006670:	08007bcc 	.word	0x08007bcc
 8006674:	40023800 	.word	0x40023800

08006678 <RCC_APB2PeriphClockCmd>:
  * @param  NewState: new state of the specified peripheral clock.
  *          This parameter can be: ENABLE or DISABLE.
  * @retval None
  */
void RCC_APB2PeriphClockCmd(uint32_t RCC_APB2Periph, FunctionalState NewState)
{
 8006678:	b580      	push	{r7, lr}
 800667a:	b082      	sub	sp, #8
 800667c:	af00      	add	r7, sp, #0
 800667e:	6078      	str	r0, [r7, #4]
 8006680:	460b      	mov	r3, r1
 8006682:	70fb      	strb	r3, [r7, #3]
  /* Check the parameters */
  assert_param(IS_RCC_APB2_PERIPH(RCC_APB2Periph));
 8006684:	687a      	ldr	r2, [r7, #4]
 8006686:	4b15      	ldr	r3, [pc, #84]	; (80066dc <RCC_APB2PeriphClockCmd+0x64>)
 8006688:	4013      	ands	r3, r2
 800668a:	2b00      	cmp	r3, #0
 800668c:	d102      	bne.n	8006694 <RCC_APB2PeriphClockCmd+0x1c>
 800668e:	687b      	ldr	r3, [r7, #4]
 8006690:	2b00      	cmp	r3, #0
 8006692:	d104      	bne.n	800669e <RCC_APB2PeriphClockCmd+0x26>
 8006694:	4812      	ldr	r0, [pc, #72]	; (80066e0 <RCC_APB2PeriphClockCmd+0x68>)
 8006696:	f240 41d5 	movw	r1, #1237	; 0x4d5
 800669a:	f7fb ff4f 	bl	800253c <assert_failed>
  assert_param(IS_FUNCTIONAL_STATE(NewState));
 800669e:	78fb      	ldrb	r3, [r7, #3]
 80066a0:	2b00      	cmp	r3, #0
 80066a2:	d007      	beq.n	80066b4 <RCC_APB2PeriphClockCmd+0x3c>
 80066a4:	78fb      	ldrb	r3, [r7, #3]
 80066a6:	2b01      	cmp	r3, #1
 80066a8:	d004      	beq.n	80066b4 <RCC_APB2PeriphClockCmd+0x3c>
 80066aa:	480d      	ldr	r0, [pc, #52]	; (80066e0 <RCC_APB2PeriphClockCmd+0x68>)
 80066ac:	f240 41d6 	movw	r1, #1238	; 0x4d6
 80066b0:	f7fb ff44 	bl	800253c <assert_failed>

  if (NewState != DISABLE)
 80066b4:	78fb      	ldrb	r3, [r7, #3]
 80066b6:	2b00      	cmp	r3, #0
 80066b8:	d006      	beq.n	80066c8 <RCC_APB2PeriphClockCmd+0x50>
  {
    RCC->APB2ENR |= RCC_APB2Periph;
 80066ba:	4b0a      	ldr	r3, [pc, #40]	; (80066e4 <RCC_APB2PeriphClockCmd+0x6c>)
 80066bc:	4a09      	ldr	r2, [pc, #36]	; (80066e4 <RCC_APB2PeriphClockCmd+0x6c>)
 80066be:	6c51      	ldr	r1, [r2, #68]	; 0x44
 80066c0:	687a      	ldr	r2, [r7, #4]
 80066c2:	430a      	orrs	r2, r1
 80066c4:	645a      	str	r2, [r3, #68]	; 0x44
 80066c6:	e006      	b.n	80066d6 <RCC_APB2PeriphClockCmd+0x5e>
  }
  else
  {
    RCC->APB2ENR &= ~RCC_APB2Periph;
 80066c8:	4b06      	ldr	r3, [pc, #24]	; (80066e4 <RCC_APB2PeriphClockCmd+0x6c>)
 80066ca:	4a06      	ldr	r2, [pc, #24]	; (80066e4 <RCC_APB2PeriphClockCmd+0x6c>)
 80066cc:	6c51      	ldr	r1, [r2, #68]	; 0x44
 80066ce:	687a      	ldr	r2, [r7, #4]
 80066d0:	43d2      	mvns	r2, r2
 80066d2:	400a      	ands	r2, r1
 80066d4:	645a      	str	r2, [r3, #68]	; 0x44
  }
}
 80066d6:	3708      	adds	r7, #8
 80066d8:	46bd      	mov	sp, r7
 80066da:	bd80      	pop	{r7, pc}
 80066dc:	fff8a0cc 	.word	0xfff8a0cc
 80066e0:	08007bcc 	.word	0x08007bcc
 80066e4:	40023800 	.word	0x40023800

080066e8 <SPI_Init>:
  * @param  SPI_InitStruct: pointer to a SPI_InitTypeDef structure that
  *         contains the configuration information for the specified SPI peripheral.
  * @retval None
  */
void SPI_Init(SPI_TypeDef* SPIx, SPI_InitTypeDef* SPI_InitStruct)
{
 80066e8:	b580      	push	{r7, lr}
 80066ea:	b084      	sub	sp, #16
 80066ec:	af00      	add	r7, sp, #0
 80066ee:	6078      	str	r0, [r7, #4]
 80066f0:	6039      	str	r1, [r7, #0]
  uint16_t tmpreg = 0;
 80066f2:	2300      	movs	r3, #0
 80066f4:	81fb      	strh	r3, [r7, #14]
  
  /* check the parameters */
  assert_param(IS_SPI_ALL_PERIPH(SPIx));
 80066f6:	687a      	ldr	r2, [r7, #4]
 80066f8:	4b70      	ldr	r3, [pc, #448]	; (80068bc <SPI_Init+0x1d4>)
 80066fa:	429a      	cmp	r2, r3
 80066fc:	d00c      	beq.n	8006718 <SPI_Init+0x30>
 80066fe:	687a      	ldr	r2, [r7, #4]
 8006700:	4b6f      	ldr	r3, [pc, #444]	; (80068c0 <SPI_Init+0x1d8>)
 8006702:	429a      	cmp	r2, r3
 8006704:	d008      	beq.n	8006718 <SPI_Init+0x30>
 8006706:	687a      	ldr	r2, [r7, #4]
 8006708:	4b6e      	ldr	r3, [pc, #440]	; (80068c4 <SPI_Init+0x1dc>)
 800670a:	429a      	cmp	r2, r3
 800670c:	d004      	beq.n	8006718 <SPI_Init+0x30>
 800670e:	486e      	ldr	r0, [pc, #440]	; (80068c8 <SPI_Init+0x1e0>)
 8006710:	f44f 7183 	mov.w	r1, #262	; 0x106
 8006714:	f7fb ff12 	bl	800253c <assert_failed>
  
  /* Check the SPI parameters */
  assert_param(IS_SPI_DIRECTION_MODE(SPI_InitStruct->SPI_Direction));
 8006718:	683b      	ldr	r3, [r7, #0]
 800671a:	881b      	ldrh	r3, [r3, #0]
 800671c:	2b00      	cmp	r3, #0
 800671e:	d013      	beq.n	8006748 <SPI_Init+0x60>
 8006720:	683b      	ldr	r3, [r7, #0]
 8006722:	881b      	ldrh	r3, [r3, #0]
 8006724:	f5b3 6f80 	cmp.w	r3, #1024	; 0x400
 8006728:	d00e      	beq.n	8006748 <SPI_Init+0x60>
 800672a:	683b      	ldr	r3, [r7, #0]
 800672c:	881b      	ldrh	r3, [r3, #0]
 800672e:	f5b3 4f00 	cmp.w	r3, #32768	; 0x8000
 8006732:	d009      	beq.n	8006748 <SPI_Init+0x60>
 8006734:	683b      	ldr	r3, [r7, #0]
 8006736:	881b      	ldrh	r3, [r3, #0]
 8006738:	f5b3 4f40 	cmp.w	r3, #49152	; 0xc000
 800673c:	d004      	beq.n	8006748 <SPI_Init+0x60>
 800673e:	4862      	ldr	r0, [pc, #392]	; (80068c8 <SPI_Init+0x1e0>)
 8006740:	f240 1109 	movw	r1, #265	; 0x109
 8006744:	f7fb fefa 	bl	800253c <assert_failed>
  assert_param(IS_SPI_MODE(SPI_InitStruct->SPI_Mode));
 8006748:	683b      	ldr	r3, [r7, #0]
 800674a:	885b      	ldrh	r3, [r3, #2]
 800674c:	f5b3 7f82 	cmp.w	r3, #260	; 0x104
 8006750:	d008      	beq.n	8006764 <SPI_Init+0x7c>
 8006752:	683b      	ldr	r3, [r7, #0]
 8006754:	885b      	ldrh	r3, [r3, #2]
 8006756:	2b00      	cmp	r3, #0
 8006758:	d004      	beq.n	8006764 <SPI_Init+0x7c>
 800675a:	485b      	ldr	r0, [pc, #364]	; (80068c8 <SPI_Init+0x1e0>)
 800675c:	f44f 7185 	mov.w	r1, #266	; 0x10a
 8006760:	f7fb feec 	bl	800253c <assert_failed>
  assert_param(IS_SPI_DATASIZE(SPI_InitStruct->SPI_DataSize));
 8006764:	683b      	ldr	r3, [r7, #0]
 8006766:	889b      	ldrh	r3, [r3, #4]
 8006768:	f5b3 6f00 	cmp.w	r3, #2048	; 0x800
 800676c:	d008      	beq.n	8006780 <SPI_Init+0x98>
 800676e:	683b      	ldr	r3, [r7, #0]
 8006770:	889b      	ldrh	r3, [r3, #4]
 8006772:	2b00      	cmp	r3, #0
 8006774:	d004      	beq.n	8006780 <SPI_Init+0x98>
 8006776:	4854      	ldr	r0, [pc, #336]	; (80068c8 <SPI_Init+0x1e0>)
 8006778:	f240 110b 	movw	r1, #267	; 0x10b
 800677c:	f7fb fede 	bl	800253c <assert_failed>
  assert_param(IS_SPI_CPOL(SPI_InitStruct->SPI_CPOL));
 8006780:	683b      	ldr	r3, [r7, #0]
 8006782:	88db      	ldrh	r3, [r3, #6]
 8006784:	2b00      	cmp	r3, #0
 8006786:	d008      	beq.n	800679a <SPI_Init+0xb2>
 8006788:	683b      	ldr	r3, [r7, #0]
 800678a:	88db      	ldrh	r3, [r3, #6]
 800678c:	2b02      	cmp	r3, #2
 800678e:	d004      	beq.n	800679a <SPI_Init+0xb2>
 8006790:	484d      	ldr	r0, [pc, #308]	; (80068c8 <SPI_Init+0x1e0>)
 8006792:	f44f 7186 	mov.w	r1, #268	; 0x10c
 8006796:	f7fb fed1 	bl	800253c <assert_failed>
  assert_param(IS_SPI_CPHA(SPI_InitStruct->SPI_CPHA));
 800679a:	683b      	ldr	r3, [r7, #0]
 800679c:	891b      	ldrh	r3, [r3, #8]
 800679e:	2b00      	cmp	r3, #0
 80067a0:	d008      	beq.n	80067b4 <SPI_Init+0xcc>
 80067a2:	683b      	ldr	r3, [r7, #0]
 80067a4:	891b      	ldrh	r3, [r3, #8]
 80067a6:	2b01      	cmp	r3, #1
 80067a8:	d004      	beq.n	80067b4 <SPI_Init+0xcc>
 80067aa:	4847      	ldr	r0, [pc, #284]	; (80068c8 <SPI_Init+0x1e0>)
 80067ac:	f240 110d 	movw	r1, #269	; 0x10d
 80067b0:	f7fb fec4 	bl	800253c <assert_failed>
  assert_param(IS_SPI_NSS(SPI_InitStruct->SPI_NSS));
 80067b4:	683b      	ldr	r3, [r7, #0]
 80067b6:	895b      	ldrh	r3, [r3, #10]
 80067b8:	f5b3 7f00 	cmp.w	r3, #512	; 0x200
 80067bc:	d008      	beq.n	80067d0 <SPI_Init+0xe8>
 80067be:	683b      	ldr	r3, [r7, #0]
 80067c0:	895b      	ldrh	r3, [r3, #10]
 80067c2:	2b00      	cmp	r3, #0
 80067c4:	d004      	beq.n	80067d0 <SPI_Init+0xe8>
 80067c6:	4840      	ldr	r0, [pc, #256]	; (80068c8 <SPI_Init+0x1e0>)
 80067c8:	f44f 7187 	mov.w	r1, #270	; 0x10e
 80067cc:	f7fb feb6 	bl	800253c <assert_failed>
  assert_param(IS_SPI_BAUDRATE_PRESCALER(SPI_InitStruct->SPI_BaudRatePrescaler));
 80067d0:	683b      	ldr	r3, [r7, #0]
 80067d2:	899b      	ldrh	r3, [r3, #12]
 80067d4:	2b00      	cmp	r3, #0
 80067d6:	d020      	beq.n	800681a <SPI_Init+0x132>
 80067d8:	683b      	ldr	r3, [r7, #0]
 80067da:	899b      	ldrh	r3, [r3, #12]
 80067dc:	2b08      	cmp	r3, #8
 80067de:	d01c      	beq.n	800681a <SPI_Init+0x132>
 80067e0:	683b      	ldr	r3, [r7, #0]
 80067e2:	899b      	ldrh	r3, [r3, #12]
 80067e4:	2b10      	cmp	r3, #16
 80067e6:	d018      	beq.n	800681a <SPI_Init+0x132>
 80067e8:	683b      	ldr	r3, [r7, #0]
 80067ea:	899b      	ldrh	r3, [r3, #12]
 80067ec:	2b18      	cmp	r3, #24
 80067ee:	d014      	beq.n	800681a <SPI_Init+0x132>
 80067f0:	683b      	ldr	r3, [r7, #0]
 80067f2:	899b      	ldrh	r3, [r3, #12]
 80067f4:	2b20      	cmp	r3, #32
 80067f6:	d010      	beq.n	800681a <SPI_Init+0x132>
 80067f8:	683b      	ldr	r3, [r7, #0]
 80067fa:	899b      	ldrh	r3, [r3, #12]
 80067fc:	2b28      	cmp	r3, #40	; 0x28
 80067fe:	d00c      	beq.n	800681a <SPI_Init+0x132>
 8006800:	683b      	ldr	r3, [r7, #0]
 8006802:	899b      	ldrh	r3, [r3, #12]
 8006804:	2b30      	cmp	r3, #48	; 0x30
 8006806:	d008      	beq.n	800681a <SPI_Init+0x132>
 8006808:	683b      	ldr	r3, [r7, #0]
 800680a:	899b      	ldrh	r3, [r3, #12]
 800680c:	2b38      	cmp	r3, #56	; 0x38
 800680e:	d004      	beq.n	800681a <SPI_Init+0x132>
 8006810:	482d      	ldr	r0, [pc, #180]	; (80068c8 <SPI_Init+0x1e0>)
 8006812:	f240 110f 	movw	r1, #271	; 0x10f
 8006816:	f7fb fe91 	bl	800253c <assert_failed>
  assert_param(IS_SPI_FIRST_BIT(SPI_InitStruct->SPI_FirstBit));
 800681a:	683b      	ldr	r3, [r7, #0]
 800681c:	89db      	ldrh	r3, [r3, #14]
 800681e:	2b00      	cmp	r3, #0
 8006820:	d008      	beq.n	8006834 <SPI_Init+0x14c>
 8006822:	683b      	ldr	r3, [r7, #0]
 8006824:	89db      	ldrh	r3, [r3, #14]
 8006826:	2b80      	cmp	r3, #128	; 0x80
 8006828:	d004      	beq.n	8006834 <SPI_Init+0x14c>
 800682a:	4827      	ldr	r0, [pc, #156]	; (80068c8 <SPI_Init+0x1e0>)
 800682c:	f44f 7188 	mov.w	r1, #272	; 0x110
 8006830:	f7fb fe84 	bl	800253c <assert_failed>
  assert_param(IS_SPI_CRC_POLYNOMIAL(SPI_InitStruct->SPI_CRCPolynomial));
 8006834:	683b      	ldr	r3, [r7, #0]
 8006836:	8a1b      	ldrh	r3, [r3, #16]
 8006838:	2b00      	cmp	r3, #0
 800683a:	d104      	bne.n	8006846 <SPI_Init+0x15e>
 800683c:	4822      	ldr	r0, [pc, #136]	; (80068c8 <SPI_Init+0x1e0>)
 800683e:	f240 1111 	movw	r1, #273	; 0x111
 8006842:	f7fb fe7b 	bl	800253c <assert_failed>

/*---------------------------- SPIx CR1 Configuration ------------------------*/
  /* Get the SPIx CR1 value */
  tmpreg = SPIx->CR1;
 8006846:	687b      	ldr	r3, [r7, #4]
 8006848:	881b      	ldrh	r3, [r3, #0]
 800684a:	81fb      	strh	r3, [r7, #14]
  /* Clear BIDIMode, BIDIOE, RxONLY, SSM, SSI, LSBFirst, BR, MSTR, CPOL and CPHA bits */
  tmpreg &= CR1_CLEAR_MASK;
 800684c:	89fb      	ldrh	r3, [r7, #14]
 800684e:	f403 5341 	and.w	r3, r3, #12352	; 0x3040
 8006852:	81fb      	strh	r3, [r7, #14]
  /* Set SSM, SSI and MSTR bits according to SPI_Mode and SPI_NSS values */
  /* Set LSBFirst bit according to SPI_FirstBit value */
  /* Set BR bits according to SPI_BaudRatePrescaler value */
  /* Set CPOL bit according to SPI_CPOL value */
  /* Set CPHA bit according to SPI_CPHA value */
  tmpreg |= (uint16_t)((uint32_t)SPI_InitStruct->SPI_Direction | SPI_InitStruct->SPI_Mode |
 8006854:	683b      	ldr	r3, [r7, #0]
 8006856:	881a      	ldrh	r2, [r3, #0]
 8006858:	683b      	ldr	r3, [r7, #0]
 800685a:	885b      	ldrh	r3, [r3, #2]
 800685c:	4313      	orrs	r3, r2
 800685e:	b29a      	uxth	r2, r3
                  SPI_InitStruct->SPI_DataSize | SPI_InitStruct->SPI_CPOL |  
 8006860:	683b      	ldr	r3, [r7, #0]
 8006862:	889b      	ldrh	r3, [r3, #4]
  /* Set SSM, SSI and MSTR bits according to SPI_Mode and SPI_NSS values */
  /* Set LSBFirst bit according to SPI_FirstBit value */
  /* Set BR bits according to SPI_BaudRatePrescaler value */
  /* Set CPOL bit according to SPI_CPOL value */
  /* Set CPHA bit according to SPI_CPHA value */
  tmpreg |= (uint16_t)((uint32_t)SPI_InitStruct->SPI_Direction | SPI_InitStruct->SPI_Mode |
 8006864:	4313      	orrs	r3, r2
 8006866:	b29a      	uxth	r2, r3
                  SPI_InitStruct->SPI_DataSize | SPI_InitStruct->SPI_CPOL |  
 8006868:	683b      	ldr	r3, [r7, #0]
 800686a:	88db      	ldrh	r3, [r3, #6]
  /* Set SSM, SSI and MSTR bits according to SPI_Mode and SPI_NSS values */
  /* Set LSBFirst bit according to SPI_FirstBit value */
  /* Set BR bits according to SPI_BaudRatePrescaler value */
  /* Set CPOL bit according to SPI_CPOL value */
  /* Set CPHA bit according to SPI_CPHA value */
  tmpreg |= (uint16_t)((uint32_t)SPI_InitStruct->SPI_Direction | SPI_InitStruct->SPI_Mode |
 800686c:	4313      	orrs	r3, r2
 800686e:	b29a      	uxth	r2, r3
                  SPI_InitStruct->SPI_DataSize | SPI_InitStruct->SPI_CPOL |  
                  SPI_InitStruct->SPI_CPHA | SPI_InitStruct->SPI_NSS |  
 8006870:	683b      	ldr	r3, [r7, #0]
 8006872:	891b      	ldrh	r3, [r3, #8]
  /* Set SSM, SSI and MSTR bits according to SPI_Mode and SPI_NSS values */
  /* Set LSBFirst bit according to SPI_FirstBit value */
  /* Set BR bits according to SPI_BaudRatePrescaler value */
  /* Set CPOL bit according to SPI_CPOL value */
  /* Set CPHA bit according to SPI_CPHA value */
  tmpreg |= (uint16_t)((uint32_t)SPI_InitStruct->SPI_Direction | SPI_InitStruct->SPI_Mode |
 8006874:	4313      	orrs	r3, r2
 8006876:	b29a      	uxth	r2, r3
                  SPI_InitStruct->SPI_DataSize | SPI_InitStruct->SPI_CPOL |  
                  SPI_InitStruct->SPI_CPHA | SPI_InitStruct->SPI_NSS |  
 8006878:	683b      	ldr	r3, [r7, #0]
 800687a:	895b      	ldrh	r3, [r3, #10]
  /* Set SSM, SSI and MSTR bits according to SPI_Mode and SPI_NSS values */
  /* Set LSBFirst bit according to SPI_FirstBit value */
  /* Set BR bits according to SPI_BaudRatePrescaler value */
  /* Set CPOL bit according to SPI_CPOL value */
  /* Set CPHA bit according to SPI_CPHA value */
  tmpreg |= (uint16_t)((uint32_t)SPI_InitStruct->SPI_Direction | SPI_InitStruct->SPI_Mode |
 800687c:	4313      	orrs	r3, r2
 800687e:	b29a      	uxth	r2, r3
                  SPI_InitStruct->SPI_DataSize | SPI_InitStruct->SPI_CPOL |  
                  SPI_InitStruct->SPI_CPHA | SPI_InitStruct->SPI_NSS |  
                  SPI_InitStruct->SPI_BaudRatePrescaler | SPI_InitStruct->SPI_FirstBit);
 8006880:	683b      	ldr	r3, [r7, #0]
 8006882:	899b      	ldrh	r3, [r3, #12]
  /* Set SSM, SSI and MSTR bits according to SPI_Mode and SPI_NSS values */
  /* Set LSBFirst bit according to SPI_FirstBit value */
  /* Set BR bits according to SPI_BaudRatePrescaler value */
  /* Set CPOL bit according to SPI_CPOL value */
  /* Set CPHA bit according to SPI_CPHA value */
  tmpreg |= (uint16_t)((uint32_t)SPI_InitStruct->SPI_Direction | SPI_InitStruct->SPI_Mode |
 8006884:	4313      	orrs	r3, r2
 8006886:	b29a      	uxth	r2, r3
                  SPI_InitStruct->SPI_DataSize | SPI_InitStruct->SPI_CPOL |  
                  SPI_InitStruct->SPI_CPHA | SPI_InitStruct->SPI_NSS |  
                  SPI_InitStruct->SPI_BaudRatePrescaler | SPI_InitStruct->SPI_FirstBit);
 8006888:	683b      	ldr	r3, [r7, #0]
 800688a:	89db      	ldrh	r3, [r3, #14]
  /* Set SSM, SSI and MSTR bits according to SPI_Mode and SPI_NSS values */
  /* Set LSBFirst bit according to SPI_FirstBit value */
  /* Set BR bits according to SPI_BaudRatePrescaler value */
  /* Set CPOL bit according to SPI_CPOL value */
  /* Set CPHA bit according to SPI_CPHA value */
  tmpreg |= (uint16_t)((uint32_t)SPI_InitStruct->SPI_Direction | SPI_InitStruct->SPI_Mode |
 800688c:	4313      	orrs	r3, r2
 800688e:	b29a      	uxth	r2, r3
 8006890:	89fb      	ldrh	r3, [r7, #14]
 8006892:	4313      	orrs	r3, r2
 8006894:	81fb      	strh	r3, [r7, #14]
                  SPI_InitStruct->SPI_DataSize | SPI_InitStruct->SPI_CPOL |  
                  SPI_InitStruct->SPI_CPHA | SPI_InitStruct->SPI_NSS |  
                  SPI_InitStruct->SPI_BaudRatePrescaler | SPI_InitStruct->SPI_FirstBit);
  /* Write to SPIx CR1 */
  SPIx->CR1 = tmpreg;
 8006896:	687b      	ldr	r3, [r7, #4]
 8006898:	89fa      	ldrh	r2, [r7, #14]
 800689a:	801a      	strh	r2, [r3, #0]

  /* Activate the SPI mode (Reset I2SMOD bit in I2SCFGR register) */
  SPIx->I2SCFGR &= (uint16_t)~((uint16_t)SPI_I2SCFGR_I2SMOD);
 800689c:	687b      	ldr	r3, [r7, #4]
 800689e:	8b9b      	ldrh	r3, [r3, #28]
 80068a0:	b29b      	uxth	r3, r3
 80068a2:	f423 6300 	bic.w	r3, r3, #2048	; 0x800
 80068a6:	b29a      	uxth	r2, r3
 80068a8:	687b      	ldr	r3, [r7, #4]
 80068aa:	839a      	strh	r2, [r3, #28]
/*---------------------------- SPIx CRCPOLY Configuration --------------------*/
  /* Write to SPIx CRCPOLY */
  SPIx->CRCPR = SPI_InitStruct->SPI_CRCPolynomial;
 80068ac:	683b      	ldr	r3, [r7, #0]
 80068ae:	8a1a      	ldrh	r2, [r3, #16]
 80068b0:	687b      	ldr	r3, [r7, #4]
 80068b2:	821a      	strh	r2, [r3, #16]
}
 80068b4:	3710      	adds	r7, #16
 80068b6:	46bd      	mov	sp, r7
 80068b8:	bd80      	pop	{r7, pc}
 80068ba:	bf00      	nop
 80068bc:	40013000 	.word	0x40013000
 80068c0:	40003800 	.word	0x40003800
 80068c4:	40003c00 	.word	0x40003c00
 80068c8:	08007c1c 	.word	0x08007c1c

080068cc <SPI_Cmd>:
  * @param  NewState: new state of the SPIx peripheral. 
  *          This parameter can be: ENABLE or DISABLE.
  * @retval None
  */
void SPI_Cmd(SPI_TypeDef* SPIx, FunctionalState NewState)
{
 80068cc:	b580      	push	{r7, lr}
 80068ce:	b082      	sub	sp, #8
 80068d0:	af00      	add	r7, sp, #0
 80068d2:	6078      	str	r0, [r7, #4]
 80068d4:	460b      	mov	r3, r1
 80068d6:	70fb      	strb	r3, [r7, #3]
  /* Check the parameters */
  assert_param(IS_SPI_ALL_PERIPH(SPIx));
 80068d8:	687a      	ldr	r2, [r7, #4]
 80068da:	4b19      	ldr	r3, [pc, #100]	; (8006940 <SPI_Cmd+0x74>)
 80068dc:	429a      	cmp	r2, r3
 80068de:	d00c      	beq.n	80068fa <SPI_Cmd+0x2e>
 80068e0:	687a      	ldr	r2, [r7, #4]
 80068e2:	4b18      	ldr	r3, [pc, #96]	; (8006944 <SPI_Cmd+0x78>)
 80068e4:	429a      	cmp	r2, r3
 80068e6:	d008      	beq.n	80068fa <SPI_Cmd+0x2e>
 80068e8:	687a      	ldr	r2, [r7, #4]
 80068ea:	4b17      	ldr	r3, [pc, #92]	; (8006948 <SPI_Cmd+0x7c>)
 80068ec:	429a      	cmp	r2, r3
 80068ee:	d004      	beq.n	80068fa <SPI_Cmd+0x2e>
 80068f0:	4816      	ldr	r0, [pc, #88]	; (800694c <SPI_Cmd+0x80>)
 80068f2:	f240 2101 	movw	r1, #513	; 0x201
 80068f6:	f7fb fe21 	bl	800253c <assert_failed>
  assert_param(IS_FUNCTIONAL_STATE(NewState));
 80068fa:	78fb      	ldrb	r3, [r7, #3]
 80068fc:	2b00      	cmp	r3, #0
 80068fe:	d007      	beq.n	8006910 <SPI_Cmd+0x44>
 8006900:	78fb      	ldrb	r3, [r7, #3]
 8006902:	2b01      	cmp	r3, #1
 8006904:	d004      	beq.n	8006910 <SPI_Cmd+0x44>
 8006906:	4811      	ldr	r0, [pc, #68]	; (800694c <SPI_Cmd+0x80>)
 8006908:	f240 2102 	movw	r1, #514	; 0x202
 800690c:	f7fb fe16 	bl	800253c <assert_failed>
  if (NewState != DISABLE)
 8006910:	78fb      	ldrb	r3, [r7, #3]
 8006912:	2b00      	cmp	r3, #0
 8006914:	d008      	beq.n	8006928 <SPI_Cmd+0x5c>
  {
    /* Enable the selected SPI peripheral */
    SPIx->CR1 |= SPI_CR1_SPE;
 8006916:	687b      	ldr	r3, [r7, #4]
 8006918:	881b      	ldrh	r3, [r3, #0]
 800691a:	b29b      	uxth	r3, r3
 800691c:	f043 0340 	orr.w	r3, r3, #64	; 0x40
 8006920:	b29a      	uxth	r2, r3
 8006922:	687b      	ldr	r3, [r7, #4]
 8006924:	801a      	strh	r2, [r3, #0]
 8006926:	e007      	b.n	8006938 <SPI_Cmd+0x6c>
  }
  else
  {
    /* Disable the selected SPI peripheral */
    SPIx->CR1 &= (uint16_t)~((uint16_t)SPI_CR1_SPE);
 8006928:	687b      	ldr	r3, [r7, #4]
 800692a:	881b      	ldrh	r3, [r3, #0]
 800692c:	b29b      	uxth	r3, r3
 800692e:	f023 0340 	bic.w	r3, r3, #64	; 0x40
 8006932:	b29a      	uxth	r2, r3
 8006934:	687b      	ldr	r3, [r7, #4]
 8006936:	801a      	strh	r2, [r3, #0]
  }
}
 8006938:	3708      	adds	r7, #8
 800693a:	46bd      	mov	sp, r7
 800693c:	bd80      	pop	{r7, pc}
 800693e:	bf00      	nop
 8006940:	40013000 	.word	0x40013000
 8006944:	40003800 	.word	0x40003800
 8006948:	40003c00 	.word	0x40003c00
 800694c:	08007c1c 	.word	0x08007c1c

08006950 <SPI_I2S_DMACmd>:
  * @param  NewState: new state of the selected SPI DMA transfer request.
  *          This parameter can be: ENABLE or DISABLE.
  * @retval None
  */
void SPI_I2S_DMACmd(SPI_TypeDef* SPIx, uint16_t SPI_I2S_DMAReq, FunctionalState NewState)
{
 8006950:	b580      	push	{r7, lr}
 8006952:	b082      	sub	sp, #8
 8006954:	af00      	add	r7, sp, #0
 8006956:	6078      	str	r0, [r7, #4]
 8006958:	4613      	mov	r3, r2
 800695a:	460a      	mov	r2, r1
 800695c:	807a      	strh	r2, [r7, #2]
 800695e:	707b      	strb	r3, [r7, #1]
  /* Check the parameters */
  assert_param(IS_SPI_ALL_PERIPH_EXT(SPIx));
 8006960:	687a      	ldr	r2, [r7, #4]
 8006962:	4b25      	ldr	r3, [pc, #148]	; (80069f8 <SPI_I2S_DMACmd+0xa8>)
 8006964:	429a      	cmp	r2, r3
 8006966:	d014      	beq.n	8006992 <SPI_I2S_DMACmd+0x42>
 8006968:	687a      	ldr	r2, [r7, #4]
 800696a:	4b24      	ldr	r3, [pc, #144]	; (80069fc <SPI_I2S_DMACmd+0xac>)
 800696c:	429a      	cmp	r2, r3
 800696e:	d010      	beq.n	8006992 <SPI_I2S_DMACmd+0x42>
 8006970:	687a      	ldr	r2, [r7, #4]
 8006972:	4b23      	ldr	r3, [pc, #140]	; (8006a00 <SPI_I2S_DMACmd+0xb0>)
 8006974:	429a      	cmp	r2, r3
 8006976:	d00c      	beq.n	8006992 <SPI_I2S_DMACmd+0x42>
 8006978:	687a      	ldr	r2, [r7, #4]
 800697a:	4b22      	ldr	r3, [pc, #136]	; (8006a04 <SPI_I2S_DMACmd+0xb4>)
 800697c:	429a      	cmp	r2, r3
 800697e:	d008      	beq.n	8006992 <SPI_I2S_DMACmd+0x42>
 8006980:	687b      	ldr	r3, [r7, #4]
 8006982:	f1b3 2f40 	cmp.w	r3, #1073758208	; 0x40004000
 8006986:	d004      	beq.n	8006992 <SPI_I2S_DMACmd+0x42>
 8006988:	481f      	ldr	r0, [pc, #124]	; (8006a08 <SPI_I2S_DMACmd+0xb8>)
 800698a:	f240 31d9 	movw	r1, #985	; 0x3d9
 800698e:	f7fb fdd5 	bl	800253c <assert_failed>
  assert_param(IS_FUNCTIONAL_STATE(NewState));
 8006992:	787b      	ldrb	r3, [r7, #1]
 8006994:	2b00      	cmp	r3, #0
 8006996:	d007      	beq.n	80069a8 <SPI_I2S_DMACmd+0x58>
 8006998:	787b      	ldrb	r3, [r7, #1]
 800699a:	2b01      	cmp	r3, #1
 800699c:	d004      	beq.n	80069a8 <SPI_I2S_DMACmd+0x58>
 800699e:	481a      	ldr	r0, [pc, #104]	; (8006a08 <SPI_I2S_DMACmd+0xb8>)
 80069a0:	f240 31da 	movw	r1, #986	; 0x3da
 80069a4:	f7fb fdca 	bl	800253c <assert_failed>
  assert_param(IS_SPI_I2S_DMAREQ(SPI_I2S_DMAReq));
 80069a8:	887a      	ldrh	r2, [r7, #2]
 80069aa:	f64f 73fc 	movw	r3, #65532	; 0xfffc
 80069ae:	4013      	ands	r3, r2
 80069b0:	2b00      	cmp	r3, #0
 80069b2:	d102      	bne.n	80069ba <SPI_I2S_DMACmd+0x6a>
 80069b4:	887b      	ldrh	r3, [r7, #2]
 80069b6:	2b00      	cmp	r3, #0
 80069b8:	d104      	bne.n	80069c4 <SPI_I2S_DMACmd+0x74>
 80069ba:	4813      	ldr	r0, [pc, #76]	; (8006a08 <SPI_I2S_DMACmd+0xb8>)
 80069bc:	f240 31db 	movw	r1, #987	; 0x3db
 80069c0:	f7fb fdbc 	bl	800253c <assert_failed>

  if (NewState != DISABLE)
 80069c4:	787b      	ldrb	r3, [r7, #1]
 80069c6:	2b00      	cmp	r3, #0
 80069c8:	d008      	beq.n	80069dc <SPI_I2S_DMACmd+0x8c>
  {
    /* Enable the selected SPI DMA requests */
    SPIx->CR2 |= SPI_I2S_DMAReq;
 80069ca:	687b      	ldr	r3, [r7, #4]
 80069cc:	889b      	ldrh	r3, [r3, #4]
 80069ce:	b29a      	uxth	r2, r3
 80069d0:	887b      	ldrh	r3, [r7, #2]
 80069d2:	4313      	orrs	r3, r2
 80069d4:	b29a      	uxth	r2, r3
 80069d6:	687b      	ldr	r3, [r7, #4]
 80069d8:	809a      	strh	r2, [r3, #4]
 80069da:	e009      	b.n	80069f0 <SPI_I2S_DMACmd+0xa0>
  }
  else
  {
    /* Disable the selected SPI DMA requests */
    SPIx->CR2 &= (uint16_t)~SPI_I2S_DMAReq;
 80069dc:	687b      	ldr	r3, [r7, #4]
 80069de:	889b      	ldrh	r3, [r3, #4]
 80069e0:	b29a      	uxth	r2, r3
 80069e2:	887b      	ldrh	r3, [r7, #2]
 80069e4:	43db      	mvns	r3, r3
 80069e6:	b29b      	uxth	r3, r3
 80069e8:	4013      	ands	r3, r2
 80069ea:	b29a      	uxth	r2, r3
 80069ec:	687b      	ldr	r3, [r7, #4]
 80069ee:	809a      	strh	r2, [r3, #4]
  }
}
 80069f0:	3708      	adds	r7, #8
 80069f2:	46bd      	mov	sp, r7
 80069f4:	bd80      	pop	{r7, pc}
 80069f6:	bf00      	nop
 80069f8:	40013000 	.word	0x40013000
 80069fc:	40003800 	.word	0x40003800
 8006a00:	40003c00 	.word	0x40003c00
 8006a04:	40003400 	.word	0x40003400
 8006a08:	08007c1c 	.word	0x08007c1c

08006a0c <SPI_I2S_GetFlagStatus>:
  *            @arg I2S_FLAG_UDR: Underrun Error flag.
  *            @arg I2S_FLAG_CHSIDE: Channel Side flag.  
  * @retval The new state of SPI_I2S_FLAG (SET or RESET).
  */
FlagStatus SPI_I2S_GetFlagStatus(SPI_TypeDef* SPIx, uint16_t SPI_I2S_FLAG)
{
 8006a0c:	b580      	push	{r7, lr}
 8006a0e:	b084      	sub	sp, #16
 8006a10:	af00      	add	r7, sp, #0
 8006a12:	6078      	str	r0, [r7, #4]
 8006a14:	460b      	mov	r3, r1
 8006a16:	807b      	strh	r3, [r7, #2]
  FlagStatus bitstatus = RESET;
 8006a18:	2300      	movs	r3, #0
 8006a1a:	73fb      	strb	r3, [r7, #15]
  /* Check the parameters */
  assert_param(IS_SPI_ALL_PERIPH_EXT(SPIx));
 8006a1c:	687a      	ldr	r2, [r7, #4]
 8006a1e:	4b25      	ldr	r3, [pc, #148]	; (8006ab4 <SPI_I2S_GetFlagStatus+0xa8>)
 8006a20:	429a      	cmp	r2, r3
 8006a22:	d014      	beq.n	8006a4e <SPI_I2S_GetFlagStatus+0x42>
 8006a24:	687a      	ldr	r2, [r7, #4]
 8006a26:	4b24      	ldr	r3, [pc, #144]	; (8006ab8 <SPI_I2S_GetFlagStatus+0xac>)
 8006a28:	429a      	cmp	r2, r3
 8006a2a:	d010      	beq.n	8006a4e <SPI_I2S_GetFlagStatus+0x42>
 8006a2c:	687a      	ldr	r2, [r7, #4]
 8006a2e:	4b23      	ldr	r3, [pc, #140]	; (8006abc <SPI_I2S_GetFlagStatus+0xb0>)
 8006a30:	429a      	cmp	r2, r3
 8006a32:	d00c      	beq.n	8006a4e <SPI_I2S_GetFlagStatus+0x42>
 8006a34:	687a      	ldr	r2, [r7, #4]
 8006a36:	4b22      	ldr	r3, [pc, #136]	; (8006ac0 <SPI_I2S_GetFlagStatus+0xb4>)
 8006a38:	429a      	cmp	r2, r3
 8006a3a:	d008      	beq.n	8006a4e <SPI_I2S_GetFlagStatus+0x42>
 8006a3c:	687b      	ldr	r3, [r7, #4]
 8006a3e:	f1b3 2f40 	cmp.w	r3, #1073758208	; 0x40004000
 8006a42:	d004      	beq.n	8006a4e <SPI_I2S_GetFlagStatus+0x42>
 8006a44:	481f      	ldr	r0, [pc, #124]	; (8006ac4 <SPI_I2S_GetFlagStatus+0xb8>)
 8006a46:	f240 4173 	movw	r1, #1139	; 0x473
 8006a4a:	f7fb fd77 	bl	800253c <assert_failed>
  assert_param(IS_SPI_I2S_GET_FLAG(SPI_I2S_FLAG));
 8006a4e:	887b      	ldrh	r3, [r7, #2]
 8006a50:	2b80      	cmp	r3, #128	; 0x80
 8006a52:	d01d      	beq.n	8006a90 <SPI_I2S_GetFlagStatus+0x84>
 8006a54:	887b      	ldrh	r3, [r7, #2]
 8006a56:	2b40      	cmp	r3, #64	; 0x40
 8006a58:	d01a      	beq.n	8006a90 <SPI_I2S_GetFlagStatus+0x84>
 8006a5a:	887b      	ldrh	r3, [r7, #2]
 8006a5c:	2b20      	cmp	r3, #32
 8006a5e:	d017      	beq.n	8006a90 <SPI_I2S_GetFlagStatus+0x84>
 8006a60:	887b      	ldrh	r3, [r7, #2]
 8006a62:	2b10      	cmp	r3, #16
 8006a64:	d014      	beq.n	8006a90 <SPI_I2S_GetFlagStatus+0x84>
 8006a66:	887b      	ldrh	r3, [r7, #2]
 8006a68:	2b08      	cmp	r3, #8
 8006a6a:	d011      	beq.n	8006a90 <SPI_I2S_GetFlagStatus+0x84>
 8006a6c:	887b      	ldrh	r3, [r7, #2]
 8006a6e:	2b04      	cmp	r3, #4
 8006a70:	d00e      	beq.n	8006a90 <SPI_I2S_GetFlagStatus+0x84>
 8006a72:	887b      	ldrh	r3, [r7, #2]
 8006a74:	2b02      	cmp	r3, #2
 8006a76:	d00b      	beq.n	8006a90 <SPI_I2S_GetFlagStatus+0x84>
 8006a78:	887b      	ldrh	r3, [r7, #2]
 8006a7a:	2b01      	cmp	r3, #1
 8006a7c:	d008      	beq.n	8006a90 <SPI_I2S_GetFlagStatus+0x84>
 8006a7e:	887b      	ldrh	r3, [r7, #2]
 8006a80:	f5b3 7f80 	cmp.w	r3, #256	; 0x100
 8006a84:	d004      	beq.n	8006a90 <SPI_I2S_GetFlagStatus+0x84>
 8006a86:	480f      	ldr	r0, [pc, #60]	; (8006ac4 <SPI_I2S_GetFlagStatus+0xb8>)
 8006a88:	f240 4174 	movw	r1, #1140	; 0x474
 8006a8c:	f7fb fd56 	bl	800253c <assert_failed>
  
  /* Check the status of the specified SPI flag */
  if ((SPIx->SR & SPI_I2S_FLAG) != (uint16_t)RESET)
 8006a90:	687b      	ldr	r3, [r7, #4]
 8006a92:	891b      	ldrh	r3, [r3, #8]
 8006a94:	b29a      	uxth	r2, r3
 8006a96:	887b      	ldrh	r3, [r7, #2]
 8006a98:	4013      	ands	r3, r2
 8006a9a:	b29b      	uxth	r3, r3
 8006a9c:	2b00      	cmp	r3, #0
 8006a9e:	d002      	beq.n	8006aa6 <SPI_I2S_GetFlagStatus+0x9a>
  {
    /* SPI_I2S_FLAG is set */
    bitstatus = SET;
 8006aa0:	2301      	movs	r3, #1
 8006aa2:	73fb      	strb	r3, [r7, #15]
 8006aa4:	e001      	b.n	8006aaa <SPI_I2S_GetFlagStatus+0x9e>
  }
  else
  {
    /* SPI_I2S_FLAG is reset */
    bitstatus = RESET;
 8006aa6:	2300      	movs	r3, #0
 8006aa8:	73fb      	strb	r3, [r7, #15]
  }
  /* Return the SPI_I2S_FLAG status */
  return  bitstatus;
 8006aaa:	7bfb      	ldrb	r3, [r7, #15]
}
 8006aac:	4618      	mov	r0, r3
 8006aae:	3710      	adds	r7, #16
 8006ab0:	46bd      	mov	sp, r7
 8006ab2:	bd80      	pop	{r7, pc}
 8006ab4:	40013000 	.word	0x40013000
 8006ab8:	40003800 	.word	0x40003800
 8006abc:	40003c00 	.word	0x40003c00
 8006ac0:	40003400 	.word	0x40003400
 8006ac4:	08007c1c 	.word	0x08007c1c

08006ac8 <SPI_I2S_ClearFlag>:
  *          write operation to SPI_CR1 register (SPI_Cmd() to enable the SPI).
  *  
  * @retval None
  */
void SPI_I2S_ClearFlag(SPI_TypeDef* SPIx, uint16_t SPI_I2S_FLAG)
{
 8006ac8:	b580      	push	{r7, lr}
 8006aca:	b082      	sub	sp, #8
 8006acc:	af00      	add	r7, sp, #0
 8006ace:	6078      	str	r0, [r7, #4]
 8006ad0:	460b      	mov	r3, r1
 8006ad2:	807b      	strh	r3, [r7, #2]
  /* Check the parameters */
  assert_param(IS_SPI_ALL_PERIPH_EXT(SPIx));
 8006ad4:	687a      	ldr	r2, [r7, #4]
 8006ad6:	4b14      	ldr	r3, [pc, #80]	; (8006b28 <SPI_I2S_ClearFlag+0x60>)
 8006ad8:	429a      	cmp	r2, r3
 8006ada:	d014      	beq.n	8006b06 <SPI_I2S_ClearFlag+0x3e>
 8006adc:	687a      	ldr	r2, [r7, #4]
 8006ade:	4b13      	ldr	r3, [pc, #76]	; (8006b2c <SPI_I2S_ClearFlag+0x64>)
 8006ae0:	429a      	cmp	r2, r3
 8006ae2:	d010      	beq.n	8006b06 <SPI_I2S_ClearFlag+0x3e>
 8006ae4:	687a      	ldr	r2, [r7, #4]
 8006ae6:	4b12      	ldr	r3, [pc, #72]	; (8006b30 <SPI_I2S_ClearFlag+0x68>)
 8006ae8:	429a      	cmp	r2, r3
 8006aea:	d00c      	beq.n	8006b06 <SPI_I2S_ClearFlag+0x3e>
 8006aec:	687a      	ldr	r2, [r7, #4]
 8006aee:	4b11      	ldr	r3, [pc, #68]	; (8006b34 <SPI_I2S_ClearFlag+0x6c>)
 8006af0:	429a      	cmp	r2, r3
 8006af2:	d008      	beq.n	8006b06 <SPI_I2S_ClearFlag+0x3e>
 8006af4:	687b      	ldr	r3, [r7, #4]
 8006af6:	f1b3 2f40 	cmp.w	r3, #1073758208	; 0x40004000
 8006afa:	d004      	beq.n	8006b06 <SPI_I2S_ClearFlag+0x3e>
 8006afc:	480e      	ldr	r0, [pc, #56]	; (8006b38 <SPI_I2S_ClearFlag+0x70>)
 8006afe:	f240 419b 	movw	r1, #1179	; 0x49b
 8006b02:	f7fb fd1b 	bl	800253c <assert_failed>
  assert_param(IS_SPI_I2S_CLEAR_FLAG(SPI_I2S_FLAG));
 8006b06:	887b      	ldrh	r3, [r7, #2]
 8006b08:	2b10      	cmp	r3, #16
 8006b0a:	d004      	beq.n	8006b16 <SPI_I2S_ClearFlag+0x4e>
 8006b0c:	480a      	ldr	r0, [pc, #40]	; (8006b38 <SPI_I2S_ClearFlag+0x70>)
 8006b0e:	f240 419c 	movw	r1, #1180	; 0x49c
 8006b12:	f7fb fd13 	bl	800253c <assert_failed>
    
  /* Clear the selected SPI CRC Error (CRCERR) flag */
  SPIx->SR = (uint16_t)~SPI_I2S_FLAG;
 8006b16:	887b      	ldrh	r3, [r7, #2]
 8006b18:	43db      	mvns	r3, r3
 8006b1a:	b29a      	uxth	r2, r3
 8006b1c:	687b      	ldr	r3, [r7, #4]
 8006b1e:	811a      	strh	r2, [r3, #8]
}
 8006b20:	3708      	adds	r7, #8
 8006b22:	46bd      	mov	sp, r7
 8006b24:	bd80      	pop	{r7, pc}
 8006b26:	bf00      	nop
 8006b28:	40013000 	.word	0x40013000
 8006b2c:	40003800 	.word	0x40003800
 8006b30:	40003c00 	.word	0x40003c00
 8006b34:	40003400 	.word	0x40003400
 8006b38:	08007c1c 	.word	0x08007c1c

08006b3c <SYSCFG_EXTILineConfig>:
  *           This parameter can be EXTI_PinSourcex where x can be (0..15, except
  *           for EXTI_PortSourceGPIOI x can be (0..11).
  * @retval None
  */
void SYSCFG_EXTILineConfig(uint8_t EXTI_PortSourceGPIOx, uint8_t EXTI_PinSourcex)
{
 8006b3c:	b590      	push	{r4, r7, lr}
 8006b3e:	b085      	sub	sp, #20
 8006b40:	af00      	add	r7, sp, #0
 8006b42:	4602      	mov	r2, r0
 8006b44:	460b      	mov	r3, r1
 8006b46:	71fa      	strb	r2, [r7, #7]
 8006b48:	71bb      	strb	r3, [r7, #6]
  uint32_t tmp = 0x00;
 8006b4a:	2300      	movs	r3, #0
 8006b4c:	60fb      	str	r3, [r7, #12]

  /* Check the parameters */
  assert_param(IS_EXTI_PORT_SOURCE(EXTI_PortSourceGPIOx));
 8006b4e:	79fb      	ldrb	r3, [r7, #7]
 8006b50:	2b00      	cmp	r3, #0
 8006b52:	d01b      	beq.n	8006b8c <SYSCFG_EXTILineConfig+0x50>
 8006b54:	79fb      	ldrb	r3, [r7, #7]
 8006b56:	2b01      	cmp	r3, #1
 8006b58:	d018      	beq.n	8006b8c <SYSCFG_EXTILineConfig+0x50>
 8006b5a:	79fb      	ldrb	r3, [r7, #7]
 8006b5c:	2b02      	cmp	r3, #2
 8006b5e:	d015      	beq.n	8006b8c <SYSCFG_EXTILineConfig+0x50>
 8006b60:	79fb      	ldrb	r3, [r7, #7]
 8006b62:	2b03      	cmp	r3, #3
 8006b64:	d012      	beq.n	8006b8c <SYSCFG_EXTILineConfig+0x50>
 8006b66:	79fb      	ldrb	r3, [r7, #7]
 8006b68:	2b04      	cmp	r3, #4
 8006b6a:	d00f      	beq.n	8006b8c <SYSCFG_EXTILineConfig+0x50>
 8006b6c:	79fb      	ldrb	r3, [r7, #7]
 8006b6e:	2b05      	cmp	r3, #5
 8006b70:	d00c      	beq.n	8006b8c <SYSCFG_EXTILineConfig+0x50>
 8006b72:	79fb      	ldrb	r3, [r7, #7]
 8006b74:	2b06      	cmp	r3, #6
 8006b76:	d009      	beq.n	8006b8c <SYSCFG_EXTILineConfig+0x50>
 8006b78:	79fb      	ldrb	r3, [r7, #7]
 8006b7a:	2b07      	cmp	r3, #7
 8006b7c:	d006      	beq.n	8006b8c <SYSCFG_EXTILineConfig+0x50>
 8006b7e:	79fb      	ldrb	r3, [r7, #7]
 8006b80:	2b08      	cmp	r3, #8
 8006b82:	d003      	beq.n	8006b8c <SYSCFG_EXTILineConfig+0x50>
 8006b84:	4834      	ldr	r0, [pc, #208]	; (8006c58 <SYSCFG_EXTILineConfig+0x11c>)
 8006b86:	217c      	movs	r1, #124	; 0x7c
 8006b88:	f7fb fcd8 	bl	800253c <assert_failed>
  assert_param(IS_EXTI_PIN_SOURCE(EXTI_PinSourcex));
 8006b8c:	79bb      	ldrb	r3, [r7, #6]
 8006b8e:	2b00      	cmp	r3, #0
 8006b90:	d030      	beq.n	8006bf4 <SYSCFG_EXTILineConfig+0xb8>
 8006b92:	79bb      	ldrb	r3, [r7, #6]
 8006b94:	2b01      	cmp	r3, #1
 8006b96:	d02d      	beq.n	8006bf4 <SYSCFG_EXTILineConfig+0xb8>
 8006b98:	79bb      	ldrb	r3, [r7, #6]
 8006b9a:	2b02      	cmp	r3, #2
 8006b9c:	d02a      	beq.n	8006bf4 <SYSCFG_EXTILineConfig+0xb8>
 8006b9e:	79bb      	ldrb	r3, [r7, #6]
 8006ba0:	2b03      	cmp	r3, #3
 8006ba2:	d027      	beq.n	8006bf4 <SYSCFG_EXTILineConfig+0xb8>
 8006ba4:	79bb      	ldrb	r3, [r7, #6]
 8006ba6:	2b04      	cmp	r3, #4
 8006ba8:	d024      	beq.n	8006bf4 <SYSCFG_EXTILineConfig+0xb8>
 8006baa:	79bb      	ldrb	r3, [r7, #6]
 8006bac:	2b05      	cmp	r3, #5
 8006bae:	d021      	beq.n	8006bf4 <SYSCFG_EXTILineConfig+0xb8>
 8006bb0:	79bb      	ldrb	r3, [r7, #6]
 8006bb2:	2b06      	cmp	r3, #6
 8006bb4:	d01e      	beq.n	8006bf4 <SYSCFG_EXTILineConfig+0xb8>
 8006bb6:	79bb      	ldrb	r3, [r7, #6]
 8006bb8:	2b07      	cmp	r3, #7
 8006bba:	d01b      	beq.n	8006bf4 <SYSCFG_EXTILineConfig+0xb8>
 8006bbc:	79bb      	ldrb	r3, [r7, #6]
 8006bbe:	2b08      	cmp	r3, #8
 8006bc0:	d018      	beq.n	8006bf4 <SYSCFG_EXTILineConfig+0xb8>
 8006bc2:	79bb      	ldrb	r3, [r7, #6]
 8006bc4:	2b09      	cmp	r3, #9
 8006bc6:	d015      	beq.n	8006bf4 <SYSCFG_EXTILineConfig+0xb8>
 8006bc8:	79bb      	ldrb	r3, [r7, #6]
 8006bca:	2b0a      	cmp	r3, #10
 8006bcc:	d012      	beq.n	8006bf4 <SYSCFG_EXTILineConfig+0xb8>
 8006bce:	79bb      	ldrb	r3, [r7, #6]
 8006bd0:	2b0b      	cmp	r3, #11
 8006bd2:	d00f      	beq.n	8006bf4 <SYSCFG_EXTILineConfig+0xb8>
 8006bd4:	79bb      	ldrb	r3, [r7, #6]
 8006bd6:	2b0c      	cmp	r3, #12
 8006bd8:	d00c      	beq.n	8006bf4 <SYSCFG_EXTILineConfig+0xb8>
 8006bda:	79bb      	ldrb	r3, [r7, #6]
 8006bdc:	2b0d      	cmp	r3, #13
 8006bde:	d009      	beq.n	8006bf4 <SYSCFG_EXTILineConfig+0xb8>
 8006be0:	79bb      	ldrb	r3, [r7, #6]
 8006be2:	2b0e      	cmp	r3, #14
 8006be4:	d006      	beq.n	8006bf4 <SYSCFG_EXTILineConfig+0xb8>
 8006be6:	79bb      	ldrb	r3, [r7, #6]
 8006be8:	2b0f      	cmp	r3, #15
 8006bea:	d003      	beq.n	8006bf4 <SYSCFG_EXTILineConfig+0xb8>
 8006bec:	481a      	ldr	r0, [pc, #104]	; (8006c58 <SYSCFG_EXTILineConfig+0x11c>)
 8006bee:	217d      	movs	r1, #125	; 0x7d
 8006bf0:	f7fb fca4 	bl	800253c <assert_failed>

  tmp = ((uint32_t)0x0F) << (0x04 * (EXTI_PinSourcex & (uint8_t)0x03));
 8006bf4:	79bb      	ldrb	r3, [r7, #6]
 8006bf6:	f003 0303 	and.w	r3, r3, #3
 8006bfa:	009b      	lsls	r3, r3, #2
 8006bfc:	220f      	movs	r2, #15
 8006bfe:	fa02 f303 	lsl.w	r3, r2, r3
 8006c02:	60fb      	str	r3, [r7, #12]
  SYSCFG->EXTICR[EXTI_PinSourcex >> 0x02] &= ~tmp;
 8006c04:	4b15      	ldr	r3, [pc, #84]	; (8006c5c <SYSCFG_EXTILineConfig+0x120>)
 8006c06:	79ba      	ldrb	r2, [r7, #6]
 8006c08:	0892      	lsrs	r2, r2, #2
 8006c0a:	b2d2      	uxtb	r2, r2
 8006c0c:	4913      	ldr	r1, [pc, #76]	; (8006c5c <SYSCFG_EXTILineConfig+0x120>)
 8006c0e:	79b8      	ldrb	r0, [r7, #6]
 8006c10:	0880      	lsrs	r0, r0, #2
 8006c12:	b2c0      	uxtb	r0, r0
 8006c14:	3002      	adds	r0, #2
 8006c16:	f851 0020 	ldr.w	r0, [r1, r0, lsl #2]
 8006c1a:	68f9      	ldr	r1, [r7, #12]
 8006c1c:	43c9      	mvns	r1, r1
 8006c1e:	4001      	ands	r1, r0
 8006c20:	3202      	adds	r2, #2
 8006c22:	f843 1022 	str.w	r1, [r3, r2, lsl #2]
  SYSCFG->EXTICR[EXTI_PinSourcex >> 0x02] |= (((uint32_t)EXTI_PortSourceGPIOx) << (0x04 * (EXTI_PinSourcex & (uint8_t)0x03)));
 8006c26:	4b0d      	ldr	r3, [pc, #52]	; (8006c5c <SYSCFG_EXTILineConfig+0x120>)
 8006c28:	79ba      	ldrb	r2, [r7, #6]
 8006c2a:	0892      	lsrs	r2, r2, #2
 8006c2c:	b2d2      	uxtb	r2, r2
 8006c2e:	490b      	ldr	r1, [pc, #44]	; (8006c5c <SYSCFG_EXTILineConfig+0x120>)
 8006c30:	79b8      	ldrb	r0, [r7, #6]
 8006c32:	0880      	lsrs	r0, r0, #2
 8006c34:	b2c0      	uxtb	r0, r0
 8006c36:	3002      	adds	r0, #2
 8006c38:	f851 0020 	ldr.w	r0, [r1, r0, lsl #2]
 8006c3c:	79fc      	ldrb	r4, [r7, #7]
 8006c3e:	79b9      	ldrb	r1, [r7, #6]
 8006c40:	f001 0103 	and.w	r1, r1, #3
 8006c44:	0089      	lsls	r1, r1, #2
 8006c46:	fa04 f101 	lsl.w	r1, r4, r1
 8006c4a:	4301      	orrs	r1, r0
 8006c4c:	3202      	adds	r2, #2
 8006c4e:	f843 1022 	str.w	r1, [r3, r2, lsl #2]
}
 8006c52:	3714      	adds	r7, #20
 8006c54:	46bd      	mov	sp, r7
 8006c56:	bd90      	pop	{r4, r7, pc}
 8006c58:	08007c6c 	.word	0x08007c6c
 8006c5c:	40013800 	.word	0x40013800

08006c60 <USART_Init>:
  * @param  USART_InitStruct: pointer to a USART_InitTypeDef structure that contains
  *         the configuration information for the specified USART peripheral.
  * @retval None
  */
void USART_Init(USART_TypeDef* USARTx, USART_InitTypeDef* USART_InitStruct)
{
 8006c60:	b580      	push	{r7, lr}
 8006c62:	b08a      	sub	sp, #40	; 0x28
 8006c64:	af00      	add	r7, sp, #0
 8006c66:	6078      	str	r0, [r7, #4]
 8006c68:	6039      	str	r1, [r7, #0]
  uint32_t tmpreg = 0x00, apbclock = 0x00;
 8006c6a:	2300      	movs	r3, #0
 8006c6c:	627b      	str	r3, [r7, #36]	; 0x24
 8006c6e:	2300      	movs	r3, #0
 8006c70:	623b      	str	r3, [r7, #32]
  uint32_t integerdivider = 0x00;
 8006c72:	2300      	movs	r3, #0
 8006c74:	61fb      	str	r3, [r7, #28]
  uint32_t fractionaldivider = 0x00;
 8006c76:	2300      	movs	r3, #0
 8006c78:	61bb      	str	r3, [r7, #24]
  RCC_ClocksTypeDef RCC_ClocksStatus;

  /* Check the parameters */
  assert_param(IS_USART_ALL_PERIPH(USARTx));
 8006c7a:	687a      	ldr	r2, [r7, #4]
 8006c7c:	4b97      	ldr	r3, [pc, #604]	; (8006edc <USART_Init+0x27c>)
 8006c7e:	429a      	cmp	r2, r3
 8006c80:	d017      	beq.n	8006cb2 <USART_Init+0x52>
 8006c82:	687a      	ldr	r2, [r7, #4]
 8006c84:	4b96      	ldr	r3, [pc, #600]	; (8006ee0 <USART_Init+0x280>)
 8006c86:	429a      	cmp	r2, r3
 8006c88:	d013      	beq.n	8006cb2 <USART_Init+0x52>
 8006c8a:	687a      	ldr	r2, [r7, #4]
 8006c8c:	4b95      	ldr	r3, [pc, #596]	; (8006ee4 <USART_Init+0x284>)
 8006c8e:	429a      	cmp	r2, r3
 8006c90:	d00f      	beq.n	8006cb2 <USART_Init+0x52>
 8006c92:	687a      	ldr	r2, [r7, #4]
 8006c94:	4b94      	ldr	r3, [pc, #592]	; (8006ee8 <USART_Init+0x288>)
 8006c96:	429a      	cmp	r2, r3
 8006c98:	d00b      	beq.n	8006cb2 <USART_Init+0x52>
 8006c9a:	687a      	ldr	r2, [r7, #4]
 8006c9c:	4b93      	ldr	r3, [pc, #588]	; (8006eec <USART_Init+0x28c>)
 8006c9e:	429a      	cmp	r2, r3
 8006ca0:	d007      	beq.n	8006cb2 <USART_Init+0x52>
 8006ca2:	687a      	ldr	r2, [r7, #4]
 8006ca4:	4b92      	ldr	r3, [pc, #584]	; (8006ef0 <USART_Init+0x290>)
 8006ca6:	429a      	cmp	r2, r3
 8006ca8:	d003      	beq.n	8006cb2 <USART_Init+0x52>
 8006caa:	4892      	ldr	r0, [pc, #584]	; (8006ef4 <USART_Init+0x294>)
 8006cac:	21eb      	movs	r1, #235	; 0xeb
 8006cae:	f7fb fc45 	bl	800253c <assert_failed>
  assert_param(IS_USART_BAUDRATE(USART_InitStruct->USART_BaudRate));  
 8006cb2:	683b      	ldr	r3, [r7, #0]
 8006cb4:	681b      	ldr	r3, [r3, #0]
 8006cb6:	2b00      	cmp	r3, #0
 8006cb8:	d004      	beq.n	8006cc4 <USART_Init+0x64>
 8006cba:	683b      	ldr	r3, [r7, #0]
 8006cbc:	681a      	ldr	r2, [r3, #0]
 8006cbe:	4b8e      	ldr	r3, [pc, #568]	; (8006ef8 <USART_Init+0x298>)
 8006cc0:	429a      	cmp	r2, r3
 8006cc2:	d903      	bls.n	8006ccc <USART_Init+0x6c>
 8006cc4:	488b      	ldr	r0, [pc, #556]	; (8006ef4 <USART_Init+0x294>)
 8006cc6:	21ec      	movs	r1, #236	; 0xec
 8006cc8:	f7fb fc38 	bl	800253c <assert_failed>
  assert_param(IS_USART_WORD_LENGTH(USART_InitStruct->USART_WordLength));
 8006ccc:	683b      	ldr	r3, [r7, #0]
 8006cce:	889b      	ldrh	r3, [r3, #4]
 8006cd0:	2b00      	cmp	r3, #0
 8006cd2:	d008      	beq.n	8006ce6 <USART_Init+0x86>
 8006cd4:	683b      	ldr	r3, [r7, #0]
 8006cd6:	889b      	ldrh	r3, [r3, #4]
 8006cd8:	f5b3 5f80 	cmp.w	r3, #4096	; 0x1000
 8006cdc:	d003      	beq.n	8006ce6 <USART_Init+0x86>
 8006cde:	4885      	ldr	r0, [pc, #532]	; (8006ef4 <USART_Init+0x294>)
 8006ce0:	21ed      	movs	r1, #237	; 0xed
 8006ce2:	f7fb fc2b 	bl	800253c <assert_failed>
  assert_param(IS_USART_STOPBITS(USART_InitStruct->USART_StopBits));
 8006ce6:	683b      	ldr	r3, [r7, #0]
 8006ce8:	88db      	ldrh	r3, [r3, #6]
 8006cea:	2b00      	cmp	r3, #0
 8006cec:	d012      	beq.n	8006d14 <USART_Init+0xb4>
 8006cee:	683b      	ldr	r3, [r7, #0]
 8006cf0:	88db      	ldrh	r3, [r3, #6]
 8006cf2:	f5b3 5f80 	cmp.w	r3, #4096	; 0x1000
 8006cf6:	d00d      	beq.n	8006d14 <USART_Init+0xb4>
 8006cf8:	683b      	ldr	r3, [r7, #0]
 8006cfa:	88db      	ldrh	r3, [r3, #6]
 8006cfc:	f5b3 5f00 	cmp.w	r3, #8192	; 0x2000
 8006d00:	d008      	beq.n	8006d14 <USART_Init+0xb4>
 8006d02:	683b      	ldr	r3, [r7, #0]
 8006d04:	88db      	ldrh	r3, [r3, #6]
 8006d06:	f5b3 5f40 	cmp.w	r3, #12288	; 0x3000
 8006d0a:	d003      	beq.n	8006d14 <USART_Init+0xb4>
 8006d0c:	4879      	ldr	r0, [pc, #484]	; (8006ef4 <USART_Init+0x294>)
 8006d0e:	21ee      	movs	r1, #238	; 0xee
 8006d10:	f7fb fc14 	bl	800253c <assert_failed>
  assert_param(IS_USART_PARITY(USART_InitStruct->USART_Parity));
 8006d14:	683b      	ldr	r3, [r7, #0]
 8006d16:	891b      	ldrh	r3, [r3, #8]
 8006d18:	2b00      	cmp	r3, #0
 8006d1a:	d00d      	beq.n	8006d38 <USART_Init+0xd8>
 8006d1c:	683b      	ldr	r3, [r7, #0]
 8006d1e:	891b      	ldrh	r3, [r3, #8]
 8006d20:	f5b3 6f80 	cmp.w	r3, #1024	; 0x400
 8006d24:	d008      	beq.n	8006d38 <USART_Init+0xd8>
 8006d26:	683b      	ldr	r3, [r7, #0]
 8006d28:	891b      	ldrh	r3, [r3, #8]
 8006d2a:	f5b3 6fc0 	cmp.w	r3, #1536	; 0x600
 8006d2e:	d003      	beq.n	8006d38 <USART_Init+0xd8>
 8006d30:	4870      	ldr	r0, [pc, #448]	; (8006ef4 <USART_Init+0x294>)
 8006d32:	21ef      	movs	r1, #239	; 0xef
 8006d34:	f7fb fc02 	bl	800253c <assert_failed>
  assert_param(IS_USART_MODE(USART_InitStruct->USART_Mode));
 8006d38:	683b      	ldr	r3, [r7, #0]
 8006d3a:	895b      	ldrh	r3, [r3, #10]
 8006d3c:	461a      	mov	r2, r3
 8006d3e:	f64f 73f3 	movw	r3, #65523	; 0xfff3
 8006d42:	4013      	ands	r3, r2
 8006d44:	2b00      	cmp	r3, #0
 8006d46:	d103      	bne.n	8006d50 <USART_Init+0xf0>
 8006d48:	683b      	ldr	r3, [r7, #0]
 8006d4a:	895b      	ldrh	r3, [r3, #10]
 8006d4c:	2b00      	cmp	r3, #0
 8006d4e:	d103      	bne.n	8006d58 <USART_Init+0xf8>
 8006d50:	4868      	ldr	r0, [pc, #416]	; (8006ef4 <USART_Init+0x294>)
 8006d52:	21f0      	movs	r1, #240	; 0xf0
 8006d54:	f7fb fbf2 	bl	800253c <assert_failed>
  assert_param(IS_USART_HARDWARE_FLOW_CONTROL(USART_InitStruct->USART_HardwareFlowControl));
 8006d58:	683b      	ldr	r3, [r7, #0]
 8006d5a:	899b      	ldrh	r3, [r3, #12]
 8006d5c:	2b00      	cmp	r3, #0
 8006d5e:	d012      	beq.n	8006d86 <USART_Init+0x126>
 8006d60:	683b      	ldr	r3, [r7, #0]
 8006d62:	899b      	ldrh	r3, [r3, #12]
 8006d64:	f5b3 7f80 	cmp.w	r3, #256	; 0x100
 8006d68:	d00d      	beq.n	8006d86 <USART_Init+0x126>
 8006d6a:	683b      	ldr	r3, [r7, #0]
 8006d6c:	899b      	ldrh	r3, [r3, #12]
 8006d6e:	f5b3 7f00 	cmp.w	r3, #512	; 0x200
 8006d72:	d008      	beq.n	8006d86 <USART_Init+0x126>
 8006d74:	683b      	ldr	r3, [r7, #0]
 8006d76:	899b      	ldrh	r3, [r3, #12]
 8006d78:	f5b3 7f40 	cmp.w	r3, #768	; 0x300
 8006d7c:	d003      	beq.n	8006d86 <USART_Init+0x126>
 8006d7e:	485d      	ldr	r0, [pc, #372]	; (8006ef4 <USART_Init+0x294>)
 8006d80:	21f1      	movs	r1, #241	; 0xf1
 8006d82:	f7fb fbdb 	bl	800253c <assert_failed>

  /* The hardware flow control is available only for USART1, USART2, USART3 and USART6 */
  if (USART_InitStruct->USART_HardwareFlowControl != USART_HardwareFlowControl_None)
 8006d86:	683b      	ldr	r3, [r7, #0]
 8006d88:	899b      	ldrh	r3, [r3, #12]
 8006d8a:	2b00      	cmp	r3, #0
 8006d8c:	d013      	beq.n	8006db6 <USART_Init+0x156>
  {
    assert_param(IS_USART_1236_PERIPH(USARTx));
 8006d8e:	687a      	ldr	r2, [r7, #4]
 8006d90:	4b52      	ldr	r3, [pc, #328]	; (8006edc <USART_Init+0x27c>)
 8006d92:	429a      	cmp	r2, r3
 8006d94:	d00f      	beq.n	8006db6 <USART_Init+0x156>
 8006d96:	687a      	ldr	r2, [r7, #4]
 8006d98:	4b51      	ldr	r3, [pc, #324]	; (8006ee0 <USART_Init+0x280>)
 8006d9a:	429a      	cmp	r2, r3
 8006d9c:	d00b      	beq.n	8006db6 <USART_Init+0x156>
 8006d9e:	687a      	ldr	r2, [r7, #4]
 8006da0:	4b50      	ldr	r3, [pc, #320]	; (8006ee4 <USART_Init+0x284>)
 8006da2:	429a      	cmp	r2, r3
 8006da4:	d007      	beq.n	8006db6 <USART_Init+0x156>
 8006da6:	687a      	ldr	r2, [r7, #4]
 8006da8:	4b51      	ldr	r3, [pc, #324]	; (8006ef0 <USART_Init+0x290>)
 8006daa:	429a      	cmp	r2, r3
 8006dac:	d003      	beq.n	8006db6 <USART_Init+0x156>
 8006dae:	4851      	ldr	r0, [pc, #324]	; (8006ef4 <USART_Init+0x294>)
 8006db0:	21f6      	movs	r1, #246	; 0xf6
 8006db2:	f7fb fbc3 	bl	800253c <assert_failed>
  }

/*---------------------------- USART CR2 Configuration -----------------------*/
  tmpreg = USARTx->CR2;
 8006db6:	687b      	ldr	r3, [r7, #4]
 8006db8:	8a1b      	ldrh	r3, [r3, #16]
 8006dba:	b29b      	uxth	r3, r3
 8006dbc:	627b      	str	r3, [r7, #36]	; 0x24

  /* Clear STOP[13:12] bits */
  tmpreg &= (uint32_t)~((uint32_t)USART_CR2_STOP);
 8006dbe:	6a7b      	ldr	r3, [r7, #36]	; 0x24
 8006dc0:	f423 5340 	bic.w	r3, r3, #12288	; 0x3000
 8006dc4:	627b      	str	r3, [r7, #36]	; 0x24

  /* Configure the USART Stop Bits, Clock, CPOL, CPHA and LastBit :
      Set STOP[13:12] bits according to USART_StopBits value */
  tmpreg |= (uint32_t)USART_InitStruct->USART_StopBits;
 8006dc6:	683b      	ldr	r3, [r7, #0]
 8006dc8:	88db      	ldrh	r3, [r3, #6]
 8006dca:	6a7a      	ldr	r2, [r7, #36]	; 0x24
 8006dcc:	4313      	orrs	r3, r2
 8006dce:	627b      	str	r3, [r7, #36]	; 0x24
  
  /* Write to USART CR2 */
  USARTx->CR2 = (uint16_t)tmpreg;
 8006dd0:	6a7b      	ldr	r3, [r7, #36]	; 0x24
 8006dd2:	b29a      	uxth	r2, r3
 8006dd4:	687b      	ldr	r3, [r7, #4]
 8006dd6:	821a      	strh	r2, [r3, #16]

/*---------------------------- USART CR1 Configuration -----------------------*/
  tmpreg = USARTx->CR1;
 8006dd8:	687b      	ldr	r3, [r7, #4]
 8006dda:	899b      	ldrh	r3, [r3, #12]
 8006ddc:	b29b      	uxth	r3, r3
 8006dde:	627b      	str	r3, [r7, #36]	; 0x24

  /* Clear M, PCE, PS, TE and RE bits */
  tmpreg &= (uint32_t)~((uint32_t)CR1_CLEAR_MASK);
 8006de0:	6a7b      	ldr	r3, [r7, #36]	; 0x24
 8006de2:	f423 53b0 	bic.w	r3, r3, #5632	; 0x1600
 8006de6:	f023 030c 	bic.w	r3, r3, #12
 8006dea:	627b      	str	r3, [r7, #36]	; 0x24

  /* Configure the USART Word Length, Parity and mode: 
     Set the M bits according to USART_WordLength value 
     Set PCE and PS bits according to USART_Parity value
     Set TE and RE bits according to USART_Mode value */
  tmpreg |= (uint32_t)USART_InitStruct->USART_WordLength | USART_InitStruct->USART_Parity |
 8006dec:	683b      	ldr	r3, [r7, #0]
 8006dee:	889a      	ldrh	r2, [r3, #4]
 8006df0:	683b      	ldr	r3, [r7, #0]
 8006df2:	891b      	ldrh	r3, [r3, #8]
 8006df4:	4313      	orrs	r3, r2
 8006df6:	b29a      	uxth	r2, r3
            USART_InitStruct->USART_Mode;
 8006df8:	683b      	ldr	r3, [r7, #0]
 8006dfa:	895b      	ldrh	r3, [r3, #10]

  /* Configure the USART Word Length, Parity and mode: 
     Set the M bits according to USART_WordLength value 
     Set PCE and PS bits according to USART_Parity value
     Set TE and RE bits according to USART_Mode value */
  tmpreg |= (uint32_t)USART_InitStruct->USART_WordLength | USART_InitStruct->USART_Parity |
 8006dfc:	4313      	orrs	r3, r2
 8006dfe:	b29b      	uxth	r3, r3
 8006e00:	6a7a      	ldr	r2, [r7, #36]	; 0x24
 8006e02:	4313      	orrs	r3, r2
 8006e04:	627b      	str	r3, [r7, #36]	; 0x24
            USART_InitStruct->USART_Mode;

  /* Write to USART CR1 */
  USARTx->CR1 = (uint16_t)tmpreg;
 8006e06:	6a7b      	ldr	r3, [r7, #36]	; 0x24
 8006e08:	b29a      	uxth	r2, r3
 8006e0a:	687b      	ldr	r3, [r7, #4]
 8006e0c:	819a      	strh	r2, [r3, #12]

/*---------------------------- USART CR3 Configuration -----------------------*/  
  tmpreg = USARTx->CR3;
 8006e0e:	687b      	ldr	r3, [r7, #4]
 8006e10:	8a9b      	ldrh	r3, [r3, #20]
 8006e12:	b29b      	uxth	r3, r3
 8006e14:	627b      	str	r3, [r7, #36]	; 0x24

  /* Clear CTSE and RTSE bits */
  tmpreg &= (uint32_t)~((uint32_t)CR3_CLEAR_MASK);
 8006e16:	6a7b      	ldr	r3, [r7, #36]	; 0x24
 8006e18:	f423 7340 	bic.w	r3, r3, #768	; 0x300
 8006e1c:	627b      	str	r3, [r7, #36]	; 0x24

  /* Configure the USART HFC : 
      Set CTSE and RTSE bits according to USART_HardwareFlowControl value */
  tmpreg |= USART_InitStruct->USART_HardwareFlowControl;
 8006e1e:	683b      	ldr	r3, [r7, #0]
 8006e20:	899b      	ldrh	r3, [r3, #12]
 8006e22:	6a7a      	ldr	r2, [r7, #36]	; 0x24
 8006e24:	4313      	orrs	r3, r2
 8006e26:	627b      	str	r3, [r7, #36]	; 0x24

  /* Write to USART CR3 */
  USARTx->CR3 = (uint16_t)tmpreg;
 8006e28:	6a7b      	ldr	r3, [r7, #36]	; 0x24
 8006e2a:	b29a      	uxth	r2, r3
 8006e2c:	687b      	ldr	r3, [r7, #4]
 8006e2e:	829a      	strh	r2, [r3, #20]

/*---------------------------- USART BRR Configuration -----------------------*/
  /* Configure the USART Baud Rate */
  RCC_GetClocksFreq(&RCC_ClocksStatus);
 8006e30:	f107 0308 	add.w	r3, r7, #8
 8006e34:	4618      	mov	r0, r3
 8006e36:	f7ff fb3d 	bl	80064b4 <RCC_GetClocksFreq>

  if ((USARTx == USART1) || (USARTx == USART6))
 8006e3a:	687a      	ldr	r2, [r7, #4]
 8006e3c:	4b27      	ldr	r3, [pc, #156]	; (8006edc <USART_Init+0x27c>)
 8006e3e:	429a      	cmp	r2, r3
 8006e40:	d003      	beq.n	8006e4a <USART_Init+0x1ea>
 8006e42:	687a      	ldr	r2, [r7, #4]
 8006e44:	4b2a      	ldr	r3, [pc, #168]	; (8006ef0 <USART_Init+0x290>)
 8006e46:	429a      	cmp	r2, r3
 8006e48:	d102      	bne.n	8006e50 <USART_Init+0x1f0>
  {
    apbclock = RCC_ClocksStatus.PCLK2_Frequency;
 8006e4a:	697b      	ldr	r3, [r7, #20]
 8006e4c:	623b      	str	r3, [r7, #32]
 8006e4e:	e001      	b.n	8006e54 <USART_Init+0x1f4>
  }
  else
  {
    apbclock = RCC_ClocksStatus.PCLK1_Frequency;
 8006e50:	693b      	ldr	r3, [r7, #16]
 8006e52:	623b      	str	r3, [r7, #32]
  }
  
  /* Determine the integer part */
  if ((USARTx->CR1 & USART_CR1_OVER8) != 0)
 8006e54:	687b      	ldr	r3, [r7, #4]
 8006e56:	899b      	ldrh	r3, [r3, #12]
 8006e58:	b29b      	uxth	r3, r3
 8006e5a:	b29b      	uxth	r3, r3
 8006e5c:	b21b      	sxth	r3, r3
 8006e5e:	2b00      	cmp	r3, #0
 8006e60:	da0c      	bge.n	8006e7c <USART_Init+0x21c>
  {
    /* Integer part computing in case Oversampling mode is 8 Samples */
    integerdivider = ((25 * apbclock) / (2 * (USART_InitStruct->USART_BaudRate)));    
 8006e62:	6a3a      	ldr	r2, [r7, #32]
 8006e64:	4613      	mov	r3, r2
 8006e66:	009b      	lsls	r3, r3, #2
 8006e68:	4413      	add	r3, r2
 8006e6a:	009a      	lsls	r2, r3, #2
 8006e6c:	441a      	add	r2, r3
 8006e6e:	683b      	ldr	r3, [r7, #0]
 8006e70:	681b      	ldr	r3, [r3, #0]
 8006e72:	005b      	lsls	r3, r3, #1
 8006e74:	fbb2 f3f3 	udiv	r3, r2, r3
 8006e78:	61fb      	str	r3, [r7, #28]
 8006e7a:	e00b      	b.n	8006e94 <USART_Init+0x234>
  }
  else /* if ((USARTx->CR1 & USART_CR1_OVER8) == 0) */
  {
    /* Integer part computing in case Oversampling mode is 16 Samples */
    integerdivider = ((25 * apbclock) / (4 * (USART_InitStruct->USART_BaudRate)));    
 8006e7c:	6a3a      	ldr	r2, [r7, #32]
 8006e7e:	4613      	mov	r3, r2
 8006e80:	009b      	lsls	r3, r3, #2
 8006e82:	4413      	add	r3, r2
 8006e84:	009a      	lsls	r2, r3, #2
 8006e86:	441a      	add	r2, r3
 8006e88:	683b      	ldr	r3, [r7, #0]
 8006e8a:	681b      	ldr	r3, [r3, #0]
 8006e8c:	009b      	lsls	r3, r3, #2
 8006e8e:	fbb2 f3f3 	udiv	r3, r2, r3
 8006e92:	61fb      	str	r3, [r7, #28]
  }
  tmpreg = (integerdivider / 100) << 4;
 8006e94:	69fa      	ldr	r2, [r7, #28]
 8006e96:	4b19      	ldr	r3, [pc, #100]	; (8006efc <USART_Init+0x29c>)
 8006e98:	fba3 1302 	umull	r1, r3, r3, r2
 8006e9c:	095b      	lsrs	r3, r3, #5
 8006e9e:	011b      	lsls	r3, r3, #4
 8006ea0:	627b      	str	r3, [r7, #36]	; 0x24

  /* Determine the fractional part */
  fractionaldivider = integerdivider - (100 * (tmpreg >> 4));
 8006ea2:	6a7b      	ldr	r3, [r7, #36]	; 0x24
 8006ea4:	091b      	lsrs	r3, r3, #4
 8006ea6:	2264      	movs	r2, #100	; 0x64
 8006ea8:	fb02 f303 	mul.w	r3, r2, r3
 8006eac:	69fa      	ldr	r2, [r7, #28]
 8006eae:	1ad3      	subs	r3, r2, r3
 8006eb0:	61bb      	str	r3, [r7, #24]

  /* Implement the fractional part in the register */
  if ((USARTx->CR1 & USART_CR1_OVER8) != 0)
 8006eb2:	687b      	ldr	r3, [r7, #4]
 8006eb4:	899b      	ldrh	r3, [r3, #12]
 8006eb6:	b29b      	uxth	r3, r3
 8006eb8:	b29b      	uxth	r3, r3
 8006eba:	b21b      	sxth	r3, r3
 8006ebc:	2b00      	cmp	r3, #0
 8006ebe:	da1f      	bge.n	8006f00 <USART_Init+0x2a0>
  {
    tmpreg |= ((((fractionaldivider * 8) + 50) / 100)) & ((uint8_t)0x07);
 8006ec0:	69bb      	ldr	r3, [r7, #24]
 8006ec2:	00db      	lsls	r3, r3, #3
 8006ec4:	f103 0232 	add.w	r2, r3, #50	; 0x32
 8006ec8:	4b0c      	ldr	r3, [pc, #48]	; (8006efc <USART_Init+0x29c>)
 8006eca:	fba3 1302 	umull	r1, r3, r3, r2
 8006ece:	095b      	lsrs	r3, r3, #5
 8006ed0:	f003 0307 	and.w	r3, r3, #7
 8006ed4:	6a7a      	ldr	r2, [r7, #36]	; 0x24
 8006ed6:	4313      	orrs	r3, r2
 8006ed8:	627b      	str	r3, [r7, #36]	; 0x24
 8006eda:	e01e      	b.n	8006f1a <USART_Init+0x2ba>
 8006edc:	40011000 	.word	0x40011000
 8006ee0:	40004400 	.word	0x40004400
 8006ee4:	40004800 	.word	0x40004800
 8006ee8:	40004c00 	.word	0x40004c00
 8006eec:	40005000 	.word	0x40005000
 8006ef0:	40011400 	.word	0x40011400
 8006ef4:	08007cc0 	.word	0x08007cc0
 8006ef8:	007270e0 	.word	0x007270e0
 8006efc:	51eb851f 	.word	0x51eb851f
  }
  else /* if ((USARTx->CR1 & USART_CR1_OVER8) == 0) */
  {
    tmpreg |= ((((fractionaldivider * 16) + 50) / 100)) & ((uint8_t)0x0F);
 8006f00:	69bb      	ldr	r3, [r7, #24]
 8006f02:	011b      	lsls	r3, r3, #4
 8006f04:	f103 0232 	add.w	r2, r3, #50	; 0x32
 8006f08:	4b07      	ldr	r3, [pc, #28]	; (8006f28 <USART_Init+0x2c8>)
 8006f0a:	fba3 1302 	umull	r1, r3, r3, r2
 8006f0e:	095b      	lsrs	r3, r3, #5
 8006f10:	f003 030f 	and.w	r3, r3, #15
 8006f14:	6a7a      	ldr	r2, [r7, #36]	; 0x24
 8006f16:	4313      	orrs	r3, r2
 8006f18:	627b      	str	r3, [r7, #36]	; 0x24
  }
  
  /* Write to USART BRR register */
  USARTx->BRR = (uint16_t)tmpreg;
 8006f1a:	6a7b      	ldr	r3, [r7, #36]	; 0x24
 8006f1c:	b29a      	uxth	r2, r3
 8006f1e:	687b      	ldr	r3, [r7, #4]
 8006f20:	811a      	strh	r2, [r3, #8]
}
 8006f22:	3728      	adds	r7, #40	; 0x28
 8006f24:	46bd      	mov	sp, r7
 8006f26:	bd80      	pop	{r7, pc}
 8006f28:	51eb851f 	.word	0x51eb851f

08006f2c <USART_Cmd>:
  * @param  NewState: new state of the USARTx peripheral.
  *          This parameter can be: ENABLE or DISABLE.
  * @retval None
  */
void USART_Cmd(USART_TypeDef* USARTx, FunctionalState NewState)
{
 8006f2c:	b580      	push	{r7, lr}
 8006f2e:	b082      	sub	sp, #8
 8006f30:	af00      	add	r7, sp, #0
 8006f32:	6078      	str	r0, [r7, #4]
 8006f34:	460b      	mov	r3, r1
 8006f36:	70fb      	strb	r3, [r7, #3]
  /* Check the parameters */
  assert_param(IS_USART_ALL_PERIPH(USARTx));
 8006f38:	687a      	ldr	r2, [r7, #4]
 8006f3a:	4b1f      	ldr	r3, [pc, #124]	; (8006fb8 <USART_Cmd+0x8c>)
 8006f3c:	429a      	cmp	r2, r3
 8006f3e:	d018      	beq.n	8006f72 <USART_Cmd+0x46>
 8006f40:	687a      	ldr	r2, [r7, #4]
 8006f42:	4b1e      	ldr	r3, [pc, #120]	; (8006fbc <USART_Cmd+0x90>)
 8006f44:	429a      	cmp	r2, r3
 8006f46:	d014      	beq.n	8006f72 <USART_Cmd+0x46>
 8006f48:	687a      	ldr	r2, [r7, #4]
 8006f4a:	4b1d      	ldr	r3, [pc, #116]	; (8006fc0 <USART_Cmd+0x94>)
 8006f4c:	429a      	cmp	r2, r3
 8006f4e:	d010      	beq.n	8006f72 <USART_Cmd+0x46>
 8006f50:	687a      	ldr	r2, [r7, #4]
 8006f52:	4b1c      	ldr	r3, [pc, #112]	; (8006fc4 <USART_Cmd+0x98>)
 8006f54:	429a      	cmp	r2, r3
 8006f56:	d00c      	beq.n	8006f72 <USART_Cmd+0x46>
 8006f58:	687a      	ldr	r2, [r7, #4]
 8006f5a:	4b1b      	ldr	r3, [pc, #108]	; (8006fc8 <USART_Cmd+0x9c>)
 8006f5c:	429a      	cmp	r2, r3
 8006f5e:	d008      	beq.n	8006f72 <USART_Cmd+0x46>
 8006f60:	687a      	ldr	r2, [r7, #4]
 8006f62:	4b1a      	ldr	r3, [pc, #104]	; (8006fcc <USART_Cmd+0xa0>)
 8006f64:	429a      	cmp	r2, r3
 8006f66:	d004      	beq.n	8006f72 <USART_Cmd+0x46>
 8006f68:	4819      	ldr	r0, [pc, #100]	; (8006fd0 <USART_Cmd+0xa4>)
 8006f6a:	f240 119b 	movw	r1, #411	; 0x19b
 8006f6e:	f7fb fae5 	bl	800253c <assert_failed>
  assert_param(IS_FUNCTIONAL_STATE(NewState));
 8006f72:	78fb      	ldrb	r3, [r7, #3]
 8006f74:	2b00      	cmp	r3, #0
 8006f76:	d007      	beq.n	8006f88 <USART_Cmd+0x5c>
 8006f78:	78fb      	ldrb	r3, [r7, #3]
 8006f7a:	2b01      	cmp	r3, #1
 8006f7c:	d004      	beq.n	8006f88 <USART_Cmd+0x5c>
 8006f7e:	4814      	ldr	r0, [pc, #80]	; (8006fd0 <USART_Cmd+0xa4>)
 8006f80:	f44f 71ce 	mov.w	r1, #412	; 0x19c
 8006f84:	f7fb fada 	bl	800253c <assert_failed>
  
  if (NewState != DISABLE)
 8006f88:	78fb      	ldrb	r3, [r7, #3]
 8006f8a:	2b00      	cmp	r3, #0
 8006f8c:	d008      	beq.n	8006fa0 <USART_Cmd+0x74>
  {
    /* Enable the selected USART by setting the UE bit in the CR1 register */
    USARTx->CR1 |= USART_CR1_UE;
 8006f8e:	687b      	ldr	r3, [r7, #4]
 8006f90:	899b      	ldrh	r3, [r3, #12]
 8006f92:	b29b      	uxth	r3, r3
 8006f94:	f443 5300 	orr.w	r3, r3, #8192	; 0x2000
 8006f98:	b29a      	uxth	r2, r3
 8006f9a:	687b      	ldr	r3, [r7, #4]
 8006f9c:	819a      	strh	r2, [r3, #12]
 8006f9e:	e007      	b.n	8006fb0 <USART_Cmd+0x84>
  }
  else
  {
    /* Disable the selected USART by clearing the UE bit in the CR1 register */
    USARTx->CR1 &= (uint16_t)~((uint16_t)USART_CR1_UE);
 8006fa0:	687b      	ldr	r3, [r7, #4]
 8006fa2:	899b      	ldrh	r3, [r3, #12]
 8006fa4:	b29b      	uxth	r3, r3
 8006fa6:	f423 5300 	bic.w	r3, r3, #8192	; 0x2000
 8006faa:	b29a      	uxth	r2, r3
 8006fac:	687b      	ldr	r3, [r7, #4]
 8006fae:	819a      	strh	r2, [r3, #12]
  }
}
 8006fb0:	3708      	adds	r7, #8
 8006fb2:	46bd      	mov	sp, r7
 8006fb4:	bd80      	pop	{r7, pc}
 8006fb6:	bf00      	nop
 8006fb8:	40011000 	.word	0x40011000
 8006fbc:	40004400 	.word	0x40004400
 8006fc0:	40004800 	.word	0x40004800
 8006fc4:	40004c00 	.word	0x40004c00
 8006fc8:	40005000 	.word	0x40005000
 8006fcc:	40011400 	.word	0x40011400
 8006fd0:	08007cc0 	.word	0x08007cc0

08006fd4 <USART_ITConfig>:
  * @param  NewState: new state of the specified USARTx interrupts.
  *          This parameter can be: ENABLE or DISABLE.
  * @retval None
  */
void USART_ITConfig(USART_TypeDef* USARTx, uint16_t USART_IT, FunctionalState NewState)
{
 8006fd4:	b580      	push	{r7, lr}
 8006fd6:	b086      	sub	sp, #24
 8006fd8:	af00      	add	r7, sp, #0
 8006fda:	6078      	str	r0, [r7, #4]
 8006fdc:	4613      	mov	r3, r2
 8006fde:	460a      	mov	r2, r1
 8006fe0:	807a      	strh	r2, [r7, #2]
 8006fe2:	707b      	strb	r3, [r7, #1]
  uint32_t usartreg = 0x00, itpos = 0x00, itmask = 0x00;
 8006fe4:	2300      	movs	r3, #0
 8006fe6:	613b      	str	r3, [r7, #16]
 8006fe8:	2300      	movs	r3, #0
 8006fea:	60fb      	str	r3, [r7, #12]
 8006fec:	2300      	movs	r3, #0
 8006fee:	60bb      	str	r3, [r7, #8]
  uint32_t usartxbase = 0x00;
 8006ff0:	2300      	movs	r3, #0
 8006ff2:	617b      	str	r3, [r7, #20]
  /* Check the parameters */
  assert_param(IS_USART_ALL_PERIPH(USARTx));
 8006ff4:	687a      	ldr	r2, [r7, #4]
 8006ff6:	4b4f      	ldr	r3, [pc, #316]	; (8007134 <USART_ITConfig+0x160>)
 8006ff8:	429a      	cmp	r2, r3
 8006ffa:	d018      	beq.n	800702e <USART_ITConfig+0x5a>
 8006ffc:	687a      	ldr	r2, [r7, #4]
 8006ffe:	4b4e      	ldr	r3, [pc, #312]	; (8007138 <USART_ITConfig+0x164>)
 8007000:	429a      	cmp	r2, r3
 8007002:	d014      	beq.n	800702e <USART_ITConfig+0x5a>
 8007004:	687a      	ldr	r2, [r7, #4]
 8007006:	4b4d      	ldr	r3, [pc, #308]	; (800713c <USART_ITConfig+0x168>)
 8007008:	429a      	cmp	r2, r3
 800700a:	d010      	beq.n	800702e <USART_ITConfig+0x5a>
 800700c:	687a      	ldr	r2, [r7, #4]
 800700e:	4b4c      	ldr	r3, [pc, #304]	; (8007140 <USART_ITConfig+0x16c>)
 8007010:	429a      	cmp	r2, r3
 8007012:	d00c      	beq.n	800702e <USART_ITConfig+0x5a>
 8007014:	687a      	ldr	r2, [r7, #4]
 8007016:	4b4b      	ldr	r3, [pc, #300]	; (8007144 <USART_ITConfig+0x170>)
 8007018:	429a      	cmp	r2, r3
 800701a:	d008      	beq.n	800702e <USART_ITConfig+0x5a>
 800701c:	687a      	ldr	r2, [r7, #4]
 800701e:	4b4a      	ldr	r3, [pc, #296]	; (8007148 <USART_ITConfig+0x174>)
 8007020:	429a      	cmp	r2, r3
 8007022:	d004      	beq.n	800702e <USART_ITConfig+0x5a>
 8007024:	4849      	ldr	r0, [pc, #292]	; (800714c <USART_ITConfig+0x178>)
 8007026:	f240 41bd 	movw	r1, #1213	; 0x4bd
 800702a:	f7fb fa87 	bl	800253c <assert_failed>
  assert_param(IS_USART_CONFIG_IT(USART_IT));
 800702e:	887b      	ldrh	r3, [r7, #2]
 8007030:	2b28      	cmp	r3, #40	; 0x28
 8007032:	d025      	beq.n	8007080 <USART_ITConfig+0xac>
 8007034:	887a      	ldrh	r2, [r7, #2]
 8007036:	f240 7327 	movw	r3, #1831	; 0x727
 800703a:	429a      	cmp	r2, r3
 800703c:	d020      	beq.n	8007080 <USART_ITConfig+0xac>
 800703e:	887a      	ldrh	r2, [r7, #2]
 8007040:	f240 6326 	movw	r3, #1574	; 0x626
 8007044:	429a      	cmp	r2, r3
 8007046:	d01b      	beq.n	8007080 <USART_ITConfig+0xac>
 8007048:	887a      	ldrh	r2, [r7, #2]
 800704a:	f240 5325 	movw	r3, #1317	; 0x525
 800704e:	429a      	cmp	r2, r3
 8007050:	d016      	beq.n	8007080 <USART_ITConfig+0xac>
 8007052:	887a      	ldrh	r2, [r7, #2]
 8007054:	f240 4324 	movw	r3, #1060	; 0x424
 8007058:	429a      	cmp	r2, r3
 800705a:	d011      	beq.n	8007080 <USART_ITConfig+0xac>
 800705c:	887a      	ldrh	r2, [r7, #2]
 800705e:	f640 0346 	movw	r3, #2118	; 0x846
 8007062:	429a      	cmp	r2, r3
 8007064:	d00c      	beq.n	8007080 <USART_ITConfig+0xac>
 8007066:	887a      	ldrh	r2, [r7, #2]
 8007068:	f640 136a 	movw	r3, #2410	; 0x96a
 800706c:	429a      	cmp	r2, r3
 800706e:	d007      	beq.n	8007080 <USART_ITConfig+0xac>
 8007070:	887b      	ldrh	r3, [r7, #2]
 8007072:	2b60      	cmp	r3, #96	; 0x60
 8007074:	d004      	beq.n	8007080 <USART_ITConfig+0xac>
 8007076:	4835      	ldr	r0, [pc, #212]	; (800714c <USART_ITConfig+0x178>)
 8007078:	f240 41be 	movw	r1, #1214	; 0x4be
 800707c:	f7fb fa5e 	bl	800253c <assert_failed>
  assert_param(IS_FUNCTIONAL_STATE(NewState));
 8007080:	787b      	ldrb	r3, [r7, #1]
 8007082:	2b00      	cmp	r3, #0
 8007084:	d007      	beq.n	8007096 <USART_ITConfig+0xc2>
 8007086:	787b      	ldrb	r3, [r7, #1]
 8007088:	2b01      	cmp	r3, #1
 800708a:	d004      	beq.n	8007096 <USART_ITConfig+0xc2>
 800708c:	482f      	ldr	r0, [pc, #188]	; (800714c <USART_ITConfig+0x178>)
 800708e:	f240 41bf 	movw	r1, #1215	; 0x4bf
 8007092:	f7fb fa53 	bl	800253c <assert_failed>

  /* The CTS interrupt is not available for UART4 and UART5 */
  if (USART_IT == USART_IT_CTS)
 8007096:	887a      	ldrh	r2, [r7, #2]
 8007098:	f640 136a 	movw	r3, #2410	; 0x96a
 800709c:	429a      	cmp	r2, r3
 800709e:	d114      	bne.n	80070ca <USART_ITConfig+0xf6>
  {
    assert_param(IS_USART_1236_PERIPH(USARTx));
 80070a0:	687a      	ldr	r2, [r7, #4]
 80070a2:	4b24      	ldr	r3, [pc, #144]	; (8007134 <USART_ITConfig+0x160>)
 80070a4:	429a      	cmp	r2, r3
 80070a6:	d010      	beq.n	80070ca <USART_ITConfig+0xf6>
 80070a8:	687a      	ldr	r2, [r7, #4]
 80070aa:	4b23      	ldr	r3, [pc, #140]	; (8007138 <USART_ITConfig+0x164>)
 80070ac:	429a      	cmp	r2, r3
 80070ae:	d00c      	beq.n	80070ca <USART_ITConfig+0xf6>
 80070b0:	687a      	ldr	r2, [r7, #4]
 80070b2:	4b22      	ldr	r3, [pc, #136]	; (800713c <USART_ITConfig+0x168>)
 80070b4:	429a      	cmp	r2, r3
 80070b6:	d008      	beq.n	80070ca <USART_ITConfig+0xf6>
 80070b8:	687a      	ldr	r2, [r7, #4]
 80070ba:	4b23      	ldr	r3, [pc, #140]	; (8007148 <USART_ITConfig+0x174>)
 80070bc:	429a      	cmp	r2, r3
 80070be:	d004      	beq.n	80070ca <USART_ITConfig+0xf6>
 80070c0:	4822      	ldr	r0, [pc, #136]	; (800714c <USART_ITConfig+0x178>)
 80070c2:	f240 41c4 	movw	r1, #1220	; 0x4c4
 80070c6:	f7fb fa39 	bl	800253c <assert_failed>
  } 
    
  usartxbase = (uint32_t)USARTx;
 80070ca:	687b      	ldr	r3, [r7, #4]
 80070cc:	617b      	str	r3, [r7, #20]

  /* Get the USART register index */
  usartreg = (((uint8_t)USART_IT) >> 0x05);
 80070ce:	887b      	ldrh	r3, [r7, #2]
 80070d0:	b2db      	uxtb	r3, r3
 80070d2:	095b      	lsrs	r3, r3, #5
 80070d4:	b2db      	uxtb	r3, r3
 80070d6:	613b      	str	r3, [r7, #16]

  /* Get the interrupt position */
  itpos = USART_IT & IT_MASK;
 80070d8:	887b      	ldrh	r3, [r7, #2]
 80070da:	f003 031f 	and.w	r3, r3, #31
 80070de:	60fb      	str	r3, [r7, #12]
  itmask = (((uint32_t)0x01) << itpos);
 80070e0:	68fb      	ldr	r3, [r7, #12]
 80070e2:	2201      	movs	r2, #1
 80070e4:	fa02 f303 	lsl.w	r3, r2, r3
 80070e8:	60bb      	str	r3, [r7, #8]
    
  if (usartreg == 0x01) /* The IT is in CR1 register */
 80070ea:	693b      	ldr	r3, [r7, #16]
 80070ec:	2b01      	cmp	r3, #1
 80070ee:	d103      	bne.n	80070f8 <USART_ITConfig+0x124>
  {
    usartxbase += 0x0C;
 80070f0:	697b      	ldr	r3, [r7, #20]
 80070f2:	330c      	adds	r3, #12
 80070f4:	617b      	str	r3, [r7, #20]
 80070f6:	e009      	b.n	800710c <USART_ITConfig+0x138>
  }
  else if (usartreg == 0x02) /* The IT is in CR2 register */
 80070f8:	693b      	ldr	r3, [r7, #16]
 80070fa:	2b02      	cmp	r3, #2
 80070fc:	d103      	bne.n	8007106 <USART_ITConfig+0x132>
  {
    usartxbase += 0x10;
 80070fe:	697b      	ldr	r3, [r7, #20]
 8007100:	3310      	adds	r3, #16
 8007102:	617b      	str	r3, [r7, #20]
 8007104:	e002      	b.n	800710c <USART_ITConfig+0x138>
  }
  else /* The IT is in CR3 register */
  {
    usartxbase += 0x14; 
 8007106:	697b      	ldr	r3, [r7, #20]
 8007108:	3314      	adds	r3, #20
 800710a:	617b      	str	r3, [r7, #20]
  }
  if (NewState != DISABLE)
 800710c:	787b      	ldrb	r3, [r7, #1]
 800710e:	2b00      	cmp	r3, #0
 8007110:	d006      	beq.n	8007120 <USART_ITConfig+0x14c>
  {
    *(__IO uint32_t*)usartxbase  |= itmask;
 8007112:	697b      	ldr	r3, [r7, #20]
 8007114:	697a      	ldr	r2, [r7, #20]
 8007116:	6811      	ldr	r1, [r2, #0]
 8007118:	68ba      	ldr	r2, [r7, #8]
 800711a:	430a      	orrs	r2, r1
 800711c:	601a      	str	r2, [r3, #0]
 800711e:	e006      	b.n	800712e <USART_ITConfig+0x15a>
  }
  else
  {
    *(__IO uint32_t*)usartxbase &= ~itmask;
 8007120:	697b      	ldr	r3, [r7, #20]
 8007122:	697a      	ldr	r2, [r7, #20]
 8007124:	6811      	ldr	r1, [r2, #0]
 8007126:	68ba      	ldr	r2, [r7, #8]
 8007128:	43d2      	mvns	r2, r2
 800712a:	400a      	ands	r2, r1
 800712c:	601a      	str	r2, [r3, #0]
  }
}
 800712e:	3718      	adds	r7, #24
 8007130:	46bd      	mov	sp, r7
 8007132:	bd80      	pop	{r7, pc}
 8007134:	40011000 	.word	0x40011000
 8007138:	40004400 	.word	0x40004400
 800713c:	40004800 	.word	0x40004800
 8007140:	40004c00 	.word	0x40004c00
 8007144:	40005000 	.word	0x40005000
 8007148:	40011400 	.word	0x40011400
 800714c:	08007cc0 	.word	0x08007cc0

08007150 <USART_GetITStatus>:
  *            @arg USART_IT_FE:   Framing Error interrupt
  *            @arg USART_IT_PE:   Parity Error interrupt
  * @retval The new state of USART_IT (SET or RESET).
  */
ITStatus USART_GetITStatus(USART_TypeDef* USARTx, uint16_t USART_IT)
{
 8007150:	b580      	push	{r7, lr}
 8007152:	b086      	sub	sp, #24
 8007154:	af00      	add	r7, sp, #0
 8007156:	6078      	str	r0, [r7, #4]
 8007158:	460b      	mov	r3, r1
 800715a:	807b      	strh	r3, [r7, #2]
  uint32_t bitpos = 0x00, itmask = 0x00, usartreg = 0x00;
 800715c:	2300      	movs	r3, #0
 800715e:	60fb      	str	r3, [r7, #12]
 8007160:	2300      	movs	r3, #0
 8007162:	617b      	str	r3, [r7, #20]
 8007164:	2300      	movs	r3, #0
 8007166:	60bb      	str	r3, [r7, #8]
  ITStatus bitstatus = RESET;
 8007168:	2300      	movs	r3, #0
 800716a:	74fb      	strb	r3, [r7, #19]
  /* Check the parameters */
  assert_param(IS_USART_ALL_PERIPH(USARTx));
 800716c:	687a      	ldr	r2, [r7, #4]
 800716e:	4b5c      	ldr	r3, [pc, #368]	; (80072e0 <USART_GetITStatus+0x190>)
 8007170:	429a      	cmp	r2, r3
 8007172:	d018      	beq.n	80071a6 <USART_GetITStatus+0x56>
 8007174:	687a      	ldr	r2, [r7, #4]
 8007176:	4b5b      	ldr	r3, [pc, #364]	; (80072e4 <USART_GetITStatus+0x194>)
 8007178:	429a      	cmp	r2, r3
 800717a:	d014      	beq.n	80071a6 <USART_GetITStatus+0x56>
 800717c:	687a      	ldr	r2, [r7, #4]
 800717e:	4b5a      	ldr	r3, [pc, #360]	; (80072e8 <USART_GetITStatus+0x198>)
 8007180:	429a      	cmp	r2, r3
 8007182:	d010      	beq.n	80071a6 <USART_GetITStatus+0x56>
 8007184:	687a      	ldr	r2, [r7, #4]
 8007186:	4b59      	ldr	r3, [pc, #356]	; (80072ec <USART_GetITStatus+0x19c>)
 8007188:	429a      	cmp	r2, r3
 800718a:	d00c      	beq.n	80071a6 <USART_GetITStatus+0x56>
 800718c:	687a      	ldr	r2, [r7, #4]
 800718e:	4b58      	ldr	r3, [pc, #352]	; (80072f0 <USART_GetITStatus+0x1a0>)
 8007190:	429a      	cmp	r2, r3
 8007192:	d008      	beq.n	80071a6 <USART_GetITStatus+0x56>
 8007194:	687a      	ldr	r2, [r7, #4]
 8007196:	4b57      	ldr	r3, [pc, #348]	; (80072f4 <USART_GetITStatus+0x1a4>)
 8007198:	429a      	cmp	r2, r3
 800719a:	d004      	beq.n	80071a6 <USART_GetITStatus+0x56>
 800719c:	4856      	ldr	r0, [pc, #344]	; (80072f8 <USART_GetITStatus+0x1a8>)
 800719e:	f44f 61aa 	mov.w	r1, #1360	; 0x550
 80071a2:	f7fb f9cb 	bl	800253c <assert_failed>
  assert_param(IS_USART_GET_IT(USART_IT)); 
 80071a6:	887b      	ldrh	r3, [r7, #2]
 80071a8:	2b28      	cmp	r3, #40	; 0x28
 80071aa:	d037      	beq.n	800721c <USART_GetITStatus+0xcc>
 80071ac:	887a      	ldrh	r2, [r7, #2]
 80071ae:	f240 7327 	movw	r3, #1831	; 0x727
 80071b2:	429a      	cmp	r2, r3
 80071b4:	d032      	beq.n	800721c <USART_GetITStatus+0xcc>
 80071b6:	887a      	ldrh	r2, [r7, #2]
 80071b8:	f240 6326 	movw	r3, #1574	; 0x626
 80071bc:	429a      	cmp	r2, r3
 80071be:	d02d      	beq.n	800721c <USART_GetITStatus+0xcc>
 80071c0:	887a      	ldrh	r2, [r7, #2]
 80071c2:	f240 5325 	movw	r3, #1317	; 0x525
 80071c6:	429a      	cmp	r2, r3
 80071c8:	d028      	beq.n	800721c <USART_GetITStatus+0xcc>
 80071ca:	887a      	ldrh	r2, [r7, #2]
 80071cc:	f240 4324 	movw	r3, #1060	; 0x424
 80071d0:	429a      	cmp	r2, r3
 80071d2:	d023      	beq.n	800721c <USART_GetITStatus+0xcc>
 80071d4:	887a      	ldrh	r2, [r7, #2]
 80071d6:	f640 0346 	movw	r3, #2118	; 0x846
 80071da:	429a      	cmp	r2, r3
 80071dc:	d01e      	beq.n	800721c <USART_GetITStatus+0xcc>
 80071de:	887a      	ldrh	r2, [r7, #2]
 80071e0:	f640 136a 	movw	r3, #2410	; 0x96a
 80071e4:	429a      	cmp	r2, r3
 80071e6:	d019      	beq.n	800721c <USART_GetITStatus+0xcc>
 80071e8:	887b      	ldrh	r3, [r7, #2]
 80071ea:	f5b3 7f58 	cmp.w	r3, #864	; 0x360
 80071ee:	d015      	beq.n	800721c <USART_GetITStatus+0xcc>
 80071f0:	887a      	ldrh	r2, [r7, #2]
 80071f2:	f240 3325 	movw	r3, #805	; 0x325
 80071f6:	429a      	cmp	r2, r3
 80071f8:	d010      	beq.n	800721c <USART_GetITStatus+0xcc>
 80071fa:	887b      	ldrh	r3, [r7, #2]
 80071fc:	f5b3 7f58 	cmp.w	r3, #864	; 0x360
 8007200:	d00c      	beq.n	800721c <USART_GetITStatus+0xcc>
 8007202:	887b      	ldrh	r3, [r7, #2]
 8007204:	f5b3 7f18 	cmp.w	r3, #608	; 0x260
 8007208:	d008      	beq.n	800721c <USART_GetITStatus+0xcc>
 800720a:	887b      	ldrh	r3, [r7, #2]
 800720c:	f5b3 7fb0 	cmp.w	r3, #352	; 0x160
 8007210:	d004      	beq.n	800721c <USART_GetITStatus+0xcc>
 8007212:	4839      	ldr	r0, [pc, #228]	; (80072f8 <USART_GetITStatus+0x1a8>)
 8007214:	f240 5151 	movw	r1, #1361	; 0x551
 8007218:	f7fb f990 	bl	800253c <assert_failed>

  /* The CTS interrupt is not available for UART4 and UART5 */ 
  if (USART_IT == USART_IT_CTS)
 800721c:	887a      	ldrh	r2, [r7, #2]
 800721e:	f640 136a 	movw	r3, #2410	; 0x96a
 8007222:	429a      	cmp	r2, r3
 8007224:	d114      	bne.n	8007250 <USART_GetITStatus+0x100>
  {
    assert_param(IS_USART_1236_PERIPH(USARTx));
 8007226:	687a      	ldr	r2, [r7, #4]
 8007228:	4b2d      	ldr	r3, [pc, #180]	; (80072e0 <USART_GetITStatus+0x190>)
 800722a:	429a      	cmp	r2, r3
 800722c:	d010      	beq.n	8007250 <USART_GetITStatus+0x100>
 800722e:	687a      	ldr	r2, [r7, #4]
 8007230:	4b2c      	ldr	r3, [pc, #176]	; (80072e4 <USART_GetITStatus+0x194>)
 8007232:	429a      	cmp	r2, r3
 8007234:	d00c      	beq.n	8007250 <USART_GetITStatus+0x100>
 8007236:	687a      	ldr	r2, [r7, #4]
 8007238:	4b2b      	ldr	r3, [pc, #172]	; (80072e8 <USART_GetITStatus+0x198>)
 800723a:	429a      	cmp	r2, r3
 800723c:	d008      	beq.n	8007250 <USART_GetITStatus+0x100>
 800723e:	687a      	ldr	r2, [r7, #4]
 8007240:	4b2c      	ldr	r3, [pc, #176]	; (80072f4 <USART_GetITStatus+0x1a4>)
 8007242:	429a      	cmp	r2, r3
 8007244:	d004      	beq.n	8007250 <USART_GetITStatus+0x100>
 8007246:	482c      	ldr	r0, [pc, #176]	; (80072f8 <USART_GetITStatus+0x1a8>)
 8007248:	f240 5156 	movw	r1, #1366	; 0x556
 800724c:	f7fb f976 	bl	800253c <assert_failed>
  } 
    
  /* Get the USART register index */
  usartreg = (((uint8_t)USART_IT) >> 0x05);
 8007250:	887b      	ldrh	r3, [r7, #2]
 8007252:	b2db      	uxtb	r3, r3
 8007254:	095b      	lsrs	r3, r3, #5
 8007256:	b2db      	uxtb	r3, r3
 8007258:	60bb      	str	r3, [r7, #8]
  /* Get the interrupt position */
  itmask = USART_IT & IT_MASK;
 800725a:	887b      	ldrh	r3, [r7, #2]
 800725c:	f003 031f 	and.w	r3, r3, #31
 8007260:	617b      	str	r3, [r7, #20]
  itmask = (uint32_t)0x01 << itmask;
 8007262:	697b      	ldr	r3, [r7, #20]
 8007264:	2201      	movs	r2, #1
 8007266:	fa02 f303 	lsl.w	r3, r2, r3
 800726a:	617b      	str	r3, [r7, #20]
  
  if (usartreg == 0x01) /* The IT  is in CR1 register */
 800726c:	68bb      	ldr	r3, [r7, #8]
 800726e:	2b01      	cmp	r3, #1
 8007270:	d106      	bne.n	8007280 <USART_GetITStatus+0x130>
  {
    itmask &= USARTx->CR1;
 8007272:	687b      	ldr	r3, [r7, #4]
 8007274:	899b      	ldrh	r3, [r3, #12]
 8007276:	b29b      	uxth	r3, r3
 8007278:	697a      	ldr	r2, [r7, #20]
 800727a:	4013      	ands	r3, r2
 800727c:	617b      	str	r3, [r7, #20]
 800727e:	e00f      	b.n	80072a0 <USART_GetITStatus+0x150>
  }
  else if (usartreg == 0x02) /* The IT  is in CR2 register */
 8007280:	68bb      	ldr	r3, [r7, #8]
 8007282:	2b02      	cmp	r3, #2
 8007284:	d106      	bne.n	8007294 <USART_GetITStatus+0x144>
  {
    itmask &= USARTx->CR2;
 8007286:	687b      	ldr	r3, [r7, #4]
 8007288:	8a1b      	ldrh	r3, [r3, #16]
 800728a:	b29b      	uxth	r3, r3
 800728c:	697a      	ldr	r2, [r7, #20]
 800728e:	4013      	ands	r3, r2
 8007290:	617b      	str	r3, [r7, #20]
 8007292:	e005      	b.n	80072a0 <USART_GetITStatus+0x150>
  }
  else /* The IT  is in CR3 register */
  {
    itmask &= USARTx->CR3;
 8007294:	687b      	ldr	r3, [r7, #4]
 8007296:	8a9b      	ldrh	r3, [r3, #20]
 8007298:	b29b      	uxth	r3, r3
 800729a:	697a      	ldr	r2, [r7, #20]
 800729c:	4013      	ands	r3, r2
 800729e:	617b      	str	r3, [r7, #20]
  }
  
  bitpos = USART_IT >> 0x08;
 80072a0:	887b      	ldrh	r3, [r7, #2]
 80072a2:	0a1b      	lsrs	r3, r3, #8
 80072a4:	b29b      	uxth	r3, r3
 80072a6:	60fb      	str	r3, [r7, #12]
  bitpos = (uint32_t)0x01 << bitpos;
 80072a8:	68fb      	ldr	r3, [r7, #12]
 80072aa:	2201      	movs	r2, #1
 80072ac:	fa02 f303 	lsl.w	r3, r2, r3
 80072b0:	60fb      	str	r3, [r7, #12]
  bitpos &= USARTx->SR;
 80072b2:	687b      	ldr	r3, [r7, #4]
 80072b4:	881b      	ldrh	r3, [r3, #0]
 80072b6:	b29b      	uxth	r3, r3
 80072b8:	68fa      	ldr	r2, [r7, #12]
 80072ba:	4013      	ands	r3, r2
 80072bc:	60fb      	str	r3, [r7, #12]
  if ((itmask != (uint16_t)RESET)&&(bitpos != (uint16_t)RESET))
 80072be:	697b      	ldr	r3, [r7, #20]
 80072c0:	2b00      	cmp	r3, #0
 80072c2:	d005      	beq.n	80072d0 <USART_GetITStatus+0x180>
 80072c4:	68fb      	ldr	r3, [r7, #12]
 80072c6:	2b00      	cmp	r3, #0
 80072c8:	d002      	beq.n	80072d0 <USART_GetITStatus+0x180>
  {
    bitstatus = SET;
 80072ca:	2301      	movs	r3, #1
 80072cc:	74fb      	strb	r3, [r7, #19]
 80072ce:	e001      	b.n	80072d4 <USART_GetITStatus+0x184>
  }
  else
  {
    bitstatus = RESET;
 80072d0:	2300      	movs	r3, #0
 80072d2:	74fb      	strb	r3, [r7, #19]
  }
  
  return bitstatus;  
 80072d4:	7cfb      	ldrb	r3, [r7, #19]
}
 80072d6:	4618      	mov	r0, r3
 80072d8:	3718      	adds	r7, #24
 80072da:	46bd      	mov	sp, r7
 80072dc:	bd80      	pop	{r7, pc}
 80072de:	bf00      	nop
 80072e0:	40011000 	.word	0x40011000
 80072e4:	40004400 	.word	0x40004400
 80072e8:	40004800 	.word	0x40004800
 80072ec:	40004c00 	.word	0x40004c00
 80072f0:	40005000 	.word	0x40005000
 80072f4:	40011400 	.word	0x40011400
 80072f8:	08007cc0 	.word	0x08007cc0

080072fc <atoi>:
 80072fc:	2100      	movs	r1, #0
 80072fe:	220a      	movs	r2, #10
 8007300:	f000 b9ec 	b.w	80076dc <strtol>

08007304 <__libc_init_array>:
 8007304:	b570      	push	{r4, r5, r6, lr}
 8007306:	4e0f      	ldr	r6, [pc, #60]	; (8007344 <__libc_init_array+0x40>)
 8007308:	4d0f      	ldr	r5, [pc, #60]	; (8007348 <__libc_init_array+0x44>)
 800730a:	1b76      	subs	r6, r6, r5
 800730c:	10b6      	asrs	r6, r6, #2
 800730e:	d007      	beq.n	8007320 <__libc_init_array+0x1c>
 8007310:	3d04      	subs	r5, #4
 8007312:	2400      	movs	r4, #0
 8007314:	3401      	adds	r4, #1
 8007316:	f855 3f04 	ldr.w	r3, [r5, #4]!
 800731a:	4798      	blx	r3
 800731c:	42a6      	cmp	r6, r4
 800731e:	d1f9      	bne.n	8007314 <__libc_init_array+0x10>
 8007320:	4e0a      	ldr	r6, [pc, #40]	; (800734c <__libc_init_array+0x48>)
 8007322:	4d0b      	ldr	r5, [pc, #44]	; (8007350 <__libc_init_array+0x4c>)
 8007324:	1b76      	subs	r6, r6, r5
 8007326:	f000 fd95 	bl	8007e54 <_init>
 800732a:	10b6      	asrs	r6, r6, #2
 800732c:	d008      	beq.n	8007340 <__libc_init_array+0x3c>
 800732e:	3d04      	subs	r5, #4
 8007330:	2400      	movs	r4, #0
 8007332:	3401      	adds	r4, #1
 8007334:	f855 3f04 	ldr.w	r3, [r5, #4]!
 8007338:	4798      	blx	r3
 800733a:	42a6      	cmp	r6, r4
 800733c:	d1f9      	bne.n	8007332 <__libc_init_array+0x2e>
 800733e:	bd70      	pop	{r4, r5, r6, pc}
 8007340:	bd70      	pop	{r4, r5, r6, pc}
 8007342:	bf00      	nop
 8007344:	08007e6c 	.word	0x08007e6c
 8007348:	08007e6c 	.word	0x08007e6c
 800734c:	08007e74 	.word	0x08007e74
 8007350:	08007e6c 	.word	0x08007e6c

08007354 <memcmp>:
 8007354:	2a03      	cmp	r2, #3
 8007356:	b470      	push	{r4, r5, r6}
 8007358:	d928      	bls.n	80073ac <memcmp+0x58>
 800735a:	ea40 0301 	orr.w	r3, r0, r1
 800735e:	079b      	lsls	r3, r3, #30
 8007360:	d013      	beq.n	800738a <memcmp+0x36>
 8007362:	7805      	ldrb	r5, [r0, #0]
 8007364:	780c      	ldrb	r4, [r1, #0]
 8007366:	42a5      	cmp	r5, r4
 8007368:	d124      	bne.n	80073b4 <memcmp+0x60>
 800736a:	3a01      	subs	r2, #1
 800736c:	2300      	movs	r3, #0
 800736e:	e005      	b.n	800737c <memcmp+0x28>
 8007370:	f810 5f01 	ldrb.w	r5, [r0, #1]!
 8007374:	f811 4f01 	ldrb.w	r4, [r1, #1]!
 8007378:	42a5      	cmp	r5, r4
 800737a:	d11b      	bne.n	80073b4 <memcmp+0x60>
 800737c:	4293      	cmp	r3, r2
 800737e:	f103 0301 	add.w	r3, r3, #1
 8007382:	d1f5      	bne.n	8007370 <memcmp+0x1c>
 8007384:	2000      	movs	r0, #0
 8007386:	bc70      	pop	{r4, r5, r6}
 8007388:	4770      	bx	lr
 800738a:	460c      	mov	r4, r1
 800738c:	4603      	mov	r3, r0
 800738e:	6825      	ldr	r5, [r4, #0]
 8007390:	681e      	ldr	r6, [r3, #0]
 8007392:	42ae      	cmp	r6, r5
 8007394:	4621      	mov	r1, r4
 8007396:	4618      	mov	r0, r3
 8007398:	f104 0404 	add.w	r4, r4, #4
 800739c:	f103 0304 	add.w	r3, r3, #4
 80073a0:	d104      	bne.n	80073ac <memcmp+0x58>
 80073a2:	3a04      	subs	r2, #4
 80073a4:	2a03      	cmp	r2, #3
 80073a6:	4618      	mov	r0, r3
 80073a8:	4621      	mov	r1, r4
 80073aa:	d8f0      	bhi.n	800738e <memcmp+0x3a>
 80073ac:	2a00      	cmp	r2, #0
 80073ae:	d1d8      	bne.n	8007362 <memcmp+0xe>
 80073b0:	4610      	mov	r0, r2
 80073b2:	e7e8      	b.n	8007386 <memcmp+0x32>
 80073b4:	1b28      	subs	r0, r5, r4
 80073b6:	bc70      	pop	{r4, r5, r6}
 80073b8:	4770      	bx	lr
 80073ba:	bf00      	nop

080073bc <memset>:
 80073bc:	b4f0      	push	{r4, r5, r6, r7}
 80073be:	0784      	lsls	r4, r0, #30
 80073c0:	d043      	beq.n	800744a <memset+0x8e>
 80073c2:	1e54      	subs	r4, r2, #1
 80073c4:	2a00      	cmp	r2, #0
 80073c6:	d03e      	beq.n	8007446 <memset+0x8a>
 80073c8:	b2cd      	uxtb	r5, r1
 80073ca:	4603      	mov	r3, r0
 80073cc:	e003      	b.n	80073d6 <memset+0x1a>
 80073ce:	1e62      	subs	r2, r4, #1
 80073d0:	2c00      	cmp	r4, #0
 80073d2:	d038      	beq.n	8007446 <memset+0x8a>
 80073d4:	4614      	mov	r4, r2
 80073d6:	f803 5b01 	strb.w	r5, [r3], #1
 80073da:	079a      	lsls	r2, r3, #30
 80073dc:	d1f7      	bne.n	80073ce <memset+0x12>
 80073de:	2c03      	cmp	r4, #3
 80073e0:	d92a      	bls.n	8007438 <memset+0x7c>
 80073e2:	b2cd      	uxtb	r5, r1
 80073e4:	ea45 2505 	orr.w	r5, r5, r5, lsl #8
 80073e8:	2c0f      	cmp	r4, #15
 80073ea:	ea45 4505 	orr.w	r5, r5, r5, lsl #16
 80073ee:	d915      	bls.n	800741c <memset+0x60>
 80073f0:	f1a4 0710 	sub.w	r7, r4, #16
 80073f4:	093f      	lsrs	r7, r7, #4
 80073f6:	f103 0610 	add.w	r6, r3, #16
 80073fa:	eb06 1607 	add.w	r6, r6, r7, lsl #4
 80073fe:	461a      	mov	r2, r3
 8007400:	6015      	str	r5, [r2, #0]
 8007402:	6055      	str	r5, [r2, #4]
 8007404:	6095      	str	r5, [r2, #8]
 8007406:	60d5      	str	r5, [r2, #12]
 8007408:	3210      	adds	r2, #16
 800740a:	42b2      	cmp	r2, r6
 800740c:	d1f8      	bne.n	8007400 <memset+0x44>
 800740e:	f004 040f 	and.w	r4, r4, #15
 8007412:	3701      	adds	r7, #1
 8007414:	2c03      	cmp	r4, #3
 8007416:	eb03 1307 	add.w	r3, r3, r7, lsl #4
 800741a:	d90d      	bls.n	8007438 <memset+0x7c>
 800741c:	461e      	mov	r6, r3
 800741e:	4622      	mov	r2, r4
 8007420:	3a04      	subs	r2, #4
 8007422:	2a03      	cmp	r2, #3
 8007424:	f846 5b04 	str.w	r5, [r6], #4
 8007428:	d8fa      	bhi.n	8007420 <memset+0x64>
 800742a:	1f22      	subs	r2, r4, #4
 800742c:	f022 0203 	bic.w	r2, r2, #3
 8007430:	3204      	adds	r2, #4
 8007432:	4413      	add	r3, r2
 8007434:	f004 0403 	and.w	r4, r4, #3
 8007438:	b12c      	cbz	r4, 8007446 <memset+0x8a>
 800743a:	b2c9      	uxtb	r1, r1
 800743c:	441c      	add	r4, r3
 800743e:	f803 1b01 	strb.w	r1, [r3], #1
 8007442:	42a3      	cmp	r3, r4
 8007444:	d1fb      	bne.n	800743e <memset+0x82>
 8007446:	bcf0      	pop	{r4, r5, r6, r7}
 8007448:	4770      	bx	lr
 800744a:	4614      	mov	r4, r2
 800744c:	4603      	mov	r3, r0
 800744e:	e7c6      	b.n	80073de <memset+0x22>

08007450 <strlen>:
 8007450:	f020 0103 	bic.w	r1, r0, #3
 8007454:	f010 0003 	ands.w	r0, r0, #3
 8007458:	f1c0 0000 	rsb	r0, r0, #0
 800745c:	f851 3b04 	ldr.w	r3, [r1], #4
 8007460:	f100 0c04 	add.w	ip, r0, #4
 8007464:	ea4f 0ccc 	mov.w	ip, ip, lsl #3
 8007468:	f06f 0200 	mvn.w	r2, #0
 800746c:	bf1c      	itt	ne
 800746e:	fa22 f20c 	lsrne.w	r2, r2, ip
 8007472:	4313      	orrne	r3, r2
 8007474:	f04f 0c01 	mov.w	ip, #1
 8007478:	ea4c 2c0c 	orr.w	ip, ip, ip, lsl #8
 800747c:	ea4c 4c0c 	orr.w	ip, ip, ip, lsl #16
 8007480:	eba3 020c 	sub.w	r2, r3, ip
 8007484:	ea22 0203 	bic.w	r2, r2, r3
 8007488:	ea12 12cc 	ands.w	r2, r2, ip, lsl #7
 800748c:	bf04      	itt	eq
 800748e:	f851 3b04 	ldreq.w	r3, [r1], #4
 8007492:	3004      	addeq	r0, #4
 8007494:	d0f4      	beq.n	8007480 <strlen+0x30>
 8007496:	f013 0fff 	tst.w	r3, #255	; 0xff
 800749a:	bf1f      	itttt	ne
 800749c:	3001      	addne	r0, #1
 800749e:	f413 4f7f 	tstne.w	r3, #65280	; 0xff00
 80074a2:	3001      	addne	r0, #1
 80074a4:	f413 0f7f 	tstne.w	r3, #16711680	; 0xff0000
 80074a8:	bf18      	it	ne
 80074aa:	3001      	addne	r0, #1
 80074ac:	4770      	bx	lr
 80074ae:	bf00      	nop

080074b0 <strncmp>:
 80074b0:	b430      	push	{r4, r5}
 80074b2:	2a00      	cmp	r2, #0
 80074b4:	d04a      	beq.n	800754c <strncmp+0x9c>
 80074b6:	ea40 0301 	orr.w	r3, r0, r1
 80074ba:	f013 0303 	ands.w	r3, r3, #3
 80074be:	d12d      	bne.n	800751c <strncmp+0x6c>
 80074c0:	2a03      	cmp	r2, #3
 80074c2:	d92b      	bls.n	800751c <strncmp+0x6c>
 80074c4:	6804      	ldr	r4, [r0, #0]
 80074c6:	680d      	ldr	r5, [r1, #0]
 80074c8:	42ac      	cmp	r4, r5
 80074ca:	d127      	bne.n	800751c <strncmp+0x6c>
 80074cc:	3a04      	subs	r2, #4
 80074ce:	d03d      	beq.n	800754c <strncmp+0x9c>
 80074d0:	f1a4 3501 	sub.w	r5, r4, #16843009	; 0x1010101
 80074d4:	ea25 0404 	bic.w	r4, r5, r4
 80074d8:	f014 3f80 	tst.w	r4, #2155905152	; 0x80808080
 80074dc:	d13c      	bne.n	8007558 <strncmp+0xa8>
 80074de:	460c      	mov	r4, r1
 80074e0:	4603      	mov	r3, r0
 80074e2:	e00e      	b.n	8007502 <strncmp+0x52>
 80074e4:	685b      	ldr	r3, [r3, #4]
 80074e6:	6864      	ldr	r4, [r4, #4]
 80074e8:	f1a3 3501 	sub.w	r5, r3, #16843009	; 0x1010101
 80074ec:	42a3      	cmp	r3, r4
 80074ee:	ea25 0503 	bic.w	r5, r5, r3
 80074f2:	d113      	bne.n	800751c <strncmp+0x6c>
 80074f4:	3a04      	subs	r2, #4
 80074f6:	d029      	beq.n	800754c <strncmp+0x9c>
 80074f8:	f015 3f80 	tst.w	r5, #2155905152	; 0x80808080
 80074fc:	d129      	bne.n	8007552 <strncmp+0xa2>
 80074fe:	4603      	mov	r3, r0
 8007500:	460c      	mov	r4, r1
 8007502:	2a03      	cmp	r2, #3
 8007504:	f100 0004 	add.w	r0, r0, #4
 8007508:	f101 0104 	add.w	r1, r1, #4
 800750c:	d8ea      	bhi.n	80074e4 <strncmp+0x34>
 800750e:	1e55      	subs	r5, r2, #1
 8007510:	b92a      	cbnz	r2, 800751e <strncmp+0x6e>
 8007512:	7918      	ldrb	r0, [r3, #4]
 8007514:	7922      	ldrb	r2, [r4, #4]
 8007516:	1a80      	subs	r0, r0, r2
 8007518:	bc30      	pop	{r4, r5}
 800751a:	4770      	bx	lr
 800751c:	1e55      	subs	r5, r2, #1
 800751e:	7803      	ldrb	r3, [r0, #0]
 8007520:	780a      	ldrb	r2, [r1, #0]
 8007522:	4293      	cmp	r3, r2
 8007524:	d11a      	bne.n	800755c <strncmp+0xac>
 8007526:	b1dd      	cbz	r5, 8007560 <strncmp+0xb0>
 8007528:	b1b3      	cbz	r3, 8007558 <strncmp+0xa8>
 800752a:	1c6c      	adds	r4, r5, #1
 800752c:	440c      	add	r4, r1
 800752e:	1c8b      	adds	r3, r1, #2
 8007530:	4601      	mov	r1, r0
 8007532:	e004      	b.n	800753e <strncmp+0x8e>
 8007534:	42a3      	cmp	r3, r4
 8007536:	d00c      	beq.n	8007552 <strncmp+0xa2>
 8007538:	3301      	adds	r3, #1
 800753a:	2800      	cmp	r0, #0
 800753c:	d0ec      	beq.n	8007518 <strncmp+0x68>
 800753e:	f811 0f01 	ldrb.w	r0, [r1, #1]!
 8007542:	f813 2c01 	ldrb.w	r2, [r3, #-1]
 8007546:	4290      	cmp	r0, r2
 8007548:	d0f4      	beq.n	8007534 <strncmp+0x84>
 800754a:	e7e4      	b.n	8007516 <strncmp+0x66>
 800754c:	4610      	mov	r0, r2
 800754e:	bc30      	pop	{r4, r5}
 8007550:	4770      	bx	lr
 8007552:	2000      	movs	r0, #0
 8007554:	bc30      	pop	{r4, r5}
 8007556:	4770      	bx	lr
 8007558:	4618      	mov	r0, r3
 800755a:	e7dd      	b.n	8007518 <strncmp+0x68>
 800755c:	4618      	mov	r0, r3
 800755e:	e7da      	b.n	8007516 <strncmp+0x66>
 8007560:	4628      	mov	r0, r5
 8007562:	e7d9      	b.n	8007518 <strncmp+0x68>

08007564 <strncpy>:
 8007564:	ea40 0301 	orr.w	r3, r0, r1
 8007568:	079b      	lsls	r3, r3, #30
 800756a:	b470      	push	{r4, r5, r6}
 800756c:	d12a      	bne.n	80075c4 <strncpy+0x60>
 800756e:	2a03      	cmp	r2, #3
 8007570:	d928      	bls.n	80075c4 <strncpy+0x60>
 8007572:	460c      	mov	r4, r1
 8007574:	4603      	mov	r3, r0
 8007576:	4621      	mov	r1, r4
 8007578:	f854 5b04 	ldr.w	r5, [r4], #4
 800757c:	f1a5 3601 	sub.w	r6, r5, #16843009	; 0x1010101
 8007580:	ea26 0605 	bic.w	r6, r6, r5
 8007584:	f016 3f80 	tst.w	r6, #2155905152	; 0x80808080
 8007588:	d105      	bne.n	8007596 <strncpy+0x32>
 800758a:	3a04      	subs	r2, #4
 800758c:	2a03      	cmp	r2, #3
 800758e:	f843 5b04 	str.w	r5, [r3], #4
 8007592:	4621      	mov	r1, r4
 8007594:	d8ef      	bhi.n	8007576 <strncpy+0x12>
 8007596:	b19a      	cbz	r2, 80075c0 <strncpy+0x5c>
 8007598:	780c      	ldrb	r4, [r1, #0]
 800759a:	701c      	strb	r4, [r3, #0]
 800759c:	3a01      	subs	r2, #1
 800759e:	3301      	adds	r3, #1
 80075a0:	b13c      	cbz	r4, 80075b2 <strncpy+0x4e>
 80075a2:	b16a      	cbz	r2, 80075c0 <strncpy+0x5c>
 80075a4:	f811 4f01 	ldrb.w	r4, [r1, #1]!
 80075a8:	f803 4b01 	strb.w	r4, [r3], #1
 80075ac:	3a01      	subs	r2, #1
 80075ae:	2c00      	cmp	r4, #0
 80075b0:	d1f7      	bne.n	80075a2 <strncpy+0x3e>
 80075b2:	b12a      	cbz	r2, 80075c0 <strncpy+0x5c>
 80075b4:	441a      	add	r2, r3
 80075b6:	2100      	movs	r1, #0
 80075b8:	f803 1b01 	strb.w	r1, [r3], #1
 80075bc:	4293      	cmp	r3, r2
 80075be:	d1fb      	bne.n	80075b8 <strncpy+0x54>
 80075c0:	bc70      	pop	{r4, r5, r6}
 80075c2:	4770      	bx	lr
 80075c4:	4603      	mov	r3, r0
 80075c6:	e7e6      	b.n	8007596 <strncpy+0x32>

080075c8 <_strtol_r>:
 80075c8:	e92d 0ff0 	stmdb	sp!, {r4, r5, r6, r7, r8, r9, sl, fp}
 80075cc:	4c42      	ldr	r4, [pc, #264]	; (80076d8 <_strtol_r+0x110>)
 80075ce:	b082      	sub	sp, #8
 80075d0:	f8d4 c000 	ldr.w	ip, [r4]
 80075d4:	9001      	str	r0, [sp, #4]
 80075d6:	460e      	mov	r6, r1
 80075d8:	e000      	b.n	80075dc <_strtol_r+0x14>
 80075da:	4626      	mov	r6, r4
 80075dc:	4634      	mov	r4, r6
 80075de:	f814 5b01 	ldrb.w	r5, [r4], #1
 80075e2:	eb0c 0005 	add.w	r0, ip, r5
 80075e6:	7840      	ldrb	r0, [r0, #1]
 80075e8:	f000 0008 	and.w	r0, r0, #8
 80075ec:	f000 0aff 	and.w	sl, r0, #255	; 0xff
 80075f0:	2800      	cmp	r0, #0
 80075f2:	d1f2      	bne.n	80075da <_strtol_r+0x12>
 80075f4:	2d2d      	cmp	r5, #45	; 0x2d
 80075f6:	d05b      	beq.n	80076b0 <_strtol_r+0xe8>
 80075f8:	2d2b      	cmp	r5, #43	; 0x2b
 80075fa:	bf04      	itt	eq
 80075fc:	7875      	ldrbeq	r5, [r6, #1]
 80075fe:	1cb4      	addeq	r4, r6, #2
 8007600:	f033 0010 	bics.w	r0, r3, #16
 8007604:	d03c      	beq.n	8007680 <_strtol_r+0xb8>
 8007606:	4699      	mov	r9, r3
 8007608:	f1ba 0f00 	cmp.w	sl, #0
 800760c:	bf0c      	ite	eq
 800760e:	f06f 4b00 	mvneq.w	fp, #2147483648	; 0x80000000
 8007612:	f04f 4b00 	movne.w	fp, #2147483648	; 0x80000000
 8007616:	fbbb f8f9 	udiv	r8, fp, r9
 800761a:	2700      	movs	r7, #0
 800761c:	fb09 bb18 	mls	fp, r9, r8, fp
 8007620:	4638      	mov	r0, r7
 8007622:	e00c      	b.n	800763e <_strtol_r+0x76>
 8007624:	3d30      	subs	r5, #48	; 0x30
 8007626:	42ab      	cmp	r3, r5
 8007628:	dd19      	ble.n	800765e <_strtol_r+0x96>
 800762a:	1c7e      	adds	r6, r7, #1
 800762c:	d005      	beq.n	800763a <_strtol_r+0x72>
 800762e:	4540      	cmp	r0, r8
 8007630:	d823      	bhi.n	800767a <_strtol_r+0xb2>
 8007632:	d020      	beq.n	8007676 <_strtol_r+0xae>
 8007634:	fb09 5000 	mla	r0, r9, r0, r5
 8007638:	2701      	movs	r7, #1
 800763a:	f814 5b01 	ldrb.w	r5, [r4], #1
 800763e:	eb0c 0605 	add.w	r6, ip, r5
 8007642:	7876      	ldrb	r6, [r6, #1]
 8007644:	f016 0f04 	tst.w	r6, #4
 8007648:	d1ec      	bne.n	8007624 <_strtol_r+0x5c>
 800764a:	f016 0603 	ands.w	r6, r6, #3
 800764e:	d006      	beq.n	800765e <_strtol_r+0x96>
 8007650:	2e01      	cmp	r6, #1
 8007652:	bf14      	ite	ne
 8007654:	2657      	movne	r6, #87	; 0x57
 8007656:	2637      	moveq	r6, #55	; 0x37
 8007658:	1bad      	subs	r5, r5, r6
 800765a:	42ab      	cmp	r3, r5
 800765c:	dce5      	bgt.n	800762a <_strtol_r+0x62>
 800765e:	1c7b      	adds	r3, r7, #1
 8007660:	d015      	beq.n	800768e <_strtol_r+0xc6>
 8007662:	f1ba 0f00 	cmp.w	sl, #0
 8007666:	d121      	bne.n	80076ac <_strtol_r+0xe4>
 8007668:	b10a      	cbz	r2, 800766e <_strtol_r+0xa6>
 800766a:	b9ef      	cbnz	r7, 80076a8 <_strtol_r+0xe0>
 800766c:	6011      	str	r1, [r2, #0]
 800766e:	b002      	add	sp, #8
 8007670:	e8bd 0ff0 	ldmia.w	sp!, {r4, r5, r6, r7, r8, r9, sl, fp}
 8007674:	4770      	bx	lr
 8007676:	455d      	cmp	r5, fp
 8007678:	dddc      	ble.n	8007634 <_strtol_r+0x6c>
 800767a:	f04f 37ff 	mov.w	r7, #4294967295	; 0xffffffff
 800767e:	e7dc      	b.n	800763a <_strtol_r+0x72>
 8007680:	2d30      	cmp	r5, #48	; 0x30
 8007682:	d01a      	beq.n	80076ba <_strtol_r+0xf2>
 8007684:	2b00      	cmp	r3, #0
 8007686:	d1be      	bne.n	8007606 <_strtol_r+0x3e>
 8007688:	230a      	movs	r3, #10
 800768a:	4699      	mov	r9, r3
 800768c:	e7bc      	b.n	8007608 <_strtol_r+0x40>
 800768e:	9901      	ldr	r1, [sp, #4]
 8007690:	f1ba 0f00 	cmp.w	sl, #0
 8007694:	f04f 0322 	mov.w	r3, #34	; 0x22
 8007698:	bf0c      	ite	eq
 800769a:	f06f 4000 	mvneq.w	r0, #2147483648	; 0x80000000
 800769e:	f04f 4000 	movne.w	r0, #2147483648	; 0x80000000
 80076a2:	600b      	str	r3, [r1, #0]
 80076a4:	2a00      	cmp	r2, #0
 80076a6:	d0e2      	beq.n	800766e <_strtol_r+0xa6>
 80076a8:	1e61      	subs	r1, r4, #1
 80076aa:	e7df      	b.n	800766c <_strtol_r+0xa4>
 80076ac:	4240      	negs	r0, r0
 80076ae:	e7db      	b.n	8007668 <_strtol_r+0xa0>
 80076b0:	1cb4      	adds	r4, r6, #2
 80076b2:	7875      	ldrb	r5, [r6, #1]
 80076b4:	f04f 0a01 	mov.w	sl, #1
 80076b8:	e7a2      	b.n	8007600 <_strtol_r+0x38>
 80076ba:	7820      	ldrb	r0, [r4, #0]
 80076bc:	f000 00df 	and.w	r0, r0, #223	; 0xdf
 80076c0:	2858      	cmp	r0, #88	; 0x58
 80076c2:	d003      	beq.n	80076cc <_strtol_r+0x104>
 80076c4:	2b00      	cmp	r3, #0
 80076c6:	d19e      	bne.n	8007606 <_strtol_r+0x3e>
 80076c8:	2308      	movs	r3, #8
 80076ca:	e79c      	b.n	8007606 <_strtol_r+0x3e>
 80076cc:	2310      	movs	r3, #16
 80076ce:	7865      	ldrb	r5, [r4, #1]
 80076d0:	4699      	mov	r9, r3
 80076d2:	3402      	adds	r4, #2
 80076d4:	e798      	b.n	8007608 <_strtol_r+0x40>
 80076d6:	bf00      	nop
 80076d8:	2000045c 	.word	0x2000045c

080076dc <strtol>:
 80076dc:	b430      	push	{r4, r5}
 80076de:	4c04      	ldr	r4, [pc, #16]	; (80076f0 <strtol+0x14>)
 80076e0:	460d      	mov	r5, r1
 80076e2:	4613      	mov	r3, r2
 80076e4:	4601      	mov	r1, r0
 80076e6:	462a      	mov	r2, r5
 80076e8:	6820      	ldr	r0, [r4, #0]
 80076ea:	bc30      	pop	{r4, r5}
 80076ec:	f7ff bf6c 	b.w	80075c8 <_strtol_r>
 80076f0:	20000458 	.word	0x20000458

080076f4 <register_fini>:
 80076f4:	4b02      	ldr	r3, [pc, #8]	; (8007700 <register_fini+0xc>)
 80076f6:	b113      	cbz	r3, 80076fe <register_fini+0xa>
 80076f8:	4802      	ldr	r0, [pc, #8]	; (8007704 <register_fini+0x10>)
 80076fa:	f000 b805 	b.w	8007708 <atexit>
 80076fe:	4770      	bx	lr
 8007700:	00000000 	.word	0x00000000
 8007704:	08007715 	.word	0x08007715

08007708 <atexit>:
 8007708:	4601      	mov	r1, r0
 800770a:	2000      	movs	r0, #0
 800770c:	4602      	mov	r2, r0
 800770e:	4603      	mov	r3, r0
 8007710:	f000 b818 	b.w	8007744 <__register_exitproc>

08007714 <__libc_fini_array>:
 8007714:	b538      	push	{r3, r4, r5, lr}
 8007716:	4d09      	ldr	r5, [pc, #36]	; (800773c <__libc_fini_array+0x28>)
 8007718:	4c09      	ldr	r4, [pc, #36]	; (8007740 <__libc_fini_array+0x2c>)
 800771a:	1b64      	subs	r4, r4, r5
 800771c:	10a4      	asrs	r4, r4, #2
 800771e:	bf18      	it	ne
 8007720:	eb05 0584 	addne.w	r5, r5, r4, lsl #2
 8007724:	d005      	beq.n	8007732 <__libc_fini_array+0x1e>
 8007726:	3c01      	subs	r4, #1
 8007728:	f855 3d04 	ldr.w	r3, [r5, #-4]!
 800772c:	4798      	blx	r3
 800772e:	2c00      	cmp	r4, #0
 8007730:	d1f9      	bne.n	8007726 <__libc_fini_array+0x12>
 8007732:	e8bd 4038 	ldmia.w	sp!, {r3, r4, r5, lr}
 8007736:	f000 bb93 	b.w	8007e60 <_fini>
 800773a:	bf00      	nop
 800773c:	08007e74 	.word	0x08007e74
 8007740:	08007e78 	.word	0x08007e78

08007744 <__register_exitproc>:
 8007744:	b5f0      	push	{r4, r5, r6, r7, lr}
 8007746:	4c27      	ldr	r4, [pc, #156]	; (80077e4 <__register_exitproc+0xa0>)
 8007748:	6826      	ldr	r6, [r4, #0]
 800774a:	f8d6 4148 	ldr.w	r4, [r6, #328]	; 0x148
 800774e:	b085      	sub	sp, #20
 8007750:	4607      	mov	r7, r0
 8007752:	2c00      	cmp	r4, #0
 8007754:	d041      	beq.n	80077da <__register_exitproc+0x96>
 8007756:	6865      	ldr	r5, [r4, #4]
 8007758:	2d1f      	cmp	r5, #31
 800775a:	dd1e      	ble.n	800779a <__register_exitproc+0x56>
 800775c:	4822      	ldr	r0, [pc, #136]	; (80077e8 <__register_exitproc+0xa4>)
 800775e:	b918      	cbnz	r0, 8007768 <__register_exitproc+0x24>
 8007760:	f04f 30ff 	mov.w	r0, #4294967295	; 0xffffffff
 8007764:	b005      	add	sp, #20
 8007766:	bdf0      	pop	{r4, r5, r6, r7, pc}
 8007768:	f44f 70c8 	mov.w	r0, #400	; 0x190
 800776c:	9103      	str	r1, [sp, #12]
 800776e:	9202      	str	r2, [sp, #8]
 8007770:	9301      	str	r3, [sp, #4]
 8007772:	f3af 8000 	nop.w
 8007776:	9903      	ldr	r1, [sp, #12]
 8007778:	9a02      	ldr	r2, [sp, #8]
 800777a:	9b01      	ldr	r3, [sp, #4]
 800777c:	4604      	mov	r4, r0
 800777e:	2800      	cmp	r0, #0
 8007780:	d0ee      	beq.n	8007760 <__register_exitproc+0x1c>
 8007782:	f8d6 5148 	ldr.w	r5, [r6, #328]	; 0x148
 8007786:	6025      	str	r5, [r4, #0]
 8007788:	2000      	movs	r0, #0
 800778a:	6060      	str	r0, [r4, #4]
 800778c:	4605      	mov	r5, r0
 800778e:	f8c6 4148 	str.w	r4, [r6, #328]	; 0x148
 8007792:	f8c4 0188 	str.w	r0, [r4, #392]	; 0x188
 8007796:	f8c4 018c 	str.w	r0, [r4, #396]	; 0x18c
 800779a:	b93f      	cbnz	r7, 80077ac <__register_exitproc+0x68>
 800779c:	1cab      	adds	r3, r5, #2
 800779e:	2000      	movs	r0, #0
 80077a0:	3501      	adds	r5, #1
 80077a2:	6065      	str	r5, [r4, #4]
 80077a4:	f844 1023 	str.w	r1, [r4, r3, lsl #2]
 80077a8:	b005      	add	sp, #20
 80077aa:	bdf0      	pop	{r4, r5, r6, r7, pc}
 80077ac:	eb04 0085 	add.w	r0, r4, r5, lsl #2
 80077b0:	f04f 0c01 	mov.w	ip, #1
 80077b4:	f8c0 2088 	str.w	r2, [r0, #136]	; 0x88
 80077b8:	f8d4 6188 	ldr.w	r6, [r4, #392]	; 0x188
 80077bc:	fa0c f205 	lsl.w	r2, ip, r5
 80077c0:	4316      	orrs	r6, r2
 80077c2:	2f02      	cmp	r7, #2
 80077c4:	f8c4 6188 	str.w	r6, [r4, #392]	; 0x188
 80077c8:	f8c0 3108 	str.w	r3, [r0, #264]	; 0x108
 80077cc:	d1e6      	bne.n	800779c <__register_exitproc+0x58>
 80077ce:	f8d4 318c 	ldr.w	r3, [r4, #396]	; 0x18c
 80077d2:	431a      	orrs	r2, r3
 80077d4:	f8c4 218c 	str.w	r2, [r4, #396]	; 0x18c
 80077d8:	e7e0      	b.n	800779c <__register_exitproc+0x58>
 80077da:	f506 74a6 	add.w	r4, r6, #332	; 0x14c
 80077de:	f8c6 4148 	str.w	r4, [r6, #328]	; 0x148
 80077e2:	e7b8      	b.n	8007756 <__register_exitproc+0x12>
 80077e4:	08007d4c 	.word	0x08007d4c
 80077e8:	00000000 	.word	0x00000000
 80077ec:	ccbbaadd 	.word	0xccbbaadd
 80077f0:	00002211 	.word	0x00002211
 80077f4:	0800a8c0 	.word	0x0800a8c0
 80077f8:	00ffffff 	.word	0x00ffffff
 80077fc:	0100a8c0 	.word	0x0100a8c0
 8007800:	6f746f6d 	.word	0x6f746f6d
 8007804:	00000072 	.word	0x00000072
 8007808:	6f746f6d 	.word	0x6f746f6d
 800780c:	5b202072 	.word	0x5b202072
 8007810:	6974706f 	.word	0x6974706f
 8007814:	5d736e6f 	.word	0x5d736e6f
 8007818:	705ba0c2 	.word	0x705ba0c2
 800781c:	6d617261 	.word	0x6d617261
 8007820:	72657465 	.word	0x72657465
 8007824:	a0c25d73 	.word	0xa0c25d73
 8007828:	6f43203a 	.word	0x6f43203a
 800782c:	6f72746e 	.word	0x6f72746e
 8007830:	6d20736c 	.word	0x6d20736c
 8007834:	726f746f 	.word	0x726f746f
 8007838:	65707320 	.word	0x65707320
 800783c:	202c6465 	.word	0x202c6465
 8007840:	2c6d7072 	.word	0x2c6d7072
 8007844:	63746520 	.word	0x63746520
 8007848:	2e202c2e 	.word	0x2e202c2e
 800784c:	0a0d202e 	.word	0x0a0d202e
 8007850:	00000000 	.word	0x00000000
 8007854:	65657073 	.word	0x65657073
 8007858:	00000064 	.word	0x00000064
 800785c:	72727245 	.word	0x72727245
 8007860:	3a20726f 	.word	0x3a20726f
 8007864:	0a642520 	.word	0x0a642520
 8007868:	0000000a 	.word	0x0000000a
 800786c:	00000000 	.word	0x00000000
 8007870:	65657053 	.word	0x65657053
 8007874:	75732064 	.word	0x75732064
 8007878:	65736363 	.word	0x65736363
 800787c:	6c756673 	.word	0x6c756673
 8007880:	7320796c 	.word	0x7320796c
 8007884:	0a2e7465 	.word	0x0a2e7465
 8007888:	0000000a 	.word	0x0000000a
 800788c:	6f727245 	.word	0x6f727245
 8007890:	65722072 	.word	0x65722072
 8007894:	76656963 	.word	0x76656963
 8007898:	20676e69 	.word	0x20676e69
 800789c:	70736572 	.word	0x70736572
 80078a0:	65736e6f 	.word	0x65736e6f
 80078a4:	000a0a21 	.word	0x000a0a21
 80078a8:	6f727245 	.word	0x6f727245
 80078ac:	65732072 	.word	0x65732072
 80078b0:	6e69646e 	.word	0x6e69646e
 80078b4:	75512067 	.word	0x75512067
 80078b8:	21657565 	.word	0x21657565
 80078bc:	00000a0a 	.word	0x00000a0a
 80078c0:	61727075 	.word	0x61727075
 80078c4:	0000706d 	.word	0x0000706d
 80078c8:	6e776f64 	.word	0x6e776f64
 80078cc:	706d6172 	.word	0x706d6172
 80078d0:	00000000 	.word	0x00000000
 80078d4:	00746573 	.word	0x00746573
 80078d8:	00746567 	.word	0x00746567
 80078dc:	706f7473 	.word	0x706f7473
 80078e0:	00000000 	.word	0x00000000
 80078e4:	6f746f4d 	.word	0x6f746f4d
 80078e8:	75732072 	.word	0x75732072
 80078ec:	65736363 	.word	0x65736363
 80078f0:	6c756673 	.word	0x6c756673
 80078f4:	7320796c 	.word	0x7320796c
 80078f8:	70706f74 	.word	0x70706f74
 80078fc:	0a2e6465 	.word	0x0a2e6465
 8007900:	0000000a 	.word	0x0000000a
 8007904:	72617473 	.word	0x72617473
 8007908:	00000074 	.word	0x00000074
 800790c:	6f746f4d 	.word	0x6f746f4d
 8007910:	75732072 	.word	0x75732072
 8007914:	65736363 	.word	0x65736363
 8007918:	6c756673 	.word	0x6c756673
 800791c:	7320796c 	.word	0x7320796c
 8007920:	74726174 	.word	0x74726174
 8007924:	0a2e6465 	.word	0x0a2e6465
 8007928:	0000000a 	.word	0x0000000a
 800792c:	6c756e28 	.word	0x6c756e28
 8007930:	0000296c 	.word	0x0000296c
 8007934:	6f746f6d 	.word	0x6f746f6d
 8007938:	00000072 	.word	0x00000072
 800793c:	6f746f6d 	.word	0x6f746f6d
 8007940:	5b202072 	.word	0x5b202072
 8007944:	6974706f 	.word	0x6974706f
 8007948:	5d736e6f 	.word	0x5d736e6f
 800794c:	705ba0c2 	.word	0x705ba0c2
 8007950:	6d617261 	.word	0x6d617261
 8007954:	72657465 	.word	0x72657465
 8007958:	a0c25d73 	.word	0xa0c25d73
 800795c:	6f43203a 	.word	0x6f43203a
 8007960:	6f72746e 	.word	0x6f72746e
 8007964:	6d20736c 	.word	0x6d20736c
 8007968:	726f746f 	.word	0x726f746f
 800796c:	65707320 	.word	0x65707320
 8007970:	202c6465 	.word	0x202c6465
 8007974:	2c6d7072 	.word	0x2c6d7072
 8007978:	63746520 	.word	0x63746520
 800797c:	2e202c2e 	.word	0x2e202c2e
 8007980:	0a0d202e 	.word	0x0a0d202e
 8007984:	00000000 	.word	0x00000000
 8007988:	4d544553 	.word	0x4d544553
 800798c:	00004341 	.word	0x00004341
 8007990:	6f746f6d 	.word	0x6f746f6d
 8007994:	00004872 	.word	0x00004872
 8007998:	74696e69 	.word	0x74696e69
 800799c:	3235575f 	.word	0x3235575f
 80079a0:	00003030 	.word	0x00003030
 80079a4:	454c4449 	.word	0x454c4449
 80079a8:	00000000 	.word	0x00000000
 80079ac:	20726d54 	.word	0x20726d54
 80079b0:	00637653 	.word	0x00637653
 80079b4:	706c6568 	.word	0x706c6568
 80079b8:	00000000 	.word	0x00000000
 80079bc:	65680a0d 	.word	0x65680a0d
 80079c0:	0d3a706c 	.word	0x0d3a706c
 80079c4:	694c200a 	.word	0x694c200a
 80079c8:	20737473 	.word	0x20737473
 80079cc:	206c6c61 	.word	0x206c6c61
 80079d0:	20656874 	.word	0x20656874
 80079d4:	69676572 	.word	0x69676572
 80079d8:	72657473 	.word	0x72657473
 80079dc:	63206465 	.word	0x63206465
 80079e0:	616d6d6f 	.word	0x616d6d6f
 80079e4:	0d73646e 	.word	0x0d73646e
 80079e8:	000a0d0a 	.word	0x000a0d0a
 80079ec:	6f636e49 	.word	0x6f636e49
 80079f0:	63657272 	.word	0x63657272
 80079f4:	6f632074 	.word	0x6f632074
 80079f8:	6e616d6d 	.word	0x6e616d6d
 80079fc:	61702064 	.word	0x61702064
 8007a00:	656d6172 	.word	0x656d6172
 8007a04:	28726574 	.word	0x28726574
 8007a08:	202e2973 	.word	0x202e2973
 8007a0c:	746e4520 	.word	0x746e4520
 8007a10:	22207265 	.word	0x22207265
 8007a14:	706c6568 	.word	0x706c6568
 8007a18:	6f742022 	.word	0x6f742022
 8007a1c:	65697620 	.word	0x65697620
 8007a20:	20612077 	.word	0x20612077
 8007a24:	7473696c 	.word	0x7473696c
 8007a28:	20666f20 	.word	0x20666f20
 8007a2c:	69617661 	.word	0x69617661
 8007a30:	6c62616c 	.word	0x6c62616c
 8007a34:	6f632065 	.word	0x6f632065
 8007a38:	6e616d6d 	.word	0x6e616d6d
 8007a3c:	0d2e7364 	.word	0x0d2e7364
 8007a40:	000a0d0a 	.word	0x000a0d0a
 8007a44:	6d6d6f43 	.word	0x6d6d6f43
 8007a48:	20646e61 	.word	0x20646e61
 8007a4c:	20746f6e 	.word	0x20746f6e
 8007a50:	6f636572 	.word	0x6f636572
 8007a54:	73696e67 	.word	0x73696e67
 8007a58:	202e6465 	.word	0x202e6465
 8007a5c:	746e4520 	.word	0x746e4520
 8007a60:	27207265 	.word	0x27207265
 8007a64:	706c6568 	.word	0x706c6568
 8007a68:	6f742027 	.word	0x6f742027
 8007a6c:	65697620 	.word	0x65697620
 8007a70:	20612077 	.word	0x20612077
 8007a74:	7473696c 	.word	0x7473696c
 8007a78:	20666f20 	.word	0x20666f20
 8007a7c:	69617661 	.word	0x69617661
 8007a80:	6c62616c 	.word	0x6c62616c
 8007a84:	6f632065 	.word	0x6f632065
 8007a88:	6e616d6d 	.word	0x6e616d6d
 8007a8c:	0d2e7364 	.word	0x0d2e7364
 8007a90:	000a0d0a 	.word	0x000a0d0a
 8007a94:	2f707041 	.word	0x2f707041
 8007a98:	334d5453 	.word	0x334d5453
 8007a9c:	2d344632 	.word	0x2d344632
 8007aa0:	63736944 	.word	0x63736944
 8007aa4:	7265766f 	.word	0x7265766f
 8007aa8:	694c2f79 	.word	0x694c2f79
 8007aac:	72617262 	.word	0x72617262
 8007ab0:	2f736569 	.word	0x2f736569
 8007ab4:	334d5453 	.word	0x334d5453
 8007ab8:	78344632 	.word	0x78344632
 8007abc:	74535f78 	.word	0x74535f78
 8007ac0:	72655064 	.word	0x72655064
 8007ac4:	5f687069 	.word	0x5f687069
 8007ac8:	76697244 	.word	0x76697244
 8007acc:	732f7265 	.word	0x732f7265
 8007ad0:	6d2f6372 	.word	0x6d2f6372
 8007ad4:	2e637369 	.word	0x2e637369
 8007ad8:	00000063 	.word	0x00000063
 8007adc:	2f707041 	.word	0x2f707041
 8007ae0:	334d5453 	.word	0x334d5453
 8007ae4:	2d344632 	.word	0x2d344632
 8007ae8:	63736944 	.word	0x63736944
 8007aec:	7265766f 	.word	0x7265766f
 8007af0:	694c2f79 	.word	0x694c2f79
 8007af4:	72617262 	.word	0x72617262
 8007af8:	2f736569 	.word	0x2f736569
 8007afc:	334d5453 	.word	0x334d5453
 8007b00:	78344632 	.word	0x78344632
 8007b04:	74535f78 	.word	0x74535f78
 8007b08:	72655064 	.word	0x72655064
 8007b0c:	5f687069 	.word	0x5f687069
 8007b10:	76697244 	.word	0x76697244
 8007b14:	732f7265 	.word	0x732f7265
 8007b18:	732f6372 	.word	0x732f6372
 8007b1c:	32336d74 	.word	0x32336d74
 8007b20:	78783466 	.word	0x78783466
 8007b24:	616d645f 	.word	0x616d645f
 8007b28:	0000632e 	.word	0x0000632e
 8007b2c:	2f707041 	.word	0x2f707041
 8007b30:	334d5453 	.word	0x334d5453
 8007b34:	2d344632 	.word	0x2d344632
 8007b38:	63736944 	.word	0x63736944
 8007b3c:	7265766f 	.word	0x7265766f
 8007b40:	694c2f79 	.word	0x694c2f79
 8007b44:	72617262 	.word	0x72617262
 8007b48:	2f736569 	.word	0x2f736569
 8007b4c:	334d5453 	.word	0x334d5453
 8007b50:	78344632 	.word	0x78344632
 8007b54:	74535f78 	.word	0x74535f78
 8007b58:	72655064 	.word	0x72655064
 8007b5c:	5f687069 	.word	0x5f687069
 8007b60:	76697244 	.word	0x76697244
 8007b64:	732f7265 	.word	0x732f7265
 8007b68:	732f6372 	.word	0x732f6372
 8007b6c:	32336d74 	.word	0x32336d74
 8007b70:	78783466 	.word	0x78783466
 8007b74:	7478655f 	.word	0x7478655f
 8007b78:	00632e69 	.word	0x00632e69
 8007b7c:	2f707041 	.word	0x2f707041
 8007b80:	334d5453 	.word	0x334d5453
 8007b84:	2d344632 	.word	0x2d344632
 8007b88:	63736944 	.word	0x63736944
 8007b8c:	7265766f 	.word	0x7265766f
 8007b90:	694c2f79 	.word	0x694c2f79
 8007b94:	72617262 	.word	0x72617262
 8007b98:	2f736569 	.word	0x2f736569
 8007b9c:	334d5453 	.word	0x334d5453
 8007ba0:	78344632 	.word	0x78344632
 8007ba4:	74535f78 	.word	0x74535f78
 8007ba8:	72655064 	.word	0x72655064
 8007bac:	5f687069 	.word	0x5f687069
 8007bb0:	76697244 	.word	0x76697244
 8007bb4:	732f7265 	.word	0x732f7265
 8007bb8:	732f6372 	.word	0x732f6372
 8007bbc:	32336d74 	.word	0x32336d74
 8007bc0:	78783466 	.word	0x78783466
 8007bc4:	6970675f 	.word	0x6970675f
 8007bc8:	00632e6f 	.word	0x00632e6f
 8007bcc:	2f707041 	.word	0x2f707041
 8007bd0:	334d5453 	.word	0x334d5453
 8007bd4:	2d344632 	.word	0x2d344632
 8007bd8:	63736944 	.word	0x63736944
 8007bdc:	7265766f 	.word	0x7265766f
 8007be0:	694c2f79 	.word	0x694c2f79
 8007be4:	72617262 	.word	0x72617262
 8007be8:	2f736569 	.word	0x2f736569
 8007bec:	334d5453 	.word	0x334d5453
 8007bf0:	78344632 	.word	0x78344632
 8007bf4:	74535f78 	.word	0x74535f78
 8007bf8:	72655064 	.word	0x72655064
 8007bfc:	5f687069 	.word	0x5f687069
 8007c00:	76697244 	.word	0x76697244
 8007c04:	732f7265 	.word	0x732f7265
 8007c08:	732f6372 	.word	0x732f6372
 8007c0c:	32336d74 	.word	0x32336d74
 8007c10:	78783466 	.word	0x78783466
 8007c14:	6363725f 	.word	0x6363725f
 8007c18:	0000632e 	.word	0x0000632e
 8007c1c:	2f707041 	.word	0x2f707041
 8007c20:	334d5453 	.word	0x334d5453
 8007c24:	2d344632 	.word	0x2d344632
 8007c28:	63736944 	.word	0x63736944
 8007c2c:	7265766f 	.word	0x7265766f
 8007c30:	694c2f79 	.word	0x694c2f79
 8007c34:	72617262 	.word	0x72617262
 8007c38:	2f736569 	.word	0x2f736569
 8007c3c:	334d5453 	.word	0x334d5453
 8007c40:	78344632 	.word	0x78344632
 8007c44:	74535f78 	.word	0x74535f78
 8007c48:	72655064 	.word	0x72655064
 8007c4c:	5f687069 	.word	0x5f687069
 8007c50:	76697244 	.word	0x76697244
 8007c54:	732f7265 	.word	0x732f7265
 8007c58:	732f6372 	.word	0x732f6372
 8007c5c:	32336d74 	.word	0x32336d74
 8007c60:	78783466 	.word	0x78783466
 8007c64:	6970735f 	.word	0x6970735f
 8007c68:	0000632e 	.word	0x0000632e
 8007c6c:	2f707041 	.word	0x2f707041
 8007c70:	334d5453 	.word	0x334d5453
 8007c74:	2d344632 	.word	0x2d344632
 8007c78:	63736944 	.word	0x63736944
 8007c7c:	7265766f 	.word	0x7265766f
 8007c80:	694c2f79 	.word	0x694c2f79
 8007c84:	72617262 	.word	0x72617262
 8007c88:	2f736569 	.word	0x2f736569
 8007c8c:	334d5453 	.word	0x334d5453
 8007c90:	78344632 	.word	0x78344632
 8007c94:	74535f78 	.word	0x74535f78
 8007c98:	72655064 	.word	0x72655064
 8007c9c:	5f687069 	.word	0x5f687069
 8007ca0:	76697244 	.word	0x76697244
 8007ca4:	732f7265 	.word	0x732f7265
 8007ca8:	732f6372 	.word	0x732f6372
 8007cac:	32336d74 	.word	0x32336d74
 8007cb0:	78783466 	.word	0x78783466
 8007cb4:	7379735f 	.word	0x7379735f
 8007cb8:	2e676663 	.word	0x2e676663
 8007cbc:	00000063 	.word	0x00000063
 8007cc0:	2f707041 	.word	0x2f707041
 8007cc4:	334d5453 	.word	0x334d5453
 8007cc8:	2d344632 	.word	0x2d344632
 8007ccc:	63736944 	.word	0x63736944
 8007cd0:	7265766f 	.word	0x7265766f
 8007cd4:	694c2f79 	.word	0x694c2f79
 8007cd8:	72617262 	.word	0x72617262
 8007cdc:	2f736569 	.word	0x2f736569
 8007ce0:	334d5453 	.word	0x334d5453
 8007ce4:	78344632 	.word	0x78344632
 8007ce8:	74535f78 	.word	0x74535f78
 8007cec:	72655064 	.word	0x72655064
 8007cf0:	5f687069 	.word	0x5f687069
 8007cf4:	76697244 	.word	0x76697244
 8007cf8:	732f7265 	.word	0x732f7265
 8007cfc:	732f6372 	.word	0x732f6372
 8007d00:	32336d74 	.word	0x32336d74
 8007d04:	78783466 	.word	0x78783466
 8007d08:	6173755f 	.word	0x6173755f
 8007d0c:	632e7472 	.word	0x632e7472
 8007d10:	00000000 	.word	0x00000000

08007d14 <xMotorCommand>:
 8007d14:	08007934 0800793c 08001d71 000000ff     4y..<y..q.......

08007d24 <ucExpectedStackBytes.8478>:
 8007d24:	a5a5a5a5 a5a5a5a5 a5a5a5a5 a5a5a5a5     ................
 8007d34:	a5a5a5a5                                ....

08007d38 <xHelpCommand>:
 8007d38:	080079b4 080079bc 08004971 00000000     .y...y..qI......
 8007d48:	00000043                                C...

08007d4c <_global_impure_ptr>:
 8007d4c:	20000030                                0.. 

08007d50 <_ctype_>:
 8007d50:	20202000 20202020 28282020 20282828     .         ((((( 
 8007d60:	20202020 20202020 20202020 20202020                     
 8007d70:	10108820 10101010 10101010 10101010      ...............
 8007d80:	04040410 04040404 10040404 10101010     ................
 8007d90:	41411010 41414141 01010101 01010101     ..AAAAAA........
 8007da0:	01010101 01010101 01010101 10101010     ................
 8007db0:	42421010 42424242 02020202 02020202     ..BBBBBB........
 8007dc0:	02020202 02020202 02020202 10101010     ................
 8007dd0:	00000020 00000000 00000000 00000000      ...............
 8007de0:	00000000 00000000 00000000 00000000     ................
 8007df0:	00000000 00000000 00000000 00000000     ................
 8007e00:	00000000 00000000 00000000 00000000     ................
 8007e10:	00000000 00000000 00000000 00000000     ................
 8007e20:	00000000 00000000 00000000 00000000     ................
 8007e30:	00000000 00000000 00000000 00000000     ................
 8007e40:	00000000 00000000 00000000 00000000     ................
 8007e50:	00000000                                ....

08007e54 <_init>:
 8007e54:	b5f8      	push	{r3, r4, r5, r6, r7, lr}
 8007e56:	bf00      	nop
 8007e58:	bcf8      	pop	{r3, r4, r5, r6, r7}
 8007e5a:	bc08      	pop	{r3}
 8007e5c:	469e      	mov	lr, r3
 8007e5e:	4770      	bx	lr

08007e60 <_fini>:
 8007e60:	b5f8      	push	{r3, r4, r5, r6, r7, lr}
 8007e62:	bf00      	nop
 8007e64:	bcf8      	pop	{r3, r4, r5, r6, r7}
 8007e66:	bc08      	pop	{r3}
 8007e68:	469e      	mov	lr, r3
 8007e6a:	4770      	bx	lr
