
obj/STM32F4_Test.elf:     file format elf32-littlearm

Sections:
Idx Name          Size      VMA       LMA       File off  Algn
  0 .isr_vector   00000188  08000000  08000000  00008000  2**0
                  CONTENTS, ALLOC, LOAD, READONLY, DATA
  1 .text         00009c08  08000188  08000188  00008188  2**2
                  CONTENTS, ALLOC, LOAD, READONLY, CODE
  2 .init_array   00000008  08009d90  08009d90  00011d90  2**2
                  CONTENTS, ALLOC, LOAD, DATA
  3 .fini_array   00000004  08009d98  08009d98  00011d98  2**2
                  CONTENTS, ALLOC, LOAD, DATA
  4 .data         00000470  20000000  08009d9c  00018000  2**3
                  CONTENTS, ALLOC, LOAD, DATA
  5 .bss          0001401c  20000470  0800a20c  00018470  2**2
                  ALLOC
  6 ._user_heap_stack 00000400  2001448c  0801e228  00018470  2**0
                  ALLOC
  7 .ARM.attributes 0000002e  00000000  00000000  00018470  2**0
                  CONTENTS, READONLY
  8 .debug_info   0000bd3c  00000000  00000000  0001849e  2**0
                  CONTENTS, READONLY, DEBUGGING
  9 .debug_abbrev 000026cf  00000000  00000000  000241da  2**0
                  CONTENTS, READONLY, DEBUGGING
 10 .debug_loc    000049a6  00000000  00000000  000268a9  2**0
                  CONTENTS, READONLY, DEBUGGING
 11 .debug_aranges 00000d00  00000000  00000000  0002b24f  2**0
                  CONTENTS, READONLY, DEBUGGING
 12 .debug_ranges 00000bc0  00000000  00000000  0002bf4f  2**0
                  CONTENTS, READONLY, DEBUGGING
 13 .debug_line   000064d9  00000000  00000000  0002cb0f  2**0
                  CONTENTS, READONLY, DEBUGGING
 14 .debug_str    0000443a  00000000  00000000  00032fe8  2**0
                  CONTENTS, READONLY, DEBUGGING
 15 .comment      00000070  00000000  00000000  00037422  2**0
                  CONTENTS, READONLY
 16 .debug_frame  00002e90  00000000  00000000  00037494  2**2
                  CONTENTS, READONLY, DEBUGGING

Disassembly of section .text:

08000188 <__do_global_dtors_aux>:
 8000188:	b510      	push	{r4, lr}
 800018a:	4c05      	ldr	r4, [pc, #20]	; (80001a0 <__do_global_dtors_aux+0x18>)
 800018c:	7823      	ldrb	r3, [r4, #0]
 800018e:	b933      	cbnz	r3, 800019e <__do_global_dtors_aux+0x16>
 8000190:	4b04      	ldr	r3, [pc, #16]	; (80001a4 <__do_global_dtors_aux+0x1c>)
 8000192:	b113      	cbz	r3, 800019a <__do_global_dtors_aux+0x12>
 8000194:	4804      	ldr	r0, [pc, #16]	; (80001a8 <__do_global_dtors_aux+0x20>)
 8000196:	f3af 8000 	nop.w
 800019a:	2301      	movs	r3, #1
 800019c:	7023      	strb	r3, [r4, #0]
 800019e:	bd10      	pop	{r4, pc}
 80001a0:	20000470 	.word	0x20000470
 80001a4:	00000000 	.word	0x00000000
 80001a8:	08009d78 	.word	0x08009d78

080001ac <frame_dummy>:
 80001ac:	b508      	push	{r3, lr}
 80001ae:	4b06      	ldr	r3, [pc, #24]	; (80001c8 <frame_dummy+0x1c>)
 80001b0:	b11b      	cbz	r3, 80001ba <frame_dummy+0xe>
 80001b2:	4806      	ldr	r0, [pc, #24]	; (80001cc <frame_dummy+0x20>)
 80001b4:	4906      	ldr	r1, [pc, #24]	; (80001d0 <frame_dummy+0x24>)
 80001b6:	f3af 8000 	nop.w
 80001ba:	4806      	ldr	r0, [pc, #24]	; (80001d4 <frame_dummy+0x28>)
 80001bc:	6803      	ldr	r3, [r0, #0]
 80001be:	b113      	cbz	r3, 80001c6 <frame_dummy+0x1a>
 80001c0:	4b05      	ldr	r3, [pc, #20]	; (80001d8 <frame_dummy+0x2c>)
 80001c2:	b103      	cbz	r3, 80001c6 <frame_dummy+0x1a>
 80001c4:	4798      	blx	r3
 80001c6:	bd08      	pop	{r3, pc}
 80001c8:	00000000 	.word	0x00000000
 80001cc:	08009d78 	.word	0x08009d78
 80001d0:	20000474 	.word	0x20000474
 80001d4:	20000470 	.word	0x20000470
 80001d8:	00000000 	.word	0x00000000

080001dc <memcpy>:
 80001dc:	4684      	mov	ip, r0
 80001de:	ea41 0300 	orr.w	r3, r1, r0
 80001e2:	f013 0303 	ands.w	r3, r3, #3
 80001e6:	d16d      	bne.n	80002c4 <memcpy+0xe8>
 80001e8:	3a40      	subs	r2, #64	; 0x40
 80001ea:	d341      	bcc.n	8000270 <memcpy+0x94>
 80001ec:	f851 3b04 	ldr.w	r3, [r1], #4
 80001f0:	f840 3b04 	str.w	r3, [r0], #4
 80001f4:	f851 3b04 	ldr.w	r3, [r1], #4
 80001f8:	f840 3b04 	str.w	r3, [r0], #4
 80001fc:	f851 3b04 	ldr.w	r3, [r1], #4
 8000200:	f840 3b04 	str.w	r3, [r0], #4
 8000204:	f851 3b04 	ldr.w	r3, [r1], #4
 8000208:	f840 3b04 	str.w	r3, [r0], #4
 800020c:	f851 3b04 	ldr.w	r3, [r1], #4
 8000210:	f840 3b04 	str.w	r3, [r0], #4
 8000214:	f851 3b04 	ldr.w	r3, [r1], #4
 8000218:	f840 3b04 	str.w	r3, [r0], #4
 800021c:	f851 3b04 	ldr.w	r3, [r1], #4
 8000220:	f840 3b04 	str.w	r3, [r0], #4
 8000224:	f851 3b04 	ldr.w	r3, [r1], #4
 8000228:	f840 3b04 	str.w	r3, [r0], #4
 800022c:	f851 3b04 	ldr.w	r3, [r1], #4
 8000230:	f840 3b04 	str.w	r3, [r0], #4
 8000234:	f851 3b04 	ldr.w	r3, [r1], #4
 8000238:	f840 3b04 	str.w	r3, [r0], #4
 800023c:	f851 3b04 	ldr.w	r3, [r1], #4
 8000240:	f840 3b04 	str.w	r3, [r0], #4
 8000244:	f851 3b04 	ldr.w	r3, [r1], #4
 8000248:	f840 3b04 	str.w	r3, [r0], #4
 800024c:	f851 3b04 	ldr.w	r3, [r1], #4
 8000250:	f840 3b04 	str.w	r3, [r0], #4
 8000254:	f851 3b04 	ldr.w	r3, [r1], #4
 8000258:	f840 3b04 	str.w	r3, [r0], #4
 800025c:	f851 3b04 	ldr.w	r3, [r1], #4
 8000260:	f840 3b04 	str.w	r3, [r0], #4
 8000264:	f851 3b04 	ldr.w	r3, [r1], #4
 8000268:	f840 3b04 	str.w	r3, [r0], #4
 800026c:	3a40      	subs	r2, #64	; 0x40
 800026e:	d2bd      	bcs.n	80001ec <memcpy+0x10>
 8000270:	3230      	adds	r2, #48	; 0x30
 8000272:	d311      	bcc.n	8000298 <memcpy+0xbc>
 8000274:	f851 3b04 	ldr.w	r3, [r1], #4
 8000278:	f840 3b04 	str.w	r3, [r0], #4
 800027c:	f851 3b04 	ldr.w	r3, [r1], #4
 8000280:	f840 3b04 	str.w	r3, [r0], #4
 8000284:	f851 3b04 	ldr.w	r3, [r1], #4
 8000288:	f840 3b04 	str.w	r3, [r0], #4
 800028c:	f851 3b04 	ldr.w	r3, [r1], #4
 8000290:	f840 3b04 	str.w	r3, [r0], #4
 8000294:	3a10      	subs	r2, #16
 8000296:	d2ed      	bcs.n	8000274 <memcpy+0x98>
 8000298:	320c      	adds	r2, #12
 800029a:	d305      	bcc.n	80002a8 <memcpy+0xcc>
 800029c:	f851 3b04 	ldr.w	r3, [r1], #4
 80002a0:	f840 3b04 	str.w	r3, [r0], #4
 80002a4:	3a04      	subs	r2, #4
 80002a6:	d2f9      	bcs.n	800029c <memcpy+0xc0>
 80002a8:	3204      	adds	r2, #4
 80002aa:	d008      	beq.n	80002be <memcpy+0xe2>
 80002ac:	07d2      	lsls	r2, r2, #31
 80002ae:	bf1c      	itt	ne
 80002b0:	f811 3b01 	ldrbne.w	r3, [r1], #1
 80002b4:	f800 3b01 	strbne.w	r3, [r0], #1
 80002b8:	d301      	bcc.n	80002be <memcpy+0xe2>
 80002ba:	880b      	ldrh	r3, [r1, #0]
 80002bc:	8003      	strh	r3, [r0, #0]
 80002be:	4660      	mov	r0, ip
 80002c0:	4770      	bx	lr
 80002c2:	bf00      	nop
 80002c4:	2a08      	cmp	r2, #8
 80002c6:	d313      	bcc.n	80002f0 <memcpy+0x114>
 80002c8:	078b      	lsls	r3, r1, #30
 80002ca:	d08d      	beq.n	80001e8 <memcpy+0xc>
 80002cc:	f010 0303 	ands.w	r3, r0, #3
 80002d0:	d08a      	beq.n	80001e8 <memcpy+0xc>
 80002d2:	f1c3 0304 	rsb	r3, r3, #4
 80002d6:	1ad2      	subs	r2, r2, r3
 80002d8:	07db      	lsls	r3, r3, #31
 80002da:	bf1c      	itt	ne
 80002dc:	f811 3b01 	ldrbne.w	r3, [r1], #1
 80002e0:	f800 3b01 	strbne.w	r3, [r0], #1
 80002e4:	d380      	bcc.n	80001e8 <memcpy+0xc>
 80002e6:	f831 3b02 	ldrh.w	r3, [r1], #2
 80002ea:	f820 3b02 	strh.w	r3, [r0], #2
 80002ee:	e77b      	b.n	80001e8 <memcpy+0xc>
 80002f0:	3a04      	subs	r2, #4
 80002f2:	d3d9      	bcc.n	80002a8 <memcpy+0xcc>
 80002f4:	3a01      	subs	r2, #1
 80002f6:	f811 3b01 	ldrb.w	r3, [r1], #1
 80002fa:	f800 3b01 	strb.w	r3, [r0], #1
 80002fe:	d2f9      	bcs.n	80002f4 <memcpy+0x118>
 8000300:	780b      	ldrb	r3, [r1, #0]
 8000302:	7003      	strb	r3, [r0, #0]
 8000304:	784b      	ldrb	r3, [r1, #1]
 8000306:	7043      	strb	r3, [r0, #1]
 8000308:	788b      	ldrb	r3, [r1, #2]
 800030a:	7083      	strb	r3, [r0, #2]
 800030c:	4660      	mov	r0, ip
 800030e:	4770      	bx	lr

08000310 <init_SPIx>:
#define pdTrue 	1

/*============================================================================
 * 	func void init_SPIx(void)
 *===========================================================================*/ 
void init_SPIx(void){
 8000310:	b580      	push	{r7, lr}
 8000312:	b09a      	sub	sp, #104	; 0x68
 8000314:	af00      	add	r7, sp, #0
	NVIC_InitTypeDef NVIC_InitStruct;

	
	
	// enable clock for used IO pins
	RCC_AHB1PeriphClockCmd(SPIx_MOSI_GPIO_CLK, ENABLE);
 8000316:	2001      	movs	r0, #1
 8000318:	2101      	movs	r1, #1
 800031a:	f007 fcd9 	bl	8007cd0 <RCC_AHB1PeriphClockCmd>
	RCC_AHB1PeriphClockCmd(SPIx_MISO_GPIO_CLK, ENABLE);
 800031e:	2001      	movs	r0, #1
 8000320:	2101      	movs	r1, #1
 8000322:	f007 fcd5 	bl	8007cd0 <RCC_AHB1PeriphClockCmd>
	RCC_AHB1PeriphClockCmd(SPIx_SCK_GPIO_CLK, ENABLE);
 8000326:	2001      	movs	r0, #1
 8000328:	2101      	movs	r1, #1
 800032a:	f007 fcd1 	bl	8007cd0 <RCC_AHB1PeriphClockCmd>
	 * PA5 = SCK
	 * PA6 = MISO
	 * PA7 = MOSI
	 */
	// MOSI PA7
	GPIO_InitStruct.GPIO_Pin = SPIx_MOSI_PIN ;
 800032e:	2380      	movs	r3, #128	; 0x80
 8000330:	663b      	str	r3, [r7, #96]	; 0x60
	GPIO_InitStruct.GPIO_Mode = GPIO_Mode_AF;
 8000332:	2302      	movs	r3, #2
 8000334:	f887 3064 	strb.w	r3, [r7, #100]	; 0x64
	GPIO_InitStruct.GPIO_OType = GPIO_OType_PP;
 8000338:	2300      	movs	r3, #0
 800033a:	f887 3066 	strb.w	r3, [r7, #102]	; 0x66
	GPIO_InitStruct.GPIO_Speed = GPIO_Speed_100MHz;
 800033e:	2303      	movs	r3, #3
 8000340:	f887 3065 	strb.w	r3, [r7, #101]	; 0x65
	GPIO_InitStruct.GPIO_PuPd = GPIO_PuPd_DOWN;
 8000344:	2302      	movs	r3, #2
 8000346:	f887 3067 	strb.w	r3, [r7, #103]	; 0x67
	GPIO_Init(SPIx_MOSI_GPIO_PORT, &GPIO_InitStruct);
 800034a:	f107 0360 	add.w	r3, r7, #96	; 0x60
 800034e:	48b1      	ldr	r0, [pc, #708]	; (8000614 <init_SPIx+0x304>)
 8000350:	4619      	mov	r1, r3
 8000352:	f007 f9d5 	bl	8007700 <GPIO_Init>
	// SCK PA5
	GPIO_InitStruct.GPIO_Pin = SPIx_SCK_PIN;
 8000356:	2320      	movs	r3, #32
 8000358:	663b      	str	r3, [r7, #96]	; 0x60
	GPIO_InitStruct.GPIO_Mode = GPIO_Mode_AF;
 800035a:	2302      	movs	r3, #2
 800035c:	f887 3064 	strb.w	r3, [r7, #100]	; 0x64
	GPIO_InitStruct.GPIO_OType = GPIO_OType_PP;
 8000360:	2300      	movs	r3, #0
 8000362:	f887 3066 	strb.w	r3, [r7, #102]	; 0x66
	GPIO_InitStruct.GPIO_Speed = GPIO_Speed_100MHz;
 8000366:	2303      	movs	r3, #3
 8000368:	f887 3065 	strb.w	r3, [r7, #101]	; 0x65
	GPIO_InitStruct.GPIO_PuPd = GPIO_PuPd_DOWN;
 800036c:	2302      	movs	r3, #2
 800036e:	f887 3067 	strb.w	r3, [r7, #103]	; 0x67
	GPIO_Init(SPIx_SCK_GPIO_PORT, &GPIO_InitStruct);
 8000372:	f107 0360 	add.w	r3, r7, #96	; 0x60
 8000376:	48a7      	ldr	r0, [pc, #668]	; (8000614 <init_SPIx+0x304>)
 8000378:	4619      	mov	r1, r3
 800037a:	f007 f9c1 	bl	8007700 <GPIO_Init>
	// MISO PA6
	GPIO_InitStruct.GPIO_Pin = SPIx_MISO_PIN;
 800037e:	2340      	movs	r3, #64	; 0x40
 8000380:	663b      	str	r3, [r7, #96]	; 0x60
	GPIO_InitStruct.GPIO_Mode = GPIO_Mode_AF;
 8000382:	2302      	movs	r3, #2
 8000384:	f887 3064 	strb.w	r3, [r7, #100]	; 0x64
	GPIO_InitStruct.GPIO_OType = GPIO_OType_OD;
 8000388:	2301      	movs	r3, #1
 800038a:	f887 3066 	strb.w	r3, [r7, #102]	; 0x66
	GPIO_InitStruct.GPIO_Speed = GPIO_Speed_100MHz;
 800038e:	2303      	movs	r3, #3
 8000390:	f887 3065 	strb.w	r3, [r7, #101]	; 0x65
	GPIO_InitStruct.GPIO_PuPd = GPIO_PuPd_NOPULL;
 8000394:	2300      	movs	r3, #0
 8000396:	f887 3067 	strb.w	r3, [r7, #103]	; 0x67
	GPIO_Init(SPIx_MISO_GPIO_PORT, &GPIO_InitStruct);
 800039a:	f107 0360 	add.w	r3, r7, #96	; 0x60
 800039e:	489d      	ldr	r0, [pc, #628]	; (8000614 <init_SPIx+0x304>)
 80003a0:	4619      	mov	r1, r3
 80003a2:	f007 f9ad 	bl	8007700 <GPIO_Init>
	
	// connect SPI1 pins to SPI alternate function
	GPIO_PinAFConfig(SPIx_MISO_GPIO_PORT, SPIx_MISO_SOURCE, SPIx_MISO_AF);
 80003a6:	489b      	ldr	r0, [pc, #620]	; (8000614 <init_SPIx+0x304>)
 80003a8:	2106      	movs	r1, #6
 80003aa:	2205      	movs	r2, #5
 80003ac:	f007 fabe 	bl	800792c <GPIO_PinAFConfig>
	GPIO_PinAFConfig(SPIx_MOSI_GPIO_PORT, SPIx_MOSI_SOURCE, SPIx_MOSI_AF);
 80003b0:	4898      	ldr	r0, [pc, #608]	; (8000614 <init_SPIx+0x304>)
 80003b2:	2107      	movs	r1, #7
 80003b4:	2205      	movs	r2, #5
 80003b6:	f007 fab9 	bl	800792c <GPIO_PinAFConfig>
	GPIO_PinAFConfig(SPIx_SCK_GPIO_PORT,  SPIx_SCK_SOURCE,  SPIx_SCK_AF);
 80003ba:	4896      	ldr	r0, [pc, #600]	; (8000614 <init_SPIx+0x304>)
 80003bc:	2105      	movs	r1, #5
 80003be:	2205      	movs	r2, #5
 80003c0:	f007 fab4 	bl	800792c <GPIO_PinAFConfig>


	RCC_AHB1PeriphClockCmd(WIZ_HR_GPIO_CLK, ENABLE);
 80003c4:	2004      	movs	r0, #4
 80003c6:	2101      	movs	r1, #1
 80003c8:	f007 fc82 	bl	8007cd0 <RCC_AHB1PeriphClockCmd>
	RCC_AHB1PeriphClockCmd(WIZ_IT_GPIO_CLK, ENABLE);
 80003cc:	2004      	movs	r0, #4
 80003ce:	2101      	movs	r1, #1
 80003d0:	f007 fc7e 	bl	8007cd0 <RCC_AHB1PeriphClockCmd>
	
		
	/* Configure the chip select pin
	   in this case we will use PA4 */
	GPIO_InitStruct.GPIO_Pin = SPIx_CS_PIN;
 80003d4:	2310      	movs	r3, #16
 80003d6:	663b      	str	r3, [r7, #96]	; 0x60
	GPIO_InitStruct.GPIO_Mode = GPIO_Mode_OUT;
 80003d8:	2301      	movs	r3, #1
 80003da:	f887 3064 	strb.w	r3, [r7, #100]	; 0x64
	GPIO_InitStruct.GPIO_OType = GPIO_OType_PP;
 80003de:	2300      	movs	r3, #0
 80003e0:	f887 3066 	strb.w	r3, [r7, #102]	; 0x66
	GPIO_InitStruct.GPIO_Speed = GPIO_Speed_100MHz;
 80003e4:	2303      	movs	r3, #3
 80003e6:	f887 3065 	strb.w	r3, [r7, #101]	; 0x65
	GPIO_InitStruct.GPIO_PuPd = GPIO_PuPd_UP;
 80003ea:	2301      	movs	r3, #1
 80003ec:	f887 3067 	strb.w	r3, [r7, #103]	; 0x67
	GPIO_Init(SPIx_CS_GPIO_PORT, &GPIO_InitStruct);
 80003f0:	f107 0360 	add.w	r3, r7, #96	; 0x60
 80003f4:	4887      	ldr	r0, [pc, #540]	; (8000614 <init_SPIx+0x304>)
 80003f6:	4619      	mov	r1, r3
 80003f8:	f007 f982 	bl	8007700 <GPIO_Init>
	
	CSOFF(); // set PA4 high
 80003fc:	4b85      	ldr	r3, [pc, #532]	; (8000614 <init_SPIx+0x304>)
 80003fe:	4a85      	ldr	r2, [pc, #532]	; (8000614 <init_SPIx+0x304>)
 8000400:	8b12      	ldrh	r2, [r2, #24]
 8000402:	b292      	uxth	r2, r2
 8000404:	f042 0210 	orr.w	r2, r2, #16
 8000408:	b292      	uxth	r2, r2
 800040a:	831a      	strh	r2, [r3, #24]

	/* Configure the hard reset pin
	   in this case we will use PA3 */
	GPIO_InitStruct.GPIO_Pin = WIZ_HR_PIN;
 800040c:	2320      	movs	r3, #32
 800040e:	663b      	str	r3, [r7, #96]	; 0x60
	GPIO_InitStruct.GPIO_Mode = GPIO_Mode_OUT;
 8000410:	2301      	movs	r3, #1
 8000412:	f887 3064 	strb.w	r3, [r7, #100]	; 0x64
	GPIO_InitStruct.GPIO_OType = GPIO_OType_PP;
 8000416:	2300      	movs	r3, #0
 8000418:	f887 3066 	strb.w	r3, [r7, #102]	; 0x66
	GPIO_InitStruct.GPIO_Speed = GPIO_Speed_100MHz;
 800041c:	2303      	movs	r3, #3
 800041e:	f887 3065 	strb.w	r3, [r7, #101]	; 0x65
	GPIO_InitStruct.GPIO_PuPd = GPIO_PuPd_UP;
 8000422:	2301      	movs	r3, #1
 8000424:	f887 3067 	strb.w	r3, [r7, #103]	; 0x67
	GPIO_Init(WIZ_HR_GPIO_PORT, &GPIO_InitStruct);
 8000428:	f107 0360 	add.w	r3, r7, #96	; 0x60
 800042c:	487a      	ldr	r0, [pc, #488]	; (8000618 <init_SPIx+0x308>)
 800042e:	4619      	mov	r1, r3
 8000430:	f007 f966 	bl	8007700 <GPIO_Init>
	
	RESET_LOW(); // set PA3 high
 8000434:	4b78      	ldr	r3, [pc, #480]	; (8000618 <init_SPIx+0x308>)
 8000436:	4a78      	ldr	r2, [pc, #480]	; (8000618 <init_SPIx+0x308>)
 8000438:	8b12      	ldrh	r2, [r2, #24]
 800043a:	b292      	uxth	r2, r2
 800043c:	f042 0220 	orr.w	r2, r2, #32
 8000440:	b292      	uxth	r2, r2
 8000442:	831a      	strh	r2, [r3, #24]

	// enable peripheral clock
	RCC_APB2PeriphClockCmd(SPIx_CLK, ENABLE);
 8000444:	f44f 5080 	mov.w	r0, #4096	; 0x1000
 8000448:	2101      	movs	r1, #1
 800044a:	f007 fc79 	bl	8007d40 <RCC_APB2PeriphClockCmd>
	
	/* configure SPI1 in Mode 0 
	 * CPOL = 0 --> clock is low when idle
	 * CPHA = 0 --> data is sampled at the first edge
	 */
	SPI_InitStruct.SPI_Direction = SPI_Direction_2Lines_FullDuplex; // set to full duplex mode, seperate MOSI and MISO lines
 800044e:	2300      	movs	r3, #0
 8000450:	f8a7 304c 	strh.w	r3, [r7, #76]	; 0x4c
	SPI_InitStruct.SPI_Mode = SPI_Mode_Master;     // transmit in master mode, NSS pin has to be always high
 8000454:	f44f 7382 	mov.w	r3, #260	; 0x104
 8000458:	f8a7 304e 	strh.w	r3, [r7, #78]	; 0x4e
	SPI_InitStruct.SPI_DataSize = SPI_DataSize_8b; // one packet of data is 8 bits wide
 800045c:	2300      	movs	r3, #0
 800045e:	f8a7 3050 	strh.w	r3, [r7, #80]	; 0x50
	SPI_InitStruct.SPI_CPOL = SPI_CPOL_Low;        // clock is low when idle
 8000462:	2300      	movs	r3, #0
 8000464:	f8a7 3052 	strh.w	r3, [r7, #82]	; 0x52
	SPI_InitStruct.SPI_CPHA = SPI_CPHA_1Edge;      // data sampled at second edge
 8000468:	2300      	movs	r3, #0
 800046a:	f8a7 3054 	strh.w	r3, [r7, #84]	; 0x54
	SPI_InitStruct.SPI_NSS = SPI_NSS_Soft | SPI_NSSInternalSoft_Set; // set the NSS management to internal and pull internal NSS high
 800046e:	f44f 7340 	mov.w	r3, #768	; 0x300
 8000472:	f8a7 3056 	strh.w	r3, [r7, #86]	; 0x56
	SPI_InitStruct.SPI_BaudRatePrescaler = SPI_BaudRatePrescaler_4; // SPI frequency is APB2 frequency / 4
 8000476:	2308      	movs	r3, #8
 8000478:	f8a7 3058 	strh.w	r3, [r7, #88]	; 0x58
	SPI_InitStruct.SPI_FirstBit = SPI_FirstBit_MSB;// data is transmitted MSB first
 800047c:	2300      	movs	r3, #0
 800047e:	f8a7 305a 	strh.w	r3, [r7, #90]	; 0x5a
	SPI_Init(SPIx, &SPI_InitStruct); 
 8000482:	f107 034c 	add.w	r3, r7, #76	; 0x4c
 8000486:	4865      	ldr	r0, [pc, #404]	; (800061c <init_SPIx+0x30c>)
 8000488:	4619      	mov	r1, r3
 800048a:	f007 fc91 	bl	8007db0 <SPI_Init>
	
	SPI_Cmd(SPIx, ENABLE);			
 800048e:	4863      	ldr	r0, [pc, #396]	; (800061c <init_SPIx+0x30c>)
 8000490:	2101      	movs	r1, #1
 8000492:	f007 fd7f 	bl	8007f94 <SPI_Cmd>
	

	/* setup DMA */

	// enable clock 
	RCC_AHB1PeriphClockCmd (SPIx_DMA_CLK, ENABLE); 
 8000496:	f44f 0080 	mov.w	r0, #4194304	; 0x400000
 800049a:	2101      	movs	r1, #1
 800049c:	f007 fc18 	bl	8007cd0 <RCC_AHB1PeriphClockCmd>
	
	// start with blank DMA configuration
	DMA_DeInit (SPIx_TX_DMA_STREAM);
 80004a0:	485f      	ldr	r0, [pc, #380]	; (8000620 <init_SPIx+0x310>)
 80004a2:	f006 f845 	bl	8006530 <DMA_DeInit>
	DMA_DeInit (SPIx_RX_DMA_STREAM);
 80004a6:	485f      	ldr	r0, [pc, #380]	; (8000624 <init_SPIx+0x314>)
 80004a8:	f006 f842 	bl	8006530 <DMA_DeInit>

	// check if DMA stream is disabled before enabling 
	// this is useful when stream is enabled and disabled multiple times. 
	while (DMA_GetCmdStatus (SPIx_TX_DMA_STREAM) != DISABLE);
 80004ac:	bf00      	nop
 80004ae:	485c      	ldr	r0, [pc, #368]	; (8000620 <init_SPIx+0x310>)
 80004b0:	f006 fc4e 	bl	8006d50 <DMA_GetCmdStatus>
 80004b4:	4603      	mov	r3, r0
 80004b6:	2b00      	cmp	r3, #0
 80004b8:	d1f9      	bne.n	80004ae <init_SPIx+0x19e>
	while (DMA_GetCmdStatus (SPIx_RX_DMA_STREAM) != DISABLE);
 80004ba:	bf00      	nop
 80004bc:	4859      	ldr	r0, [pc, #356]	; (8000624 <init_SPIx+0x314>)
 80004be:	f006 fc47 	bl	8006d50 <DMA_GetCmdStatus>
 80004c2:	4603      	mov	r3, r0
 80004c4:	2b00      	cmp	r3, #0
 80004c6:	d1f9      	bne.n	80004bc <init_SPIx+0x1ac>
	
	
	DMA_StructInit(&DMA_InitStruct);
 80004c8:	f107 0310 	add.w	r3, r7, #16
 80004cc:	4618      	mov	r0, r3
 80004ce:	f006 fb09 	bl	8006ae4 <DMA_StructInit>
  	//Configure DMA Initialization Structure
	//DMA_InitStruct.DMA_FIFOMode = DMA_FIFOMode_Disable ;
 	//DMA_InitStruct.DMA_FIFOThreshold = DMA_FIFOThreshold_HalfFull ;
  	//DMA_InitStruct.DMA_MemoryBurst = DMA_MemoryBurst_Single ;
  	DMA_InitStruct.DMA_MemoryDataSize = DMA_MemoryDataSize_Byte;
 80004d2:	2300      	movs	r3, #0
 80004d4:	633b      	str	r3, [r7, #48]	; 0x30
  	DMA_InitStruct.DMA_MemoryInc = DMA_MemoryInc_Enable;
 80004d6:	f44f 6380 	mov.w	r3, #1024	; 0x400
 80004da:	62bb      	str	r3, [r7, #40]	; 0x28
  	DMA_InitStruct.DMA_Mode = DMA_Mode_Normal;
 80004dc:	2300      	movs	r3, #0
 80004de:	637b      	str	r3, [r7, #52]	; 0x34
  	DMA_InitStruct.DMA_PeripheralBaseAddr =(uint32_t) (&(SPIx->DR)) ;
 80004e0:	4b51      	ldr	r3, [pc, #324]	; (8000628 <init_SPIx+0x318>)
 80004e2:	617b      	str	r3, [r7, #20]
  	DMA_InitStruct.DMA_PeripheralBurst = DMA_PeripheralBurst_Single;
 80004e4:	2300      	movs	r3, #0
 80004e6:	64bb      	str	r3, [r7, #72]	; 0x48
  	DMA_InitStruct.DMA_PeripheralDataSize = DMA_PeripheralDataSize_Byte;
 80004e8:	2300      	movs	r3, #0
 80004ea:	62fb      	str	r3, [r7, #44]	; 0x2c
  	DMA_InitStruct.DMA_PeripheralInc = DMA_PeripheralInc_Disable;
 80004ec:	2300      	movs	r3, #0
 80004ee:	627b      	str	r3, [r7, #36]	; 0x24
  	DMA_InitStruct.DMA_Priority = DMA_Priority_High;
 80004f0:	f44f 3300 	mov.w	r3, #131072	; 0x20000
 80004f4:	63bb      	str	r3, [r7, #56]	; 0x38
  	// Configure TX DMA 
  	DMA_InitStruct.DMA_Channel = SPIx_TX_DMA_CHANNEL ;
 80004f6:	f04f 63c0 	mov.w	r3, #100663296	; 0x6000000
 80004fa:	613b      	str	r3, [r7, #16]
  	DMA_InitStruct.DMA_DIR = DMA_DIR_MemoryToPeripheral ;
 80004fc:	2340      	movs	r3, #64	; 0x40
 80004fe:	61fb      	str	r3, [r7, #28]
  	DMA_InitStruct.DMA_Memory0BaseAddr = (uint32_t) &bufferTX ;
 8000500:	4b4a      	ldr	r3, [pc, #296]	; (800062c <init_SPIx+0x31c>)
 8000502:	61bb      	str	r3, [r7, #24]
	DMA_InitStruct.DMA_BufferSize = MAX_BUFFER_LENGTH;
 8000504:	f44f 63fa 	mov.w	r3, #2000	; 0x7d0
 8000508:	623b      	str	r3, [r7, #32]
  	DMA_Init(SPIx_TX_DMA_STREAM, &DMA_InitStruct);
 800050a:	f107 0310 	add.w	r3, r7, #16
 800050e:	4844      	ldr	r0, [pc, #272]	; (8000620 <init_SPIx+0x310>)
 8000510:	4619      	mov	r1, r3
 8000512:	f006 f923 	bl	800675c <DMA_Init>
	// Configure RX DMA 
  	DMA_InitStruct.DMA_Channel = SPIx_RX_DMA_CHANNEL ;
 8000516:	f04f 63c0 	mov.w	r3, #100663296	; 0x6000000
 800051a:	613b      	str	r3, [r7, #16]
	DMA_InitStruct.DMA_DIR = DMA_DIR_PeripheralToMemory ;
 800051c:	2300      	movs	r3, #0
 800051e:	61fb      	str	r3, [r7, #28]
	DMA_InitStruct.DMA_Memory0BaseAddr = (uint32_t)&bufferRX; 
 8000520:	4b43      	ldr	r3, [pc, #268]	; (8000630 <init_SPIx+0x320>)
 8000522:	61bb      	str	r3, [r7, #24]
	DMA_InitStruct.DMA_BufferSize = MAX_BUFFER_LENGTH;
 8000524:	f44f 63fa 	mov.w	r3, #2000	; 0x7d0
 8000528:	623b      	str	r3, [r7, #32]
	DMA_Init(SPIx_RX_DMA_STREAM, &DMA_InitStruct);	
 800052a:	f107 0310 	add.w	r3, r7, #16
 800052e:	483d      	ldr	r0, [pc, #244]	; (8000624 <init_SPIx+0x314>)
 8000530:	4619      	mov	r1, r3
 8000532:	f006 f913 	bl	800675c <DMA_Init>
	
	DMA_ITConfig(SPIx_TX_DMA_STREAM, DMA_IT_TC, ENABLE); 
 8000536:	483a      	ldr	r0, [pc, #232]	; (8000620 <init_SPIx+0x310>)
 8000538:	2110      	movs	r1, #16
 800053a:	2201      	movs	r2, #1
 800053c:	f006 fc86 	bl	8006e4c <DMA_ITConfig>
	DMA_ITConfig(SPIx_RX_DMA_STREAM, DMA_IT_TC, ENABLE); 
 8000540:	4838      	ldr	r0, [pc, #224]	; (8000624 <init_SPIx+0x314>)
 8000542:	2110      	movs	r1, #16
 8000544:	2201      	movs	r2, #1
 8000546:	f006 fc81 	bl	8006e4c <DMA_ITConfig>
  
	SPI_I2S_ClearFlag(SPIx, SPI_I2S_FLAG_TXE);
 800054a:	4834      	ldr	r0, [pc, #208]	; (800061c <init_SPIx+0x30c>)
 800054c:	2102      	movs	r1, #2
 800054e:	f007 fe1f 	bl	8008190 <SPI_I2S_ClearFlag>
	SPI_I2S_ClearFlag(SPIx, SPI_I2S_FLAG_RXNE);
 8000552:	4832      	ldr	r0, [pc, #200]	; (800061c <init_SPIx+0x30c>)
 8000554:	2101      	movs	r1, #1
 8000556:	f007 fe1b 	bl	8008190 <SPI_I2S_ClearFlag>
  	
	// enable the interrupt in the NVIC
 	NVIC_InitStruct.NVIC_IRQChannel = SPIx_TX_DMA_IRQn;
 800055a:	233b      	movs	r3, #59	; 0x3b
 800055c:	733b      	strb	r3, [r7, #12]
  	NVIC_InitStruct.NVIC_IRQChannelPreemptionPriority = configLIBRARY_MAX_SYSCALL_INTERRUPT_PRIORITY + 2;
 800055e:	2307      	movs	r3, #7
 8000560:	737b      	strb	r3, [r7, #13]
 	NVIC_InitStruct.NVIC_IRQChannelSubPriority = 0x1;
 8000562:	2301      	movs	r3, #1
 8000564:	73bb      	strb	r3, [r7, #14]
  	NVIC_InitStruct.NVIC_IRQChannelCmd = ENABLE;
 8000566:	2301      	movs	r3, #1
 8000568:	73fb      	strb	r3, [r7, #15]
  	NVIC_Init (&NVIC_InitStruct);
 800056a:	f107 030c 	add.w	r3, r7, #12
 800056e:	4618      	mov	r0, r3
 8000570:	f005 ff64 	bl	800643c <NVIC_Init>
	// enable the interrupt in the NVIC
 	NVIC_InitStruct.NVIC_IRQChannel = SPIx_RX_DMA_IRQn;
 8000574:	233a      	movs	r3, #58	; 0x3a
 8000576:	733b      	strb	r3, [r7, #12]
   	NVIC_InitStruct.NVIC_IRQChannelPreemptionPriority = configLIBRARY_MAX_SYSCALL_INTERRUPT_PRIORITY + 2;
 8000578:	2307      	movs	r3, #7
 800057a:	737b      	strb	r3, [r7, #13]
 	NVIC_InitStruct.NVIC_IRQChannelSubPriority = 0x1;
 800057c:	2301      	movs	r3, #1
 800057e:	73bb      	strb	r3, [r7, #14]
  	NVIC_InitStruct.NVIC_IRQChannelCmd = ENABLE;
 8000580:	2301      	movs	r3, #1
 8000582:	73fb      	strb	r3, [r7, #15]
  	NVIC_Init (&NVIC_InitStruct);
 8000584:	f107 030c 	add.w	r3, r7, #12
 8000588:	4618      	mov	r0, r3
 800058a:	f005 ff57 	bl	800643c <NVIC_Init>
  	// Enable dma tx and rx request
	SPI_I2S_DMACmd (SPIx, SPI_I2S_DMAReq_Tx, ENABLE);	
 800058e:	4823      	ldr	r0, [pc, #140]	; (800061c <init_SPIx+0x30c>)
 8000590:	2102      	movs	r1, #2
 8000592:	2201      	movs	r2, #1
 8000594:	f007 fd40 	bl	8008018 <SPI_I2S_DMACmd>
	SPI_I2S_DMACmd (SPIx, SPI_I2S_DMAReq_Rx, ENABLE);	
 8000598:	4820      	ldr	r0, [pc, #128]	; (800061c <init_SPIx+0x30c>)
 800059a:	2101      	movs	r1, #1
 800059c:	2201      	movs	r2, #1
 800059e:	f007 fd3b 	bl	8008018 <SPI_I2S_DMACmd>
	

	/* Configure interrupt pin */
	GPIO_InitStruct.GPIO_Pin = WIZ_IT_PIN;
 80005a2:	2310      	movs	r3, #16
 80005a4:	663b      	str	r3, [r7, #96]	; 0x60
	GPIO_InitStruct.GPIO_Mode = GPIO_Mode_IN;
 80005a6:	2300      	movs	r3, #0
 80005a8:	f887 3064 	strb.w	r3, [r7, #100]	; 0x64
	GPIO_InitStruct.GPIO_OType = GPIO_OType_PP;
 80005ac:	2300      	movs	r3, #0
 80005ae:	f887 3066 	strb.w	r3, [r7, #102]	; 0x66
	GPIO_InitStruct.GPIO_PuPd = GPIO_PuPd_NOPULL;
 80005b2:	2300      	movs	r3, #0
 80005b4:	f887 3067 	strb.w	r3, [r7, #103]	; 0x67
	GPIO_InitStruct.GPIO_Speed = GPIO_Speed_100MHz;
 80005b8:	2303      	movs	r3, #3
 80005ba:	f887 3065 	strb.w	r3, [r7, #101]	; 0x65
	GPIO_Init(WIZ_IT_GPIO_PORT, &GPIO_InitStruct);	
 80005be:	f107 0360 	add.w	r3, r7, #96	; 0x60
 80005c2:	4815      	ldr	r0, [pc, #84]	; (8000618 <init_SPIx+0x308>)
 80005c4:	4619      	mov	r1, r3
 80005c6:	f007 f89b 	bl	8007700 <GPIO_Init>
	
	EXTI_InitTypeDef EXTI_InitStruct;
	NVIC_InitTypeDef NVIC_InitStruct1;
	/* Connect EXTI Line to appropriate GPIO Pin */ 
	
	RCC_APB2PeriphClockCmd(RCC_APB2Periph_SYSCFG, ENABLE);
 80005ca:	f44f 4080 	mov.w	r0, #16384	; 0x4000
 80005ce:	2101      	movs	r1, #1
 80005d0:	f007 fbb6 	bl	8007d40 <RCC_APB2PeriphClockCmd>

	SYSCFG_EXTILineConfig(WIZ_IT_EXTI_PORT_SOURCE, WIZ_IT_EXTI_PIN_SOURCE);
 80005d4:	2002      	movs	r0, #2
 80005d6:	2104      	movs	r1, #4
 80005d8:	f007 fe14 	bl	8008204 <SYSCFG_EXTILineConfig>
	
	/* Configure EXTI Line */
	EXTI_InitStruct.EXTI_Line = WIZ_IT_EXTI_LINE;
 80005dc:	2310      	movs	r3, #16
 80005de:	607b      	str	r3, [r7, #4]
 	EXTI_InitStruct.EXTI_Mode = EXTI_Mode_Interrupt;
 80005e0:	2300      	movs	r3, #0
 80005e2:	723b      	strb	r3, [r7, #8]
	EXTI_InitStruct.EXTI_Trigger = EXTI_Trigger_Falling;
 80005e4:	230c      	movs	r3, #12
 80005e6:	727b      	strb	r3, [r7, #9]
	EXTI_InitStruct.EXTI_LineCmd = ENABLE;
 80005e8:	2301      	movs	r3, #1
 80005ea:	72bb      	strb	r3, [r7, #10]
	EXTI_Init(&EXTI_InitStruct);
 80005ec:	1d3b      	adds	r3, r7, #4
 80005ee:	4618      	mov	r0, r3
 80005f0:	f006 ff4a 	bl	8007488 <EXTI_Init>
 	
 	/* Enable and set EXTI Line Interrupt */
	NVIC_InitStruct1.NVIC_IRQChannel = WIZ_IT_EXTI_IRQn;
 80005f4:	230a      	movs	r3, #10
 80005f6:	703b      	strb	r3, [r7, #0]
 	NVIC_InitStruct1.NVIC_IRQChannelPreemptionPriority = configLIBRARY_MAX_SYSCALL_INTERRUPT_PRIORITY + 4;
 80005f8:	2309      	movs	r3, #9
 80005fa:	707b      	strb	r3, [r7, #1]
	NVIC_InitStruct1.NVIC_IRQChannelSubPriority = 0x3;
 80005fc:	2303      	movs	r3, #3
 80005fe:	70bb      	strb	r3, [r7, #2]
 	NVIC_InitStruct1.NVIC_IRQChannelCmd = ENABLE;
 8000600:	2301      	movs	r3, #1
 8000602:	70fb      	strb	r3, [r7, #3]
	NVIC_Init(&NVIC_InitStruct1);
 8000604:	463b      	mov	r3, r7
 8000606:	4618      	mov	r0, r3
 8000608:	f005 ff18 	bl	800643c <NVIC_Init>


	
}
 800060c:	3768      	adds	r7, #104	; 0x68
 800060e:	46bd      	mov	sp, r7
 8000610:	bd80      	pop	{r7, pc}
 8000612:	bf00      	nop
 8000614:	40020000 	.word	0x40020000
 8000618:	40020800 	.word	0x40020800
 800061c:	40013000 	.word	0x40013000
 8000620:	40026458 	.word	0x40026458
 8000624:	40026440 	.word	0x40026440
 8000628:	4001300c 	.word	0x4001300c
 800062c:	20013a50 	.word	0x20013a50
 8000630:	20013278 	.word	0x20013278

08000634 <DMA2_Stream2_IRQHandler>:

void DMA2_Stream2_IRQHandler()
{
 8000634:	b580      	push	{r7, lr}
 8000636:	b082      	sub	sp, #8
 8000638:	af00      	add	r7, sp, #0
	/*!	\var static unsigned portBASE_TYPE xHigherPriorityTaskWoken
	 * 	\brief Indicates if higher priority has been woken
	 */

	unsigned portBASE_TYPE xHigherPriorityTaskWoken = pdFalse;
 800063a:	2300      	movs	r3, #0
 800063c:	607b      	str	r3, [r7, #4]

  // Test if DMA Stream Transfer Complete interrupt
  if (DMA_GetITStatus (SPIx_RX_DMA_STREAM, DMA_IT_TCIF2)) {
 800063e:	481d      	ldr	r0, [pc, #116]	; (80006b4 <DMA2_Stream2_IRQHandler+0x80>)
 8000640:	491d      	ldr	r1, [pc, #116]	; (80006b8 <DMA2_Stream2_IRQHandler+0x84>)
 8000642:	f006 fcb9 	bl	8006fb8 <DMA_GetITStatus>
 8000646:	4603      	mov	r3, r0
 8000648:	2b00      	cmp	r3, #0
 800064a:	d028      	beq.n	800069e <DMA2_Stream2_IRQHandler+0x6a>
    
	DMA_ClearITPendingBit (SPIx_RX_DMA_STREAM, DMA_IT_TCIF2);
 800064c:	4819      	ldr	r0, [pc, #100]	; (80006b4 <DMA2_Stream2_IRQHandler+0x80>)
 800064e:	491a      	ldr	r1, [pc, #104]	; (80006b8 <DMA2_Stream2_IRQHandler+0x84>)
 8000650:	f006 fe6e 	bl	8007330 <DMA_ClearITPendingBit>
	
	while (SPI_I2S_GetFlagStatus (SPIx, SPI_I2S_FLAG_BSY) == SET);
 8000654:	bf00      	nop
 8000656:	4819      	ldr	r0, [pc, #100]	; (80006bc <DMA2_Stream2_IRQHandler+0x88>)
 8000658:	2180      	movs	r1, #128	; 0x80
 800065a:	f007 fd3b 	bl	80080d4 <SPI_I2S_GetFlagStatus>
 800065e:	4603      	mov	r3, r0
 8000660:	2b01      	cmp	r3, #1
 8000662:	d0f8      	beq.n	8000656 <DMA2_Stream2_IRQHandler+0x22>
     * Now we can deselect the display. If more than one peripheral was being run
     * on this SPI peripheral, we would have to do both/all of them, or work out
     * which one was active and deselect that one.i
	
     */
	CSOFF();
 8000664:	4b16      	ldr	r3, [pc, #88]	; (80006c0 <DMA2_Stream2_IRQHandler+0x8c>)
 8000666:	4a16      	ldr	r2, [pc, #88]	; (80006c0 <DMA2_Stream2_IRQHandler+0x8c>)
 8000668:	8b12      	ldrh	r2, [r2, #24]
 800066a:	b292      	uxth	r2, r2
 800066c:	f042 0210 	orr.w	r2, r2, #16
 8000670:	b292      	uxth	r2, r2
 8000672:	831a      	strh	r2, [r3, #24]
	DMA_Cmd(SPIx_TX_DMA_STREAM, DISABLE);		
 8000674:	4813      	ldr	r0, [pc, #76]	; (80006c4 <DMA2_Stream2_IRQHandler+0x90>)
 8000676:	2100      	movs	r1, #0
 8000678:	f006 fa6a 	bl	8006b50 <DMA_Cmd>
	DMA_Cmd(SPIx_RX_DMA_STREAM, DISABLE);		
 800067c:	480d      	ldr	r0, [pc, #52]	; (80006b4 <DMA2_Stream2_IRQHandler+0x80>)
 800067e:	2100      	movs	r1, #0
 8000680:	f006 fa66 	bl	8006b50 <DMA_Cmd>
 
	taskENTER_CRITICAL(); 
 8000684:	f004 fec2 	bl	800540c <vPortEnterCritical>
//       xSemaphoreGive( xSemaphoreDMASPI);
	xSemaphoreGiveFromISR( xSemaphoreDMASPI, &xHigherPriorityTaskWoken );
 8000688:	4b0f      	ldr	r3, [pc, #60]	; (80006c8 <DMA2_Stream2_IRQHandler+0x94>)
 800068a:	681a      	ldr	r2, [r3, #0]
 800068c:	1d3b      	adds	r3, r7, #4
 800068e:	4610      	mov	r0, r2
 8000690:	2100      	movs	r1, #0
 8000692:	461a      	mov	r2, r3
 8000694:	2300      	movs	r3, #0
 8000696:	f004 facb 	bl	8004c30 <xQueueGenericSendFromISR>
	taskEXIT_CRITICAL(); //
 800069a:	f004 fec7 	bl	800542c <vPortExitCritical>
  }	
 portEND_SWITCHING_ISR( xHigherPriorityTaskWoken );
 800069e:	687b      	ldr	r3, [r7, #4]
 80006a0:	2b00      	cmp	r3, #0
 80006a2:	d003      	beq.n	80006ac <DMA2_Stream2_IRQHandler+0x78>
 80006a4:	4b09      	ldr	r3, [pc, #36]	; (80006cc <DMA2_Stream2_IRQHandler+0x98>)
 80006a6:	f04f 5280 	mov.w	r2, #268435456	; 0x10000000
 80006aa:	601a      	str	r2, [r3, #0]
}
 80006ac:	3708      	adds	r7, #8
 80006ae:	46bd      	mov	sp, r7
 80006b0:	bd80      	pop	{r7, pc}
 80006b2:	bf00      	nop
 80006b4:	40026440 	.word	0x40026440
 80006b8:	10208000 	.word	0x10208000
 80006bc:	40013000 	.word	0x40013000
 80006c0:	40020000 	.word	0x40020000
 80006c4:	40026458 	.word	0x40026458
 80006c8:	20013260 	.word	0x20013260
 80006cc:	e000ed04 	.word	0xe000ed04

080006d0 <DMA2_Stream3_IRQHandler>:
void DMA2_Stream3_IRQHandler()
{
 80006d0:	b580      	push	{r7, lr}
 80006d2:	b082      	sub	sp, #8
 80006d4:	af00      	add	r7, sp, #0
	/*!	\var static unsigned portBASE_TYPE xHigherPriorityTaskWoken
	 * 	\brief Indicates if higher priority has been woken
	 */

	unsigned portBASE_TYPE xHigherPriorityTaskWoken = pdFalse;
 80006d6:	2300      	movs	r3, #0
 80006d8:	607b      	str	r3, [r7, #4]

  // Test if DMA Stream Transfer Complete interrupt
  if (DMA_GetITStatus (SPIx_TX_DMA_STREAM, DMA_IT_TCIF3)) {
 80006da:	481d      	ldr	r0, [pc, #116]	; (8000750 <DMA2_Stream3_IRQHandler+0x80>)
 80006dc:	491d      	ldr	r1, [pc, #116]	; (8000754 <DMA2_Stream3_IRQHandler+0x84>)
 80006de:	f006 fc6b 	bl	8006fb8 <DMA_GetITStatus>
 80006e2:	4603      	mov	r3, r0
 80006e4:	2b00      	cmp	r3, #0
 80006e6:	d028      	beq.n	800073a <DMA2_Stream3_IRQHandler+0x6a>
    
	DMA_ClearITPendingBit (SPIx_TX_DMA_STREAM, DMA_IT_TCIF3);
 80006e8:	4819      	ldr	r0, [pc, #100]	; (8000750 <DMA2_Stream3_IRQHandler+0x80>)
 80006ea:	491a      	ldr	r1, [pc, #104]	; (8000754 <DMA2_Stream3_IRQHandler+0x84>)
 80006ec:	f006 fe20 	bl	8007330 <DMA_ClearITPendingBit>
	
	while (SPI_I2S_GetFlagStatus (SPIx, SPI_I2S_FLAG_BSY) == SET);
 80006f0:	bf00      	nop
 80006f2:	4819      	ldr	r0, [pc, #100]	; (8000758 <DMA2_Stream3_IRQHandler+0x88>)
 80006f4:	2180      	movs	r1, #128	; 0x80
 80006f6:	f007 fced 	bl	80080d4 <SPI_I2S_GetFlagStatus>
 80006fa:	4603      	mov	r3, r0
 80006fc:	2b01      	cmp	r3, #1
 80006fe:	d0f8      	beq.n	80006f2 <DMA2_Stream3_IRQHandler+0x22>
     * Now we can deselect the display. If more than one peripheral was being run
     * on this SPI peripheral, we would have to do both/all of them, or work out
     * which one was active and deselect that one.i
	
     */
	CSOFF();
 8000700:	4b16      	ldr	r3, [pc, #88]	; (800075c <DMA2_Stream3_IRQHandler+0x8c>)
 8000702:	4a16      	ldr	r2, [pc, #88]	; (800075c <DMA2_Stream3_IRQHandler+0x8c>)
 8000704:	8b12      	ldrh	r2, [r2, #24]
 8000706:	b292      	uxth	r2, r2
 8000708:	f042 0210 	orr.w	r2, r2, #16
 800070c:	b292      	uxth	r2, r2
 800070e:	831a      	strh	r2, [r3, #24]
	DMA_Cmd(SPIx_TX_DMA_STREAM, DISABLE);		
 8000710:	480f      	ldr	r0, [pc, #60]	; (8000750 <DMA2_Stream3_IRQHandler+0x80>)
 8000712:	2100      	movs	r1, #0
 8000714:	f006 fa1c 	bl	8006b50 <DMA_Cmd>
	DMA_Cmd(SPIx_RX_DMA_STREAM, DISABLE);		
 8000718:	4811      	ldr	r0, [pc, #68]	; (8000760 <DMA2_Stream3_IRQHandler+0x90>)
 800071a:	2100      	movs	r1, #0
 800071c:	f006 fa18 	bl	8006b50 <DMA_Cmd>
       
	taskENTER_CRITICAL(); 
 8000720:	f004 fe74 	bl	800540c <vPortEnterCritical>
//	 xSemaphoreGive( xSemaphoreDMASPI );
	xSemaphoreGiveFromISR( xSemaphoreDMASPI, &xHigherPriorityTaskWoken );
 8000724:	4b0f      	ldr	r3, [pc, #60]	; (8000764 <DMA2_Stream3_IRQHandler+0x94>)
 8000726:	681a      	ldr	r2, [r3, #0]
 8000728:	1d3b      	adds	r3, r7, #4
 800072a:	4610      	mov	r0, r2
 800072c:	2100      	movs	r1, #0
 800072e:	461a      	mov	r2, r3
 8000730:	2300      	movs	r3, #0
 8000732:	f004 fa7d 	bl	8004c30 <xQueueGenericSendFromISR>
 	taskEXIT_CRITICAL();  
 8000736:	f004 fe79 	bl	800542c <vPortExitCritical>
 }
   portEND_SWITCHING_ISR( xHigherPriorityTaskWoken );
 800073a:	687b      	ldr	r3, [r7, #4]
 800073c:	2b00      	cmp	r3, #0
 800073e:	d003      	beq.n	8000748 <DMA2_Stream3_IRQHandler+0x78>
 8000740:	4b09      	ldr	r3, [pc, #36]	; (8000768 <DMA2_Stream3_IRQHandler+0x98>)
 8000742:	f04f 5280 	mov.w	r2, #268435456	; 0x10000000
 8000746:	601a      	str	r2, [r3, #0]
}
 8000748:	3708      	adds	r7, #8
 800074a:	46bd      	mov	sp, r7
 800074c:	bd80      	pop	{r7, pc}
 800074e:	bf00      	nop
 8000750:	40026458 	.word	0x40026458
 8000754:	18008000 	.word	0x18008000
 8000758:	40013000 	.word	0x40013000
 800075c:	40020000 	.word	0x40020000
 8000760:	40026440 	.word	0x40026440
 8000764:	20013260 	.word	0x20013260
 8000768:	e000ed04 	.word	0xe000ed04

0800076c <spi_dma_send>:


/*---------------------------- Matic Knap 25 Jun 2014 ---------------------*/

void spi_dma_send(uint16_t address, uint16_t data_len, uint8_t *data_buf)
{
 800076c:	e92d 43f0 	stmdb	sp!, {r4, r5, r6, r7, r8, r9, lr}
 8000770:	b087      	sub	sp, #28
 8000772:	af00      	add	r7, sp, #0
 8000774:	460b      	mov	r3, r1
 8000776:	603a      	str	r2, [r7, #0]
 8000778:	4602      	mov	r2, r0
 800077a:	80fa      	strh	r2, [r7, #6]
 800077c:	80bb      	strh	r3, [r7, #4]
 800077e:	466b      	mov	r3, sp
 8000780:	461e      	mov	r6, r3
		uint8_t buffer[data_len+4];
 8000782:	88bb      	ldrh	r3, [r7, #4]
 8000784:	1d19      	adds	r1, r3, #4
 8000786:	1e4b      	subs	r3, r1, #1
 8000788:	613b      	str	r3, [r7, #16]
 800078a:	460b      	mov	r3, r1
 800078c:	461a      	mov	r2, r3
 800078e:	f04f 0300 	mov.w	r3, #0
 8000792:	ea4f 09c3 	mov.w	r9, r3, lsl #3
 8000796:	ea49 7952 	orr.w	r9, r9, r2, lsr #29
 800079a:	ea4f 08c2 	mov.w	r8, r2, lsl #3
 800079e:	460b      	mov	r3, r1
 80007a0:	461a      	mov	r2, r3
 80007a2:	f04f 0300 	mov.w	r3, #0
 80007a6:	00dd      	lsls	r5, r3, #3
 80007a8:	ea45 7552 	orr.w	r5, r5, r2, lsr #29
 80007ac:	00d4      	lsls	r4, r2, #3
 80007ae:	460b      	mov	r3, r1
 80007b0:	3307      	adds	r3, #7
 80007b2:	08db      	lsrs	r3, r3, #3
 80007b4:	00db      	lsls	r3, r3, #3
 80007b6:	ebad 0d03 	sub.w	sp, sp, r3
 80007ba:	466b      	mov	r3, sp
 80007bc:	3300      	adds	r3, #0
 80007be:	60fb      	str	r3, [r7, #12]
		buffer[0] = ((address & 0xff00) >> 8); // addres byte 1 
 80007c0:	88fb      	ldrh	r3, [r7, #6]
 80007c2:	0a1b      	lsrs	r3, r3, #8
 80007c4:	b29b      	uxth	r3, r3
 80007c6:	b2da      	uxtb	r2, r3
 80007c8:	68fb      	ldr	r3, [r7, #12]
 80007ca:	701a      	strb	r2, [r3, #0]
		buffer[1] = ((address & 0x00ff)); //address byte 2 
 80007cc:	88fb      	ldrh	r3, [r7, #6]
 80007ce:	b2da      	uxtb	r2, r3
 80007d0:	68fb      	ldr	r3, [r7, #12]
 80007d2:	705a      	strb	r2, [r3, #1]
		buffer[2] = ((0x80 | (data_len & 0x7f00) >> 8 ));
 80007d4:	88bb      	ldrh	r3, [r7, #4]
 80007d6:	f403 43fe 	and.w	r3, r3, #32512	; 0x7f00
 80007da:	121b      	asrs	r3, r3, #8
 80007dc:	b2db      	uxtb	r3, r3
 80007de:	f063 037f 	orn	r3, r3, #127	; 0x7f
 80007e2:	b2db      	uxtb	r3, r3
 80007e4:	b2da      	uxtb	r2, r3
 80007e6:	68fb      	ldr	r3, [r7, #12]
 80007e8:	709a      	strb	r2, [r3, #2]
		buffer[3] = (data_len & 0x00ff);
 80007ea:	88bb      	ldrh	r3, [r7, #4]
 80007ec:	b2da      	uxtb	r2, r3
 80007ee:	68fb      	ldr	r3, [r7, #12]
 80007f0:	70da      	strb	r2, [r3, #3]

		int i;
		for (i = 4 ; i < data_len+4; i++) 
 80007f2:	2304      	movs	r3, #4
 80007f4:	617b      	str	r3, [r7, #20]
 80007f6:	e00b      	b.n	8000810 <spi_dma_send+0xa4>
			buffer[i] = (data_buf[i-4]);
 80007f8:	697b      	ldr	r3, [r7, #20]
 80007fa:	3b04      	subs	r3, #4
 80007fc:	683a      	ldr	r2, [r7, #0]
 80007fe:	4413      	add	r3, r2
 8000800:	781a      	ldrb	r2, [r3, #0]
 8000802:	68f9      	ldr	r1, [r7, #12]
 8000804:	697b      	ldr	r3, [r7, #20]
 8000806:	440b      	add	r3, r1
 8000808:	701a      	strb	r2, [r3, #0]
		buffer[1] = ((address & 0x00ff)); //address byte 2 
		buffer[2] = ((0x80 | (data_len & 0x7f00) >> 8 ));
		buffer[3] = (data_len & 0x00ff);

		int i;
		for (i = 4 ; i < data_len+4; i++) 
 800080a:	697b      	ldr	r3, [r7, #20]
 800080c:	3301      	adds	r3, #1
 800080e:	617b      	str	r3, [r7, #20]
 8000810:	88bb      	ldrh	r3, [r7, #4]
 8000812:	1d1a      	adds	r2, r3, #4
 8000814:	697b      	ldr	r3, [r7, #20]
 8000816:	429a      	cmp	r2, r3
 8000818:	dcee      	bgt.n	80007f8 <spi_dma_send+0x8c>
			buffer[i] = (data_buf[i-4]);
		DMA_SetCurrDataCounter(SPIx_TX_DMA_STREAM, data_len + 4);
 800081a:	88bb      	ldrh	r3, [r7, #4]
 800081c:	3304      	adds	r3, #4
 800081e:	b29b      	uxth	r3, r3
 8000820:	4812      	ldr	r0, [pc, #72]	; (800086c <spi_dma_send+0x100>)
 8000822:	4619      	mov	r1, r3
 8000824:	f006 fa20 	bl	8006c68 <DMA_SetCurrDataCounter>
		SPIx_TX_DMA_STREAM->M0AR =(uint32_t) &buffer;	
 8000828:	4b10      	ldr	r3, [pc, #64]	; (800086c <spi_dma_send+0x100>)
 800082a:	68fa      	ldr	r2, [r7, #12]
 800082c:	60da      	str	r2, [r3, #12]
		CSON(); // chip select 
 800082e:	4b10      	ldr	r3, [pc, #64]	; (8000870 <spi_dma_send+0x104>)
 8000830:	4a0f      	ldr	r2, [pc, #60]	; (8000870 <spi_dma_send+0x104>)
 8000832:	8b52      	ldrh	r2, [r2, #26]
 8000834:	b292      	uxth	r2, r2
 8000836:	f042 0210 	orr.w	r2, r2, #16
 800083a:	b292      	uxth	r2, r2
 800083c:	835a      	strh	r2, [r3, #26]
		DMA_Cmd(SPIx_TX_DMA_STREAM, ENABLE);		
 800083e:	480b      	ldr	r0, [pc, #44]	; (800086c <spi_dma_send+0x100>)
 8000840:	2101      	movs	r1, #1
 8000842:	f006 f985 	bl	8006b50 <DMA_Cmd>
		DMA_Cmd(SPIx_RX_DMA_STREAM, ENABLE);	
 8000846:	480b      	ldr	r0, [pc, #44]	; (8000874 <spi_dma_send+0x108>)
 8000848:	2101      	movs	r1, #1
 800084a:	f006 f981 	bl	8006b50 <DMA_Cmd>
		/* Block until the semaphore is given */
        	 xSemaphoreTake(xSemaphoreDMASPI, portMAX_DELAY);
 800084e:	4b0a      	ldr	r3, [pc, #40]	; (8000878 <spi_dma_send+0x10c>)
 8000850:	681b      	ldr	r3, [r3, #0]
 8000852:	4618      	mov	r0, r3
 8000854:	2100      	movs	r1, #0
 8000856:	f04f 32ff 	mov.w	r2, #4294967295	; 0xffffffff
 800085a:	2300      	movs	r3, #0
 800085c:	f004 fa52 	bl	8004d04 <xQueueGenericReceive>
 8000860:	46b5      	mov	sp, r6

	//	CSOFF(); // chip deselect 
			
	
}
 8000862:	371c      	adds	r7, #28
 8000864:	46bd      	mov	sp, r7
 8000866:	e8bd 83f0 	ldmia.w	sp!, {r4, r5, r6, r7, r8, r9, pc}
 800086a:	bf00      	nop
 800086c:	40026458 	.word	0x40026458
 8000870:	40020000 	.word	0x40020000
 8000874:	40026440 	.word	0x40026440
 8000878:	20013260 	.word	0x20013260

0800087c <spi_dma_send2B>:

void spi_dma_send2B(uint16_t address,  uint16_t data_buf)
{
 800087c:	b580      	push	{r7, lr}
 800087e:	b084      	sub	sp, #16
 8000880:	af00      	add	r7, sp, #0
 8000882:	4602      	mov	r2, r0
 8000884:	460b      	mov	r3, r1
 8000886:	80fa      	strh	r2, [r7, #6]
 8000888:	80bb      	strh	r3, [r7, #4]
	uint8_t buffer[6];
	uint16_t data_len = 2;
 800088a:	2302      	movs	r3, #2
 800088c:	81fb      	strh	r3, [r7, #14]
	buffer[0] = ((address & 0xff00) >> 8); // addres byte 1 
 800088e:	88fb      	ldrh	r3, [r7, #6]
 8000890:	0a1b      	lsrs	r3, r3, #8
 8000892:	b29b      	uxth	r3, r3
 8000894:	b2db      	uxtb	r3, r3
 8000896:	723b      	strb	r3, [r7, #8]
	buffer[1] = ((address & 0x00ff)); //address byte 2 
 8000898:	88fb      	ldrh	r3, [r7, #6]
 800089a:	b2db      	uxtb	r3, r3
 800089c:	727b      	strb	r3, [r7, #9]
	buffer[2] = ((0x80 | (data_len & 0x7f00) >> 8 ));
 800089e:	89fb      	ldrh	r3, [r7, #14]
 80008a0:	f403 43fe 	and.w	r3, r3, #32512	; 0x7f00
 80008a4:	121b      	asrs	r3, r3, #8
 80008a6:	b2db      	uxtb	r3, r3
 80008a8:	f063 037f 	orn	r3, r3, #127	; 0x7f
 80008ac:	b2db      	uxtb	r3, r3
 80008ae:	b2db      	uxtb	r3, r3
 80008b0:	72bb      	strb	r3, [r7, #10]
	 buffer[3] = (data_len & 0x00ff);
 80008b2:	89fb      	ldrh	r3, [r7, #14]
 80008b4:	b2db      	uxtb	r3, r3
 80008b6:	72fb      	strb	r3, [r7, #11]
	 buffer[4] = ((data_buf & 0xff00) >> 8);
 80008b8:	88bb      	ldrh	r3, [r7, #4]
 80008ba:	0a1b      	lsrs	r3, r3, #8
 80008bc:	b29b      	uxth	r3, r3
 80008be:	b2db      	uxtb	r3, r3
 80008c0:	733b      	strb	r3, [r7, #12]
	 buffer[5] = (data_buf & 0x00ff);
 80008c2:	88bb      	ldrh	r3, [r7, #4]
 80008c4:	b2db      	uxtb	r3, r3
 80008c6:	737b      	strb	r3, [r7, #13]
	DMA_SetCurrDataCounter(SPIx_TX_DMA_STREAM, 6);
 80008c8:	4811      	ldr	r0, [pc, #68]	; (8000910 <spi_dma_send2B+0x94>)
 80008ca:	2106      	movs	r1, #6
 80008cc:	f006 f9cc 	bl	8006c68 <DMA_SetCurrDataCounter>
	SPIx_TX_DMA_STREAM->M0AR =(uint32_t) &buffer;	
 80008d0:	4b0f      	ldr	r3, [pc, #60]	; (8000910 <spi_dma_send2B+0x94>)
 80008d2:	f107 0208 	add.w	r2, r7, #8
 80008d6:	60da      	str	r2, [r3, #12]
	CSON(); // chip select 
 80008d8:	4b0e      	ldr	r3, [pc, #56]	; (8000914 <spi_dma_send2B+0x98>)
 80008da:	4a0e      	ldr	r2, [pc, #56]	; (8000914 <spi_dma_send2B+0x98>)
 80008dc:	8b52      	ldrh	r2, [r2, #26]
 80008de:	b292      	uxth	r2, r2
 80008e0:	f042 0210 	orr.w	r2, r2, #16
 80008e4:	b292      	uxth	r2, r2
 80008e6:	835a      	strh	r2, [r3, #26]
	DMA_Cmd(SPIx_TX_DMA_STREAM, ENABLE);		
 80008e8:	4809      	ldr	r0, [pc, #36]	; (8000910 <spi_dma_send2B+0x94>)
 80008ea:	2101      	movs	r1, #1
 80008ec:	f006 f930 	bl	8006b50 <DMA_Cmd>
	DMA_Cmd(SPIx_RX_DMA_STREAM, ENABLE);	
 80008f0:	4809      	ldr	r0, [pc, #36]	; (8000918 <spi_dma_send2B+0x9c>)
 80008f2:	2101      	movs	r1, #1
 80008f4:	f006 f92c 	bl	8006b50 <DMA_Cmd>
	/* Block until the semaphore is given */
        xSemaphoreTake(xSemaphoreDMASPI, portMAX_DELAY);	
 80008f8:	4b08      	ldr	r3, [pc, #32]	; (800091c <spi_dma_send2B+0xa0>)
 80008fa:	681b      	ldr	r3, [r3, #0]
 80008fc:	4618      	mov	r0, r3
 80008fe:	2100      	movs	r1, #0
 8000900:	f04f 32ff 	mov.w	r2, #4294967295	; 0xffffffff
 8000904:	2300      	movs	r3, #0
 8000906:	f004 f9fd 	bl	8004d04 <xQueueGenericReceive>
	
//	CSOFF(); // chip deselect 
			
}
 800090a:	3710      	adds	r7, #16
 800090c:	46bd      	mov	sp, r7
 800090e:	bd80      	pop	{r7, pc}
 8000910:	40026458 	.word	0x40026458
 8000914:	40020000 	.word	0x40020000
 8000918:	40026440 	.word	0x40026440
 800091c:	20013260 	.word	0x20013260

08000920 <spi_dma_sendByte>:

void spi_dma_sendByte(uint16_t address,  uint8_t data_buf)
{
 8000920:	b580      	push	{r7, lr}
 8000922:	b084      	sub	sp, #16
 8000924:	af00      	add	r7, sp, #0
 8000926:	4602      	mov	r2, r0
 8000928:	460b      	mov	r3, r1
 800092a:	80fa      	strh	r2, [r7, #6]
 800092c:	717b      	strb	r3, [r7, #5]
		uint8_t buffer[5];
		uint16_t data_len=0x1;
 800092e:	2301      	movs	r3, #1
 8000930:	81fb      	strh	r3, [r7, #14]
		buffer[0] = ((address & 0xff00) >> 8); // addres byte 1 
 8000932:	88fb      	ldrh	r3, [r7, #6]
 8000934:	0a1b      	lsrs	r3, r3, #8
 8000936:	b29b      	uxth	r3, r3
 8000938:	b2db      	uxtb	r3, r3
 800093a:	723b      	strb	r3, [r7, #8]
		buffer[1] = ((address & 0x00ff)); //address byte 2 
 800093c:	88fb      	ldrh	r3, [r7, #6]
 800093e:	b2db      	uxtb	r3, r3
 8000940:	727b      	strb	r3, [r7, #9]
		buffer[2] = ((0x80 | (data_len & 0x7f00) >> 8 ));
 8000942:	89fb      	ldrh	r3, [r7, #14]
 8000944:	f403 43fe 	and.w	r3, r3, #32512	; 0x7f00
 8000948:	121b      	asrs	r3, r3, #8
 800094a:	b2db      	uxtb	r3, r3
 800094c:	f063 037f 	orn	r3, r3, #127	; 0x7f
 8000950:	b2db      	uxtb	r3, r3
 8000952:	b2db      	uxtb	r3, r3
 8000954:	72bb      	strb	r3, [r7, #10]
		buffer[3] = (data_len & 0x00ff);
 8000956:	89fb      	ldrh	r3, [r7, #14]
 8000958:	b2db      	uxtb	r3, r3
 800095a:	72fb      	strb	r3, [r7, #11]
		buffer[4] = data_buf ; 
 800095c:	797b      	ldrb	r3, [r7, #5]
 800095e:	733b      	strb	r3, [r7, #12]
		DMA_SetCurrDataCounter(SPIx_TX_DMA_STREAM, 5);
 8000960:	4811      	ldr	r0, [pc, #68]	; (80009a8 <spi_dma_sendByte+0x88>)
 8000962:	2105      	movs	r1, #5
 8000964:	f006 f980 	bl	8006c68 <DMA_SetCurrDataCounter>
		SPIx_TX_DMA_STREAM->M0AR =(uint32_t) &buffer;	
 8000968:	4b0f      	ldr	r3, [pc, #60]	; (80009a8 <spi_dma_sendByte+0x88>)
 800096a:	f107 0208 	add.w	r2, r7, #8
 800096e:	60da      	str	r2, [r3, #12]
		CSON(); // chip select 
 8000970:	4b0e      	ldr	r3, [pc, #56]	; (80009ac <spi_dma_sendByte+0x8c>)
 8000972:	4a0e      	ldr	r2, [pc, #56]	; (80009ac <spi_dma_sendByte+0x8c>)
 8000974:	8b52      	ldrh	r2, [r2, #26]
 8000976:	b292      	uxth	r2, r2
 8000978:	f042 0210 	orr.w	r2, r2, #16
 800097c:	b292      	uxth	r2, r2
 800097e:	835a      	strh	r2, [r3, #26]
		DMA_Cmd(SPIx_TX_DMA_STREAM, ENABLE);		
 8000980:	4809      	ldr	r0, [pc, #36]	; (80009a8 <spi_dma_sendByte+0x88>)
 8000982:	2101      	movs	r1, #1
 8000984:	f006 f8e4 	bl	8006b50 <DMA_Cmd>
		DMA_Cmd(SPIx_RX_DMA_STREAM, ENABLE);
 8000988:	4809      	ldr	r0, [pc, #36]	; (80009b0 <spi_dma_sendByte+0x90>)
 800098a:	2101      	movs	r1, #1
 800098c:	f006 f8e0 	bl	8006b50 <DMA_Cmd>
		/* Block until the semaphore is given */
	        xSemaphoreTake(xSemaphoreDMASPI, portMAX_DELAY);	
 8000990:	4b08      	ldr	r3, [pc, #32]	; (80009b4 <spi_dma_sendByte+0x94>)
 8000992:	681b      	ldr	r3, [r3, #0]
 8000994:	4618      	mov	r0, r3
 8000996:	2100      	movs	r1, #0
 8000998:	f04f 32ff 	mov.w	r2, #4294967295	; 0xffffffff
 800099c:	2300      	movs	r3, #0
 800099e:	f004 f9b1 	bl	8004d04 <xQueueGenericReceive>
				
//		CSOFF(); // chip deselect 
			
}
 80009a2:	3710      	adds	r7, #16
 80009a4:	46bd      	mov	sp, r7
 80009a6:	bd80      	pop	{r7, pc}
 80009a8:	40026458 	.word	0x40026458
 80009ac:	40020000 	.word	0x40020000
 80009b0:	40026440 	.word	0x40026440
 80009b4:	20013260 	.word	0x20013260

080009b8 <spi_dma_read>:

		return (data_buf[0] << 8) | data_buf[1];

}
void spi_dma_read(uint16_t address, uint16_t data_len)
{
 80009b8:	e92d 41f0 	stmdb	sp!, {r4, r5, r6, r7, r8, lr}
 80009bc:	b086      	sub	sp, #24
 80009be:	af00      	add	r7, sp, #0
 80009c0:	80f8      	strh	r0, [r7, #6]
 80009c2:	80b9      	strh	r1, [r7, #4]
 80009c4:	4669      	mov	r1, sp
 80009c6:	4688      	mov	r8, r1
		
		/*! spi_dma_read it has to be used with \n
		 * memcpy from bufferRX right after it has recieve \n
		 * data on SPI. */
		
		uint8_t buffer[data_len+4];
 80009c8:	88b9      	ldrh	r1, [r7, #4]
 80009ca:	1d0e      	adds	r6, r1, #4
 80009cc:	1e71      	subs	r1, r6, #1
 80009ce:	6139      	str	r1, [r7, #16]
 80009d0:	4631      	mov	r1, r6
 80009d2:	4608      	mov	r0, r1
 80009d4:	f04f 0100 	mov.w	r1, #0
 80009d8:	00cd      	lsls	r5, r1, #3
 80009da:	ea45 7550 	orr.w	r5, r5, r0, lsr #29
 80009de:	00c4      	lsls	r4, r0, #3
 80009e0:	4631      	mov	r1, r6
 80009e2:	4608      	mov	r0, r1
 80009e4:	f04f 0100 	mov.w	r1, #0
 80009e8:	00cb      	lsls	r3, r1, #3
 80009ea:	ea43 7350 	orr.w	r3, r3, r0, lsr #29
 80009ee:	00c2      	lsls	r2, r0, #3
 80009f0:	4633      	mov	r3, r6
 80009f2:	3307      	adds	r3, #7
 80009f4:	08db      	lsrs	r3, r3, #3
 80009f6:	00db      	lsls	r3, r3, #3
 80009f8:	ebad 0d03 	sub.w	sp, sp, r3
 80009fc:	466b      	mov	r3, sp
 80009fe:	3300      	adds	r3, #0
 8000a00:	60fb      	str	r3, [r7, #12]
		buffer[0] = ((address & 0xff00) >> 8); // addres byte 1 
 8000a02:	88fb      	ldrh	r3, [r7, #6]
 8000a04:	0a1b      	lsrs	r3, r3, #8
 8000a06:	b29b      	uxth	r3, r3
 8000a08:	b2da      	uxtb	r2, r3
 8000a0a:	68fb      	ldr	r3, [r7, #12]
 8000a0c:	701a      	strb	r2, [r3, #0]
		buffer[1] = ((address & 0x00ff)); //address byte 2 
 8000a0e:	88fb      	ldrh	r3, [r7, #6]
 8000a10:	b2da      	uxtb	r2, r3
 8000a12:	68fb      	ldr	r3, [r7, #12]
 8000a14:	705a      	strb	r2, [r3, #1]
		buffer[2] = ((0x00 | (data_len & 0x7f00) >> 8 ));
 8000a16:	88bb      	ldrh	r3, [r7, #4]
 8000a18:	f403 43fe 	and.w	r3, r3, #32512	; 0x7f00
 8000a1c:	121b      	asrs	r3, r3, #8
 8000a1e:	b2da      	uxtb	r2, r3
 8000a20:	68fb      	ldr	r3, [r7, #12]
 8000a22:	709a      	strb	r2, [r3, #2]
		buffer[3] = (data_len & 0x00ff);
 8000a24:	88bb      	ldrh	r3, [r7, #4]
 8000a26:	b2da      	uxtb	r2, r3
 8000a28:	68fb      	ldr	r3, [r7, #12]
 8000a2a:	70da      	strb	r2, [r3, #3]

		int i;
		for (i = 4 ; i < data_len+4; i++) buffer[i] = 0x0;
 8000a2c:	2304      	movs	r3, #4
 8000a2e:	617b      	str	r3, [r7, #20]
 8000a30:	e007      	b.n	8000a42 <spi_dma_read+0x8a>
 8000a32:	68fa      	ldr	r2, [r7, #12]
 8000a34:	697b      	ldr	r3, [r7, #20]
 8000a36:	4413      	add	r3, r2
 8000a38:	2200      	movs	r2, #0
 8000a3a:	701a      	strb	r2, [r3, #0]
 8000a3c:	697b      	ldr	r3, [r7, #20]
 8000a3e:	3301      	adds	r3, #1
 8000a40:	617b      	str	r3, [r7, #20]
 8000a42:	88bb      	ldrh	r3, [r7, #4]
 8000a44:	1d1a      	adds	r2, r3, #4
 8000a46:	697b      	ldr	r3, [r7, #20]
 8000a48:	429a      	cmp	r2, r3
 8000a4a:	dcf2      	bgt.n	8000a32 <spi_dma_read+0x7a>

		DMA_SetCurrDataCounter(SPIx_RX_DMA_STREAM, data_len+4);
 8000a4c:	88bb      	ldrh	r3, [r7, #4]
 8000a4e:	3304      	adds	r3, #4
 8000a50:	b29b      	uxth	r3, r3
 8000a52:	4817      	ldr	r0, [pc, #92]	; (8000ab0 <spi_dma_read+0xf8>)
 8000a54:	4619      	mov	r1, r3
 8000a56:	f006 f907 	bl	8006c68 <DMA_SetCurrDataCounter>
		DMA_SetCurrDataCounter(SPIx_TX_DMA_STREAM, 4+data_len);
 8000a5a:	88bb      	ldrh	r3, [r7, #4]
 8000a5c:	3304      	adds	r3, #4
 8000a5e:	b29b      	uxth	r3, r3
 8000a60:	4814      	ldr	r0, [pc, #80]	; (8000ab4 <spi_dma_read+0xfc>)
 8000a62:	4619      	mov	r1, r3
 8000a64:	f006 f900 	bl	8006c68 <DMA_SetCurrDataCounter>
		SPIx_TX_DMA_STREAM->M0AR =(uint32_t) &buffer;	
 8000a68:	4b12      	ldr	r3, [pc, #72]	; (8000ab4 <spi_dma_read+0xfc>)
 8000a6a:	68fa      	ldr	r2, [r7, #12]
 8000a6c:	60da      	str	r2, [r3, #12]
		SPIx_RX_DMA_STREAM->M0AR =(uint32_t)&bufferRX;	
 8000a6e:	4b10      	ldr	r3, [pc, #64]	; (8000ab0 <spi_dma_read+0xf8>)
 8000a70:	4a11      	ldr	r2, [pc, #68]	; (8000ab8 <spi_dma_read+0x100>)
 8000a72:	60da      	str	r2, [r3, #12]

		CSON(); // chip select 
 8000a74:	4b11      	ldr	r3, [pc, #68]	; (8000abc <spi_dma_read+0x104>)
 8000a76:	4a11      	ldr	r2, [pc, #68]	; (8000abc <spi_dma_read+0x104>)
 8000a78:	8b52      	ldrh	r2, [r2, #26]
 8000a7a:	b292      	uxth	r2, r2
 8000a7c:	f042 0210 	orr.w	r2, r2, #16
 8000a80:	b292      	uxth	r2, r2
 8000a82:	835a      	strh	r2, [r3, #26]
		DMA_Cmd(SPIx_TX_DMA_STREAM, ENABLE);		
 8000a84:	480b      	ldr	r0, [pc, #44]	; (8000ab4 <spi_dma_read+0xfc>)
 8000a86:	2101      	movs	r1, #1
 8000a88:	f006 f862 	bl	8006b50 <DMA_Cmd>
		DMA_Cmd(SPIx_RX_DMA_STREAM, ENABLE);
 8000a8c:	4808      	ldr	r0, [pc, #32]	; (8000ab0 <spi_dma_read+0xf8>)
 8000a8e:	2101      	movs	r1, #1
 8000a90:	f006 f85e 	bl	8006b50 <DMA_Cmd>
		/* Block until the semaphore is given */
        	xSemaphoreTake(xSemaphoreDMASPI, portMAX_DELAY);	
 8000a94:	4b0a      	ldr	r3, [pc, #40]	; (8000ac0 <spi_dma_read+0x108>)
 8000a96:	681b      	ldr	r3, [r3, #0]
 8000a98:	4618      	mov	r0, r3
 8000a9a:	2100      	movs	r1, #0
 8000a9c:	f04f 32ff 	mov.w	r2, #4294967295	; 0xffffffff
 8000aa0:	2300      	movs	r3, #0
 8000aa2:	f004 f92f 	bl	8004d04 <xQueueGenericReceive>
 8000aa6:	46c5      	mov	sp, r8
		//CSOFF(); // chip deselect		

}	
 8000aa8:	3718      	adds	r7, #24
 8000aaa:	46bd      	mov	sp, r7
 8000aac:	e8bd 81f0 	ldmia.w	sp!, {r4, r5, r6, r7, r8, pc}
 8000ab0:	40026440 	.word	0x40026440
 8000ab4:	40026458 	.word	0x40026458
 8000ab8:	20013278 	.word	0x20013278
 8000abc:	40020000 	.word	0x40020000
 8000ac0:	20013260 	.word	0x20013260

08000ac4 <init_W5200>:
//==================================================================================//
//===	func 	init_W5200							 ===//
//==================================================================================//

void init_W5200(void)
{
 8000ac4:	b580      	push	{r7, lr}
 8000ac6:	b08a      	sub	sp, #40	; 0x28
 8000ac8:	af00      	add	r7, sp, #0
	 *
	 * */


	// mac address
	uint8_t address[6] =	{0xdd, 0xaa, 0xbb, 0xcc, 0x11, 0x22}; 
 8000aca:	4a5c      	ldr	r2, [pc, #368]	; (8000c3c <init_W5200+0x178>)
 8000acc:	f107 0318 	add.w	r3, r7, #24
 8000ad0:	6810      	ldr	r0, [r2, #0]
 8000ad2:	6018      	str	r0, [r3, #0]
 8000ad4:	8892      	ldrh	r2, [r2, #4]
 8000ad6:	809a      	strh	r2, [r3, #4]
	
	// ip 
	const  uint8_t ip[4] = {0xc0, 0xa8, 0x0, 0x08};
 8000ad8:	4a59      	ldr	r2, [pc, #356]	; (8000c40 <init_W5200+0x17c>)
 8000ada:	f107 0314 	add.w	r3, r7, #20
 8000ade:	6810      	ldr	r0, [r2, #0]
 8000ae0:	6018      	str	r0, [r3, #0]
	// subnet 
	const uint8_t subnet[4] = {0xff,0xff,0xff,0x0};
 8000ae2:	4a58      	ldr	r2, [pc, #352]	; (8000c44 <init_W5200+0x180>)
 8000ae4:	f107 0310 	add.w	r3, r7, #16
 8000ae8:	6810      	ldr	r0, [r2, #0]
 8000aea:	6018      	str	r0, [r3, #0]
	// gateway
	const uint8_t gw[4] = {0xc0, 0xa8, 0x0, 0x01};
 8000aec:	4a56      	ldr	r2, [pc, #344]	; (8000c48 <init_W5200+0x184>)
 8000aee:	f107 030c 	add.w	r3, r7, #12
 8000af2:	6810      	ldr	r0, [r2, #0]
 8000af4:	6018      	str	r0, [r3, #0]
	
	portTickType xLastWakeTime;	
	
	xSemaphoreDMASPI = xSemaphoreCreateBinary();
 8000af6:	2001      	movs	r0, #1
 8000af8:	2100      	movs	r1, #0
 8000afa:	2203      	movs	r2, #3
 8000afc:	f003 ff5e 	bl	80049bc <xQueueGenericCreate>
 8000b00:	4602      	mov	r2, r0
 8000b02:	4b52      	ldr	r3, [pc, #328]	; (8000c4c <init_W5200+0x188>)
 8000b04:	601a      	str	r2, [r3, #0]

//	vTaskSuspend(set_macTaskHandle);
	
	xLastWakeTime = xTaskGetTickCount();
 8000b06:	f003 f8d3 	bl	8003cb0 <xTaskGetTickCount>
 8000b0a:	4603      	mov	r3, r0
 8000b0c:	60bb      	str	r3, [r7, #8]

	RESET_HIGH();
 8000b0e:	4b50      	ldr	r3, [pc, #320]	; (8000c50 <init_W5200+0x18c>)
 8000b10:	4a4f      	ldr	r2, [pc, #316]	; (8000c50 <init_W5200+0x18c>)
 8000b12:	8b52      	ldrh	r2, [r2, #26]
 8000b14:	b292      	uxth	r2, r2
 8000b16:	f042 0220 	orr.w	r2, r2, #32
 8000b1a:	b292      	uxth	r2, r2
 8000b1c:	835a      	strh	r2, [r3, #26]
	RESET_LOW();	
 8000b1e:	4b4c      	ldr	r3, [pc, #304]	; (8000c50 <init_W5200+0x18c>)
 8000b20:	4a4b      	ldr	r2, [pc, #300]	; (8000c50 <init_W5200+0x18c>)
 8000b22:	8b12      	ldrh	r2, [r2, #24]
 8000b24:	b292      	uxth	r2, r2
 8000b26:	f042 0220 	orr.w	r2, r2, #32
 8000b2a:	b292      	uxth	r2, r2
 8000b2c:	831a      	strh	r2, [r3, #24]

	vTaskDelay( 500/portTICK_RATE_MS );		
 8000b2e:	f44f 70fa 	mov.w	r0, #500	; 0x1f4
 8000b32:	f002 ffc9 	bl	8003ac8 <vTaskDelay>
	const portTickType xFrequency = 1;
 8000b36:	2301      	movs	r3, #1
 8000b38:	623b      	str	r3, [r7, #32]
	
	// ===================================================//
	//SW reset 
	spi_dma_sendByte(W5200_MR, W5200_MR_RST);
 8000b3a:	2000      	movs	r0, #0
 8000b3c:	2180      	movs	r1, #128	; 0x80
 8000b3e:	f7ff feef 	bl	8000920 <spi_dma_sendByte>
	// wait until reset complete
	uint8_t data = W5200_MR_RST; 
 8000b42:	2380      	movs	r3, #128	; 0x80
 8000b44:	71fb      	strb	r3, [r7, #7]
	while((data  && W5200_MR_RST) == W5200_MR_RST)
 8000b46:	bf00      	nop
		spi_dma_read(W5200_MR, 1);
		memcpy(&data, bufferRX+4, 1);
	}
		
	// PING enable, PPPoE disable 
	spi_dma_sendByte(W5200_MR, 0);
 8000b48:	2000      	movs	r0, #0
 8000b4a:	2100      	movs	r1, #0
 8000b4c:	f7ff fee8 	bl	8000920 <spi_dma_sendByte>
	// all socket interrupts sets to nonmask. set '1' is interrupt enable. 
	spi_dma_sendByte(W5200_IMR, 0xff);
 8000b50:	2016      	movs	r0, #22
 8000b52:	21ff      	movs	r1, #255	; 0xff
 8000b54:	f7ff fee4 	bl	8000920 <spi_dma_sendByte>
	// IP-confilict, PPPoE Close are mask. set '0' interupt disable. 
	spi_dma_sendByte(W5200_IMR2, 0);
 8000b58:	2036      	movs	r0, #54	; 0x36
 8000b5a:	2100      	movs	r1, #0
 8000b5c:	f7ff fee0 	bl	8000920 <spi_dma_sendByte>
	// set timeoput to 200msec
	spi_dma_sendByte(W5200_RTR, 200);
 8000b60:	2017      	movs	r0, #23
 8000b62:	21c8      	movs	r1, #200	; 0xc8
 8000b64:	f7ff fedc 	bl	8000920 <spi_dma_sendByte>
	// set retry count register to 3rd
	spi_dma_sendByte(W5200_RCR, 3);
 8000b68:	2019      	movs	r0, #25
 8000b6a:	2103      	movs	r1, #3
 8000b6c:	f7ff fed8 	bl	8000920 <spi_dma_sendByte>

	int n = 0; 
 8000b70:	2300      	movs	r3, #0
 8000b72:	627b      	str	r3, [r7, #36]	; 0x24

	for (n = 0; n < 8; n++)
 8000b74:	2300      	movs	r3, #0
 8000b76:	627b      	str	r3, [r7, #36]	; 0x24
 8000b78:	e02b      	b.n	8000bd2 <init_W5200+0x10e>
	{
		spi_dma_sendByte(W5200_Sn_RXMEM_SIZE(n), 0x2);
 8000b7a:	6a7b      	ldr	r3, [r7, #36]	; 0x24
 8000b7c:	b29b      	uxth	r3, r3
 8000b7e:	021b      	lsls	r3, r3, #8
 8000b80:	b29b      	uxth	r3, r3
 8000b82:	f503 4380 	add.w	r3, r3, #16384	; 0x4000
 8000b86:	331e      	adds	r3, #30
 8000b88:	b29b      	uxth	r3, r3
 8000b8a:	4618      	mov	r0, r3
 8000b8c:	2102      	movs	r1, #2
 8000b8e:	f7ff fec7 	bl	8000920 <spi_dma_sendByte>
		spi_dma_sendByte(W5200_Sn_TXMEM_SIZE(n),0x2);
 8000b92:	6a7b      	ldr	r3, [r7, #36]	; 0x24
 8000b94:	b29b      	uxth	r3, r3
 8000b96:	021b      	lsls	r3, r3, #8
 8000b98:	b29b      	uxth	r3, r3
 8000b9a:	f503 4380 	add.w	r3, r3, #16384	; 0x4000
 8000b9e:	331f      	adds	r3, #31
 8000ba0:	b29b      	uxth	r3, r3
 8000ba2:	4618      	mov	r0, r3
 8000ba4:	2102      	movs	r1, #2
 8000ba6:	f7ff febb 	bl	8000920 <spi_dma_sendByte>
		spi_dma_sendByte(W5200_Sn_IMR(n), 0xff);	
 8000baa:	6a7b      	ldr	r3, [r7, #36]	; 0x24
 8000bac:	b29b      	uxth	r3, r3
 8000bae:	021b      	lsls	r3, r3, #8
 8000bb0:	b29b      	uxth	r3, r3
 8000bb2:	f503 4380 	add.w	r3, r3, #16384	; 0x4000
 8000bb6:	332c      	adds	r3, #44	; 0x2c
 8000bb8:	b29b      	uxth	r3, r3
 8000bba:	4618      	mov	r0, r3
 8000bbc:	21ff      	movs	r1, #255	; 0xff
 8000bbe:	f7ff feaf 	bl	8000920 <spi_dma_sendByte>
		socket_flg[n] = 0;
 8000bc2:	4a24      	ldr	r2, [pc, #144]	; (8000c54 <init_W5200+0x190>)
 8000bc4:	6a7b      	ldr	r3, [r7, #36]	; 0x24
 8000bc6:	4413      	add	r3, r2
 8000bc8:	2200      	movs	r2, #0
 8000bca:	701a      	strb	r2, [r3, #0]
	// set retry count register to 3rd
	spi_dma_sendByte(W5200_RCR, 3);

	int n = 0; 

	for (n = 0; n < 8; n++)
 8000bcc:	6a7b      	ldr	r3, [r7, #36]	; 0x24
 8000bce:	3301      	adds	r3, #1
 8000bd0:	627b      	str	r3, [r7, #36]	; 0x24
 8000bd2:	6a7b      	ldr	r3, [r7, #36]	; 0x24
 8000bd4:	2b07      	cmp	r3, #7
 8000bd6:	ddd0      	ble.n	8000b7a <init_W5200+0xb6>
		socket_flg[n] = 0;
			
	}	
	// =========================================================//
		
	vTaskDelayUntil(&xLastWakeTime, 500/portTICK_RATE_MS );		
 8000bd8:	f107 0308 	add.w	r3, r7, #8
 8000bdc:	4618      	mov	r0, r3
 8000bde:	f44f 71fa 	mov.w	r1, #500	; 0x1f4
 8000be2:	f002 ff19 	bl	8003a18 <vTaskDelayUntil>

	W5200_configure_network(ip, subnet, gw);
 8000be6:	f107 0114 	add.w	r1, r7, #20
 8000bea:	f107 0210 	add.w	r2, r7, #16
 8000bee:	f107 030c 	add.w	r3, r7, #12
 8000bf2:	4608      	mov	r0, r1
 8000bf4:	4611      	mov	r1, r2
 8000bf6:	461a      	mov	r2, r3
 8000bf8:	f000 f83c 	bl	8000c74 <W5200_configure_network>
	W5200_set_hardware_address(address);
 8000bfc:	f107 0318 	add.w	r3, r7, #24
 8000c00:	4618      	mov	r0, r3
 8000c02:	f000 f82b 	bl	8000c5c <W5200_set_hardware_address>
	
	vTaskDelayUntil(&xLastWakeTime, 500/portTICK_RATE_MS );		
 8000c06:	f107 0308 	add.w	r3, r7, #8
 8000c0a:	4618      	mov	r0, r3
 8000c0c:	f44f 71fa 	mov.w	r1, #500	; 0x1f4
 8000c10:	f002 ff02 	bl	8003a18 <vTaskDelayUntil>
	// end of initialization W5200 
	// delete task

	// unblock set_macTask
	
	socket_0 = socket(W5200_Sn_MR_TCP, 80, 0);
 8000c14:	2001      	movs	r0, #1
 8000c16:	2150      	movs	r1, #80	; 0x50
 8000c18:	2200      	movs	r2, #0
 8000c1a:	f000 fa17 	bl	800104c <socket>
 8000c1e:	4603      	mov	r3, r0
 8000c20:	461a      	mov	r2, r3
 8000c22:	4b0d      	ldr	r3, [pc, #52]	; (8000c58 <init_W5200+0x194>)
 8000c24:	601a      	str	r2, [r3, #0]
	listen(socket_0);
 8000c26:	4b0c      	ldr	r3, [pc, #48]	; (8000c58 <init_W5200+0x194>)
 8000c28:	681b      	ldr	r3, [r3, #0]
 8000c2a:	4618      	mov	r0, r3
 8000c2c:	f000 fc3c 	bl	80014a8 <listen>


//	vTaskResume( set_macTaskHandle); 
	vTaskDelete ( NULL );
 8000c30:	2000      	movs	r0, #0
 8000c32:	f002 feab 	bl	800398c <vTaskDelete>
	
	
	
	
}
 8000c36:	3728      	adds	r7, #40	; 0x28
 8000c38:	46bd      	mov	sp, r7
 8000c3a:	bd80      	pop	{r7, pc}
 8000c3c:	08009060 	.word	0x08009060
 8000c40:	08009068 	.word	0x08009068
 8000c44:	0800906c 	.word	0x0800906c
 8000c48:	08009070 	.word	0x08009070
 8000c4c:	20013260 	.word	0x20013260
 8000c50:	40020800 	.word	0x40020800
 8000c54:	2000048c 	.word	0x2000048c
 8000c58:	2001326c 	.word	0x2001326c

08000c5c <W5200_set_hardware_address>:

//==================================================================================//
//===	func W5200_set_hardware_address
//==================================================================================//
void  W5200_set_hardware_address(const macaddress_t address)
{
 8000c5c:	b580      	push	{r7, lr}
 8000c5e:	b082      	sub	sp, #8
 8000c60:	af00      	add	r7, sp, #0
 8000c62:	6078      	str	r0, [r7, #4]

	/*! Function set wiznet register to address via SPI DMA
	 */

	spi_dma_send(W5200_SHAR, 6, address);
 8000c64:	2009      	movs	r0, #9
 8000c66:	2106      	movs	r1, #6
 8000c68:	687a      	ldr	r2, [r7, #4]
 8000c6a:	f7ff fd7f 	bl	800076c <spi_dma_send>
}
 8000c6e:	3708      	adds	r7, #8
 8000c70:	46bd      	mov	sp, r7
 8000c72:	bd80      	pop	{r7, pc}

08000c74 <W5200_configure_network>:


void  W5200_configure_network(const ipv4address_t address,
                             const ipv4address_t subnet,
                             const ipv4address_t gateway)
{
 8000c74:	b580      	push	{r7, lr}
 8000c76:	b084      	sub	sp, #16
 8000c78:	af00      	add	r7, sp, #0
 8000c7a:	60f8      	str	r0, [r7, #12]
 8000c7c:	60b9      	str	r1, [r7, #8]
 8000c7e:	607a      	str	r2, [r7, #4]
	/*! It configures ip, subnet and gateway */
	spi_dma_send(W5200_SIPR, 4, address);
 8000c80:	200f      	movs	r0, #15
 8000c82:	2104      	movs	r1, #4
 8000c84:	68fa      	ldr	r2, [r7, #12]
 8000c86:	f7ff fd71 	bl	800076c <spi_dma_send>
	spi_dma_send(W5200_SUBR, 4, subnet);
 8000c8a:	2005      	movs	r0, #5
 8000c8c:	2104      	movs	r1, #4
 8000c8e:	68ba      	ldr	r2, [r7, #8]
 8000c90:	f7ff fd6c 	bl	800076c <spi_dma_send>
	spi_dma_send(W5200_GAR, 4 , gateway);
 8000c94:	2001      	movs	r0, #1
 8000c96:	2104      	movs	r1, #4
 8000c98:	687a      	ldr	r2, [r7, #4]
 8000c9a:	f7ff fd67 	bl	800076c <spi_dma_send>
}
 8000c9e:	3710      	adds	r7, #16
 8000ca0:	46bd      	mov	sp, r7
 8000ca2:	bd80      	pop	{r7, pc}

08000ca4 <get_CRStatus>:
//==================================================================================//



static uint8_t get_CRStatus(uint8_t sck_fd)
{
 8000ca4:	b580      	push	{r7, lr}
 8000ca6:	b084      	sub	sp, #16
 8000ca8:	af00      	add	r7, sp, #0
 8000caa:	4603      	mov	r3, r0
 8000cac:	71fb      	strb	r3, [r7, #7]
	uint8_t var; 
	spi_dma_read(W5200_Sn_CR(sck_fd),1);
 8000cae:	79fb      	ldrb	r3, [r7, #7]
 8000cb0:	b29b      	uxth	r3, r3
 8000cb2:	021b      	lsls	r3, r3, #8
 8000cb4:	b29b      	uxth	r3, r3
 8000cb6:	f503 4380 	add.w	r3, r3, #16384	; 0x4000
 8000cba:	3301      	adds	r3, #1
 8000cbc:	b29b      	uxth	r3, r3
 8000cbe:	4618      	mov	r0, r3
 8000cc0:	2101      	movs	r1, #1
 8000cc2:	f7ff fe79 	bl	80009b8 <spi_dma_read>
	memcpy(&var, bufferRX+4, 1);
 8000cc6:	4b04      	ldr	r3, [pc, #16]	; (8000cd8 <get_CRStatus+0x34>)
 8000cc8:	781b      	ldrb	r3, [r3, #0]
 8000cca:	73fb      	strb	r3, [r7, #15]
	return var;
 8000ccc:	7bfb      	ldrb	r3, [r7, #15]
}
 8000cce:	4618      	mov	r0, r3
 8000cd0:	3710      	adds	r7, #16
 8000cd2:	46bd      	mov	sp, r7
 8000cd4:	bd80      	pop	{r7, pc}
 8000cd6:	bf00      	nop
 8000cd8:	2001327c 	.word	0x2001327c

08000cdc <get_SRStatus>:


static uint8_t get_SRStatus(uint8_t sck_fd)
{
 8000cdc:	b580      	push	{r7, lr}
 8000cde:	b084      	sub	sp, #16
 8000ce0:	af00      	add	r7, sp, #0
 8000ce2:	4603      	mov	r3, r0
 8000ce4:	71fb      	strb	r3, [r7, #7]
	uint8_t var; 
	spi_dma_read(W5200_Sn_SR(sck_fd), 1);
 8000ce6:	79fb      	ldrb	r3, [r7, #7]
 8000ce8:	b29b      	uxth	r3, r3
 8000cea:	021b      	lsls	r3, r3, #8
 8000cec:	b29b      	uxth	r3, r3
 8000cee:	f503 4380 	add.w	r3, r3, #16384	; 0x4000
 8000cf2:	3303      	adds	r3, #3
 8000cf4:	b29b      	uxth	r3, r3
 8000cf6:	4618      	mov	r0, r3
 8000cf8:	2101      	movs	r1, #1
 8000cfa:	f7ff fe5d 	bl	80009b8 <spi_dma_read>
	memcpy(&var, bufferRX+4, 1);
 8000cfe:	4b04      	ldr	r3, [pc, #16]	; (8000d10 <get_SRStatus+0x34>)
 8000d00:	781b      	ldrb	r3, [r3, #0]
 8000d02:	73fb      	strb	r3, [r7, #15]
	return var;
 8000d04:	7bfb      	ldrb	r3, [r7, #15]
}
 8000d06:	4618      	mov	r0, r3
 8000d08:	3710      	adds	r7, #16
 8000d0a:	46bd      	mov	sp, r7
 8000d0c:	bd80      	pop	{r7, pc}
 8000d0e:	bf00      	nop
 8000d10:	2001327c 	.word	0x2001327c

08000d14 <get_TXFSRStatus>:

static uint16_t get_TXFSRStatus(uint8_t sck_fd)
{
 8000d14:	b580      	push	{r7, lr}
 8000d16:	b084      	sub	sp, #16
 8000d18:	af00      	add	r7, sp, #0
 8000d1a:	4603      	mov	r3, r0
 8000d1c:	71fb      	strb	r3, [r7, #7]
	uint8_t var[2]; 
	spi_dma_read(W5200_Sn_TX_FSR(sck_fd), 2);
 8000d1e:	79fb      	ldrb	r3, [r7, #7]
 8000d20:	b29b      	uxth	r3, r3
 8000d22:	021b      	lsls	r3, r3, #8
 8000d24:	b29b      	uxth	r3, r3
 8000d26:	f503 4380 	add.w	r3, r3, #16384	; 0x4000
 8000d2a:	3320      	adds	r3, #32
 8000d2c:	b29b      	uxth	r3, r3
 8000d2e:	4618      	mov	r0, r3
 8000d30:	2102      	movs	r1, #2
 8000d32:	f7ff fe41 	bl	80009b8 <spi_dma_read>
	memcpy(&var, bufferRX+4, 2);
 8000d36:	4a08      	ldr	r2, [pc, #32]	; (8000d58 <get_TXFSRStatus+0x44>)
 8000d38:	f107 030c 	add.w	r3, r7, #12
 8000d3c:	8812      	ldrh	r2, [r2, #0]
 8000d3e:	801a      	strh	r2, [r3, #0]
	
	return ((var[0] << 8) | var[1] );
 8000d40:	7b3b      	ldrb	r3, [r7, #12]
 8000d42:	021b      	lsls	r3, r3, #8
 8000d44:	b29a      	uxth	r2, r3
 8000d46:	7b7b      	ldrb	r3, [r7, #13]
 8000d48:	4313      	orrs	r3, r2
 8000d4a:	b29b      	uxth	r3, r3
 8000d4c:	b29b      	uxth	r3, r3
	
}
 8000d4e:	4618      	mov	r0, r3
 8000d50:	3710      	adds	r7, #16
 8000d52:	46bd      	mov	sp, r7
 8000d54:	bd80      	pop	{r7, pc}
 8000d56:	bf00      	nop
 8000d58:	2001327c 	.word	0x2001327c

08000d5c <get_TXWRStatus>:

static uint16_t get_TXWRStatus(uint8_t sck_fd)
{
 8000d5c:	b580      	push	{r7, lr}
 8000d5e:	b084      	sub	sp, #16
 8000d60:	af00      	add	r7, sp, #0
 8000d62:	4603      	mov	r3, r0
 8000d64:	71fb      	strb	r3, [r7, #7]
	uint8_t var[2]; 
	spi_dma_read(W5200_Sn_TX_WR(sck_fd), 2 );
 8000d66:	79fb      	ldrb	r3, [r7, #7]
 8000d68:	b29b      	uxth	r3, r3
 8000d6a:	021b      	lsls	r3, r3, #8
 8000d6c:	b29b      	uxth	r3, r3
 8000d6e:	f503 4380 	add.w	r3, r3, #16384	; 0x4000
 8000d72:	3324      	adds	r3, #36	; 0x24
 8000d74:	b29b      	uxth	r3, r3
 8000d76:	4618      	mov	r0, r3
 8000d78:	2102      	movs	r1, #2
 8000d7a:	f7ff fe1d 	bl	80009b8 <spi_dma_read>
	memcpy(&var, bufferRX+4, 2);
 8000d7e:	4a08      	ldr	r2, [pc, #32]	; (8000da0 <get_TXWRStatus+0x44>)
 8000d80:	f107 030c 	add.w	r3, r7, #12
 8000d84:	8812      	ldrh	r2, [r2, #0]
 8000d86:	801a      	strh	r2, [r3, #0]
	
	return ((var[0] << 8) | var[1] );
 8000d88:	7b3b      	ldrb	r3, [r7, #12]
 8000d8a:	021b      	lsls	r3, r3, #8
 8000d8c:	b29a      	uxth	r2, r3
 8000d8e:	7b7b      	ldrb	r3, [r7, #13]
 8000d90:	4313      	orrs	r3, r2
 8000d92:	b29b      	uxth	r3, r3
 8000d94:	b29b      	uxth	r3, r3

	
}
 8000d96:	4618      	mov	r0, r3
 8000d98:	3710      	adds	r7, #16
 8000d9a:	46bd      	mov	sp, r7
 8000d9c:	bd80      	pop	{r7, pc}
 8000d9e:	bf00      	nop
 8000da0:	2001327c 	.word	0x2001327c

08000da4 <get_TXRD>:
static uint16_t get_TXRD(uint8_t sck_fd)
{
 8000da4:	b580      	push	{r7, lr}
 8000da6:	b084      	sub	sp, #16
 8000da8:	af00      	add	r7, sp, #0
 8000daa:	4603      	mov	r3, r0
 8000dac:	71fb      	strb	r3, [r7, #7]
	uint8_t var[2]; 
	spi_dma_read(W5200_Sn_TX_RD(sck_fd), 2);
 8000dae:	79fb      	ldrb	r3, [r7, #7]
 8000db0:	b29b      	uxth	r3, r3
 8000db2:	021b      	lsls	r3, r3, #8
 8000db4:	b29b      	uxth	r3, r3
 8000db6:	f503 4380 	add.w	r3, r3, #16384	; 0x4000
 8000dba:	3322      	adds	r3, #34	; 0x22
 8000dbc:	b29b      	uxth	r3, r3
 8000dbe:	4618      	mov	r0, r3
 8000dc0:	2102      	movs	r1, #2
 8000dc2:	f7ff fdf9 	bl	80009b8 <spi_dma_read>
	memcpy(&var, bufferRX+4, 2);
 8000dc6:	4a08      	ldr	r2, [pc, #32]	; (8000de8 <get_TXRD+0x44>)
 8000dc8:	f107 030c 	add.w	r3, r7, #12
 8000dcc:	8812      	ldrh	r2, [r2, #0]
 8000dce:	801a      	strh	r2, [r3, #0]
	
	return ((var[0] << 8) | var[1] );
 8000dd0:	7b3b      	ldrb	r3, [r7, #12]
 8000dd2:	021b      	lsls	r3, r3, #8
 8000dd4:	b29a      	uxth	r2, r3
 8000dd6:	7b7b      	ldrb	r3, [r7, #13]
 8000dd8:	4313      	orrs	r3, r2
 8000dda:	b29b      	uxth	r3, r3
 8000ddc:	b29b      	uxth	r3, r3
	
}
 8000dde:	4618      	mov	r0, r3
 8000de0:	3710      	adds	r7, #16
 8000de2:	46bd      	mov	sp, r7
 8000de4:	bd80      	pop	{r7, pc}
 8000de6:	bf00      	nop
 8000de8:	2001327c 	.word	0x2001327c

08000dec <set_TXWR>:

static void  set_TXWR(uint8_t sck_fd, uint16_t val)
{
 8000dec:	b580      	push	{r7, lr}
 8000dee:	b082      	sub	sp, #8
 8000df0:	af00      	add	r7, sp, #0
 8000df2:	4602      	mov	r2, r0
 8000df4:	460b      	mov	r3, r1
 8000df6:	71fa      	strb	r2, [r7, #7]
 8000df8:	80bb      	strh	r3, [r7, #4]
 	spi_dma_send2B(W5200_Sn_TX_WR(sck_fd), val);
 8000dfa:	79fb      	ldrb	r3, [r7, #7]
 8000dfc:	b29b      	uxth	r3, r3
 8000dfe:	021b      	lsls	r3, r3, #8
 8000e00:	b29b      	uxth	r3, r3
 8000e02:	f503 4380 	add.w	r3, r3, #16384	; 0x4000
 8000e06:	3324      	adds	r3, #36	; 0x24
 8000e08:	b29a      	uxth	r2, r3
 8000e0a:	88bb      	ldrh	r3, [r7, #4]
 8000e0c:	4610      	mov	r0, r2
 8000e0e:	4619      	mov	r1, r3
 8000e10:	f7ff fd34 	bl	800087c <spi_dma_send2B>
}
 8000e14:	3708      	adds	r7, #8
 8000e16:	46bd      	mov	sp, r7
 8000e18:	bd80      	pop	{r7, pc}
 8000e1a:	bf00      	nop

08000e1c <get_RXRSR>:

static uint16_t get_RXRSR(uint8_t sck_fd)
{
 8000e1c:	b580      	push	{r7, lr}
 8000e1e:	b084      	sub	sp, #16
 8000e20:	af00      	add	r7, sp, #0
 8000e22:	4603      	mov	r3, r0
 8000e24:	71fb      	strb	r3, [r7, #7]
	uint8_t var[2]; 
	spi_dma_read(W5200_Sn_RX_RSR(sck_fd), 2);
 8000e26:	79fb      	ldrb	r3, [r7, #7]
 8000e28:	b29b      	uxth	r3, r3
 8000e2a:	021b      	lsls	r3, r3, #8
 8000e2c:	b29b      	uxth	r3, r3
 8000e2e:	f503 4380 	add.w	r3, r3, #16384	; 0x4000
 8000e32:	3326      	adds	r3, #38	; 0x26
 8000e34:	b29b      	uxth	r3, r3
 8000e36:	4618      	mov	r0, r3
 8000e38:	2102      	movs	r1, #2
 8000e3a:	f7ff fdbd 	bl	80009b8 <spi_dma_read>
	memcpy(&var, bufferRX+4, 2);
 8000e3e:	4a08      	ldr	r2, [pc, #32]	; (8000e60 <get_RXRSR+0x44>)
 8000e40:	f107 030c 	add.w	r3, r7, #12
 8000e44:	8812      	ldrh	r2, [r2, #0]
 8000e46:	801a      	strh	r2, [r3, #0]
	
	return ((var[0] << 8) | var[1] );
 8000e48:	7b3b      	ldrb	r3, [r7, #12]
 8000e4a:	021b      	lsls	r3, r3, #8
 8000e4c:	b29a      	uxth	r2, r3
 8000e4e:	7b7b      	ldrb	r3, [r7, #13]
 8000e50:	4313      	orrs	r3, r2
 8000e52:	b29b      	uxth	r3, r3
 8000e54:	b29b      	uxth	r3, r3

}
 8000e56:	4618      	mov	r0, r3
 8000e58:	3710      	adds	r7, #16
 8000e5a:	46bd      	mov	sp, r7
 8000e5c:	bd80      	pop	{r7, pc}
 8000e5e:	bf00      	nop
 8000e60:	2001327c 	.word	0x2001327c

08000e64 <get_RXRD>:

static uint16_t get_RXRD(uint8_t sck_fd)
{
 8000e64:	b580      	push	{r7, lr}
 8000e66:	b084      	sub	sp, #16
 8000e68:	af00      	add	r7, sp, #0
 8000e6a:	4603      	mov	r3, r0
 8000e6c:	71fb      	strb	r3, [r7, #7]
	uint8_t var[2]; 
	spi_dma_read(W5200_Sn_RX_RD(sck_fd), 2 );
 8000e6e:	79fb      	ldrb	r3, [r7, #7]
 8000e70:	b29b      	uxth	r3, r3
 8000e72:	021b      	lsls	r3, r3, #8
 8000e74:	b29b      	uxth	r3, r3
 8000e76:	f503 4380 	add.w	r3, r3, #16384	; 0x4000
 8000e7a:	3328      	adds	r3, #40	; 0x28
 8000e7c:	b29b      	uxth	r3, r3
 8000e7e:	4618      	mov	r0, r3
 8000e80:	2102      	movs	r1, #2
 8000e82:	f7ff fd99 	bl	80009b8 <spi_dma_read>
	memcpy(&var, bufferRX+4, 2);
 8000e86:	4a08      	ldr	r2, [pc, #32]	; (8000ea8 <get_RXRD+0x44>)
 8000e88:	f107 030c 	add.w	r3, r7, #12
 8000e8c:	8812      	ldrh	r2, [r2, #0]
 8000e8e:	801a      	strh	r2, [r3, #0]
	
	return ((var[0] << 8) | var[1] );
 8000e90:	7b3b      	ldrb	r3, [r7, #12]
 8000e92:	021b      	lsls	r3, r3, #8
 8000e94:	b29a      	uxth	r2, r3
 8000e96:	7b7b      	ldrb	r3, [r7, #13]
 8000e98:	4313      	orrs	r3, r2
 8000e9a:	b29b      	uxth	r3, r3
 8000e9c:	b29b      	uxth	r3, r3
}
 8000e9e:	4618      	mov	r0, r3
 8000ea0:	3710      	adds	r7, #16
 8000ea2:	46bd      	mov	sp, r7
 8000ea4:	bd80      	pop	{r7, pc}
 8000ea6:	bf00      	nop
 8000ea8:	2001327c 	.word	0x2001327c

08000eac <set_RXRD>:

static void set_RXRD(uint8_t sck_fd, uint16_t val)
{
 8000eac:	b580      	push	{r7, lr}
 8000eae:	b082      	sub	sp, #8
 8000eb0:	af00      	add	r7, sp, #0
 8000eb2:	4602      	mov	r2, r0
 8000eb4:	460b      	mov	r3, r1
 8000eb6:	71fa      	strb	r2, [r7, #7]
 8000eb8:	80bb      	strh	r3, [r7, #4]
	spi_dma_send2B(W5200_Sn_RX_RD(sck_fd), val);
 8000eba:	79fb      	ldrb	r3, [r7, #7]
 8000ebc:	b29b      	uxth	r3, r3
 8000ebe:	021b      	lsls	r3, r3, #8
 8000ec0:	b29b      	uxth	r3, r3
 8000ec2:	f503 4380 	add.w	r3, r3, #16384	; 0x4000
 8000ec6:	3328      	adds	r3, #40	; 0x28
 8000ec8:	b29a      	uxth	r2, r3
 8000eca:	88bb      	ldrh	r3, [r7, #4]
 8000ecc:	4610      	mov	r0, r2
 8000ece:	4619      	mov	r1, r3
 8000ed0:	f7ff fcd4 	bl	800087c <spi_dma_send2B>
}
 8000ed4:	3708      	adds	r7, #8
 8000ed6:	46bd      	mov	sp, r7
 8000ed8:	bd80      	pop	{r7, pc}
 8000eda:	bf00      	nop

08000edc <write_memory>:
//		func write_memory 
//===============================================================================================//


void write_memory(uint8_t sck_fd, uint16_t write_ptr, uint8_t *buf, uint16_t len)
{
 8000edc:	b580      	push	{r7, lr}
 8000ede:	b086      	sub	sp, #24
 8000ee0:	af00      	add	r7, sp, #0
 8000ee2:	60ba      	str	r2, [r7, #8]
 8000ee4:	4602      	mov	r2, r0
 8000ee6:	73fa      	strb	r2, [r7, #15]
 8000ee8:	460a      	mov	r2, r1
 8000eea:	81ba      	strh	r2, [r7, #12]
 8000eec:	80fb      	strh	r3, [r7, #6]
	*/
	uint16_t	memory_addr, offset;
	uint16_t	upper_size, left_size;

	// calculate offset address 
	offset = write_ptr & 0x07ff;
 8000eee:	89bb      	ldrh	r3, [r7, #12]
 8000ef0:	f3c3 030a 	ubfx	r3, r3, #0, #11
 8000ef4:	82fb      	strh	r3, [r7, #22]

	// calculate physical memory start address
	memory_addr = W5200_SOCKET_TX_BASE(sck_fd)  + offset;
 8000ef6:	7bfb      	ldrb	r3, [r7, #15]
 8000ef8:	b29b      	uxth	r3, r3
 8000efa:	00db      	lsls	r3, r3, #3
 8000efc:	b29b      	uxth	r3, r3
 8000efe:	021b      	lsls	r3, r3, #8
 8000f00:	b29a      	uxth	r2, r3
 8000f02:	8afb      	ldrh	r3, [r7, #22]
 8000f04:	4413      	add	r3, r2
 8000f06:	b29b      	uxth	r3, r3
 8000f08:	f5a3 4300 	sub.w	r3, r3, #32768	; 0x8000
 8000f0c:	82bb      	strh	r3, [r7, #20]

	// if overflow socket TX memory ?
	if(offset + len > W5200_Sn_TXMEM_SIZE(sck_fd) +1 ){
 8000f0e:	8afa      	ldrh	r2, [r7, #22]
 8000f10:	88fb      	ldrh	r3, [r7, #6]
 8000f12:	441a      	add	r2, r3
 8000f14:	7bfb      	ldrb	r3, [r7, #15]
 8000f16:	021b      	lsls	r3, r3, #8
 8000f18:	f503 4380 	add.w	r3, r3, #16384	; 0x4000
 8000f1c:	3320      	adds	r3, #32
 8000f1e:	429a      	cmp	r2, r3
 8000f20:	dd2a      	ble.n	8000f78 <write_memory+0x9c>

		// copy upper_size bytes
		upper_size = W5200_SOCKET_TX_BASE(sck_fd) - offset;
 8000f22:	7bfb      	ldrb	r3, [r7, #15]
 8000f24:	b29b      	uxth	r3, r3
 8000f26:	00db      	lsls	r3, r3, #3
 8000f28:	b29b      	uxth	r3, r3
 8000f2a:	021b      	lsls	r3, r3, #8
 8000f2c:	b29a      	uxth	r2, r3
 8000f2e:	8afb      	ldrh	r3, [r7, #22]
 8000f30:	1ad3      	subs	r3, r2, r3
 8000f32:	b29b      	uxth	r3, r3
 8000f34:	f5a3 4300 	sub.w	r3, r3, #32768	; 0x8000
 8000f38:	827b      	strh	r3, [r7, #18]
		spi_dma_send( memory_addr,upper_size, buf);
 8000f3a:	8aba      	ldrh	r2, [r7, #20]
 8000f3c:	8a7b      	ldrh	r3, [r7, #18]
 8000f3e:	4610      	mov	r0, r2
 8000f40:	4619      	mov	r1, r3
 8000f42:	68ba      	ldr	r2, [r7, #8]
 8000f44:	f7ff fc12 	bl	800076c <spi_dma_send>
		buf += upper_size;
 8000f48:	8a7b      	ldrh	r3, [r7, #18]
 8000f4a:	68ba      	ldr	r2, [r7, #8]
 8000f4c:	4413      	add	r3, r2
 8000f4e:	60bb      	str	r3, [r7, #8]

		// copy left size bytes
		left_size = len - upper_size;
 8000f50:	88fa      	ldrh	r2, [r7, #6]
 8000f52:	8a7b      	ldrh	r3, [r7, #18]
 8000f54:	1ad3      	subs	r3, r2, r3
 8000f56:	823b      	strh	r3, [r7, #16]
		spi_dma_send( W5200_SOCKET_TX_BASE(sck_fd),
 8000f58:	7bfb      	ldrb	r3, [r7, #15]
 8000f5a:	b29b      	uxth	r3, r3
 8000f5c:	00db      	lsls	r3, r3, #3
 8000f5e:	b29b      	uxth	r3, r3
 8000f60:	021b      	lsls	r3, r3, #8
 8000f62:	b29b      	uxth	r3, r3
 8000f64:	f5a3 4300 	sub.w	r3, r3, #32768	; 0x8000
 8000f68:	b29a      	uxth	r2, r3
 8000f6a:	8a3b      	ldrh	r3, [r7, #16]
 8000f6c:	4610      	mov	r0, r2
 8000f6e:	4619      	mov	r1, r3
 8000f70:	68ba      	ldr	r2, [r7, #8]
 8000f72:	f7ff fbfb 	bl	800076c <spi_dma_send>
 8000f76:	e006      	b.n	8000f86 <write_memory+0xaa>
		left_size,  buf);

	}else{

		// copy len size bytes
		spi_dma_send( memory_addr,len,  buf);
 8000f78:	8aba      	ldrh	r2, [r7, #20]
 8000f7a:	88fb      	ldrh	r3, [r7, #6]
 8000f7c:	4610      	mov	r0, r2
 8000f7e:	4619      	mov	r1, r3
 8000f80:	68ba      	ldr	r2, [r7, #8]
 8000f82:	f7ff fbf3 	bl	800076c <spi_dma_send>
	}
}
 8000f86:	3718      	adds	r7, #24
 8000f88:	46bd      	mov	sp, r7
 8000f8a:	bd80      	pop	{r7, pc}

08000f8c <read_memory>:
// 			func read_memory
//==================================================================================//


void	read_memory(uint8_t sck_fd, uint16_t read_ptr, uint8_t *buf, uint16_t len)
{
 8000f8c:	b580      	push	{r7, lr}
 8000f8e:	b086      	sub	sp, #24
 8000f90:	af00      	add	r7, sp, #0
 8000f92:	60ba      	str	r2, [r7, #8]
 8000f94:	4602      	mov	r2, r0
 8000f96:	73fa      	strb	r2, [r7, #15]
 8000f98:	460a      	mov	r2, r1
 8000f9a:	81ba      	strh	r2, [r7, #12]
 8000f9c:	80fb      	strh	r3, [r7, #6]

	uint16_t	memory_addr, offset;
	uint16_t	upper_size, left_size;

	// calculate offset address 
	offset = read_ptr & 0x07ff;
 8000f9e:	89bb      	ldrh	r3, [r7, #12]
 8000fa0:	f3c3 030a 	ubfx	r3, r3, #0, #11
 8000fa4:	82fb      	strh	r3, [r7, #22]

	// calculate physical memory start address
	memory_addr = W5200_SOCKET_RX_BASE(sck_fd)  + offset;
 8000fa6:	7bfb      	ldrb	r3, [r7, #15]
 8000fa8:	b29b      	uxth	r3, r3
 8000faa:	00db      	lsls	r3, r3, #3
 8000fac:	b29b      	uxth	r3, r3
 8000fae:	021b      	lsls	r3, r3, #8
 8000fb0:	b29a      	uxth	r2, r3
 8000fb2:	8afb      	ldrh	r3, [r7, #22]
 8000fb4:	4413      	add	r3, r2
 8000fb6:	b29b      	uxth	r3, r3
 8000fb8:	f5a3 4380 	sub.w	r3, r3, #16384	; 0x4000
 8000fbc:	82bb      	strh	r3, [r7, #20]

	// if overflow socket RX memory ?
	if(offset + len > 0x0800){
 8000fbe:	8afa      	ldrh	r2, [r7, #22]
 8000fc0:	88fb      	ldrh	r3, [r7, #6]
 8000fc2:	4413      	add	r3, r2
 8000fc4:	f5b3 6f00 	cmp.w	r3, #2048	; 0x800
 8000fc8:	dd2f      	ble.n	800102a <read_memory+0x9e>

		// copy upper_size bytes
		upper_size = 0x0800 - offset;
 8000fca:	8afb      	ldrh	r3, [r7, #22]
 8000fcc:	f5c3 6300 	rsb	r3, r3, #2048	; 0x800
 8000fd0:	827b      	strh	r3, [r7, #18]
		spi_dma_read( memory_addr,upper_size);
 8000fd2:	8aba      	ldrh	r2, [r7, #20]
 8000fd4:	8a7b      	ldrh	r3, [r7, #18]
 8000fd6:	4610      	mov	r0, r2
 8000fd8:	4619      	mov	r1, r3
 8000fda:	f7ff fced 	bl	80009b8 <spi_dma_read>
		memcpy(buf, bufferRX+4, upper_size);
 8000fde:	8a7b      	ldrh	r3, [r7, #18]
 8000fe0:	68b8      	ldr	r0, [r7, #8]
 8000fe2:	4919      	ldr	r1, [pc, #100]	; (8001048 <read_memory+0xbc>)
 8000fe4:	461a      	mov	r2, r3
 8000fe6:	f7ff f8f9 	bl	80001dc <memcpy>

		buf += upper_size;
 8000fea:	8a7b      	ldrh	r3, [r7, #18]
 8000fec:	68ba      	ldr	r2, [r7, #8]
 8000fee:	4413      	add	r3, r2
 8000ff0:	60bb      	str	r3, [r7, #8]

		// copy left size bytes
		left_size = len - upper_size;
 8000ff2:	88fa      	ldrh	r2, [r7, #6]
 8000ff4:	8a7b      	ldrh	r3, [r7, #18]
 8000ff6:	1ad3      	subs	r3, r2, r3
 8000ff8:	823b      	strh	r3, [r7, #16]
		spi_dma_read(W5200_SOCKET_RX_BASE(sck_fd), left_size);
 8000ffa:	7bfb      	ldrb	r3, [r7, #15]
 8000ffc:	b29b      	uxth	r3, r3
 8000ffe:	00db      	lsls	r3, r3, #3
 8001000:	b29b      	uxth	r3, r3
 8001002:	021b      	lsls	r3, r3, #8
 8001004:	b29b      	uxth	r3, r3
 8001006:	f5a3 4380 	sub.w	r3, r3, #16384	; 0x4000
 800100a:	b29a      	uxth	r2, r3
 800100c:	8a3b      	ldrh	r3, [r7, #16]
 800100e:	4610      	mov	r0, r2
 8001010:	4619      	mov	r1, r3
 8001012:	f7ff fcd1 	bl	80009b8 <spi_dma_read>
		memcpy(buf+upper_size, bufferRX+4, left_size);
 8001016:	8a7b      	ldrh	r3, [r7, #18]
 8001018:	68ba      	ldr	r2, [r7, #8]
 800101a:	441a      	add	r2, r3
 800101c:	8a3b      	ldrh	r3, [r7, #16]
 800101e:	4610      	mov	r0, r2
 8001020:	4909      	ldr	r1, [pc, #36]	; (8001048 <read_memory+0xbc>)
 8001022:	461a      	mov	r2, r3
 8001024:	f7ff f8da 	bl	80001dc <memcpy>
 8001028:	e00b      	b.n	8001042 <read_memory+0xb6>
	}else{

		// copy len size bytes
		spi_dma_read( memory_addr,len);
 800102a:	8aba      	ldrh	r2, [r7, #20]
 800102c:	88fb      	ldrh	r3, [r7, #6]
 800102e:	4610      	mov	r0, r2
 8001030:	4619      	mov	r1, r3
 8001032:	f7ff fcc1 	bl	80009b8 <spi_dma_read>
		memcpy(buf, bufferRX+4, len);
 8001036:	88fb      	ldrh	r3, [r7, #6]
 8001038:	68b8      	ldr	r0, [r7, #8]
 800103a:	4903      	ldr	r1, [pc, #12]	; (8001048 <read_memory+0xbc>)
 800103c:	461a      	mov	r2, r3
 800103e:	f7ff f8cd 	bl	80001dc <memcpy>
	}
}
 8001042:	3718      	adds	r7, #24
 8001044:	46bd      	mov	sp, r7
 8001046:	bd80      	pop	{r7, pc}
 8001048:	2001327c 	.word	0x2001327c

0800104c <socket>:
	socket()	create socket, handle open
		ip_proto, RAW mode only.
===========================================================================*/

uint8_t	socket(uint8_t  mode, uint16_t  port, uint8_t ip_proto)
{
 800104c:	b580      	push	{r7, lr}
 800104e:	b084      	sub	sp, #16
 8001050:	af00      	add	r7, sp, #0
 8001052:	4613      	mov	r3, r2
 8001054:	4602      	mov	r2, r0
 8001056:	71fa      	strb	r2, [r7, #7]
 8001058:	460a      	mov	r2, r1
 800105a:	80ba      	strh	r2, [r7, #4]
 800105c:	71bb      	strb	r3, [r7, #6]
	uint8_t	stat;

	

	// check free socket exists? 
	for(sck_fd = 0; sck_fd < W5200_MAX_SOCKETS; sck_fd++){
 800105e:	2300      	movs	r3, #0
 8001060:	73fb      	strb	r3, [r7, #15]
 8001062:	e00c      	b.n	800107e <socket+0x32>
		if(socket_flg[sck_fd] == 0){
 8001064:	7bfb      	ldrb	r3, [r7, #15]
 8001066:	4a4c      	ldr	r2, [pc, #304]	; (8001198 <socket+0x14c>)
 8001068:	5cd3      	ldrb	r3, [r2, r3]
 800106a:	2b00      	cmp	r3, #0
 800106c:	d104      	bne.n	8001078 <socket+0x2c>
			socket_flg[sck_fd] = 1;
 800106e:	7bfb      	ldrb	r3, [r7, #15]
 8001070:	4a49      	ldr	r2, [pc, #292]	; (8001198 <socket+0x14c>)
 8001072:	2101      	movs	r1, #1
 8001074:	54d1      	strb	r1, [r2, r3]
			break;
 8001076:	e005      	b.n	8001084 <socket+0x38>
	uint8_t	stat;

	

	// check free socket exists? 
	for(sck_fd = 0; sck_fd < W5200_MAX_SOCKETS; sck_fd++){
 8001078:	7bfb      	ldrb	r3, [r7, #15]
 800107a:	3301      	adds	r3, #1
 800107c:	73fb      	strb	r3, [r7, #15]
 800107e:	7bfb      	ldrb	r3, [r7, #15]
 8001080:	2b07      	cmp	r3, #7
 8001082:	d9ef      	bls.n	8001064 <socket+0x18>
		if(socket_flg[sck_fd] == 0){
			socket_flg[sck_fd] = 1;
			break;
		}
	}
	if(sck_fd >= W5200_MAX_SOCKETS) return -1;	// no more sockets.
 8001084:	7bfb      	ldrb	r3, [r7, #15]
 8001086:	2b07      	cmp	r3, #7
 8001088:	d901      	bls.n	800108e <socket+0x42>
 800108a:	23ff      	movs	r3, #255	; 0xff
 800108c:	e07f      	b.n	800118e <socket+0x142>
	// check mode parameter
	if((mode & 0x0f) > W5200_MR_PPPOE_ENABLE) return -1;	// mode error.
 800108e:	79fb      	ldrb	r3, [r7, #7]
 8001090:	f003 030f 	and.w	r3, r3, #15
 8001094:	2b08      	cmp	r3, #8
 8001096:	dd01      	ble.n	800109c <socket+0x50>
 8001098:	23ff      	movs	r3, #255	; 0xff
 800109a:	e078      	b.n	800118e <socket+0x142>
	if(((mode & 0x0f) != W5200_Sn_MR_UDP) && (mode & W5200_Sn_MR_MULTI)) return -1; // MULTI is UDP only.
 800109c:	79fb      	ldrb	r3, [r7, #7]
 800109e:	f003 030f 	and.w	r3, r3, #15
 80010a2:	2b02      	cmp	r3, #2
 80010a4:	d005      	beq.n	80010b2 <socket+0x66>
 80010a6:	79fb      	ldrb	r3, [r7, #7]
 80010a8:	b25b      	sxtb	r3, r3
 80010aa:	2b00      	cmp	r3, #0
 80010ac:	da01      	bge.n	80010b2 <socket+0x66>
 80010ae:	23ff      	movs	r3, #255	; 0xff
 80010b0:	e06d      	b.n	800118e <socket+0x142>
	if(((mode & 0x0f) != W5200_Sn_MR_TCP) && (mode & W5200_Sn_MR_ND)) return -1; // ND is TCP only.
 80010b2:	79fb      	ldrb	r3, [r7, #7]
 80010b4:	f003 030f 	and.w	r3, r3, #15
 80010b8:	2b01      	cmp	r3, #1
 80010ba:	d006      	beq.n	80010ca <socket+0x7e>
 80010bc:	79fb      	ldrb	r3, [r7, #7]
 80010be:	f003 0320 	and.w	r3, r3, #32
 80010c2:	2b00      	cmp	r3, #0
 80010c4:	d001      	beq.n	80010ca <socket+0x7e>
 80010c6:	23ff      	movs	r3, #255	; 0xff
 80010c8:	e061      	b.n	800118e <socket+0x142>

	// set MODE register
	spi_dma_sendByte(W5200_Sn_MR(sck_fd) , mode);
 80010ca:	7bfb      	ldrb	r3, [r7, #15]
 80010cc:	b29b      	uxth	r3, r3
 80010ce:	021b      	lsls	r3, r3, #8
 80010d0:	b29b      	uxth	r3, r3
 80010d2:	f503 4380 	add.w	r3, r3, #16384	; 0x4000
 80010d6:	b29a      	uxth	r2, r3
 80010d8:	79fb      	ldrb	r3, [r7, #7]
 80010da:	4610      	mov	r0, r2
 80010dc:	4619      	mov	r1, r3
 80010de:	f7ff fc1f 	bl	8000920 <spi_dma_sendByte>
	//socket_mode[sck_fd] = mode & 0x0f;	// omitting ND/MULTICAST
	mode &= 0x0f;
 80010e2:	79fb      	ldrb	r3, [r7, #7]
 80010e4:	f003 030f 	and.w	r3, r3, #15
 80010e8:	71fb      	strb	r3, [r7, #7]

	uint8_t prt[2];

	// set PORT, PROTOCOL 
	switch(mode){
 80010ea:	79fb      	ldrb	r3, [r7, #7]
 80010ec:	2b01      	cmp	r3, #1
 80010ee:	db29      	blt.n	8001144 <socket+0xf8>
 80010f0:	2b02      	cmp	r3, #2
 80010f2:	dd02      	ble.n	80010fa <socket+0xae>
 80010f4:	2b03      	cmp	r3, #3
 80010f6:	d018      	beq.n	800112a <socket+0xde>
 80010f8:	e024      	b.n	8001144 <socket+0xf8>
	case W5200_Sn_MR_TCP:
	case W5200_Sn_MR_UDP:

		// split port for sending on two 8bits
		prt[0] = (port & 0xff00) >> 8;
 80010fa:	88bb      	ldrh	r3, [r7, #4]
 80010fc:	0a1b      	lsrs	r3, r3, #8
 80010fe:	b29b      	uxth	r3, r3
 8001100:	b2db      	uxtb	r3, r3
 8001102:	733b      	strb	r3, [r7, #12]
		prt[1] =  (port & 0x00ff);
 8001104:	88bb      	ldrh	r3, [r7, #4]
 8001106:	b2db      	uxtb	r3, r3
 8001108:	737b      	strb	r3, [r7, #13]
		spi_dma_send(W5200_Sn_PORT(sck_fd), 2 , prt);
 800110a:	7bfb      	ldrb	r3, [r7, #15]
 800110c:	b29b      	uxth	r3, r3
 800110e:	021b      	lsls	r3, r3, #8
 8001110:	b29b      	uxth	r3, r3
 8001112:	f503 4380 	add.w	r3, r3, #16384	; 0x4000
 8001116:	3304      	adds	r3, #4
 8001118:	b29a      	uxth	r2, r3
 800111a:	f107 030c 	add.w	r3, r7, #12
 800111e:	4610      	mov	r0, r2
 8001120:	2102      	movs	r1, #2
 8001122:	461a      	mov	r2, r3
 8001124:	f7ff fb22 	bl	800076c <spi_dma_send>
		
		break;
 8001128:	e00c      	b.n	8001144 <socket+0xf8>
	case W5200_Sn_MR_IPRAW:
		spi_dma_sendByte(W5200_Sn_PROTO(sck_fd), ip_proto);
 800112a:	7bfb      	ldrb	r3, [r7, #15]
 800112c:	b29b      	uxth	r3, r3
 800112e:	021b      	lsls	r3, r3, #8
 8001130:	b29b      	uxth	r3, r3
 8001132:	f503 4380 	add.w	r3, r3, #16384	; 0x4000
 8001136:	3314      	adds	r3, #20
 8001138:	b29a      	uxth	r2, r3
 800113a:	79bb      	ldrb	r3, [r7, #6]
 800113c:	4610      	mov	r0, r2
 800113e:	4619      	mov	r1, r3
 8001140:	f7ff fbee 	bl	8000920 <spi_dma_sendByte>
	}

	// execute socket open
	spi_dma_sendByte(W5200_Sn_CR(sck_fd), W5200_Sn_CR_OPEN);
 8001144:	7bfb      	ldrb	r3, [r7, #15]
 8001146:	b29b      	uxth	r3, r3
 8001148:	021b      	lsls	r3, r3, #8
 800114a:	b29b      	uxth	r3, r3
 800114c:	f503 4380 	add.w	r3, r3, #16384	; 0x4000
 8001150:	3301      	adds	r3, #1
 8001152:	b29b      	uxth	r3, r3
 8001154:	4618      	mov	r0, r3
 8001156:	2101      	movs	r1, #1
 8001158:	f7ff fbe2 	bl	8000920 <spi_dma_sendByte>
	// wait command complete.
	while(get_CRStatus(sck_fd)  != 0);	// 0 value is command complete. 
 800115c:	bf00      	nop
 800115e:	7bfb      	ldrb	r3, [r7, #15]
 8001160:	4618      	mov	r0, r3
 8001162:	f7ff fd9f 	bl	8000ca4 <get_CRStatus>
 8001166:	4603      	mov	r3, r0
 8001168:	2b00      	cmp	r3, #0
 800116a:	d1f8      	bne.n	800115e <socket+0x112>

	// check status
	if(stat = get_SRStatus(sck_fd) != W5200_Sn_SR_SOCK_INIT) return -1;
 800116c:	7bfb      	ldrb	r3, [r7, #15]
 800116e:	4618      	mov	r0, r3
 8001170:	f7ff fdb4 	bl	8000cdc <get_SRStatus>
 8001174:	4603      	mov	r3, r0
 8001176:	2b13      	cmp	r3, #19
 8001178:	bf0c      	ite	eq
 800117a:	2300      	moveq	r3, #0
 800117c:	2301      	movne	r3, #1
 800117e:	b2db      	uxtb	r3, r3
 8001180:	73bb      	strb	r3, [r7, #14]
 8001182:	7bbb      	ldrb	r3, [r7, #14]
 8001184:	2b00      	cmp	r3, #0
 8001186:	d001      	beq.n	800118c <socket+0x140>
 8001188:	23ff      	movs	r3, #255	; 0xff
 800118a:	e000      	b.n	800118e <socket+0x142>

	// success return
	return sck_fd;
 800118c:	7bfb      	ldrb	r3, [r7, #15]
}
 800118e:	4618      	mov	r0, r3
 8001190:	3710      	adds	r7, #16
 8001192:	46bd      	mov	sp, r7
 8001194:	bd80      	pop	{r7, pc}
 8001196:	bf00      	nop
 8001198:	2000048c 	.word	0x2000048c

0800119c <closesocket>:
/*==========================================================================
	closesocket()	socket handle close
===========================================================================*/

int	closesocket(int sck_fd)
{
 800119c:	b580      	push	{r7, lr}
 800119e:	b082      	sub	sp, #8
 80011a0:	af00      	add	r7, sp, #0
 80011a2:	6078      	str	r0, [r7, #4]
	// check asign flag
	if(sck_fd < 0 || sck_fd >=W5200_MAX_SOCKETS||  socket_flg[sck_fd] != 1) return -1;
 80011a4:	687b      	ldr	r3, [r7, #4]
 80011a6:	2b00      	cmp	r3, #0
 80011a8:	db08      	blt.n	80011bc <closesocket+0x20>
 80011aa:	687b      	ldr	r3, [r7, #4]
 80011ac:	2b07      	cmp	r3, #7
 80011ae:	dc05      	bgt.n	80011bc <closesocket+0x20>
 80011b0:	4a18      	ldr	r2, [pc, #96]	; (8001214 <closesocket+0x78>)
 80011b2:	687b      	ldr	r3, [r7, #4]
 80011b4:	4413      	add	r3, r2
 80011b6:	781b      	ldrb	r3, [r3, #0]
 80011b8:	2b01      	cmp	r3, #1
 80011ba:	d002      	beq.n	80011c2 <closesocket+0x26>
 80011bc:	f04f 33ff 	mov.w	r3, #4294967295	; 0xffffffff
 80011c0:	e023      	b.n	800120a <closesocket+0x6e>

	// release socket
	socket_flg[sck_fd] = 0;
 80011c2:	4a14      	ldr	r2, [pc, #80]	; (8001214 <closesocket+0x78>)
 80011c4:	687b      	ldr	r3, [r7, #4]
 80011c6:	4413      	add	r3, r2
 80011c8:	2200      	movs	r2, #0
 80011ca:	701a      	strb	r2, [r3, #0]
	
	// execute socket close
	spi_dma_sendByte(W5200_Sn_CR(sck_fd), W5200_Sn_CR_CLOSE);
 80011cc:	687b      	ldr	r3, [r7, #4]
 80011ce:	b29b      	uxth	r3, r3
 80011d0:	021b      	lsls	r3, r3, #8
 80011d2:	b29b      	uxth	r3, r3
 80011d4:	f503 4380 	add.w	r3, r3, #16384	; 0x4000
 80011d8:	3301      	adds	r3, #1
 80011da:	b29b      	uxth	r3, r3
 80011dc:	4618      	mov	r0, r3
 80011de:	2110      	movs	r1, #16
 80011e0:	f7ff fb9e 	bl	8000920 <spi_dma_sendByte>
	// wait command complete.
	while(get_CRStatus(sck_fd)  != 0);	// 0 value is command complete. 
 80011e4:	bf00      	nop
 80011e6:	687b      	ldr	r3, [r7, #4]
 80011e8:	b2db      	uxtb	r3, r3
 80011ea:	4618      	mov	r0, r3
 80011ec:	f7ff fd5a 	bl	8000ca4 <get_CRStatus>
 80011f0:	4603      	mov	r3, r0
 80011f2:	2b00      	cmp	r3, #0
 80011f4:	d1f7      	bne.n	80011e6 <closesocket+0x4a>

	// check status
	while( get_SRStatus(sck_fd) != W5200_Sn_SR_SOCK_CLOSED);
 80011f6:	bf00      	nop
 80011f8:	687b      	ldr	r3, [r7, #4]
 80011fa:	b2db      	uxtb	r3, r3
 80011fc:	4618      	mov	r0, r3
 80011fe:	f7ff fd6d 	bl	8000cdc <get_SRStatus>
 8001202:	4603      	mov	r3, r0
 8001204:	2b00      	cmp	r3, #0
 8001206:	d1f7      	bne.n	80011f8 <closesocket+0x5c>

	// close success
	return 0;
 8001208:	2300      	movs	r3, #0
}
 800120a:	4618      	mov	r0, r3
 800120c:	3708      	adds	r7, #8
 800120e:	46bd      	mov	sp, r7
 8001210:	bd80      	pop	{r7, pc}
 8001212:	bf00      	nop
 8001214:	2000048c 	.word	0x2000048c

08001218 <send>:
/*==========================================================================
	send()	send *buf to  (TCP only)
===========================================================================*/

int	send(uint8_t sck_fd, uint8_t *buf, uint16_t len, uint16_t flag)
{
 8001218:	e92d 43f0 	stmdb	sp!, {r4, r5, r6, r7, r8, r9, lr}
 800121c:	b08b      	sub	sp, #44	; 0x2c
 800121e:	af00      	add	r7, sp, #0
 8001220:	60b9      	str	r1, [r7, #8]
 8001222:	4601      	mov	r1, r0
 8001224:	73f9      	strb	r1, [r7, #15]
 8001226:	81ba      	strh	r2, [r7, #12]
 8001228:	80fb      	strh	r3, [r7, #6]
	uint16_t	send_size;
	uint16_t	write_ptr;
	
	/// get real len 
	int i = 0; 
 800122a:	2300      	movs	r3, #0
 800122c:	623b      	str	r3, [r7, #32]

	while ( buf[i] != '\0' && i < len) i++; 
 800122e:	e002      	b.n	8001236 <send+0x1e>
 8001230:	6a3b      	ldr	r3, [r7, #32]
 8001232:	3301      	adds	r3, #1
 8001234:	623b      	str	r3, [r7, #32]
 8001236:	6a3b      	ldr	r3, [r7, #32]
 8001238:	68ba      	ldr	r2, [r7, #8]
 800123a:	4413      	add	r3, r2
 800123c:	781b      	ldrb	r3, [r3, #0]
 800123e:	2b00      	cmp	r3, #0
 8001240:	d003      	beq.n	800124a <send+0x32>
 8001242:	89ba      	ldrh	r2, [r7, #12]
 8001244:	6a3b      	ldr	r3, [r7, #32]
 8001246:	429a      	cmp	r2, r3
 8001248:	dcf2      	bgt.n	8001230 <send+0x18>

	len = i;
 800124a:	6a3b      	ldr	r3, [r7, #32]
 800124c:	81bb      	strh	r3, [r7, #12]
	
	uint16_t status = get_SRStatus(sck_fd);
 800124e:	7bfb      	ldrb	r3, [r7, #15]
 8001250:	4618      	mov	r0, r3
 8001252:	f7ff fd43 	bl	8000cdc <get_SRStatus>
 8001256:	4603      	mov	r3, r0
 8001258:	83fb      	strh	r3, [r7, #30]

	
	// check socket asign flag
	if(sck_fd < 0 || sck_fd >= W5200_MAX_SOCKETS ||  socket_flg[sck_fd] != 1) return -1;
 800125a:	7bfb      	ldrb	r3, [r7, #15]
 800125c:	2b07      	cmp	r3, #7
 800125e:	d804      	bhi.n	800126a <send+0x52>
 8001260:	7bfb      	ldrb	r3, [r7, #15]
 8001262:	4a56      	ldr	r2, [pc, #344]	; (80013bc <send+0x1a4>)
 8001264:	5cd3      	ldrb	r3, [r2, r3]
 8001266:	2b01      	cmp	r3, #1
 8001268:	d002      	beq.n	8001270 <send+0x58>
 800126a:	f04f 33ff 	mov.w	r3, #4294967295	; 0xffffffff
 800126e:	e0a0      	b.n	80013b2 <send+0x19a>

	// check parameter
	if(buf == NULL || len == 0) return -1;
 8001270:	68bb      	ldr	r3, [r7, #8]
 8001272:	2b00      	cmp	r3, #0
 8001274:	d002      	beq.n	800127c <send+0x64>
 8001276:	89bb      	ldrh	r3, [r7, #12]
 8001278:	2b00      	cmp	r3, #0
 800127a:	d102      	bne.n	8001282 <send+0x6a>
 800127c:	f04f 33ff 	mov.w	r3, #4294967295	; 0xffffffff
 8001280:	e097      	b.n	80013b2 <send+0x19a>
	
	// check status
	if(get_SRStatus(sck_fd) != W5200_Sn_SR_SOCK_ESTABLISHED) return 0; // closing or fin close wait.
 8001282:	7bfb      	ldrb	r3, [r7, #15]
 8001284:	4618      	mov	r0, r3
 8001286:	f7ff fd29 	bl	8000cdc <get_SRStatus>
 800128a:	4603      	mov	r3, r0
 800128c:	2b17      	cmp	r3, #23
 800128e:	d001      	beq.n	8001294 <send+0x7c>
 8001290:	2300      	movs	r3, #0
 8001292:	e08e      	b.n	80013b2 <send+0x19a>

	// check TX memory free size?
	while((send_size = get_TXFSRStatus(sck_fd)) == 0){
 8001294:	e004      	b.n	80012a0 <send+0x88>
		if(flag == 1) return 0;	// NONE BLOCKING
 8001296:	88fb      	ldrh	r3, [r7, #6]
 8001298:	2b01      	cmp	r3, #1
 800129a:	d101      	bne.n	80012a0 <send+0x88>
 800129c:	2300      	movs	r3, #0
 800129e:	e088      	b.n	80013b2 <send+0x19a>
	
	// check status
	if(get_SRStatus(sck_fd) != W5200_Sn_SR_SOCK_ESTABLISHED) return 0; // closing or fin close wait.

	// check TX memory free size?
	while((send_size = get_TXFSRStatus(sck_fd)) == 0){
 80012a0:	7bfb      	ldrb	r3, [r7, #15]
 80012a2:	4618      	mov	r0, r3
 80012a4:	f7ff fd36 	bl	8000d14 <get_TXFSRStatus>
 80012a8:	4603      	mov	r3, r0
 80012aa:	84fb      	strh	r3, [r7, #38]	; 0x26
 80012ac:	8cfb      	ldrh	r3, [r7, #38]	; 0x26
 80012ae:	2b00      	cmp	r3, #0
 80012b0:	d0f1      	beq.n	8001296 <send+0x7e>
		if(flag == 1) return 0;	// NONE BLOCKING
	}

	// get write pointer
	write_ptr = get_TXWRStatus(sck_fd);
 80012b2:	7bfb      	ldrb	r3, [r7, #15]
 80012b4:	4618      	mov	r0, r3
 80012b6:	f7ff fd51 	bl	8000d5c <get_TXWRStatus>
 80012ba:	4603      	mov	r3, r0
 80012bc:	83bb      	strh	r3, [r7, #28]

	// check write length
	if(send_size > len) send_size = len;
 80012be:	8cfa      	ldrh	r2, [r7, #38]	; 0x26
 80012c0:	89bb      	ldrh	r3, [r7, #12]
 80012c2:	429a      	cmp	r2, r3
 80012c4:	d901      	bls.n	80012ca <send+0xb2>
 80012c6:	89bb      	ldrh	r3, [r7, #12]
 80012c8:	84fb      	strh	r3, [r7, #38]	; 0x26

	// data write to memory
	write_memory(sck_fd, write_ptr, buf, send_size);
 80012ca:	7bf9      	ldrb	r1, [r7, #15]
 80012cc:	8bba      	ldrh	r2, [r7, #28]
 80012ce:	8cfb      	ldrh	r3, [r7, #38]	; 0x26
 80012d0:	4608      	mov	r0, r1
 80012d2:	4611      	mov	r1, r2
 80012d4:	68ba      	ldr	r2, [r7, #8]
 80012d6:	f7ff fe01 	bl	8000edc <write_memory>

	// pointer update
	write_ptr += send_size;
 80012da:	8bba      	ldrh	r2, [r7, #28]
 80012dc:	8cfb      	ldrh	r3, [r7, #38]	; 0x26
 80012de:	4413      	add	r3, r2
 80012e0:	83bb      	strh	r3, [r7, #28]
	set_TXWR(sck_fd, write_ptr);
 80012e2:	7bfa      	ldrb	r2, [r7, #15]
 80012e4:	8bbb      	ldrh	r3, [r7, #28]
 80012e6:	4610      	mov	r0, r2
 80012e8:	4619      	mov	r1, r3
 80012ea:	f7ff fd7f 	bl	8000dec <set_TXWR>
		
	// test function 
	

	uint16_t start = get_TXRD(sck_fd);
 80012ee:	7bfb      	ldrb	r3, [r7, #15]
 80012f0:	4618      	mov	r0, r3
 80012f2:	f7ff fd57 	bl	8000da4 <get_TXRD>
 80012f6:	4603      	mov	r3, r0
 80012f8:	837b      	strh	r3, [r7, #26]
	uint16_t end   = get_TXWRStatus(sck_fd); 
 80012fa:	7bfb      	ldrb	r3, [r7, #15]
 80012fc:	4618      	mov	r0, r3
 80012fe:	f7ff fd2d 	bl	8000d5c <get_TXWRStatus>
 8001302:	4603      	mov	r3, r0
 8001304:	833b      	strh	r3, [r7, #24]
	uint8_t data [write_ptr-start]; 	
 8001306:	8bba      	ldrh	r2, [r7, #28]
 8001308:	8b7b      	ldrh	r3, [r7, #26]
 800130a:	1ad1      	subs	r1, r2, r3
 800130c:	466b      	mov	r3, sp
 800130e:	461e      	mov	r6, r3
 8001310:	1e4b      	subs	r3, r1, #1
 8001312:	617b      	str	r3, [r7, #20]
 8001314:	460b      	mov	r3, r1
 8001316:	461a      	mov	r2, r3
 8001318:	f04f 0300 	mov.w	r3, #0
 800131c:	ea4f 09c3 	mov.w	r9, r3, lsl #3
 8001320:	ea49 7952 	orr.w	r9, r9, r2, lsr #29
 8001324:	ea4f 08c2 	mov.w	r8, r2, lsl #3
 8001328:	460b      	mov	r3, r1
 800132a:	461a      	mov	r2, r3
 800132c:	f04f 0300 	mov.w	r3, #0
 8001330:	00dd      	lsls	r5, r3, #3
 8001332:	ea45 7552 	orr.w	r5, r5, r2, lsr #29
 8001336:	00d4      	lsls	r4, r2, #3
 8001338:	460b      	mov	r3, r1
 800133a:	3307      	adds	r3, #7
 800133c:	08db      	lsrs	r3, r3, #3
 800133e:	00db      	lsls	r3, r3, #3
 8001340:	ebad 0d03 	sub.w	sp, sp, r3
 8001344:	466b      	mov	r3, sp
 8001346:	3300      	adds	r3, #0
 8001348:	613b      	str	r3, [r7, #16]
	spi_dma_read(start+0x8000, write_ptr-start );
 800134a:	8b7b      	ldrh	r3, [r7, #26]
 800134c:	f5a3 4300 	sub.w	r3, r3, #32768	; 0x8000
 8001350:	b29a      	uxth	r2, r3
 8001352:	8bb9      	ldrh	r1, [r7, #28]
 8001354:	8b7b      	ldrh	r3, [r7, #26]
 8001356:	1acb      	subs	r3, r1, r3
 8001358:	b29b      	uxth	r3, r3
 800135a:	4610      	mov	r0, r2
 800135c:	4619      	mov	r1, r3
 800135e:	f7ff fb2b 	bl	80009b8 <spi_dma_read>
	memcpy(data, bufferRX +4, write_ptr-start);
 8001362:	693a      	ldr	r2, [r7, #16]
 8001364:	8bb9      	ldrh	r1, [r7, #28]
 8001366:	8b7b      	ldrh	r3, [r7, #26]
 8001368:	1acb      	subs	r3, r1, r3
 800136a:	4610      	mov	r0, r2
 800136c:	4914      	ldr	r1, [pc, #80]	; (80013c0 <send+0x1a8>)
 800136e:	461a      	mov	r2, r3
 8001370:	f7fe ff34 	bl	80001dc <memcpy>

	
	// test function 
	
	// send command
	spi_dma_sendByte(W5200_Sn_CR(sck_fd), W5200_Sn_CR_SEND);
 8001374:	7bfb      	ldrb	r3, [r7, #15]
 8001376:	b29b      	uxth	r3, r3
 8001378:	021b      	lsls	r3, r3, #8
 800137a:	b29b      	uxth	r3, r3
 800137c:	f503 4380 	add.w	r3, r3, #16384	; 0x4000
 8001380:	3301      	adds	r3, #1
 8001382:	b29b      	uxth	r3, r3
 8001384:	4618      	mov	r0, r3
 8001386:	2120      	movs	r1, #32
 8001388:	f7ff faca 	bl	8000920 <spi_dma_sendByte>
	// wait command complete.
	while(get_CRStatus(sck_fd) != 0);	// 0 value is command complete. 
 800138c:	bf00      	nop
 800138e:	7bfb      	ldrb	r3, [r7, #15]
 8001390:	4618      	mov	r0, r3
 8001392:	f7ff fc87 	bl	8000ca4 <get_CRStatus>
 8001396:	4603      	mov	r3, r0
 8001398:	2b00      	cmp	r3, #0
 800139a:	d1f8      	bne.n	800138e <send+0x176>

	// wait sending complete
	while(get_TXRD(sck_fd) != write_ptr);
 800139c:	bf00      	nop
 800139e:	7bfb      	ldrb	r3, [r7, #15]
 80013a0:	4618      	mov	r0, r3
 80013a2:	f7ff fcff 	bl	8000da4 <get_TXRD>
 80013a6:	4603      	mov	r3, r0
 80013a8:	8bba      	ldrh	r2, [r7, #28]
 80013aa:	429a      	cmp	r2, r3
 80013ac:	d1f7      	bne.n	800139e <send+0x186>

	return send_size;
 80013ae:	8cfb      	ldrh	r3, [r7, #38]	; 0x26
 80013b0:	46b5      	mov	sp, r6
}
 80013b2:	4618      	mov	r0, r3
 80013b4:	372c      	adds	r7, #44	; 0x2c
 80013b6:	46bd      	mov	sp, r7
 80013b8:	e8bd 83f0 	ldmia.w	sp!, {r4, r5, r6, r7, r8, r9, pc}
 80013bc:	2000048c 	.word	0x2000048c
 80013c0:	2001327c 	.word	0x2001327c

080013c4 <recv>:
	return code is received data size.
	if received disconnect from peer, size was set to Zero, 
===========================================================================*/

int	recv(uint8_t sck_fd, uint8_t *buf, uint16_t len, uint16_t flag)
{
 80013c4:	b580      	push	{r7, lr}
 80013c6:	b086      	sub	sp, #24
 80013c8:	af00      	add	r7, sp, #0
 80013ca:	60b9      	str	r1, [r7, #8]
 80013cc:	4601      	mov	r1, r0
 80013ce:	73f9      	strb	r1, [r7, #15]
 80013d0:	81ba      	strh	r2, [r7, #12]
 80013d2:	80fb      	strh	r3, [r7, #6]
	uint16_t	read_len;
	uint16_t	read_ptr;

	// check asign flag
	if(sck_fd < 0 || sck_fd >= W5200_MAX_SOCKETS ||  socket_flg[sck_fd] != 1) return -1;
 80013d4:	7bfb      	ldrb	r3, [r7, #15]
 80013d6:	2b07      	cmp	r3, #7
 80013d8:	d804      	bhi.n	80013e4 <recv+0x20>
 80013da:	7bfb      	ldrb	r3, [r7, #15]
 80013dc:	4a31      	ldr	r2, [pc, #196]	; (80014a4 <recv+0xe0>)
 80013de:	5cd3      	ldrb	r3, [r2, r3]
 80013e0:	2b01      	cmp	r3, #1
 80013e2:	d002      	beq.n	80013ea <recv+0x26>
 80013e4:	f04f 33ff 	mov.w	r3, #4294967295	; 0xffffffff
 80013e8:	e057      	b.n	800149a <recv+0xd6>

	// check parameter
	if(buf == NULL || len == 0) return -1;
 80013ea:	68bb      	ldr	r3, [r7, #8]
 80013ec:	2b00      	cmp	r3, #0
 80013ee:	d002      	beq.n	80013f6 <recv+0x32>
 80013f0:	89bb      	ldrh	r3, [r7, #12]
 80013f2:	2b00      	cmp	r3, #0
 80013f4:	d102      	bne.n	80013fc <recv+0x38>
 80013f6:	f04f 33ff 	mov.w	r3, #4294967295	; 0xffffffff
 80013fa:	e04e      	b.n	800149a <recv+0xd6>

	// check status
	if(get_SRStatus(sck_fd) != W5200_Sn_SR_SOCK_ESTABLISHED) return 0;	// closing or fin close wait.
 80013fc:	7bfb      	ldrb	r3, [r7, #15]
 80013fe:	4618      	mov	r0, r3
 8001400:	f7ff fc6c 	bl	8000cdc <get_SRStatus>
 8001404:	4603      	mov	r3, r0
 8001406:	2b17      	cmp	r3, #23
 8001408:	d001      	beq.n	800140e <recv+0x4a>
 800140a:	2300      	movs	r3, #0
 800140c:	e045      	b.n	800149a <recv+0xd6>

	// received data exists?
	while((read_len = get_RXRSR(sck_fd)) == 0){
 800140e:	e004      	b.n	800141a <recv+0x56>
		if(flag == 1) return 0;	// NONE BLOCKING
 8001410:	88fb      	ldrh	r3, [r7, #6]
 8001412:	2b01      	cmp	r3, #1
 8001414:	d101      	bne.n	800141a <recv+0x56>
 8001416:	2300      	movs	r3, #0
 8001418:	e03f      	b.n	800149a <recv+0xd6>

	// check status
	if(get_SRStatus(sck_fd) != W5200_Sn_SR_SOCK_ESTABLISHED) return 0;	// closing or fin close wait.

	// received data exists?
	while((read_len = get_RXRSR(sck_fd)) == 0){
 800141a:	7bfb      	ldrb	r3, [r7, #15]
 800141c:	4618      	mov	r0, r3
 800141e:	f7ff fcfd 	bl	8000e1c <get_RXRSR>
 8001422:	4603      	mov	r3, r0
 8001424:	82fb      	strh	r3, [r7, #22]
 8001426:	8afb      	ldrh	r3, [r7, #22]
 8001428:	2b00      	cmp	r3, #0
 800142a:	d0f1      	beq.n	8001410 <recv+0x4c>

	// set read length
	//if(read_len > len) read_len = len;

	// get read pointer
	read_ptr = get_RXRD(sck_fd);
 800142c:	7bfb      	ldrb	r3, [r7, #15]
 800142e:	4618      	mov	r0, r3
 8001430:	f7ff fd18 	bl	8000e64 <get_RXRD>
 8001434:	4603      	mov	r3, r0
 8001436:	82bb      	strh	r3, [r7, #20]

	// read from RX memory
	read_memory(sck_fd, read_ptr, buf, read_len < len ? read_len: len);
 8001438:	89ba      	ldrh	r2, [r7, #12]
 800143a:	8afb      	ldrh	r3, [r7, #22]
 800143c:	429a      	cmp	r2, r3
 800143e:	bf38      	it	cc
 8001440:	4613      	movcc	r3, r2
 8001442:	b29b      	uxth	r3, r3
 8001444:	7bf9      	ldrb	r1, [r7, #15]
 8001446:	8aba      	ldrh	r2, [r7, #20]
 8001448:	4608      	mov	r0, r1
 800144a:	4611      	mov	r1, r2
 800144c:	68ba      	ldr	r2, [r7, #8]
 800144e:	f7ff fd9d 	bl	8000f8c <read_memory>

	// update pointer
	read_ptr += read_len;
 8001452:	8aba      	ldrh	r2, [r7, #20]
 8001454:	8afb      	ldrh	r3, [r7, #22]
 8001456:	4413      	add	r3, r2
 8001458:	82bb      	strh	r3, [r7, #20]
	set_RXRD(sck_fd, read_ptr);
 800145a:	7bfa      	ldrb	r2, [r7, #15]
 800145c:	8abb      	ldrh	r3, [r7, #20]
 800145e:	4610      	mov	r0, r2
 8001460:	4619      	mov	r1, r3
 8001462:	f7ff fd23 	bl	8000eac <set_RXRD>

	// recive command
	spi_dma_sendByte(W5200_Sn_CR(sck_fd), W5200_Sn_CR_RECV);
 8001466:	7bfb      	ldrb	r3, [r7, #15]
 8001468:	b29b      	uxth	r3, r3
 800146a:	021b      	lsls	r3, r3, #8
 800146c:	b29b      	uxth	r3, r3
 800146e:	f503 4380 	add.w	r3, r3, #16384	; 0x4000
 8001472:	3301      	adds	r3, #1
 8001474:	b29b      	uxth	r3, r3
 8001476:	4618      	mov	r0, r3
 8001478:	2140      	movs	r1, #64	; 0x40
 800147a:	f7ff fa51 	bl	8000920 <spi_dma_sendByte>
	// wait command complete.
	while(get_CRStatus(sck_fd) != 0);	// 0 value is command complete. 
 800147e:	bf00      	nop
 8001480:	7bfb      	ldrb	r3, [r7, #15]
 8001482:	4618      	mov	r0, r3
 8001484:	f7ff fc0e 	bl	8000ca4 <get_CRStatus>
 8001488:	4603      	mov	r3, r0
 800148a:	2b00      	cmp	r3, #0
 800148c:	d1f8      	bne.n	8001480 <recv+0xbc>
	

 	return	(read_len < len ? read_len: len);
 800148e:	89ba      	ldrh	r2, [r7, #12]
 8001490:	8afb      	ldrh	r3, [r7, #22]
 8001492:	429a      	cmp	r2, r3
 8001494:	bf38      	it	cc
 8001496:	4613      	movcc	r3, r2
 8001498:	b29b      	uxth	r3, r3
}
 800149a:	4618      	mov	r0, r3
 800149c:	3718      	adds	r7, #24
 800149e:	46bd      	mov	sp, r7
 80014a0:	bd80      	pop	{r7, pc}
 80014a2:	bf00      	nop
 80014a4:	2000048c 	.word	0x2000048c

080014a8 <listen>:
//	func listen 
//==================================================================================//


int	listen(int sck_fd)
{
 80014a8:	b580      	push	{r7, lr}
 80014aa:	b084      	sub	sp, #16
 80014ac:	af00      	add	r7, sp, #0
 80014ae:	6078      	str	r0, [r7, #4]
	// check socket asign flag
	if(sck_fd < 0 || sck_fd >=W5200_MAX_SOCKETS||  socket_flg[sck_fd] != 1) return -1;
 80014b0:	687b      	ldr	r3, [r7, #4]
 80014b2:	2b00      	cmp	r3, #0
 80014b4:	db08      	blt.n	80014c8 <listen+0x20>
 80014b6:	687b      	ldr	r3, [r7, #4]
 80014b8:	2b07      	cmp	r3, #7
 80014ba:	dc05      	bgt.n	80014c8 <listen+0x20>
 80014bc:	4a22      	ldr	r2, [pc, #136]	; (8001548 <listen+0xa0>)
 80014be:	687b      	ldr	r3, [r7, #4]
 80014c0:	4413      	add	r3, r2
 80014c2:	781b      	ldrb	r3, [r3, #0]
 80014c4:	2b01      	cmp	r3, #1
 80014c6:	d002      	beq.n	80014ce <listen+0x26>
 80014c8:	f04f 33ff 	mov.w	r3, #4294967295	; 0xffffffff
 80014cc:	e038      	b.n	8001540 <listen+0x98>

	// LISTEN start from INIT only.
	if(get_SRStatus(sck_fd)  != W5200_Sn_SR_SOCK_INIT) return -1;
 80014ce:	687b      	ldr	r3, [r7, #4]
 80014d0:	b2db      	uxtb	r3, r3
 80014d2:	4618      	mov	r0, r3
 80014d4:	f7ff fc02 	bl	8000cdc <get_SRStatus>
 80014d8:	4603      	mov	r3, r0
 80014da:	2b13      	cmp	r3, #19
 80014dc:	d002      	beq.n	80014e4 <listen+0x3c>
 80014de:	f04f 33ff 	mov.w	r3, #4294967295	; 0xffffffff
 80014e2:	e02d      	b.n	8001540 <listen+0x98>


	uint8_t b;
	spi_dma_read(W5200_Sn_IR(sck_fd), 1);
 80014e4:	687b      	ldr	r3, [r7, #4]
 80014e6:	b29b      	uxth	r3, r3
 80014e8:	021b      	lsls	r3, r3, #8
 80014ea:	b29b      	uxth	r3, r3
 80014ec:	f503 4380 	add.w	r3, r3, #16384	; 0x4000
 80014f0:	3302      	adds	r3, #2
 80014f2:	b29b      	uxth	r3, r3
 80014f4:	4618      	mov	r0, r3
 80014f6:	2101      	movs	r1, #1
 80014f8:	f7ff fa5e 	bl	80009b8 <spi_dma_read>
	memcpy(&b, bufferRX + 4, 1);
 80014fc:	4b13      	ldr	r3, [pc, #76]	; (800154c <listen+0xa4>)
 80014fe:	781b      	ldrb	r3, [r3, #0]
 8001500:	73fb      	strb	r3, [r7, #15]

	// CONNECT command
	spi_dma_sendByte(W5200_Sn_CR(sck_fd), W5200_Sn_CR_LISTEN);
 8001502:	687b      	ldr	r3, [r7, #4]
 8001504:	b29b      	uxth	r3, r3
 8001506:	021b      	lsls	r3, r3, #8
 8001508:	b29b      	uxth	r3, r3
 800150a:	f503 4380 	add.w	r3, r3, #16384	; 0x4000
 800150e:	3301      	adds	r3, #1
 8001510:	b29b      	uxth	r3, r3
 8001512:	4618      	mov	r0, r3
 8001514:	2102      	movs	r1, #2
 8001516:	f7ff fa03 	bl	8000920 <spi_dma_sendByte>
	while(get_CRStatus(sck_fd) != 0);	// 0 value is command complete. 
 800151a:	bf00      	nop
 800151c:	687b      	ldr	r3, [r7, #4]
 800151e:	b2db      	uxtb	r3, r3
 8001520:	4618      	mov	r0, r3
 8001522:	f7ff fbbf 	bl	8000ca4 <get_CRStatus>
 8001526:	4603      	mov	r3, r0
 8001528:	2b00      	cmp	r3, #0
 800152a:	d1f7      	bne.n	800151c <listen+0x74>

	// wait for status change to LISTEN
	while(get_SRStatus(sck_fd) != W5200_Sn_SR_SOCK_LISTEN);
 800152c:	bf00      	nop
 800152e:	687b      	ldr	r3, [r7, #4]
 8001530:	b2db      	uxtb	r3, r3
 8001532:	4618      	mov	r0, r3
 8001534:	f7ff fbd2 	bl	8000cdc <get_SRStatus>
 8001538:	4603      	mov	r3, r0
 800153a:	2b14      	cmp	r3, #20
 800153c:	d1f7      	bne.n	800152e <listen+0x86>
	 
	return 0;	// listen success complete
 800153e:	2300      	movs	r3, #0
}
 8001540:	4618      	mov	r0, r3
 8001542:	3710      	adds	r7, #16
 8001544:	46bd      	mov	sp, r7
 8001546:	bd80      	pop	{r7, pc}
 8001548:	2000048c 	.word	0x2000048c
 800154c:	2001327c 	.word	0x2001327c

08001550 <locate_interrupt>:

//==================================================================================
////	func locate_interrupt
//==================================================================================
void locate_interrupt()
{
 8001550:	b580      	push	{r7, lr}
 8001552:	b082      	sub	sp, #8
 8001554:	af00      	add	r7, sp, #0
	* interupt plus on which socket interrupt occured. \n
	* It depends on interrupt what follows
	* ****************************************************** */
	uint8_t sckt,		code; 
	// read on which socket interrupt occured 
	spi_dma_read(W5200_IMR2, 1);
 8001556:	2036      	movs	r0, #54	; 0x36
 8001558:	2101      	movs	r1, #1
 800155a:	f7ff fa2d 	bl	80009b8 <spi_dma_read>
	memcpy(&sckt, bufferRX + 4, 1);
 800155e:	4b35      	ldr	r3, [pc, #212]	; (8001634 <locate_interrupt+0xe4>)
 8001560:	781b      	ldrb	r3, [r3, #0]
 8001562:	71fb      	strb	r3, [r7, #7]

	// read interrupt code 
	spi_dma_read(W5200_Sn_IR(sckt), 1);
 8001564:	79fb      	ldrb	r3, [r7, #7]
 8001566:	021b      	lsls	r3, r3, #8
 8001568:	b29b      	uxth	r3, r3
 800156a:	f503 4380 	add.w	r3, r3, #16384	; 0x4000
 800156e:	3302      	adds	r3, #2
 8001570:	b29b      	uxth	r3, r3
 8001572:	4618      	mov	r0, r3
 8001574:	2101      	movs	r1, #1
 8001576:	f7ff fa1f 	bl	80009b8 <spi_dma_read>
	memcpy(&code, bufferRX +4 , 1);
 800157a:	4b2e      	ldr	r3, [pc, #184]	; (8001634 <locate_interrupt+0xe4>)
 800157c:	781b      	ldrb	r3, [r3, #0]
 800157e:	71bb      	strb	r3, [r7, #6]
       
	// clear interrupt on W5200
	spi_dma_sendByte(W5200_Sn_IR(sckt), 0xff);
 8001580:	79fb      	ldrb	r3, [r7, #7]
 8001582:	021b      	lsls	r3, r3, #8
 8001584:	b29b      	uxth	r3, r3
 8001586:	f503 4380 	add.w	r3, r3, #16384	; 0x4000
 800158a:	3302      	adds	r3, #2
 800158c:	b29b      	uxth	r3, r3
 800158e:	4618      	mov	r0, r3
 8001590:	21ff      	movs	r1, #255	; 0xff
 8001592:	f7ff f9c5 	bl	8000920 <spi_dma_sendByte>



	switch (code )
 8001596:	79bb      	ldrb	r3, [r7, #6]
 8001598:	3b01      	subs	r3, #1
 800159a:	2b0f      	cmp	r3, #15
 800159c:	d846      	bhi.n	800162c <locate_interrupt+0xdc>
 800159e:	a201      	add	r2, pc, #4	; (adr r2, 80015a4 <locate_interrupt+0x54>)
 80015a0:	f852 f023 	ldr.w	pc, [r2, r3, lsl #2]
 80015a4:	080015e5 	.word	0x080015e5
 80015a8:	080015fd 	.word	0x080015fd
 80015ac:	0800162d 	.word	0x0800162d
 80015b0:	08001615 	.word	0x08001615
 80015b4:	0800162d 	.word	0x0800162d
 80015b8:	0800162d 	.word	0x0800162d
 80015bc:	0800162d 	.word	0x0800162d
 80015c0:	0800162d 	.word	0x0800162d
 80015c4:	0800162d 	.word	0x0800162d
 80015c8:	0800162d 	.word	0x0800162d
 80015cc:	0800162d 	.word	0x0800162d
 80015d0:	0800162d 	.word	0x0800162d
 80015d4:	0800162d 	.word	0x0800162d
 80015d8:	0800162d 	.word	0x0800162d
 80015dc:	0800162d 	.word	0x0800162d
 80015e0:	0800162d 	.word	0x0800162d
	{
		case 0x1:// Connect interrupts when a connection is established with a peer  
			telegram.Qcmd = TCP_CONNECTED;
 80015e4:	4b14      	ldr	r3, [pc, #80]	; (8001638 <locate_interrupt+0xe8>)
 80015e6:	2208      	movs	r2, #8
 80015e8:	701a      	strb	r2, [r3, #0]
			xQueueSend ( QTCP_handle, (void *)&telegram, 0);
 80015ea:	4b14      	ldr	r3, [pc, #80]	; (800163c <locate_interrupt+0xec>)
 80015ec:	681b      	ldr	r3, [r3, #0]
 80015ee:	4618      	mov	r0, r3
 80015f0:	4911      	ldr	r1, [pc, #68]	; (8001638 <locate_interrupt+0xe8>)
 80015f2:	2200      	movs	r2, #0
 80015f4:	2300      	movs	r3, #0
 80015f6:	f003 fa6b 	bl	8004ad0 <xQueueGenericSend>
			// do nothing wait for input. 
			break;
 80015fa:	e018      	b.n	800162e <locate_interrupt+0xde>
		case 0x2:// disconnect interrupt 
			
			telegram.Qcmd = TCP_CLOSE;
 80015fc:	4b0e      	ldr	r3, [pc, #56]	; (8001638 <locate_interrupt+0xe8>)
 80015fe:	220a      	movs	r2, #10
 8001600:	701a      	strb	r2, [r3, #0]
			xQueueSend ( QTCP_handle, (void *)&telegram, 0);
 8001602:	4b0e      	ldr	r3, [pc, #56]	; (800163c <locate_interrupt+0xec>)
 8001604:	681b      	ldr	r3, [r3, #0]
 8001606:	4618      	mov	r0, r3
 8001608:	490b      	ldr	r1, [pc, #44]	; (8001638 <locate_interrupt+0xe8>)
 800160a:	2200      	movs	r2, #0
 800160c:	2300      	movs	r3, #0
 800160e:	f003 fa5f 	bl	8004ad0 <xQueueGenericSend>


			// do nothing 
			break;
 8001612:	e00c      	b.n	800162e <locate_interrupt+0xde>
		case 0x4:// Receive interuppts whenever data packet is received from a peer 		
			telegram.Qcmd = TCP_RECEIVE;
 8001614:	4b08      	ldr	r3, [pc, #32]	; (8001638 <locate_interrupt+0xe8>)
 8001616:	2209      	movs	r2, #9
 8001618:	701a      	strb	r2, [r3, #0]
			xQueueSend ( QTCP_handle, (void *)&telegram, 0);
 800161a:	4b08      	ldr	r3, [pc, #32]	; (800163c <locate_interrupt+0xec>)
 800161c:	681b      	ldr	r3, [r3, #0]
 800161e:	4618      	mov	r0, r3
 8001620:	4905      	ldr	r1, [pc, #20]	; (8001638 <locate_interrupt+0xe8>)
 8001622:	2200      	movs	r2, #0
 8001624:	2300      	movs	r3, #0
 8001626:	f003 fa53 	bl	8004ad0 <xQueueGenericSend>

			break;
 800162a:	e000      	b.n	800162e <locate_interrupt+0xde>
		case 0x10:
			break;
		default:
			break;		
 800162c:	bf00      	nop
	}
}
 800162e:	3708      	adds	r7, #8
 8001630:	46bd      	mov	sp, r7
 8001632:	bd80      	pop	{r7, pc}
 8001634:	2001327c 	.word	0x2001327c
 8001638:	20000494 	.word	0x20000494
 800163c:	20014228 	.word	0x20014228

08001640 <EXTI4_IRQHandler>:

//==================================================================================
//// EXTI4_IRQHandler
//==================================================================================
void EXTI4_IRQHandler(void) //EXTI0 ISR
{
 8001640:	b580      	push	{r7, lr}
 8001642:	af00      	add	r7, sp, #0
	 * Interuppt service routine for wiznet it locates interrupt and resets 
	 * interrupt line. 
	 * *******************************************************************/
	
	
	if(EXTI_GetITStatus(WIZ_IT_EXTI_LINE) != RESET) //check if EXTI line is asserted
 8001644:	2010      	movs	r0, #16
 8001646:	f005 ffdd 	bl	8007604 <EXTI_GetITStatus>
 800164a:	4603      	mov	r3, r0
 800164c:	2b00      	cmp	r3, #0
 800164e:	d004      	beq.n	800165a <EXTI4_IRQHandler+0x1a>
	{
		
	//	taskENTER_CRITICAL();
		locate_interrupt();	
 8001650:	f7ff ff7e 	bl	8001550 <locate_interrupt>
		
		EXTI_ClearFlag(WIZ_IT_EXTI_LINE); //clear interrupt
 8001654:	2010      	movs	r0, #16
 8001656:	f005 ffbb 	bl	80075d0 <EXTI_ClearFlag>

	//	taskEXIT_CRITICAL();
 	
	}
}
 800165a:	bd80      	pop	{r7, pc}

0800165c <tcp_srv_Task>:
//============================================================================/
// func set_macTask 
//==================================================================================

void tcp_srv_Task(void *pvParameters)
{
 800165c:	b590      	push	{r4, r7, lr}
 800165e:	b0eb      	sub	sp, #428	; 0x1ac
 8001660:	af00      	add	r7, sp, #0
 8001662:	1d3b      	adds	r3, r7, #4
 8001664:	6018      	str	r0, [r3, #0]
//	vTaskSuspend(NULL);
	uint8_t	buf[50], buf1[256], oldbuf[50]; 
	QueueTelegram telegram;
	int len; 
	int gl;
	uint8_t * hello = "Hello i'm dummy server!\n\n\0";
 8001666:	4b6a      	ldr	r3, [pc, #424]	; (8001810 <tcp_srv_Task+0x1b4>)
 8001668:	f8c7 31a0 	str.w	r3, [r7, #416]	; 0x1a0
	uint8_t * bye	= "Thank you, come again!\n\n\0";
 800166c:	4b69      	ldr	r3, [pc, #420]	; (8001814 <tcp_srv_Task+0x1b8>)
 800166e:	f8c7 319c 	str.w	r3, [r7, #412]	; 0x19c

	for( ;; )
        {
		
		/* wait for queue */
		if ( xQueueReceive ( QTCP_handle, (void *)&telegram, portMAX_DELAY))
 8001672:	4b69      	ldr	r3, [pc, #420]	; (8001818 <tcp_srv_Task+0x1bc>)
 8001674:	681a      	ldr	r2, [r3, #0]
 8001676:	f107 030c 	add.w	r3, r7, #12
 800167a:	4610      	mov	r0, r2
 800167c:	4619      	mov	r1, r3
 800167e:	f04f 32ff 	mov.w	r2, #4294967295	; 0xffffffff
 8001682:	2300      	movs	r3, #0
 8001684:	f003 fb3e 	bl	8004d04 <xQueueGenericReceive>
 8001688:	4603      	mov	r3, r0
 800168a:	2b00      	cmp	r3, #0
 800168c:	f000 80bf 	beq.w	800180e <tcp_srv_Task+0x1b2>
		{
			switch ( telegram.Qcmd)
 8001690:	f107 030c 	add.w	r3, r7, #12
 8001694:	781b      	ldrb	r3, [r3, #0]
 8001696:	2b09      	cmp	r3, #9
 8001698:	d019      	beq.n	80016ce <tcp_srv_Task+0x72>
 800169a:	2b0a      	cmp	r3, #10
 800169c:	f000 8090 	beq.w	80017c0 <tcp_srv_Task+0x164>
 80016a0:	2b08      	cmp	r3, #8
 80016a2:	d000      	beq.n	80016a6 <tcp_srv_Task+0x4a>
					socket_0 = socket(W5200_Sn_MR_TCP, 80, 0);
					listen(socket_0);

					break;
				default:
					break;
 80016a4:	e0b3      	b.n	800180e <tcp_srv_Task+0x1b2>
		{
			switch ( telegram.Qcmd)
			{
				case TCP_CONNECTED:
#ifdef DEBUG
	t_printf("Client connected.\n");
 80016a6:	485d      	ldr	r0, [pc, #372]	; (800181c <tcp_srv_Task+0x1c0>)
 80016a8:	f004 fa72 	bl	8005b90 <t_printf>
#endif

					send ( socket_0, hello, strlen(hello), 0);
 80016ac:	4b5c      	ldr	r3, [pc, #368]	; (8001820 <tcp_srv_Task+0x1c4>)
 80016ae:	681b      	ldr	r3, [r3, #0]
 80016b0:	b2dc      	uxtb	r4, r3
 80016b2:	f8d7 01a0 	ldr.w	r0, [r7, #416]	; 0x1a0
 80016b6:	f007 fb05 	bl	8008cc4 <strlen>
 80016ba:	4603      	mov	r3, r0
 80016bc:	b29b      	uxth	r3, r3
 80016be:	4620      	mov	r0, r4
 80016c0:	f8d7 11a0 	ldr.w	r1, [r7, #416]	; 0x1a0
 80016c4:	461a      	mov	r2, r3
 80016c6:	2300      	movs	r3, #0
 80016c8:	f7ff fda6 	bl	8001218 <send>
					/* send hello */
					break;
 80016cc:	e09f      	b.n	800180e <tcp_srv_Task+0x1b2>
				case TCP_RECEIVE:
					/* receive and process data*/
						// receive data 
#ifdef DEBUG
	t_printf("Packet received.\n");
 80016ce:	4855      	ldr	r0, [pc, #340]	; (8001824 <tcp_srv_Task+0x1c8>)
 80016d0:	f004 fa5e 	bl	8005b90 <t_printf>
#endif

					len = recv(socket_0, buf, 100, 0);
 80016d4:	4b52      	ldr	r3, [pc, #328]	; (8001820 <tcp_srv_Task+0x1c4>)
 80016d6:	681b      	ldr	r3, [r3, #0]
 80016d8:	b2da      	uxtb	r2, r3
 80016da:	f507 73ae 	add.w	r3, r7, #348	; 0x15c
 80016de:	4610      	mov	r0, r2
 80016e0:	4619      	mov	r1, r3
 80016e2:	2264      	movs	r2, #100	; 0x64
 80016e4:	2300      	movs	r3, #0
 80016e6:	f7ff fe6d 	bl	80013c4 <recv>
 80016ea:	f8c7 0198 	str.w	r0, [r7, #408]	; 0x198

					if ( len < 3 )
 80016ee:	f8d7 3198 	ldr.w	r3, [r7, #408]	; 0x198
 80016f2:	2b02      	cmp	r3, #2
 80016f4:	dc1f      	bgt.n	8001736 <tcp_srv_Task+0xda>
					{
				
						FreeRTOS_CLIProcessCommand ( oldbuf, buf1, 256);
 80016f6:	f107 0228 	add.w	r2, r7, #40	; 0x28
 80016fa:	f107 035c 	add.w	r3, r7, #92	; 0x5c
 80016fe:	4610      	mov	r0, r2
 8001700:	4619      	mov	r1, r3
 8001702:	f44f 7280 	mov.w	r2, #256	; 0x100
 8001706:	f004 fbb5 	bl	8005e74 <FreeRTOS_CLIProcessCommand>
			
						int slen = strlen(buf1);
 800170a:	f107 035c 	add.w	r3, r7, #92	; 0x5c
 800170e:	4618      	mov	r0, r3
 8001710:	f007 fad8 	bl	8008cc4 <strlen>
 8001714:	4603      	mov	r3, r0
 8001716:	f8c7 3194 	str.w	r3, [r7, #404]	; 0x194
			
						send(socket_0, buf1,  slen, gl);
 800171a:	4b41      	ldr	r3, [pc, #260]	; (8001820 <tcp_srv_Task+0x1c4>)
 800171c:	681b      	ldr	r3, [r3, #0]
 800171e:	b2d8      	uxtb	r0, r3
 8001720:	f8d7 3194 	ldr.w	r3, [r7, #404]	; 0x194
 8001724:	b29a      	uxth	r2, r3
 8001726:	f8d7 3190 	ldr.w	r3, [r7, #400]	; 0x190
 800172a:	b29b      	uxth	r3, r3
 800172c:	f107 015c 	add.w	r1, r7, #92	; 0x5c
 8001730:	f7ff fd72 	bl	8001218 <send>
 8001734:	e043      	b.n	80017be <tcp_srv_Task+0x162>

					}	
	
					else 
					{		
						buf[len-2]='\0';
 8001736:	f8d7 3198 	ldr.w	r3, [r7, #408]	; 0x198
 800173a:	3b02      	subs	r3, #2
 800173c:	f507 72d4 	add.w	r2, r7, #424	; 0x1a8
 8001740:	4413      	add	r3, r2
 8001742:	2200      	movs	r2, #0
 8001744:	f803 2c4c 	strb.w	r2, [r3, #-76]
						// proces data with CLI 
		
						FreeRTOS_CLIProcessCommand ( buf, buf1, 256);
 8001748:	f507 72ae 	add.w	r2, r7, #348	; 0x15c
 800174c:	f107 035c 	add.w	r3, r7, #92	; 0x5c
 8001750:	4610      	mov	r0, r2
 8001752:	4619      	mov	r1, r3
 8001754:	f44f 7280 	mov.w	r2, #256	; 0x100
 8001758:	f004 fb8c 	bl	8005e74 <FreeRTOS_CLIProcessCommand>
			
						int slen = strlen(buf1);
 800175c:	f107 035c 	add.w	r3, r7, #92	; 0x5c
 8001760:	4618      	mov	r0, r3
 8001762:	f007 faaf 	bl	8008cc4 <strlen>
 8001766:	4603      	mov	r3, r0
 8001768:	f8c7 31a4 	str.w	r3, [r7, #420]	; 0x1a4
			
						send(socket_0, buf1,  slen, gl);
 800176c:	4b2c      	ldr	r3, [pc, #176]	; (8001820 <tcp_srv_Task+0x1c4>)
 800176e:	681b      	ldr	r3, [r3, #0]
 8001770:	b2d8      	uxtb	r0, r3
 8001772:	f8d7 31a4 	ldr.w	r3, [r7, #420]	; 0x1a4
 8001776:	b29a      	uxth	r2, r3
 8001778:	f8d7 3190 	ldr.w	r3, [r7, #400]	; 0x190
 800177c:	b29b      	uxth	r3, r3
 800177e:	f107 015c 	add.w	r1, r7, #92	; 0x5c
 8001782:	f7ff fd49 	bl	8001218 <send>

						strcpy(oldbuf, buf);
 8001786:	f107 0228 	add.w	r2, r7, #40	; 0x28
 800178a:	f507 73ae 	add.w	r3, r7, #348	; 0x15c
 800178e:	4610      	mov	r0, r2
 8001790:	4619      	mov	r1, r3
 8001792:	f007 fa39 	bl	8008c08 <strcpy>

						for (slen = 0 ; slen < 10; slen++) buf[slen] = NULL;
 8001796:	2300      	movs	r3, #0
 8001798:	f8c7 31a4 	str.w	r3, [r7, #420]	; 0x1a4
 800179c:	e00b      	b.n	80017b6 <tcp_srv_Task+0x15a>
 800179e:	f507 72ae 	add.w	r2, r7, #348	; 0x15c
 80017a2:	f8d7 31a4 	ldr.w	r3, [r7, #420]	; 0x1a4
 80017a6:	4413      	add	r3, r2
 80017a8:	2200      	movs	r2, #0
 80017aa:	701a      	strb	r2, [r3, #0]
 80017ac:	f8d7 31a4 	ldr.w	r3, [r7, #420]	; 0x1a4
 80017b0:	3301      	adds	r3, #1
 80017b2:	f8c7 31a4 	str.w	r3, [r7, #420]	; 0x1a4
 80017b6:	f8d7 31a4 	ldr.w	r3, [r7, #420]	; 0x1a4
 80017ba:	2b09      	cmp	r3, #9
 80017bc:	ddef      	ble.n	800179e <tcp_srv_Task+0x142>
					}
		

					

					break;
 80017be:	e026      	b.n	800180e <tcp_srv_Task+0x1b2>
				case TCP_CLOSE: 
					/*close current socket and 
					 * open new socket */
#ifdef DEBUG
	t_printf("Client closed connection.\n");
 80017c0:	4819      	ldr	r0, [pc, #100]	; (8001828 <tcp_srv_Task+0x1cc>)
 80017c2:	f004 f9e5 	bl	8005b90 <t_printf>
#endif

					send ( socket_0, bye, strlen(bye), 0);
 80017c6:	4b16      	ldr	r3, [pc, #88]	; (8001820 <tcp_srv_Task+0x1c4>)
 80017c8:	681b      	ldr	r3, [r3, #0]
 80017ca:	b2dc      	uxtb	r4, r3
 80017cc:	f8d7 019c 	ldr.w	r0, [r7, #412]	; 0x19c
 80017d0:	f007 fa78 	bl	8008cc4 <strlen>
 80017d4:	4603      	mov	r3, r0
 80017d6:	b29b      	uxth	r3, r3
 80017d8:	4620      	mov	r0, r4
 80017da:	f8d7 119c 	ldr.w	r1, [r7, #412]	; 0x19c
 80017de:	461a      	mov	r2, r3
 80017e0:	2300      	movs	r3, #0
 80017e2:	f7ff fd19 	bl	8001218 <send>
					closesocket(socket_0);
 80017e6:	4b0e      	ldr	r3, [pc, #56]	; (8001820 <tcp_srv_Task+0x1c4>)
 80017e8:	681b      	ldr	r3, [r3, #0]
 80017ea:	4618      	mov	r0, r3
 80017ec:	f7ff fcd6 	bl	800119c <closesocket>
					socket_0 = socket(W5200_Sn_MR_TCP, 80, 0);
 80017f0:	2001      	movs	r0, #1
 80017f2:	2150      	movs	r1, #80	; 0x50
 80017f4:	2200      	movs	r2, #0
 80017f6:	f7ff fc29 	bl	800104c <socket>
 80017fa:	4603      	mov	r3, r0
 80017fc:	461a      	mov	r2, r3
 80017fe:	4b08      	ldr	r3, [pc, #32]	; (8001820 <tcp_srv_Task+0x1c4>)
 8001800:	601a      	str	r2, [r3, #0]
					listen(socket_0);
 8001802:	4b07      	ldr	r3, [pc, #28]	; (8001820 <tcp_srv_Task+0x1c4>)
 8001804:	681b      	ldr	r3, [r3, #0]
 8001806:	4618      	mov	r0, r3
 8001808:	f7ff fe4e 	bl	80014a8 <listen>

					break;
 800180c:	bf00      	nop
					break;
			}
		}
					
			
	}	
 800180e:	e730      	b.n	8001672 <tcp_srv_Task+0x16>
 8001810:	08009074 	.word	0x08009074
 8001814:	08009090 	.word	0x08009090
 8001818:	20014228 	.word	0x20014228
 800181c:	080090ac 	.word	0x080090ac
 8001820:	2001326c 	.word	0x2001326c
 8001824:	080090c0 	.word	0x080090c0
 8001828:	080090d4 	.word	0x080090d4

0800182c <init_USARTx>:
#define pdFalse 0
#define pdTrue 	1


void init_USARTx(void)
{
 800182c:	b580      	push	{r7, lr}
 800182e:	b088      	sub	sp, #32
 8001830:	af00      	add	r7, sp, #0
	
	/* enable APB2 peripheral clock for USART1 
	 * note that only USART1 and USART6 are connected to APB2
	 * the other USARTs are connected to APB1
	 */
	RCC_APB2PeriphClockCmd(USARTx_CLK, ENABLE);
 8001832:	2020      	movs	r0, #32
 8001834:	2101      	movs	r1, #1
 8001836:	f006 fa83 	bl	8007d40 <RCC_APB2PeriphClockCmd>
	
	/* enable the peripheral clock for the pins used by 
	 * USART1, PB6 for TX and PB7 for RX 
	 */
	RCC_AHB1PeriphClockCmd(USARTx_TX_GPIO_CLK, ENABLE);
 800183a:	2004      	movs	r0, #4
 800183c:	2101      	movs	r1, #1
 800183e:	f006 fa47 	bl	8007cd0 <RCC_AHB1PeriphClockCmd>
	RCC_AHB1PeriphClockCmd(USARTx_RX_GPIO_CLK, ENABLE);
 8001842:	2004      	movs	r0, #4
 8001844:	2101      	movs	r1, #1
 8001846:	f006 fa43 	bl	8007cd0 <RCC_AHB1PeriphClockCmd>
	RCC_AHB1PeriphClockCmd(USARTx_CS_GPIO_CLK, ENABLE);
 800184a:	2040      	movs	r0, #64	; 0x40
 800184c:	2101      	movs	r1, #1
 800184e:	f006 fa3f 	bl	8007cd0 <RCC_AHB1PeriphClockCmd>

	
	/* This sequence sets up the TX and RX pins 
	 * so they work correctly with the USART1 peripheral
	 */
	GPIO_InitStruct.GPIO_Pin = USARTx_RX_GPIO_PIN | USARTx_TX_GPIO_PIN; // Pins 6 (TX) and 7 (RX) are used
 8001852:	23c0      	movs	r3, #192	; 0xc0
 8001854:	61bb      	str	r3, [r7, #24]
	GPIO_InitStruct.GPIO_Mode = GPIO_Mode_AF; 			// the pins are configured as alternate function so the USART peripheral has access to them
 8001856:	2302      	movs	r3, #2
 8001858:	773b      	strb	r3, [r7, #28]
	GPIO_InitStruct.GPIO_Speed = GPIO_Speed_100MHz;		// this defines the IO speed and has nothing to do with the baudrate!
 800185a:	2303      	movs	r3, #3
 800185c:	777b      	strb	r3, [r7, #29]
	GPIO_InitStruct.GPIO_OType = GPIO_OType_PP;			// this defines the output type as push pull mode (as opposed to open drain)
 800185e:	2300      	movs	r3, #0
 8001860:	77bb      	strb	r3, [r7, #30]
	GPIO_InitStruct.GPIO_PuPd = GPIO_PuPd_UP;			// this activates the pullup resistors on the IO pins
 8001862:	2301      	movs	r3, #1
 8001864:	77fb      	strb	r3, [r7, #31]
	GPIO_Init(USARTx_TX_GPIO_PORT, &GPIO_InitStruct);					// now all the values are passed to the GPIO_Init() function which sets the GPIO registers
 8001866:	f107 0318 	add.w	r3, r7, #24
 800186a:	4829      	ldr	r0, [pc, #164]	; (8001910 <init_USARTx+0xe4>)
 800186c:	4619      	mov	r1, r3
 800186e:	f005 ff47 	bl	8007700 <GPIO_Init>
	
	
	
	/* Configure the chip select pin in this case we will use PG8 */
	GPIO_InitStruct.GPIO_Pin = USARTx_CS_GPIO_PIN;
 8001872:	f44f 7380 	mov.w	r3, #256	; 0x100
 8001876:	61bb      	str	r3, [r7, #24]
	GPIO_InitStruct.GPIO_Mode = GPIO_Mode_OUT;
 8001878:	2301      	movs	r3, #1
 800187a:	773b      	strb	r3, [r7, #28]
	GPIO_InitStruct.GPIO_OType = GPIO_OType_PP;
 800187c:	2300      	movs	r3, #0
 800187e:	77bb      	strb	r3, [r7, #30]
	GPIO_InitStruct.GPIO_Speed = GPIO_Speed_100MHz;
 8001880:	2303      	movs	r3, #3
 8001882:	777b      	strb	r3, [r7, #29]
	GPIO_InitStruct.GPIO_PuPd = GPIO_PuPd_UP;
 8001884:	2301      	movs	r3, #1
 8001886:	77fb      	strb	r3, [r7, #31]
	GPIO_Init(USARTx_CS_GPIO_PORT, &GPIO_InitStruct);
 8001888:	f107 0318 	add.w	r3, r7, #24
 800188c:	4821      	ldr	r0, [pc, #132]	; (8001914 <init_USARTx+0xe8>)
 800188e:	4619      	mov	r1, r3
 8001890:	f005 ff36 	bl	8007700 <GPIO_Init>

	DD() // set PG8 high
 8001894:	4b1f      	ldr	r3, [pc, #124]	; (8001914 <init_USARTx+0xe8>)
 8001896:	4a1f      	ldr	r2, [pc, #124]	; (8001914 <init_USARTx+0xe8>)
 8001898:	8b12      	ldrh	r2, [r2, #24]
 800189a:	b292      	uxth	r2, r2
 800189c:	f442 7280 	orr.w	r2, r2, #256	; 0x100
 80018a0:	b292      	uxth	r2, r2
 80018a2:	831a      	strh	r2, [r3, #24]
	
	/* The RX and TX pins are now connected to their AF
	 * so that the USART1 can take over control of the 
	 * pins
	 */
	GPIO_PinAFConfig(GPIOC, GPIO_PinSource6, GPIO_AF_USART6); //
 80018a4:	481a      	ldr	r0, [pc, #104]	; (8001910 <init_USARTx+0xe4>)
 80018a6:	2106      	movs	r1, #6
 80018a8:	2208      	movs	r2, #8
 80018aa:	f006 f83f 	bl	800792c <GPIO_PinAFConfig>
	GPIO_PinAFConfig(GPIOC, GPIO_PinSource7, GPIO_AF_USART6);
 80018ae:	4818      	ldr	r0, [pc, #96]	; (8001910 <init_USARTx+0xe4>)
 80018b0:	2107      	movs	r1, #7
 80018b2:	2208      	movs	r2, #8
 80018b4:	f006 f83a 	bl	800792c <GPIO_PinAFConfig>
	
	/* Now the USART_InitStruct is used to define the 
	 * properties of USART1 
	 */
	USART_InitStruct.USART_BaudRate = 38400;				// the baudrate is set to the value we passed into this init function
 80018b8:	f44f 4316 	mov.w	r3, #38400	; 0x9600
 80018bc:	60bb      	str	r3, [r7, #8]
	USART_InitStruct.USART_WordLength = USART_WordLength_8b;// we want the data frame size to be 8 bits (standard)
 80018be:	2300      	movs	r3, #0
 80018c0:	81bb      	strh	r3, [r7, #12]
	USART_InitStruct.USART_StopBits = USART_StopBits_1;		// we want 1 stop bit (standard)
 80018c2:	2300      	movs	r3, #0
 80018c4:	81fb      	strh	r3, [r7, #14]
	USART_InitStruct.USART_Parity = USART_Parity_No;		// we don't want a parity bit (standard)
 80018c6:	2300      	movs	r3, #0
 80018c8:	823b      	strh	r3, [r7, #16]
	USART_InitStruct.USART_HardwareFlowControl = USART_HardwareFlowControl_None; // we don't want flow control (standard)
 80018ca:	2300      	movs	r3, #0
 80018cc:	82bb      	strh	r3, [r7, #20]
	USART_InitStruct.USART_Mode = USART_Mode_Tx | USART_Mode_Rx; // we want to enable the transmitter and the receiver
 80018ce:	230c      	movs	r3, #12
 80018d0:	827b      	strh	r3, [r7, #18]
	USART_Init(USART6, &USART_InitStruct);					// again all the properties are passed to the USART_Init function which takes care of all the bit setting
 80018d2:	f107 0308 	add.w	r3, r7, #8
 80018d6:	4810      	ldr	r0, [pc, #64]	; (8001918 <init_USARTx+0xec>)
 80018d8:	4619      	mov	r1, r3
 80018da:	f006 fd25 	bl	8008328 <USART_Init>
	/* Here the USART1 receive interrupt is enabled
	 * and the interrupt controller is configured 
	 * to jump to the USART1_IRQHandler() function
	 * if the USART1 receive interrupt occurs
	 */
	USART_ITConfig(USART6, USART_IT_RXNE, ENABLE); // enable the USART1 receive interrupt 
 80018de:	480e      	ldr	r0, [pc, #56]	; (8001918 <init_USARTx+0xec>)
 80018e0:	f240 5125 	movw	r1, #1317	; 0x525
 80018e4:	2201      	movs	r2, #1
 80018e6:	f006 fed9 	bl	800869c <USART_ITConfig>
	
	NVIC_InitStructure.NVIC_IRQChannel = USART6_IRQn;		 // we want to configure the USART interrupts
 80018ea:	2347      	movs	r3, #71	; 0x47
 80018ec:	713b      	strb	r3, [r7, #4]
	NVIC_InitStructure.NVIC_IRQChannelPreemptionPriority = configLIBRARY_MAX_SYSCALL_INTERRUPT_PRIORITY + 1;;// this sets the priority group of the USART1 interrupts
 80018ee:	2306      	movs	r3, #6
 80018f0:	717b      	strb	r3, [r7, #5]
	NVIC_InitStructure.NVIC_IRQChannelSubPriority = 0x1;		 // this sets the subpriority inside the group
 80018f2:	2301      	movs	r3, #1
 80018f4:	71bb      	strb	r3, [r7, #6]
	NVIC_InitStructure.NVIC_IRQChannelCmd = ENABLE;			 // the USART1 interrupts are globally enabled
 80018f6:	2301      	movs	r3, #1
 80018f8:	71fb      	strb	r3, [r7, #7]
	NVIC_Init(&NVIC_InitStructure);	 // the properties are passed to the NVIC_Init function which takes care of the low level stuff	
 80018fa:	1d3b      	adds	r3, r7, #4
 80018fc:	4618      	mov	r0, r3
 80018fe:	f004 fd9d 	bl	800643c <NVIC_Init>

	// finally this enables the complete USART1 peripheral
	USART_Cmd(USART6, ENABLE);
 8001902:	4805      	ldr	r0, [pc, #20]	; (8001918 <init_USARTx+0xec>)
 8001904:	2101      	movs	r1, #1
 8001906:	f006 fe75 	bl	80085f4 <USART_Cmd>
}
 800190a:	3720      	adds	r7, #32
 800190c:	46bd      	mov	sp, r7
 800190e:	bd80      	pop	{r7, pc}
 8001910:	40020800 	.word	0x40020800
 8001914:	40021800 	.word	0x40021800
 8001918:	40011400 	.word	0x40011400

0800191c <USART_puts>:


void USART_puts(uint8_t *s, int nb)
{
 800191c:	b480      	push	{r7}
 800191e:	b085      	sub	sp, #20
 8001920:	af00      	add	r7, sp, #0
 8001922:	6078      	str	r0, [r7, #4]
 8001924:	6039      	str	r1, [r7, #0]
	 * 
	 * Note 2: At the moment it takes a volatile char because the received_string variable
	 * 		   declared as volatile char --> otherwise the compiler will spit out warnings
	 * */

	int i = 0;
 8001926:	2300      	movs	r3, #0
 8001928:	60fb      	str	r3, [r7, #12]
	while(i < nb && *s){
 800192a:	e010      	b.n	800194e <USART_puts+0x32>
		// wait until data register is empty
		while( !(USARTx->SR & 0x00000040) ); 
 800192c:	bf00      	nop
 800192e:	4b0e      	ldr	r3, [pc, #56]	; (8001968 <USART_puts+0x4c>)
 8001930:	881b      	ldrh	r3, [r3, #0]
 8001932:	b29b      	uxth	r3, r3
 8001934:	f003 0340 	and.w	r3, r3, #64	; 0x40
 8001938:	2b00      	cmp	r3, #0
 800193a:	d0f8      	beq.n	800192e <USART_puts+0x12>
		//USART_SendData(USART6, s[i]);
		USARTx->DR = s[i];
 800193c:	4b0a      	ldr	r3, [pc, #40]	; (8001968 <USART_puts+0x4c>)
 800193e:	68fa      	ldr	r2, [r7, #12]
 8001940:	6879      	ldr	r1, [r7, #4]
 8001942:	440a      	add	r2, r1
 8001944:	7812      	ldrb	r2, [r2, #0]
 8001946:	809a      	strh	r2, [r3, #4]
		i++;
 8001948:	68fb      	ldr	r3, [r7, #12]
 800194a:	3301      	adds	r3, #1
 800194c:	60fb      	str	r3, [r7, #12]
	 * Note 2: At the moment it takes a volatile char because the received_string variable
	 * 		   declared as volatile char --> otherwise the compiler will spit out warnings
	 * */

	int i = 0;
	while(i < nb && *s){
 800194e:	68fa      	ldr	r2, [r7, #12]
 8001950:	683b      	ldr	r3, [r7, #0]
 8001952:	429a      	cmp	r2, r3
 8001954:	da03      	bge.n	800195e <USART_puts+0x42>
 8001956:	687b      	ldr	r3, [r7, #4]
 8001958:	781b      	ldrb	r3, [r3, #0]
 800195a:	2b00      	cmp	r3, #0
 800195c:	d1e6      	bne.n	800192c <USART_puts+0x10>
		i++;
	
	}
	
	
}
 800195e:	3714      	adds	r7, #20
 8001960:	46bd      	mov	sp, r7
 8001962:	f85d 7b04 	ldr.w	r7, [sp], #4
 8001966:	4770      	bx	lr
 8001968:	40011400 	.word	0x40011400

0800196c <USART6_IRQHandler>:

// this is the interrupt request handler (IRQ) for ALL USART6 interrupts
void USART6_IRQHandler(void){
 800196c:	b580      	push	{r7, lr}
 800196e:	b082      	sub	sp, #8
 8001970:	af00      	add	r7, sp, #0
	
	unsigned portBASE_TYPE xHigherPriorityTaskWoken_usart = pdFalse;
 8001972:	2300      	movs	r3, #0
 8001974:	603b      	str	r3, [r7, #0]
	

	// check if the USART1 receive interrupt flag was set
	if( USART_GetITStatus(USARTx, USART_IT_RXNE) ){
 8001976:	4821      	ldr	r0, [pc, #132]	; (80019fc <USART6_IRQHandler+0x90>)
 8001978:	f240 5125 	movw	r1, #1317	; 0x525
 800197c:	f006 ff4c 	bl	8008818 <USART_GetITStatus>
 8001980:	4603      	mov	r3, r0
 8001982:	2b00      	cmp	r3, #0
 8001984:	d030      	beq.n	80019e8 <USART6_IRQHandler+0x7c>
		
		
	//	USART_ClearITPendingBit ( USARTx, USART_IT_RXNE ) ;
		static uint8_t cnt = 0; // this counter is used to determine the string length
	 	char t = USARTx->DR; // the character from the USART1 data register is saved in t
 8001986:	4b1d      	ldr	r3, [pc, #116]	; (80019fc <USART6_IRQHandler+0x90>)
 8001988:	889b      	ldrh	r3, [r3, #4]
 800198a:	b29b      	uxth	r3, r3
 800198c:	71fb      	strb	r3, [r7, #7]
		/* check if the received character is not the LF character (used to determine end of string) 
		 * or the if the maximum string length has been been reached 
		 */
	
		
		if( (cnt < rx_length) &&
 800198e:	4b1c      	ldr	r3, [pc, #112]	; (8001a00 <USART6_IRQHandler+0x94>)
 8001990:	781b      	ldrb	r3, [r3, #0]
 8001992:	461a      	mov	r2, r3
 8001994:	4b1b      	ldr	r3, [pc, #108]	; (8001a04 <USART6_IRQHandler+0x98>)
 8001996:	681b      	ldr	r3, [r3, #0]
 8001998:	429a      	cmp	r2, r3
 800199a:	da0f      	bge.n	80019bc <USART6_IRQHandler+0x50>
				(cnt < MAX_STRLEN-400) ){ 
 800199c:	4b18      	ldr	r3, [pc, #96]	; (8001a00 <USART6_IRQHandler+0x94>)
 800199e:	781b      	ldrb	r3, [r3, #0]
		/* check if the received character is not the LF character (used to determine end of string) 
		 * or the if the maximum string length has been been reached 
		 */
	
		
		if( (cnt < rx_length) &&
 80019a0:	2b6f      	cmp	r3, #111	; 0x6f
 80019a2:	d80b      	bhi.n	80019bc <USART6_IRQHandler+0x50>
				(cnt < MAX_STRLEN-400) ){ 
			received_string[cnt] = t;
 80019a4:	4b16      	ldr	r3, [pc, #88]	; (8001a00 <USART6_IRQHandler+0x94>)
 80019a6:	781b      	ldrb	r3, [r3, #0]
 80019a8:	4a17      	ldr	r2, [pc, #92]	; (8001a08 <USART6_IRQHandler+0x9c>)
 80019aa:	79f9      	ldrb	r1, [r7, #7]
 80019ac:	54d1      	strb	r1, [r2, r3]
			cnt++;
 80019ae:	4b14      	ldr	r3, [pc, #80]	; (8001a00 <USART6_IRQHandler+0x94>)
 80019b0:	781b      	ldrb	r3, [r3, #0]
 80019b2:	3301      	adds	r3, #1
 80019b4:	b2da      	uxtb	r2, r3
 80019b6:	4b12      	ldr	r3, [pc, #72]	; (8001a00 <USART6_IRQHandler+0x94>)
 80019b8:	701a      	strb	r2, [r3, #0]
 80019ba:	e015      	b.n	80019e8 <USART6_IRQHandler+0x7c>
		}
		else{ // otherwise reset the character counter and print the received string
			received_string[cnt] = t; 
 80019bc:	4b10      	ldr	r3, [pc, #64]	; (8001a00 <USART6_IRQHandler+0x94>)
 80019be:	781b      	ldrb	r3, [r3, #0]
 80019c0:	4a11      	ldr	r2, [pc, #68]	; (8001a08 <USART6_IRQHandler+0x9c>)
 80019c2:	79f9      	ldrb	r1, [r7, #7]
 80019c4:	54d1      	strb	r1, [r2, r3]
			cnt = 0;
 80019c6:	4b0e      	ldr	r3, [pc, #56]	; (8001a00 <USART6_IRQHandler+0x94>)
 80019c8:	2200      	movs	r2, #0
 80019ca:	701a      	strb	r2, [r3, #0]
		//	USART_ITConfig(USART6, USART_IT_RXNE, DISABLE); 
	
			USART_ClearITPendingBit ( USARTx, USART_IT_RXNE ) ;
 80019cc:	480b      	ldr	r0, [pc, #44]	; (80019fc <USART6_IRQHandler+0x90>)
 80019ce:	f240 5125 	movw	r1, #1317	; 0x525
 80019d2:	f006 fff7 	bl	80089c4 <USART_ClearITPendingBit>
	
			xSemaphoreGiveFromISR(xSmphrUSART,&xHigherPriorityTaskWoken_usart );
 80019d6:	4b0d      	ldr	r3, [pc, #52]	; (8001a0c <USART6_IRQHandler+0xa0>)
 80019d8:	681a      	ldr	r2, [r3, #0]
 80019da:	463b      	mov	r3, r7
 80019dc:	4610      	mov	r0, r2
 80019de:	2100      	movs	r1, #0
 80019e0:	461a      	mov	r2, r3
 80019e2:	2300      	movs	r3, #0
 80019e4:	f003 f924 	bl	8004c30 <xQueueGenericSendFromISR>
			//USART_puts(USART1, received_string);
		}


	}
 portEND_SWITCHING_ISR( xHigherPriorityTaskWoken_usart );	
 80019e8:	683b      	ldr	r3, [r7, #0]
 80019ea:	2b00      	cmp	r3, #0
 80019ec:	d003      	beq.n	80019f6 <USART6_IRQHandler+0x8a>
 80019ee:	4b08      	ldr	r3, [pc, #32]	; (8001a10 <USART6_IRQHandler+0xa4>)
 80019f0:	f04f 5280 	mov.w	r2, #268435456	; 0x10000000
 80019f4:	601a      	str	r2, [r3, #0]
}
 80019f6:	3708      	adds	r7, #8
 80019f8:	46bd      	mov	sp, r7
 80019fa:	bd80      	pop	{r7, pc}
 80019fc:	40011400 	.word	0x40011400
 8001a00:	200004b0 	.word	0x200004b0
 8001a04:	2001424c 	.word	0x2001424c
 8001a08:	20014250 	.word	0x20014250
 8001a0c:	20014220 	.word	0x20014220
 8001a10:	e000ed04 	.word	0xe000ed04

08001a14 <crc16>:



/* function for  */
uint16_t crc16(uint8_t *buffer, uint16_t buffer_length)
{
 8001a14:	b480      	push	{r7}
 8001a16:	b085      	sub	sp, #20
 8001a18:	af00      	add	r7, sp, #0
 8001a1a:	6078      	str	r0, [r7, #4]
 8001a1c:	460b      	mov	r3, r1
 8001a1e:	807b      	strh	r3, [r7, #2]
     uint8_t crc_hi = 0xFF; /* high CRC byte initialized */
 8001a20:	23ff      	movs	r3, #255	; 0xff
 8001a22:	73fb      	strb	r3, [r7, #15]
     uint8_t crc_lo = 0xFF; /* low CRC byte initialized */
 8001a24:	23ff      	movs	r3, #255	; 0xff
 8001a26:	73bb      	strb	r3, [r7, #14]
     unsigned int i; /* will index into CRC lookup */
 
     /* pass through message buffer */
     while (buffer_length--) {
 8001a28:	e013      	b.n	8001a52 <crc16+0x3e>
         i = crc_hi ^ *buffer++; /* calculate the CRC  */
 8001a2a:	687b      	ldr	r3, [r7, #4]
 8001a2c:	1c5a      	adds	r2, r3, #1
 8001a2e:	607a      	str	r2, [r7, #4]
 8001a30:	781a      	ldrb	r2, [r3, #0]
 8001a32:	7bfb      	ldrb	r3, [r7, #15]
 8001a34:	4053      	eors	r3, r2
 8001a36:	b2db      	uxtb	r3, r3
 8001a38:	60bb      	str	r3, [r7, #8]
         crc_hi = crc_lo ^ table_crc_hi[i];
 8001a3a:	4a0f      	ldr	r2, [pc, #60]	; (8001a78 <crc16+0x64>)
 8001a3c:	68bb      	ldr	r3, [r7, #8]
 8001a3e:	4413      	add	r3, r2
 8001a40:	781a      	ldrb	r2, [r3, #0]
 8001a42:	7bbb      	ldrb	r3, [r7, #14]
 8001a44:	4053      	eors	r3, r2
 8001a46:	73fb      	strb	r3, [r7, #15]
         crc_lo = table_crc_lo[i];
 8001a48:	4a0c      	ldr	r2, [pc, #48]	; (8001a7c <crc16+0x68>)
 8001a4a:	68bb      	ldr	r3, [r7, #8]
 8001a4c:	4413      	add	r3, r2
 8001a4e:	781b      	ldrb	r3, [r3, #0]
 8001a50:	73bb      	strb	r3, [r7, #14]
     uint8_t crc_hi = 0xFF; /* high CRC byte initialized */
     uint8_t crc_lo = 0xFF; /* low CRC byte initialized */
     unsigned int i; /* will index into CRC lookup */
 
     /* pass through message buffer */
     while (buffer_length--) {
 8001a52:	887b      	ldrh	r3, [r7, #2]
 8001a54:	1e5a      	subs	r2, r3, #1
 8001a56:	807a      	strh	r2, [r7, #2]
 8001a58:	2b00      	cmp	r3, #0
 8001a5a:	d1e6      	bne.n	8001a2a <crc16+0x16>
         i = crc_hi ^ *buffer++; /* calculate the CRC  */
         crc_hi = crc_lo ^ table_crc_hi[i];
         crc_lo = table_crc_lo[i];
     }
 
     return (crc_hi << 8 | crc_lo);
 8001a5c:	7bfb      	ldrb	r3, [r7, #15]
 8001a5e:	021b      	lsls	r3, r3, #8
 8001a60:	b29a      	uxth	r2, r3
 8001a62:	7bbb      	ldrb	r3, [r7, #14]
 8001a64:	b29b      	uxth	r3, r3
 8001a66:	4313      	orrs	r3, r2
 8001a68:	b29b      	uxth	r3, r3
 8001a6a:	b29b      	uxth	r3, r3
}
 8001a6c:	4618      	mov	r0, r3
 8001a6e:	3714      	adds	r7, #20
 8001a70:	46bd      	mov	sp, r7
 8001a72:	f85d 7b04 	ldr.w	r7, [sp], #4
 8001a76:	4770      	bx	lr
 8001a78:	08009a28 	.word	0x08009a28
 8001a7c:	08009b28 	.word	0x08009b28

08001a80 <modbus_confirmation>:

/* modbus_confirmation */ 

int modbus_confirmation ( uint8_t * req, uint8_t * rsp, uint16_t write_len, uint16_t read_len)
{
 8001a80:	b580      	push	{r7, lr}
 8001a82:	b086      	sub	sp, #24
 8001a84:	af00      	add	r7, sp, #0
 8001a86:	60f8      	str	r0, [r7, #12]
 8001a88:	60b9      	str	r1, [r7, #8]
 8001a8a:	80fa      	strh	r2, [r7, #6]
 8001a8c:	80bb      	strh	r3, [r7, #4]
	uint16_t crc = crc16(rsp, read_len - 2 );
 8001a8e:	88bb      	ldrh	r3, [r7, #4]
 8001a90:	3b02      	subs	r3, #2
 8001a92:	b29b      	uxth	r3, r3
 8001a94:	68b8      	ldr	r0, [r7, #8]
 8001a96:	4619      	mov	r1, r3
 8001a98:	f7ff ffbc 	bl	8001a14 <crc16>
 8001a9c:	4603      	mov	r3, r0
 8001a9e:	82fb      	strh	r3, [r7, #22]

	if (	rsp[read_len -1 ] == ( crc & 0x00ff ) && 
 8001aa0:	88bb      	ldrh	r3, [r7, #4]
 8001aa2:	3b01      	subs	r3, #1
 8001aa4:	68ba      	ldr	r2, [r7, #8]
 8001aa6:	4413      	add	r3, r2
 8001aa8:	781b      	ldrb	r3, [r3, #0]
 8001aaa:	461a      	mov	r2, r3
 8001aac:	8afb      	ldrh	r3, [r7, #22]
 8001aae:	b2db      	uxtb	r3, r3
 8001ab0:	429a      	cmp	r2, r3
 8001ab2:	d10f      	bne.n	8001ad4 <modbus_confirmation+0x54>
		rsp[read_len - 2 ] == ( crc >> 8 ) ) 
 8001ab4:	88bb      	ldrh	r3, [r7, #4]
 8001ab6:	3b02      	subs	r3, #2
 8001ab8:	68ba      	ldr	r2, [r7, #8]
 8001aba:	4413      	add	r3, r2
 8001abc:	781b      	ldrb	r3, [r3, #0]
 8001abe:	461a      	mov	r2, r3
 8001ac0:	8afb      	ldrh	r3, [r7, #22]
 8001ac2:	0a1b      	lsrs	r3, r3, #8
 8001ac4:	b29b      	uxth	r3, r3

int modbus_confirmation ( uint8_t * req, uint8_t * rsp, uint16_t write_len, uint16_t read_len)
{
	uint16_t crc = crc16(rsp, read_len - 2 );

	if (	rsp[read_len -1 ] == ( crc & 0x00ff ) && 
 8001ac6:	429a      	cmp	r2, r3
 8001ac8:	d104      	bne.n	8001ad4 <modbus_confirmation+0x54>
		rsp[read_len - 2 ] == ( crc >> 8 ) ) 
	{
#ifdef DEBUG
		t_printf("modbus OK.\n");
 8001aca:	4805      	ldr	r0, [pc, #20]	; (8001ae0 <modbus_confirmation+0x60>)
 8001acc:	f004 f860 	bl	8005b90 <t_printf>
#endif
		return 1;
 8001ad0:	2301      	movs	r3, #1
 8001ad2:	e000      	b.n	8001ad6 <modbus_confirmation+0x56>
	}
#ifdef DEBUF
		t_printf("modbus FAIL.\n");
#endif
	return 0; 
 8001ad4:	2300      	movs	r3, #0
	
}
 8001ad6:	4618      	mov	r0, r3
 8001ad8:	3718      	adds	r7, #24
 8001ada:	46bd      	mov	sp, r7
 8001adc:	bd80      	pop	{r7, pc}
 8001ade:	bf00      	nop
 8001ae0:	08009164 	.word	0x08009164

08001ae4 <write_read_modbus>:

/* write to modbus */
void write_read_modbus( uint8_t * req, uint8_t * rsp, int write_len, int read_len )
{
 8001ae4:	b580      	push	{r7, lr}
 8001ae6:	b086      	sub	sp, #24
 8001ae8:	af00      	add	r7, sp, #0
 8001aea:	60f8      	str	r0, [r7, #12]
 8001aec:	60b9      	str	r1, [r7, #8]
 8001aee:	607a      	str	r2, [r7, #4]
 8001af0:	603b      	str	r3, [r7, #0]
	int i; 
	rx_length = read_len + write_len - 1 ; 
 8001af2:	683a      	ldr	r2, [r7, #0]
 8001af4:	687b      	ldr	r3, [r7, #4]
 8001af6:	4413      	add	r3, r2
 8001af8:	1e5a      	subs	r2, r3, #1
 8001afa:	4b2a      	ldr	r3, [pc, #168]	; (8001ba4 <write_read_modbus+0xc0>)
 8001afc:	601a      	str	r2, [r3, #0]

	// driver disable 
	DD();
 8001afe:	4b2a      	ldr	r3, [pc, #168]	; (8001ba8 <write_read_modbus+0xc4>)
 8001b00:	4a29      	ldr	r2, [pc, #164]	; (8001ba8 <write_read_modbus+0xc4>)
 8001b02:	8b12      	ldrh	r2, [r2, #24]
 8001b04:	b292      	uxth	r2, r2
 8001b06:	f442 7280 	orr.w	r2, r2, #256	; 0x100
 8001b0a:	b292      	uxth	r2, r2
 8001b0c:	831a      	strh	r2, [r3, #24]
	for (i=0; i < 4000; i++) ;
 8001b0e:	2300      	movs	r3, #0
 8001b10:	617b      	str	r3, [r7, #20]
 8001b12:	e002      	b.n	8001b1a <write_read_modbus+0x36>
 8001b14:	697b      	ldr	r3, [r7, #20]
 8001b16:	3301      	adds	r3, #1
 8001b18:	617b      	str	r3, [r7, #20]
 8001b1a:	697b      	ldr	r3, [r7, #20]
 8001b1c:	f5b3 6f7a 	cmp.w	r3, #4000	; 0xfa0
 8001b20:	dbf8      	blt.n	8001b14 <write_read_modbus+0x30>
	USART_puts(req,write_len);
 8001b22:	68f8      	ldr	r0, [r7, #12]
 8001b24:	6879      	ldr	r1, [r7, #4]
 8001b26:	f7ff fef9 	bl	800191c <USART_puts>
	for (i = 0; i < 4000; i++);
 8001b2a:	2300      	movs	r3, #0
 8001b2c:	617b      	str	r3, [r7, #20]
 8001b2e:	e002      	b.n	8001b36 <write_read_modbus+0x52>
 8001b30:	697b      	ldr	r3, [r7, #20]
 8001b32:	3301      	adds	r3, #1
 8001b34:	617b      	str	r3, [r7, #20]
 8001b36:	697b      	ldr	r3, [r7, #20]
 8001b38:	f5b3 6f7a 	cmp.w	r3, #4000	; 0xfa0
 8001b3c:	dbf8      	blt.n	8001b30 <write_read_modbus+0x4c>
	// driver enable 
	DE();
 8001b3e:	4b1a      	ldr	r3, [pc, #104]	; (8001ba8 <write_read_modbus+0xc4>)
 8001b40:	4a19      	ldr	r2, [pc, #100]	; (8001ba8 <write_read_modbus+0xc4>)
 8001b42:	8b52      	ldrh	r2, [r2, #26]
 8001b44:	b292      	uxth	r2, r2
 8001b46:	f442 7280 	orr.w	r2, r2, #256	; 0x100
 8001b4a:	b292      	uxth	r2, r2
 8001b4c:	835a      	strh	r2, [r3, #26]
	
	xSemaphoreTake(xSmphrUSART, 500/portTICK_RATE_MS);
 8001b4e:	4b17      	ldr	r3, [pc, #92]	; (8001bac <write_read_modbus+0xc8>)
 8001b50:	681b      	ldr	r3, [r3, #0]
 8001b52:	4618      	mov	r0, r3
 8001b54:	2100      	movs	r1, #0
 8001b56:	f44f 72fa 	mov.w	r2, #500	; 0x1f4
 8001b5a:	2300      	movs	r3, #0
 8001b5c:	f003 f8d2 	bl	8004d04 <xQueueGenericReceive>
	
	for (i = 0; i < read_len; i++) 
 8001b60:	2300      	movs	r3, #0
 8001b62:	617b      	str	r3, [r7, #20]
 8001b64:	e014      	b.n	8001b90 <write_read_modbus+0xac>
	{

		rsp[i] = received_string[i+write_len]; 
 8001b66:	697b      	ldr	r3, [r7, #20]
 8001b68:	68ba      	ldr	r2, [r7, #8]
 8001b6a:	4413      	add	r3, r2
 8001b6c:	6979      	ldr	r1, [r7, #20]
 8001b6e:	687a      	ldr	r2, [r7, #4]
 8001b70:	440a      	add	r2, r1
 8001b72:	490f      	ldr	r1, [pc, #60]	; (8001bb0 <write_read_modbus+0xcc>)
 8001b74:	5c8a      	ldrb	r2, [r1, r2]
 8001b76:	b2d2      	uxtb	r2, r2
 8001b78:	701a      	strb	r2, [r3, #0]
#ifdef DEBUG
		t_printf("[%x]", rsp[i]);
 8001b7a:	697b      	ldr	r3, [r7, #20]
 8001b7c:	68ba      	ldr	r2, [r7, #8]
 8001b7e:	4413      	add	r3, r2
 8001b80:	781b      	ldrb	r3, [r3, #0]
 8001b82:	480c      	ldr	r0, [pc, #48]	; (8001bb4 <write_read_modbus+0xd0>)
 8001b84:	4619      	mov	r1, r3
 8001b86:	f004 f803 	bl	8005b90 <t_printf>
	// driver enable 
	DE();
	
	xSemaphoreTake(xSmphrUSART, 500/portTICK_RATE_MS);
	
	for (i = 0; i < read_len; i++) 
 8001b8a:	697b      	ldr	r3, [r7, #20]
 8001b8c:	3301      	adds	r3, #1
 8001b8e:	617b      	str	r3, [r7, #20]
 8001b90:	697a      	ldr	r2, [r7, #20]
 8001b92:	683b      	ldr	r3, [r7, #0]
 8001b94:	429a      	cmp	r2, r3
 8001b96:	dbe6      	blt.n	8001b66 <write_read_modbus+0x82>
		t_printf("[%x]", rsp[i]);
#endif	
	}

#ifdef DEBUG
		t_printf("\n");
 8001b98:	4807      	ldr	r0, [pc, #28]	; (8001bb8 <write_read_modbus+0xd4>)
 8001b9a:	f003 fff9 	bl	8005b90 <t_printf>
#endif		

}
 8001b9e:	3718      	adds	r7, #24
 8001ba0:	46bd      	mov	sp, r7
 8001ba2:	bd80      	pop	{r7, pc}
 8001ba4:	2001424c 	.word	0x2001424c
 8001ba8:	40021800 	.word	0x40021800
 8001bac:	20014220 	.word	0x20014220
 8001bb0:	20014250 	.word	0x20014250
 8001bb4:	08009170 	.word	0x08009170
 8001bb8:	08009178 	.word	0x08009178

08001bbc <modbus_WIB>:
}


/* modbus write input bits */
uint8_t modbus_WIB( uint16_t address, int nb, uint8_t *src )
{
 8001bbc:	b580      	push	{r7, lr}
 8001bbe:	f5ad 6d86 	sub.w	sp, sp, #1072	; 0x430
 8001bc2:	af00      	add	r7, sp, #0
 8001bc4:	f107 0308 	add.w	r3, r7, #8
 8001bc8:	6019      	str	r1, [r3, #0]
 8001bca:	1d3b      	adds	r3, r7, #4
 8001bcc:	601a      	str	r2, [r3, #0]
 8001bce:	f107 030e 	add.w	r3, r7, #14
 8001bd2:	4602      	mov	r2, r0
 8001bd4:	801a      	strh	r2, [r3, #0]

	uint8_t req[REQ_MAX_LEN];
	uint8_t rsp[REQ_MAX_LEN];
	int byte_count; 
	int req_length; 
	int bit_check = 0; 
 8001bd6:	2300      	movs	r3, #0
 8001bd8:	f8c7 3428 	str.w	r3, [r7, #1064]	; 0x428
	int pos = 0; 
 8001bdc:	2300      	movs	r3, #0
 8001bde:	f8c7 3424 	str.w	r3, [r7, #1060]	; 0x424
	
	req[0] = 0x36; 
 8001be2:	f507 7305 	add.w	r3, r7, #532	; 0x214
 8001be6:	2236      	movs	r2, #54	; 0x36
 8001be8:	701a      	strb	r2, [r3, #0]
	req[1] = 0xF;
 8001bea:	f507 7305 	add.w	r3, r7, #532	; 0x214
 8001bee:	220f      	movs	r2, #15
 8001bf0:	705a      	strb	r2, [r3, #1]
	req[2] = address >> 8;
 8001bf2:	f107 030e 	add.w	r3, r7, #14
 8001bf6:	881b      	ldrh	r3, [r3, #0]
 8001bf8:	0a1b      	lsrs	r3, r3, #8
 8001bfa:	b29b      	uxth	r3, r3
 8001bfc:	b2da      	uxtb	r2, r3
 8001bfe:	f507 7305 	add.w	r3, r7, #532	; 0x214
 8001c02:	709a      	strb	r2, [r3, #2]
	req[3] = address & 0x00ff;
 8001c04:	f107 030e 	add.w	r3, r7, #14
 8001c08:	881b      	ldrh	r3, [r3, #0]
 8001c0a:	b2da      	uxtb	r2, r3
 8001c0c:	f507 7305 	add.w	r3, r7, #532	; 0x214
 8001c10:	70da      	strb	r2, [r3, #3]
	req[4] = nb >> 8;
 8001c12:	f107 0308 	add.w	r3, r7, #8
 8001c16:	681b      	ldr	r3, [r3, #0]
 8001c18:	121b      	asrs	r3, r3, #8
 8001c1a:	b2da      	uxtb	r2, r3
 8001c1c:	f507 7305 	add.w	r3, r7, #532	; 0x214
 8001c20:	711a      	strb	r2, [r3, #4]
	req[5] = nb & 0x00ff; 
 8001c22:	f107 0308 	add.w	r3, r7, #8
 8001c26:	681b      	ldr	r3, [r3, #0]
 8001c28:	b2da      	uxtb	r2, r3
 8001c2a:	f507 7305 	add.w	r3, r7, #532	; 0x214
 8001c2e:	715a      	strb	r2, [r3, #5]
	req_length = 6; 
 8001c30:	2306      	movs	r3, #6
 8001c32:	f8c7 342c 	str.w	r3, [r7, #1068]	; 0x42c
	
    	byte_count = (nb / 8) + ((nb % 8) ? 1 : 0);
 8001c36:	f107 0308 	add.w	r3, r7, #8
 8001c3a:	681b      	ldr	r3, [r3, #0]
 8001c3c:	2b00      	cmp	r3, #0
 8001c3e:	da00      	bge.n	8001c42 <modbus_WIB+0x86>
 8001c40:	3307      	adds	r3, #7
 8001c42:	10db      	asrs	r3, r3, #3
 8001c44:	461a      	mov	r2, r3
 8001c46:	f107 0308 	add.w	r3, r7, #8
 8001c4a:	681b      	ldr	r3, [r3, #0]
 8001c4c:	f003 0307 	and.w	r3, r3, #7
 8001c50:	2b00      	cmp	r3, #0
 8001c52:	bf0c      	ite	eq
 8001c54:	2300      	moveq	r3, #0
 8001c56:	2301      	movne	r3, #1
 8001c58:	b2db      	uxtb	r3, r3
 8001c5a:	4413      	add	r3, r2
 8001c5c:	f8c7 3418 	str.w	r3, [r7, #1048]	; 0x418
  	req[req_length++] = byte_count;
 8001c60:	f8d7 342c 	ldr.w	r3, [r7, #1068]	; 0x42c
 8001c64:	1c5a      	adds	r2, r3, #1
 8001c66:	f8c7 242c 	str.w	r2, [r7, #1068]	; 0x42c
 8001c6a:	f8d7 2418 	ldr.w	r2, [r7, #1048]	; 0x418
 8001c6e:	b2d1      	uxtb	r1, r2
 8001c70:	f507 7205 	add.w	r2, r7, #532	; 0x214
 8001c74:	54d1      	strb	r1, [r2, r3]

	int i; 
    	for (i = 0; i < byte_count; i++) {
 8001c76:	2300      	movs	r3, #0
 8001c78:	f8c7 3420 	str.w	r3, [r7, #1056]	; 0x420
 8001c7c:	e05c      	b.n	8001d38 <modbus_WIB+0x17c>
        
		int bit;
		bit = 0x01;
 8001c7e:	2301      	movs	r3, #1
 8001c80:	f8c7 341c 	str.w	r3, [r7, #1052]	; 0x41c
        	req[req_length] = 0;
 8001c84:	f507 7205 	add.w	r2, r7, #532	; 0x214
 8001c88:	f8d7 342c 	ldr.w	r3, [r7, #1068]	; 0x42c
 8001c8c:	4413      	add	r3, r2
 8001c8e:	2200      	movs	r2, #0
 8001c90:	701a      	strb	r2, [r3, #0]

        	while ((bit & 0xFF) && (bit_check++ < nb)) {
 8001c92:	e038      	b.n	8001d06 <modbus_WIB+0x14a>
            		if (src[pos++])
 8001c94:	f8d7 3424 	ldr.w	r3, [r7, #1060]	; 0x424
 8001c98:	1c5a      	adds	r2, r3, #1
 8001c9a:	f8c7 2424 	str.w	r2, [r7, #1060]	; 0x424
 8001c9e:	1d3a      	adds	r2, r7, #4
 8001ca0:	6812      	ldr	r2, [r2, #0]
 8001ca2:	4413      	add	r3, r2
 8001ca4:	781b      	ldrb	r3, [r3, #0]
 8001ca6:	2b00      	cmp	r3, #0
 8001ca8:	d013      	beq.n	8001cd2 <modbus_WIB+0x116>
                		req[req_length] |= bit;
 8001caa:	f507 7205 	add.w	r2, r7, #532	; 0x214
 8001cae:	f8d7 342c 	ldr.w	r3, [r7, #1068]	; 0x42c
 8001cb2:	4413      	add	r3, r2
 8001cb4:	781b      	ldrb	r3, [r3, #0]
 8001cb6:	b2da      	uxtb	r2, r3
 8001cb8:	f8d7 341c 	ldr.w	r3, [r7, #1052]	; 0x41c
 8001cbc:	b2db      	uxtb	r3, r3
 8001cbe:	4313      	orrs	r3, r2
 8001cc0:	b2db      	uxtb	r3, r3
 8001cc2:	b2da      	uxtb	r2, r3
 8001cc4:	f507 7105 	add.w	r1, r7, #532	; 0x214
 8001cc8:	f8d7 342c 	ldr.w	r3, [r7, #1068]	; 0x42c
 8001ccc:	440b      	add	r3, r1
 8001cce:	701a      	strb	r2, [r3, #0]
 8001cd0:	e014      	b.n	8001cfc <modbus_WIB+0x140>
            		else
                		req[req_length] &=~ bit;
 8001cd2:	f507 7205 	add.w	r2, r7, #532	; 0x214
 8001cd6:	f8d7 342c 	ldr.w	r3, [r7, #1068]	; 0x42c
 8001cda:	4413      	add	r3, r2
 8001cdc:	781b      	ldrb	r3, [r3, #0]
 8001cde:	b2da      	uxtb	r2, r3
 8001ce0:	f8d7 341c 	ldr.w	r3, [r7, #1052]	; 0x41c
 8001ce4:	b2db      	uxtb	r3, r3
 8001ce6:	43db      	mvns	r3, r3
 8001ce8:	b2db      	uxtb	r3, r3
 8001cea:	4013      	ands	r3, r2
 8001cec:	b2db      	uxtb	r3, r3
 8001cee:	b2da      	uxtb	r2, r3
 8001cf0:	f507 7105 	add.w	r1, r7, #532	; 0x214
 8001cf4:	f8d7 342c 	ldr.w	r3, [r7, #1068]	; 0x42c
 8001cf8:	440b      	add	r3, r1
 8001cfa:	701a      	strb	r2, [r3, #0]

            		bit = bit << 1;
 8001cfc:	f8d7 341c 	ldr.w	r3, [r7, #1052]	; 0x41c
 8001d00:	005b      	lsls	r3, r3, #1
 8001d02:	f8c7 341c 	str.w	r3, [r7, #1052]	; 0x41c
        
		int bit;
		bit = 0x01;
        	req[req_length] = 0;

        	while ((bit & 0xFF) && (bit_check++ < nb)) {
 8001d06:	f8d7 341c 	ldr.w	r3, [r7, #1052]	; 0x41c
 8001d0a:	b2db      	uxtb	r3, r3
 8001d0c:	2b00      	cmp	r3, #0
 8001d0e:	d009      	beq.n	8001d24 <modbus_WIB+0x168>
 8001d10:	f8d7 3428 	ldr.w	r3, [r7, #1064]	; 0x428
 8001d14:	1c5a      	adds	r2, r3, #1
 8001d16:	f8c7 2428 	str.w	r2, [r7, #1064]	; 0x428
 8001d1a:	f107 0208 	add.w	r2, r7, #8
 8001d1e:	6812      	ldr	r2, [r2, #0]
 8001d20:	4293      	cmp	r3, r2
 8001d22:	dbb7      	blt.n	8001c94 <modbus_WIB+0xd8>
                		req[req_length] &=~ bit;

            		bit = bit << 1;
        	}	
        	
		req_length++;
 8001d24:	f8d7 342c 	ldr.w	r3, [r7, #1068]	; 0x42c
 8001d28:	3301      	adds	r3, #1
 8001d2a:	f8c7 342c 	str.w	r3, [r7, #1068]	; 0x42c
	
    	byte_count = (nb / 8) + ((nb % 8) ? 1 : 0);
  	req[req_length++] = byte_count;

	int i; 
    	for (i = 0; i < byte_count; i++) {
 8001d2e:	f8d7 3420 	ldr.w	r3, [r7, #1056]	; 0x420
 8001d32:	3301      	adds	r3, #1
 8001d34:	f8c7 3420 	str.w	r3, [r7, #1056]	; 0x420
 8001d38:	f8d7 2420 	ldr.w	r2, [r7, #1056]	; 0x420
 8001d3c:	f8d7 3418 	ldr.w	r3, [r7, #1048]	; 0x418
 8001d40:	429a      	cmp	r2, r3
 8001d42:	db9c      	blt.n	8001c7e <modbus_WIB+0xc2>
        	}	
        	
		req_length++;
	 }

	uint16_t crc = crc16(req, req_length);
 8001d44:	f8d7 342c 	ldr.w	r3, [r7, #1068]	; 0x42c
 8001d48:	b29b      	uxth	r3, r3
 8001d4a:	f507 7205 	add.w	r2, r7, #532	; 0x214
 8001d4e:	4610      	mov	r0, r2
 8001d50:	4619      	mov	r1, r3
 8001d52:	f7ff fe5f 	bl	8001a14 <crc16>
 8001d56:	4603      	mov	r3, r0
 8001d58:	f8a7 3416 	strh.w	r3, [r7, #1046]	; 0x416

	req[req_length++] = crc >> 8; 
 8001d5c:	f8d7 342c 	ldr.w	r3, [r7, #1068]	; 0x42c
 8001d60:	1c5a      	adds	r2, r3, #1
 8001d62:	f8c7 242c 	str.w	r2, [r7, #1068]	; 0x42c
 8001d66:	f8b7 2416 	ldrh.w	r2, [r7, #1046]	; 0x416
 8001d6a:	0a12      	lsrs	r2, r2, #8
 8001d6c:	b292      	uxth	r2, r2
 8001d6e:	b2d1      	uxtb	r1, r2
 8001d70:	f507 7205 	add.w	r2, r7, #532	; 0x214
 8001d74:	54d1      	strb	r1, [r2, r3]
	req[req_length++] = crc & 0x00ff; 
 8001d76:	f8d7 342c 	ldr.w	r3, [r7, #1068]	; 0x42c
 8001d7a:	1c5a      	adds	r2, r3, #1
 8001d7c:	f8c7 242c 	str.w	r2, [r7, #1068]	; 0x42c
 8001d80:	f8b7 2416 	ldrh.w	r2, [r7, #1046]	; 0x416
 8001d84:	b2d1      	uxtb	r1, r2
 8001d86:	f507 7205 	add.w	r2, r7, #532	; 0x214
 8001d8a:	54d1      	strb	r1, [r2, r3]
	
	/* write request  to modbus line */
	write_read_modbus( req,rsp, req_length ,8); 
 8001d8c:	f507 7205 	add.w	r2, r7, #532	; 0x214
 8001d90:	f107 0314 	add.w	r3, r7, #20
 8001d94:	4610      	mov	r0, r2
 8001d96:	4619      	mov	r1, r3
 8001d98:	f8d7 242c 	ldr.w	r2, [r7, #1068]	; 0x42c
 8001d9c:	2308      	movs	r3, #8
 8001d9e:	f7ff fea1 	bl	8001ae4 <write_read_modbus>
	return modbus_confirmation (req, rsp,req_length, 8); 
 8001da2:	f8d7 342c 	ldr.w	r3, [r7, #1068]	; 0x42c
 8001da6:	b29b      	uxth	r3, r3
 8001da8:	f507 7105 	add.w	r1, r7, #532	; 0x214
 8001dac:	f107 0214 	add.w	r2, r7, #20
 8001db0:	4608      	mov	r0, r1
 8001db2:	4611      	mov	r1, r2
 8001db4:	461a      	mov	r2, r3
 8001db6:	2308      	movs	r3, #8
 8001db8:	f7ff fe62 	bl	8001a80 <modbus_confirmation>
 8001dbc:	4603      	mov	r3, r0
 8001dbe:	b2db      	uxtb	r3, r3

	
}
 8001dc0:	4618      	mov	r0, r3
 8001dc2:	f507 6786 	add.w	r7, r7, #1072	; 0x430
 8001dc6:	46bd      	mov	sp, r7
 8001dc8:	bd80      	pop	{r7, pc}
 8001dca:	bf00      	nop

08001dcc <modbus_WR>:

/* Write the values from the array to the registers of the remote device */
uint8_t modbus_WR( int address, int nb, const uint16_t *src)
{
 8001dcc:	b580      	push	{r7, lr}
 8001dce:	f5ad 6d84 	sub.w	sp, sp, #1056	; 0x420
 8001dd2:	af00      	add	r7, sp, #0
 8001dd4:	f107 030c 	add.w	r3, r7, #12
 8001dd8:	6018      	str	r0, [r3, #0]
 8001dda:	f107 0308 	add.w	r3, r7, #8
 8001dde:	6019      	str	r1, [r3, #0]
 8001de0:	1d3b      	adds	r3, r7, #4
 8001de2:	601a      	str	r2, [r3, #0]
    	int byte_count;

    	uint8_t req[REQ_MAX_LEN];
	uint8_t rsp[REQ_MAX_LEN];

	req[0] = 0x36; 
 8001de4:	f507 7304 	add.w	r3, r7, #528	; 0x210
 8001de8:	2236      	movs	r2, #54	; 0x36
 8001dea:	701a      	strb	r2, [r3, #0]
	req[1] = 0x10;
 8001dec:	f507 7304 	add.w	r3, r7, #528	; 0x210
 8001df0:	2210      	movs	r2, #16
 8001df2:	705a      	strb	r2, [r3, #1]
	req[2] = address >> 8;
 8001df4:	f107 030c 	add.w	r3, r7, #12
 8001df8:	681b      	ldr	r3, [r3, #0]
 8001dfa:	121b      	asrs	r3, r3, #8
 8001dfc:	b2da      	uxtb	r2, r3
 8001dfe:	f507 7304 	add.w	r3, r7, #528	; 0x210
 8001e02:	709a      	strb	r2, [r3, #2]
	req[3] = address & 0x00ff;
 8001e04:	f107 030c 	add.w	r3, r7, #12
 8001e08:	681b      	ldr	r3, [r3, #0]
 8001e0a:	b2da      	uxtb	r2, r3
 8001e0c:	f507 7304 	add.w	r3, r7, #528	; 0x210
 8001e10:	70da      	strb	r2, [r3, #3]
	req[4] = nb >> 8;
 8001e12:	f107 0308 	add.w	r3, r7, #8
 8001e16:	681b      	ldr	r3, [r3, #0]
 8001e18:	121b      	asrs	r3, r3, #8
 8001e1a:	b2da      	uxtb	r2, r3
 8001e1c:	f507 7304 	add.w	r3, r7, #528	; 0x210
 8001e20:	711a      	strb	r2, [r3, #4]
	req[5] = nb & 0x00ff; 
 8001e22:	f107 0308 	add.w	r3, r7, #8
 8001e26:	681b      	ldr	r3, [r3, #0]
 8001e28:	b2da      	uxtb	r2, r3
 8001e2a:	f507 7304 	add.w	r3, r7, #528	; 0x210
 8001e2e:	715a      	strb	r2, [r3, #5]
	req_length = 6; 
 8001e30:	2306      	movs	r3, #6
 8001e32:	f8c7 3418 	str.w	r3, [r7, #1048]	; 0x418
	
   	byte_count = nb * 2;
 8001e36:	f107 0308 	add.w	r3, r7, #8
 8001e3a:	681b      	ldr	r3, [r3, #0]
 8001e3c:	005b      	lsls	r3, r3, #1
 8001e3e:	f8c7 3414 	str.w	r3, [r7, #1044]	; 0x414
    	req[req_length++] = byte_count;
 8001e42:	f8d7 3418 	ldr.w	r3, [r7, #1048]	; 0x418
 8001e46:	1c5a      	adds	r2, r3, #1
 8001e48:	f8c7 2418 	str.w	r2, [r7, #1048]	; 0x418
 8001e4c:	f8d7 2414 	ldr.w	r2, [r7, #1044]	; 0x414
 8001e50:	b2d1      	uxtb	r1, r2
 8001e52:	f507 7204 	add.w	r2, r7, #528	; 0x210
 8001e56:	54d1      	strb	r1, [r2, r3]

    for (i = 0; i < nb; i++) {
 8001e58:	2300      	movs	r3, #0
 8001e5a:	f8c7 341c 	str.w	r3, [r7, #1052]	; 0x41c
 8001e5e:	e026      	b.n	8001eae <modbus_WR+0xe2>
		req[req_length++] = src[i] >> 8;
 8001e60:	f8d7 3418 	ldr.w	r3, [r7, #1048]	; 0x418
 8001e64:	1c5a      	adds	r2, r3, #1
 8001e66:	f8c7 2418 	str.w	r2, [r7, #1048]	; 0x418
 8001e6a:	f8d7 241c 	ldr.w	r2, [r7, #1052]	; 0x41c
 8001e6e:	0052      	lsls	r2, r2, #1
 8001e70:	1d39      	adds	r1, r7, #4
 8001e72:	6809      	ldr	r1, [r1, #0]
 8001e74:	440a      	add	r2, r1
 8001e76:	8812      	ldrh	r2, [r2, #0]
 8001e78:	0a12      	lsrs	r2, r2, #8
 8001e7a:	b292      	uxth	r2, r2
 8001e7c:	b2d1      	uxtb	r1, r2
 8001e7e:	f507 7204 	add.w	r2, r7, #528	; 0x210
 8001e82:	54d1      	strb	r1, [r2, r3]
        	req[req_length++] = src[i] & 0x00ff;
 8001e84:	f8d7 3418 	ldr.w	r3, [r7, #1048]	; 0x418
 8001e88:	1c5a      	adds	r2, r3, #1
 8001e8a:	f8c7 2418 	str.w	r2, [r7, #1048]	; 0x418
 8001e8e:	f8d7 241c 	ldr.w	r2, [r7, #1052]	; 0x41c
 8001e92:	0052      	lsls	r2, r2, #1
 8001e94:	1d39      	adds	r1, r7, #4
 8001e96:	6809      	ldr	r1, [r1, #0]
 8001e98:	440a      	add	r2, r1
 8001e9a:	8812      	ldrh	r2, [r2, #0]
 8001e9c:	b2d1      	uxtb	r1, r2
 8001e9e:	f507 7204 	add.w	r2, r7, #528	; 0x210
 8001ea2:	54d1      	strb	r1, [r2, r3]
	req_length = 6; 
	
   	byte_count = nb * 2;
    	req[req_length++] = byte_count;

    for (i = 0; i < nb; i++) {
 8001ea4:	f8d7 341c 	ldr.w	r3, [r7, #1052]	; 0x41c
 8001ea8:	3301      	adds	r3, #1
 8001eaa:	f8c7 341c 	str.w	r3, [r7, #1052]	; 0x41c
 8001eae:	f107 0308 	add.w	r3, r7, #8
 8001eb2:	f8d7 241c 	ldr.w	r2, [r7, #1052]	; 0x41c
 8001eb6:	681b      	ldr	r3, [r3, #0]
 8001eb8:	429a      	cmp	r2, r3
 8001eba:	dbd1      	blt.n	8001e60 <modbus_WR+0x94>
		req[req_length++] = src[i] >> 8;
        	req[req_length++] = src[i] & 0x00ff;
    	}

	uint16_t crc = crc16(req, req_length);
 8001ebc:	f8d7 3418 	ldr.w	r3, [r7, #1048]	; 0x418
 8001ec0:	b29b      	uxth	r3, r3
 8001ec2:	f507 7204 	add.w	r2, r7, #528	; 0x210
 8001ec6:	4610      	mov	r0, r2
 8001ec8:	4619      	mov	r1, r3
 8001eca:	f7ff fda3 	bl	8001a14 <crc16>
 8001ece:	4603      	mov	r3, r0
 8001ed0:	f8a7 3412 	strh.w	r3, [r7, #1042]	; 0x412

	req[req_length++] = crc >> 8; 
 8001ed4:	f8d7 3418 	ldr.w	r3, [r7, #1048]	; 0x418
 8001ed8:	1c5a      	adds	r2, r3, #1
 8001eda:	f8c7 2418 	str.w	r2, [r7, #1048]	; 0x418
 8001ede:	f8b7 2412 	ldrh.w	r2, [r7, #1042]	; 0x412
 8001ee2:	0a12      	lsrs	r2, r2, #8
 8001ee4:	b292      	uxth	r2, r2
 8001ee6:	b2d1      	uxtb	r1, r2
 8001ee8:	f507 7204 	add.w	r2, r7, #528	; 0x210
 8001eec:	54d1      	strb	r1, [r2, r3]
	req[req_length++] = crc & 0x00ff;
 8001eee:	f8d7 3418 	ldr.w	r3, [r7, #1048]	; 0x418
 8001ef2:	1c5a      	adds	r2, r3, #1
 8001ef4:	f8c7 2418 	str.w	r2, [r7, #1048]	; 0x418
 8001ef8:	f8b7 2412 	ldrh.w	r2, [r7, #1042]	; 0x412
 8001efc:	b2d1      	uxtb	r1, r2
 8001efe:	f507 7204 	add.w	r2, r7, #528	; 0x210
 8001f02:	54d1      	strb	r1, [r2, r3]

	/* write request  to modbus line */
	write_read_modbus( req, rsp, req_length, 8); 
 8001f04:	f507 7204 	add.w	r2, r7, #528	; 0x210
 8001f08:	f107 0310 	add.w	r3, r7, #16
 8001f0c:	4610      	mov	r0, r2
 8001f0e:	4619      	mov	r1, r3
 8001f10:	f8d7 2418 	ldr.w	r2, [r7, #1048]	; 0x418
 8001f14:	2308      	movs	r3, #8
 8001f16:	f7ff fde5 	bl	8001ae4 <write_read_modbus>
	return modbus_confirmation (req, rsp,req_length, 8); 
 8001f1a:	f8d7 3418 	ldr.w	r3, [r7, #1048]	; 0x418
 8001f1e:	b29b      	uxth	r3, r3
 8001f20:	f507 7104 	add.w	r1, r7, #528	; 0x210
 8001f24:	f107 0210 	add.w	r2, r7, #16
 8001f28:	4608      	mov	r0, r1
 8001f2a:	4611      	mov	r1, r2
 8001f2c:	461a      	mov	r2, r3
 8001f2e:	2308      	movs	r3, #8
 8001f30:	f7ff fda6 	bl	8001a80 <modbus_confirmation>
 8001f34:	4603      	mov	r3, r0
 8001f36:	b2db      	uxtb	r3, r3



}
 8001f38:	4618      	mov	r0, r3
 8001f3a:	f507 6784 	add.w	r7, r7, #1056	; 0x420
 8001f3e:	46bd      	mov	sp, r7
 8001f40:	bd80      	pop	{r7, pc}
 8001f42:	bf00      	nop

08001f44 <modbus_RR>:
}


/* Read the values from the array to the registers of the remote device */
uint8_t modbus_RR( int address, int nb, uint16_t *src)
{
 8001f44:	b580      	push	{r7, lr}
 8001f46:	f5ad 6d85 	sub.w	sp, sp, #1064	; 0x428
 8001f4a:	af00      	add	r7, sp, #0
 8001f4c:	f107 030c 	add.w	r3, r7, #12
 8001f50:	6018      	str	r0, [r3, #0]
 8001f52:	f107 0308 	add.w	r3, r7, #8
 8001f56:	6019      	str	r1, [r3, #0]
 8001f58:	1d3b      	adds	r3, r7, #4
 8001f5a:	601a      	str	r2, [r3, #0]
    	int req_length;
	int byte_count;
    	uint8_t req[REQ_MAX_LEN];
  	uint8_t rsp[REQ_MAX_LEN];

	req[0] = 0x36; 
 8001f5c:	f507 7305 	add.w	r3, r7, #532	; 0x214
 8001f60:	2236      	movs	r2, #54	; 0x36
 8001f62:	701a      	strb	r2, [r3, #0]
	req[1] = 0x4;
 8001f64:	f507 7305 	add.w	r3, r7, #532	; 0x214
 8001f68:	2204      	movs	r2, #4
 8001f6a:	705a      	strb	r2, [r3, #1]
	req[2] = address >> 8;
 8001f6c:	f107 030c 	add.w	r3, r7, #12
 8001f70:	681b      	ldr	r3, [r3, #0]
 8001f72:	121b      	asrs	r3, r3, #8
 8001f74:	b2da      	uxtb	r2, r3
 8001f76:	f507 7305 	add.w	r3, r7, #532	; 0x214
 8001f7a:	709a      	strb	r2, [r3, #2]
	req[3] = address & 0x00ff;
 8001f7c:	f107 030c 	add.w	r3, r7, #12
 8001f80:	681b      	ldr	r3, [r3, #0]
 8001f82:	b2da      	uxtb	r2, r3
 8001f84:	f507 7305 	add.w	r3, r7, #532	; 0x214
 8001f88:	70da      	strb	r2, [r3, #3]
	req[4] = nb >> 8;
 8001f8a:	f107 0308 	add.w	r3, r7, #8
 8001f8e:	681b      	ldr	r3, [r3, #0]
 8001f90:	121b      	asrs	r3, r3, #8
 8001f92:	b2da      	uxtb	r2, r3
 8001f94:	f507 7305 	add.w	r3, r7, #532	; 0x214
 8001f98:	711a      	strb	r2, [r3, #4]
	req[5] = nb & 0x00ff; 
 8001f9a:	f107 0308 	add.w	r3, r7, #8
 8001f9e:	681b      	ldr	r3, [r3, #0]
 8001fa0:	b2da      	uxtb	r2, r3
 8001fa2:	f507 7305 	add.w	r3, r7, #532	; 0x214
 8001fa6:	715a      	strb	r2, [r3, #5]
	req_length = 6; 
 8001fa8:	2306      	movs	r3, #6
 8001faa:	f8c7 3420 	str.w	r3, [r7, #1056]	; 0x420
   	
	byte_count = nb * 2;
 8001fae:	f107 0308 	add.w	r3, r7, #8
 8001fb2:	681b      	ldr	r3, [r3, #0]
 8001fb4:	005b      	lsls	r3, r3, #1
 8001fb6:	f8c7 341c 	str.w	r3, [r7, #1052]	; 0x41c
    	req[req_length++] = byte_count;
 8001fba:	f8d7 3420 	ldr.w	r3, [r7, #1056]	; 0x420
 8001fbe:	1c5a      	adds	r2, r3, #1
 8001fc0:	f8c7 2420 	str.w	r2, [r7, #1056]	; 0x420
 8001fc4:	f8d7 241c 	ldr.w	r2, [r7, #1052]	; 0x41c
 8001fc8:	b2d1      	uxtb	r1, r2
 8001fca:	f507 7205 	add.w	r2, r7, #532	; 0x214
 8001fce:	54d1      	strb	r1, [r2, r3]
	
	uint16_t crc = crc16(req, req_length);
 8001fd0:	f8d7 3420 	ldr.w	r3, [r7, #1056]	; 0x420
 8001fd4:	b29b      	uxth	r3, r3
 8001fd6:	f507 7205 	add.w	r2, r7, #532	; 0x214
 8001fda:	4610      	mov	r0, r2
 8001fdc:	4619      	mov	r1, r3
 8001fde:	f7ff fd19 	bl	8001a14 <crc16>
 8001fe2:	4603      	mov	r3, r0
 8001fe4:	f8a7 341a 	strh.w	r3, [r7, #1050]	; 0x41a

	req[req_length++] = crc >> 8; 
 8001fe8:	f8d7 3420 	ldr.w	r3, [r7, #1056]	; 0x420
 8001fec:	1c5a      	adds	r2, r3, #1
 8001fee:	f8c7 2420 	str.w	r2, [r7, #1056]	; 0x420
 8001ff2:	f8b7 241a 	ldrh.w	r2, [r7, #1050]	; 0x41a
 8001ff6:	0a12      	lsrs	r2, r2, #8
 8001ff8:	b292      	uxth	r2, r2
 8001ffa:	b2d1      	uxtb	r1, r2
 8001ffc:	f507 7205 	add.w	r2, r7, #532	; 0x214
 8002000:	54d1      	strb	r1, [r2, r3]
	req[req_length++] = crc & 0x00ff; 
 8002002:	f8d7 3420 	ldr.w	r3, [r7, #1056]	; 0x420
 8002006:	1c5a      	adds	r2, r3, #1
 8002008:	f8c7 2420 	str.w	r2, [r7, #1056]	; 0x420
 800200c:	f8b7 241a 	ldrh.w	r2, [r7, #1050]	; 0x41a
 8002010:	b2d1      	uxtb	r1, r2
 8002012:	f507 7205 	add.w	r2, r7, #532	; 0x214
 8002016:	54d1      	strb	r1, [r2, r3]
	
	/* write request  to modbus line */
	write_read_modbus( req, rsp,  req_length, nb*2 + 5); 
 8002018:	f107 0308 	add.w	r3, r7, #8
 800201c:	681b      	ldr	r3, [r3, #0]
 800201e:	005b      	lsls	r3, r3, #1
 8002020:	3305      	adds	r3, #5
 8002022:	f507 7105 	add.w	r1, r7, #532	; 0x214
 8002026:	f107 0214 	add.w	r2, r7, #20
 800202a:	4608      	mov	r0, r1
 800202c:	4611      	mov	r1, r2
 800202e:	f8d7 2420 	ldr.w	r2, [r7, #1056]	; 0x420
 8002032:	f7ff fd57 	bl	8001ae4 <write_read_modbus>
	
	int offset = 2;
 8002036:	2302      	movs	r3, #2
 8002038:	f8c7 3414 	str.w	r3, [r7, #1044]	; 0x414
	
	for (i = 0; i < nb; i++) {
 800203c:	2300      	movs	r3, #0
 800203e:	f8c7 3424 	str.w	r3, [r7, #1060]	; 0x424
 8002042:	e024      	b.n	800208e <modbus_RR+0x14a>
            /* shift reg hi_byte to temp OR with lo_byte */
            src[i] = (rsp[offset + 1 + (i << 1)] << 8) |
 8002044:	f8d7 3424 	ldr.w	r3, [r7, #1060]	; 0x424
 8002048:	005b      	lsls	r3, r3, #1
 800204a:	1d3a      	adds	r2, r7, #4
 800204c:	6812      	ldr	r2, [r2, #0]
 800204e:	4413      	add	r3, r2
 8002050:	f8d7 2414 	ldr.w	r2, [r7, #1044]	; 0x414
 8002054:	1c51      	adds	r1, r2, #1
 8002056:	f8d7 2424 	ldr.w	r2, [r7, #1060]	; 0x424
 800205a:	0052      	lsls	r2, r2, #1
 800205c:	440a      	add	r2, r1
 800205e:	f107 0114 	add.w	r1, r7, #20
 8002062:	5c8a      	ldrb	r2, [r1, r2]
 8002064:	0212      	lsls	r2, r2, #8
 8002066:	b291      	uxth	r1, r2
                rsp[offset + 2 + (i << 1)];
 8002068:	f8d7 2414 	ldr.w	r2, [r7, #1044]	; 0x414
 800206c:	1c90      	adds	r0, r2, #2
 800206e:	f8d7 2424 	ldr.w	r2, [r7, #1060]	; 0x424
 8002072:	0052      	lsls	r2, r2, #1
 8002074:	4402      	add	r2, r0
 8002076:	f107 0014 	add.w	r0, r7, #20
 800207a:	5c82      	ldrb	r2, [r0, r2]
	
	int offset = 2;
	
	for (i = 0; i < nb; i++) {
            /* shift reg hi_byte to temp OR with lo_byte */
            src[i] = (rsp[offset + 1 + (i << 1)] << 8) |
 800207c:	430a      	orrs	r2, r1
 800207e:	b292      	uxth	r2, r2
 8002080:	b292      	uxth	r2, r2
 8002082:	801a      	strh	r2, [r3, #0]
	/* write request  to modbus line */
	write_read_modbus( req, rsp,  req_length, nb*2 + 5); 
	
	int offset = 2;
	
	for (i = 0; i < nb; i++) {
 8002084:	f8d7 3424 	ldr.w	r3, [r7, #1060]	; 0x424
 8002088:	3301      	adds	r3, #1
 800208a:	f8c7 3424 	str.w	r3, [r7, #1060]	; 0x424
 800208e:	f107 0308 	add.w	r3, r7, #8
 8002092:	f8d7 2424 	ldr.w	r2, [r7, #1060]	; 0x424
 8002096:	681b      	ldr	r3, [r3, #0]
 8002098:	429a      	cmp	r2, r3
 800209a:	dbd3      	blt.n	8002044 <modbus_RR+0x100>
//	for (i =0; i < nb; i++ ){ t_printf("[%d] ", src[i]); }
//	t_printf("\n");

	

	return modbus_confirmation (req, rsp,req_length, nb*2 + 5); 
 800209c:	f8d7 3420 	ldr.w	r3, [r7, #1056]	; 0x420
 80020a0:	b29a      	uxth	r2, r3
 80020a2:	f107 0308 	add.w	r3, r7, #8
 80020a6:	681b      	ldr	r3, [r3, #0]
 80020a8:	b29b      	uxth	r3, r3
 80020aa:	005b      	lsls	r3, r3, #1
 80020ac:	b29b      	uxth	r3, r3
 80020ae:	3305      	adds	r3, #5
 80020b0:	b29b      	uxth	r3, r3
 80020b2:	f507 7005 	add.w	r0, r7, #532	; 0x214
 80020b6:	f107 0114 	add.w	r1, r7, #20
 80020ba:	f7ff fce1 	bl	8001a80 <modbus_confirmation>
 80020be:	4603      	mov	r3, r0
 80020c0:	b2db      	uxtb	r3, r3


}
 80020c2:	4618      	mov	r0, r3
 80020c4:	f507 6785 	add.w	r7, r7, #1064	; 0x428
 80020c8:	46bd      	mov	sp, r7
 80020ca:	bd80      	pop	{r7, pc}

080020cc <motorHeartBeat_task>:
=====================================================================================
============    		TASKS SECTION			===================== 
=====================================================================================
====================================================================================*/
void motorHeartBeat_task(void * pvParameters)
{
 80020cc:	b580      	push	{r7, lr}
 80020ce:	b088      	sub	sp, #32
 80020d0:	af00      	add	r7, sp, #0
 80020d2:	6078      	str	r0, [r7, #4]
	uint16_t tab_reg[10];
//	portTickType xLastWakeTime; 
//	xLastWakeTime = xTaskGetTickCount();
	//vTaskDelay(portMAX_DELAY);	
	//vTaskSuspend(NULL); 
	int counter = 0;	
 80020d4:	2300      	movs	r3, #0
 80020d6:	61fb      	str	r3, [r7, #28]
	for(;;)
	{
		#ifdef DEBUG
		t_printf("HB: %d\n\n", counter);
 80020d8:	4809      	ldr	r0, [pc, #36]	; (8002100 <motorHeartBeat_task+0x34>)
 80020da:	69f9      	ldr	r1, [r7, #28]
 80020dc:	f003 fd58 	bl	8005b90 <t_printf>
		#endif
		modbus_RR(0,10,tab_reg);
 80020e0:	f107 0308 	add.w	r3, r7, #8
 80020e4:	2000      	movs	r0, #0
 80020e6:	210a      	movs	r1, #10
 80020e8:	461a      	mov	r2, r3
 80020ea:	f7ff ff2b 	bl	8001f44 <modbus_RR>
		counter ++;
 80020ee:	69fb      	ldr	r3, [r7, #28]
 80020f0:	3301      	adds	r3, #1
 80020f2:	61fb      	str	r3, [r7, #28]
	//	vTaskDelayUntil(&xLastWakeTime, 3000/portTICK_RATE_MS);
		vTaskDelay(3000/portTICK_RATE_MS);
 80020f4:	f640 30b8 	movw	r0, #3000	; 0xbb8
 80020f8:	f001 fce6 	bl	8003ac8 <vTaskDelay>

	}
 80020fc:	e7ec      	b.n	80020d8 <motorHeartBeat_task+0xc>
 80020fe:	bf00      	nop
 8002100:	0800917c 	.word	0x0800917c

08002104 <motorControl_task>:


}

void motorControl_task(void * pvParameters)
{
 8002104:	b580      	push	{r7, lr}
 8002106:	b088      	sub	sp, #32
 8002108:	af00      	add	r7, sp, #0
 800210a:	6078      	str	r0, [r7, #4]
	uint16_t spd[5]; 
	

//	vTaskSuspend(NULL);	

	src[0]=1; src[1]=1; src[2]=1; src[3]=1;
 800210c:	2301      	movs	r3, #1
 800210e:	753b      	strb	r3, [r7, #20]
 8002110:	2301      	movs	r3, #1
 8002112:	757b      	strb	r3, [r7, #21]
 8002114:	2301      	movs	r3, #1
 8002116:	75bb      	strb	r3, [r7, #22]
 8002118:	2301      	movs	r3, #1
 800211a:	75fb      	strb	r3, [r7, #23]
	
//	spd[0]=1500;spd[1]=0;spd[2]=2250;spd[3]=10;spd[4]=10;
	
	// create usart semaphore 
	xSmphrUSART = xSemaphoreCreateBinary();	
 800211c:	2001      	movs	r0, #1
 800211e:	2100      	movs	r1, #0
 8002120:	2203      	movs	r2, #3
 8002122:	f002 fc4b 	bl	80049bc <xQueueGenericCreate>
 8002126:	4602      	mov	r2, r0
 8002128:	4b95      	ldr	r3, [pc, #596]	; (8002380 <motorControl_task+0x27c>)
 800212a:	601a      	str	r2, [r3, #0]
	
	portTickType xDelay = portMAX_DELAY;//3000 / portTICK_RATE_MS;	
 800212c:	f04f 33ff 	mov.w	r3, #4294967295	; 0xffffffff
 8002130:	61fb      	str	r3, [r7, #28]
	

	static	QueueTelegram telegramR, telegramS; 

	telegramR.data[0] = 1000;
 8002132:	4b94      	ldr	r3, [pc, #592]	; (8002384 <motorControl_task+0x280>)
 8002134:	f44f 727a 	mov.w	r2, #1000	; 0x3e8
 8002138:	811a      	strh	r2, [r3, #8]
	telegramR.data[1] = 0;	
 800213a:	4b92      	ldr	r3, [pc, #584]	; (8002384 <motorControl_task+0x280>)
 800213c:	2200      	movs	r2, #0
 800213e:	815a      	strh	r2, [r3, #10]
	telegramR.data[2] = 2250;
 8002140:	4b90      	ldr	r3, [pc, #576]	; (8002384 <motorControl_task+0x280>)
 8002142:	f640 02ca 	movw	r2, #2250	; 0x8ca
 8002146:	819a      	strh	r2, [r3, #12]
	telegramR.data[3] = 10;	
 8002148:	4b8e      	ldr	r3, [pc, #568]	; (8002384 <motorControl_task+0x280>)
 800214a:	220a      	movs	r2, #10
 800214c:	81da      	strh	r2, [r3, #14]
	telegramR.data[4] = 10;	
 800214e:	4b8d      	ldr	r3, [pc, #564]	; (8002384 <motorControl_task+0x280>)
 8002150:	220a      	movs	r2, #10
 8002152:	821a      	strh	r2, [r3, #16]
	telegramR.size = 5;
 8002154:	4b8b      	ldr	r3, [pc, #556]	; (8002384 <motorControl_task+0x280>)
 8002156:	2205      	movs	r2, #5
 8002158:	605a      	str	r2, [r3, #4]
	telegramR.Qcmd = SETDATA;	
 800215a:	4b8a      	ldr	r3, [pc, #552]	; (8002384 <motorControl_task+0x280>)
 800215c:	2200      	movs	r2, #0
 800215e:	701a      	strb	r2, [r3, #0]

	

	int HB_flag = 0;
 8002160:	2300      	movs	r3, #0
 8002162:	61bb      	str	r3, [r7, #24]
	while (1)
	{

		
	
		if (xQueueReceive(QSpd_handle, (void *)&telegramR, xDelay  ) == pdPASS)
 8002164:	4b88      	ldr	r3, [pc, #544]	; (8002388 <motorControl_task+0x284>)
 8002166:	681b      	ldr	r3, [r3, #0]
 8002168:	4618      	mov	r0, r3
 800216a:	4986      	ldr	r1, [pc, #536]	; (8002384 <motorControl_task+0x280>)
 800216c:	69fa      	ldr	r2, [r7, #28]
 800216e:	2300      	movs	r3, #0
 8002170:	f002 fdc8 	bl	8004d04 <xQueueGenericReceive>
 8002174:	4603      	mov	r3, r0
 8002176:	2b01      	cmp	r3, #1
 8002178:	f040 8100 	bne.w	800237c <motorControl_task+0x278>
		{
			switch ( telegramR.Qcmd )
 800217c:	4b81      	ldr	r3, [pc, #516]	; (8002384 <motorControl_task+0x280>)
 800217e:	781b      	ldrb	r3, [r3, #0]
 8002180:	2b05      	cmp	r3, #5
 8002182:	f200 80ef 	bhi.w	8002364 <motorControl_task+0x260>
 8002186:	a201      	add	r2, pc, #4	; (adr r2, 800218c <motorControl_task+0x88>)
 8002188:	f852 f023 	ldr.w	pc, [r2, r3, lsl #2]
 800218c:	080021a5 	.word	0x080021a5
 8002190:	08002231 	.word	0x08002231
 8002194:	08002365 	.word	0x08002365
 8002198:	08002365 	.word	0x08002365
 800219c:	08002279 	.word	0x08002279
 80021a0:	08002309 	.word	0x08002309
			{
				case SETDATA:

					src[0]=1; src[1]=1; src[2]=1; src[3]=1;
 80021a4:	2301      	movs	r3, #1
 80021a6:	753b      	strb	r3, [r7, #20]
 80021a8:	2301      	movs	r3, #1
 80021aa:	757b      	strb	r3, [r7, #21]
 80021ac:	2301      	movs	r3, #1
 80021ae:	75bb      	strb	r3, [r7, #22]
 80021b0:	2301      	movs	r3, #1
 80021b2:	75fb      	strb	r3, [r7, #23]

					if ( !modbus_WIB( 0 , 3, src))
 80021b4:	f107 0314 	add.w	r3, r7, #20
 80021b8:	2000      	movs	r0, #0
 80021ba:	2103      	movs	r1, #3
 80021bc:	461a      	mov	r2, r3
 80021be:	f7ff fcfd 	bl	8001bbc <modbus_WIB>
 80021c2:	4603      	mov	r3, r0
 80021c4:	2b00      	cmp	r3, #0
 80021c6:	d10b      	bne.n	80021e0 <motorControl_task+0xdc>
					{
							// send response to CLI 
						telegramS.Qcmd = ERROR_MODBUS;
 80021c8:	4b70      	ldr	r3, [pc, #448]	; (800238c <motorControl_task+0x288>)
 80021ca:	2207      	movs	r2, #7
 80021cc:	701a      	strb	r2, [r3, #0]
						xQueueSend(QSpd_handle, &telegramS, xDelay);
 80021ce:	4b6e      	ldr	r3, [pc, #440]	; (8002388 <motorControl_task+0x284>)
 80021d0:	681b      	ldr	r3, [r3, #0]
 80021d2:	4618      	mov	r0, r3
 80021d4:	496d      	ldr	r1, [pc, #436]	; (800238c <motorControl_task+0x288>)
 80021d6:	69fa      	ldr	r2, [r7, #28]
 80021d8:	2300      	movs	r3, #0
 80021da:	f002 fc79 	bl	8004ad0 <xQueueGenericSend>
						break;
 80021de:	e0cd      	b.n	800237c <motorControl_task+0x278>
					}
					vTaskDelay ( 1000 / portTICK_RATE_MS);
 80021e0:	f44f 707a 	mov.w	r0, #1000	; 0x3e8
 80021e4:	f001 fc70 	bl	8003ac8 <vTaskDelay>
					
					if (!modbus_WR(0, 5, telegramR.data))
 80021e8:	2000      	movs	r0, #0
 80021ea:	2105      	movs	r1, #5
 80021ec:	4a68      	ldr	r2, [pc, #416]	; (8002390 <motorControl_task+0x28c>)
 80021ee:	f7ff fded 	bl	8001dcc <modbus_WR>
 80021f2:	4603      	mov	r3, r0
 80021f4:	2b00      	cmp	r3, #0
 80021f6:	d10b      	bne.n	8002210 <motorControl_task+0x10c>
					{
							// send response to CLI 
						telegramS.Qcmd = ERROR_MODBUS;
 80021f8:	4b64      	ldr	r3, [pc, #400]	; (800238c <motorControl_task+0x288>)
 80021fa:	2207      	movs	r2, #7
 80021fc:	701a      	strb	r2, [r3, #0]
						xQueueSend(QSpd_handle, &telegramS, xDelay);
 80021fe:	4b62      	ldr	r3, [pc, #392]	; (8002388 <motorControl_task+0x284>)
 8002200:	681b      	ldr	r3, [r3, #0]
 8002202:	4618      	mov	r0, r3
 8002204:	4961      	ldr	r1, [pc, #388]	; (800238c <motorControl_task+0x288>)
 8002206:	69fa      	ldr	r2, [r7, #28]
 8002208:	2300      	movs	r3, #0
 800220a:	f002 fc61 	bl	8004ad0 <xQueueGenericSend>
						break;
 800220e:	e0b5      	b.n	800237c <motorControl_task+0x278>
					}

					vTaskDelay ( 1000 / portTICK_RATE_MS);
 8002210:	f44f 707a 	mov.w	r0, #1000	; 0x3e8
 8002214:	f001 fc58 	bl	8003ac8 <vTaskDelay>

				// send response to CLI 
					telegramS.Qcmd = SUCCSESS;
 8002218:	4b5c      	ldr	r3, [pc, #368]	; (800238c <motorControl_task+0x288>)
 800221a:	2206      	movs	r2, #6
 800221c:	701a      	strb	r2, [r3, #0]
					xQueueSend(QSpd_handle, &telegramS, xDelay);
 800221e:	4b5a      	ldr	r3, [pc, #360]	; (8002388 <motorControl_task+0x284>)
 8002220:	681b      	ldr	r3, [r3, #0]
 8002222:	4618      	mov	r0, r3
 8002224:	4959      	ldr	r1, [pc, #356]	; (800238c <motorControl_task+0x288>)
 8002226:	69fa      	ldr	r2, [r7, #28]
 8002228:	2300      	movs	r3, #0
 800222a:	f002 fc51 	bl	8004ad0 <xQueueGenericSend>

					break;
 800222e:	e0a5      	b.n	800237c <motorControl_task+0x278>
				       	
				
				case GETDATA:
				
					if ( !modbus_RR(0, 10, telegramS.data))
 8002230:	2000      	movs	r0, #0
 8002232:	210a      	movs	r1, #10
 8002234:	4a57      	ldr	r2, [pc, #348]	; (8002394 <motorControl_task+0x290>)
 8002236:	f7ff fe85 	bl	8001f44 <modbus_RR>
 800223a:	4603      	mov	r3, r0
 800223c:	2b00      	cmp	r3, #0
 800223e:	d10b      	bne.n	8002258 <motorControl_task+0x154>
					{
							// send response to CLI 
						telegramS.Qcmd = ERROR_MODBUS;
 8002240:	4b52      	ldr	r3, [pc, #328]	; (800238c <motorControl_task+0x288>)
 8002242:	2207      	movs	r2, #7
 8002244:	701a      	strb	r2, [r3, #0]
						xQueueSend(QSpd_handle, &telegramS, xDelay);
 8002246:	4b50      	ldr	r3, [pc, #320]	; (8002388 <motorControl_task+0x284>)
 8002248:	681b      	ldr	r3, [r3, #0]
 800224a:	4618      	mov	r0, r3
 800224c:	494f      	ldr	r1, [pc, #316]	; (800238c <motorControl_task+0x288>)
 800224e:	69fa      	ldr	r2, [r7, #28]
 8002250:	2300      	movs	r3, #0
 8002252:	f002 fc3d 	bl	8004ad0 <xQueueGenericSend>
						break;
 8002256:	e091      	b.n	800237c <motorControl_task+0x278>
					}

				
					vTaskDelay ( 1000 / portTICK_RATE_MS);
 8002258:	f44f 707a 	mov.w	r0, #1000	; 0x3e8
 800225c:	f001 fc34 	bl	8003ac8 <vTaskDelay>

					// send response to CLI 
					telegramS.Qcmd = SUCCSESS;
 8002260:	4b4a      	ldr	r3, [pc, #296]	; (800238c <motorControl_task+0x288>)
 8002262:	2206      	movs	r2, #6
 8002264:	701a      	strb	r2, [r3, #0]
					xQueueSend(QSpd_handle, &telegramS, xDelay);
 8002266:	4b48      	ldr	r3, [pc, #288]	; (8002388 <motorControl_task+0x284>)
 8002268:	681b      	ldr	r3, [r3, #0]
 800226a:	4618      	mov	r0, r3
 800226c:	4947      	ldr	r1, [pc, #284]	; (800238c <motorControl_task+0x288>)
 800226e:	69fa      	ldr	r2, [r7, #28]
 8002270:	2300      	movs	r3, #0
 8002272:	f002 fc2d 	bl	8004ad0 <xQueueGenericSend>

					break;
 8002276:	e081      	b.n	800237c <motorControl_task+0x278>

				
				case START: 
					HB_flag = 1; 
 8002278:	2301      	movs	r3, #1
 800227a:	61bb      	str	r3, [r7, #24]
				//	vTaskResume(motorHeartBeatHandle);

					// set motor speed to 10% 
				         src[0]=1; src[1]=1; src[2]=1; src[3]=1;
 800227c:	2301      	movs	r3, #1
 800227e:	753b      	strb	r3, [r7, #20]
 8002280:	2301      	movs	r3, #1
 8002282:	757b      	strb	r3, [r7, #21]
 8002284:	2301      	movs	r3, #1
 8002286:	75bb      	strb	r3, [r7, #22]
 8002288:	2301      	movs	r3, #1
 800228a:	75fb      	strb	r3, [r7, #23]

					if( !modbus_WIB( 0 , 3, src) )
 800228c:	f107 0314 	add.w	r3, r7, #20
 8002290:	2000      	movs	r0, #0
 8002292:	2103      	movs	r1, #3
 8002294:	461a      	mov	r2, r3
 8002296:	f7ff fc91 	bl	8001bbc <modbus_WIB>
 800229a:	4603      	mov	r3, r0
 800229c:	2b00      	cmp	r3, #0
 800229e:	d10b      	bne.n	80022b8 <motorControl_task+0x1b4>
					{
							// send response to CLI 
						telegramS.Qcmd = ERROR_MODBUS;
 80022a0:	4b3a      	ldr	r3, [pc, #232]	; (800238c <motorControl_task+0x288>)
 80022a2:	2207      	movs	r2, #7
 80022a4:	701a      	strb	r2, [r3, #0]
						xQueueSend(QSpd_handle, &telegramS, xDelay);
 80022a6:	4b38      	ldr	r3, [pc, #224]	; (8002388 <motorControl_task+0x284>)
 80022a8:	681b      	ldr	r3, [r3, #0]
 80022aa:	4618      	mov	r0, r3
 80022ac:	4937      	ldr	r1, [pc, #220]	; (800238c <motorControl_task+0x288>)
 80022ae:	69fa      	ldr	r2, [r7, #28]
 80022b0:	2300      	movs	r3, #0
 80022b2:	f002 fc0d 	bl	8004ad0 <xQueueGenericSend>
						break;
 80022b6:	e061      	b.n	800237c <motorControl_task+0x278>
					}

					vTaskDelay ( 1000 / portTICK_RATE_MS);
 80022b8:	f44f 707a 	mov.w	r0, #1000	; 0x3e8
 80022bc:	f001 fc04 	bl	8003ac8 <vTaskDelay>
					if (!modbus_WR( 0, 5, telegramR.data))
 80022c0:	2000      	movs	r0, #0
 80022c2:	2105      	movs	r1, #5
 80022c4:	4a32      	ldr	r2, [pc, #200]	; (8002390 <motorControl_task+0x28c>)
 80022c6:	f7ff fd81 	bl	8001dcc <modbus_WR>
 80022ca:	4603      	mov	r3, r0
 80022cc:	2b00      	cmp	r3, #0
 80022ce:	d10b      	bne.n	80022e8 <motorControl_task+0x1e4>
					{
							// send response to CLI 
						telegramS.Qcmd = ERROR_MODBUS;
 80022d0:	4b2e      	ldr	r3, [pc, #184]	; (800238c <motorControl_task+0x288>)
 80022d2:	2207      	movs	r2, #7
 80022d4:	701a      	strb	r2, [r3, #0]
						xQueueSend(QSpd_handle, &telegramS, xDelay);
 80022d6:	4b2c      	ldr	r3, [pc, #176]	; (8002388 <motorControl_task+0x284>)
 80022d8:	681b      	ldr	r3, [r3, #0]
 80022da:	4618      	mov	r0, r3
 80022dc:	492b      	ldr	r1, [pc, #172]	; (800238c <motorControl_task+0x288>)
 80022de:	69fa      	ldr	r2, [r7, #28]
 80022e0:	2300      	movs	r3, #0
 80022e2:	f002 fbf5 	bl	8004ad0 <xQueueGenericSend>
						break;
 80022e6:	e049      	b.n	800237c <motorControl_task+0x278>
					}

					vTaskDelay ( 1000 / portTICK_RATE_MS);
 80022e8:	f44f 707a 	mov.w	r0, #1000	; 0x3e8
 80022ec:	f001 fbec 	bl	8003ac8 <vTaskDelay>
			
					// send response to CLI 
					telegramS.Qcmd = SUCCSESS;
 80022f0:	4b26      	ldr	r3, [pc, #152]	; (800238c <motorControl_task+0x288>)
 80022f2:	2206      	movs	r2, #6
 80022f4:	701a      	strb	r2, [r3, #0]
					xQueueSend(QSpd_handle, &telegramS, xDelay);
 80022f6:	4b24      	ldr	r3, [pc, #144]	; (8002388 <motorControl_task+0x284>)
 80022f8:	681b      	ldr	r3, [r3, #0]
 80022fa:	4618      	mov	r0, r3
 80022fc:	4923      	ldr	r1, [pc, #140]	; (800238c <motorControl_task+0x288>)
 80022fe:	69fa      	ldr	r2, [r7, #28]
 8002300:	2300      	movs	r3, #0
 8002302:	f002 fbe5 	bl	8004ad0 <xQueueGenericSend>

					break;
 8002306:	e039      	b.n	800237c <motorControl_task+0x278>
				
				case STOP:
					
				//	vTaskSuspend (motorHeartBeatHandle);	
					// send stop bits to motor 
					src[0]=0; src[1]=1; src[2]=1; src[3]=1;
 8002308:	2300      	movs	r3, #0
 800230a:	753b      	strb	r3, [r7, #20]
 800230c:	2301      	movs	r3, #1
 800230e:	757b      	strb	r3, [r7, #21]
 8002310:	2301      	movs	r3, #1
 8002312:	75bb      	strb	r3, [r7, #22]
 8002314:	2301      	movs	r3, #1
 8002316:	75fb      	strb	r3, [r7, #23]

					if (!modbus_WIB( 0 , 3, src)) 
 8002318:	f107 0314 	add.w	r3, r7, #20
 800231c:	2000      	movs	r0, #0
 800231e:	2103      	movs	r1, #3
 8002320:	461a      	mov	r2, r3
 8002322:	f7ff fc4b 	bl	8001bbc <modbus_WIB>
 8002326:	4603      	mov	r3, r0
 8002328:	2b00      	cmp	r3, #0
 800232a:	d10b      	bne.n	8002344 <motorControl_task+0x240>
					{
							// send response to CLI 
						telegramS.Qcmd = ERROR_MODBUS;
 800232c:	4b17      	ldr	r3, [pc, #92]	; (800238c <motorControl_task+0x288>)
 800232e:	2207      	movs	r2, #7
 8002330:	701a      	strb	r2, [r3, #0]
						xQueueSend(QSpd_handle, &telegramS, xDelay);
 8002332:	4b15      	ldr	r3, [pc, #84]	; (8002388 <motorControl_task+0x284>)
 8002334:	681b      	ldr	r3, [r3, #0]
 8002336:	4618      	mov	r0, r3
 8002338:	4914      	ldr	r1, [pc, #80]	; (800238c <motorControl_task+0x288>)
 800233a:	69fa      	ldr	r2, [r7, #28]
 800233c:	2300      	movs	r3, #0
 800233e:	f002 fbc7 	bl	8004ad0 <xQueueGenericSend>
						break;
 8002342:	e01b      	b.n	800237c <motorControl_task+0x278>
					}

					vTaskDelay ( 1000 / portTICK_RATE_MS);
 8002344:	f44f 707a 	mov.w	r0, #1000	; 0x3e8
 8002348:	f001 fbbe 	bl	8003ac8 <vTaskDelay>


								// send response to CLI 
					telegramS.Qcmd = SUCCSESS;
 800234c:	4b0f      	ldr	r3, [pc, #60]	; (800238c <motorControl_task+0x288>)
 800234e:	2206      	movs	r2, #6
 8002350:	701a      	strb	r2, [r3, #0]
					xQueueSend(QSpd_handle, &telegramS, xDelay);
 8002352:	4b0d      	ldr	r3, [pc, #52]	; (8002388 <motorControl_task+0x284>)
 8002354:	681b      	ldr	r3, [r3, #0]
 8002356:	4618      	mov	r0, r3
 8002358:	490c      	ldr	r1, [pc, #48]	; (800238c <motorControl_task+0x288>)
 800235a:	69fa      	ldr	r2, [r7, #28]
 800235c:	2300      	movs	r3, #0
 800235e:	f002 fbb7 	bl	8004ad0 <xQueueGenericSend>

					break; 
 8002362:	e00b      	b.n	800237c <motorControl_task+0x278>

				default:

					telegramS.Qcmd = ERROR_MODBUS;
 8002364:	4b09      	ldr	r3, [pc, #36]	; (800238c <motorControl_task+0x288>)
 8002366:	2207      	movs	r2, #7
 8002368:	701a      	strb	r2, [r3, #0]
					xQueueSend(QSpd_handle, &telegramS, xDelay);
 800236a:	4b07      	ldr	r3, [pc, #28]	; (8002388 <motorControl_task+0x284>)
 800236c:	681b      	ldr	r3, [r3, #0]
 800236e:	4618      	mov	r0, r3
 8002370:	4906      	ldr	r1, [pc, #24]	; (800238c <motorControl_task+0x288>)
 8002372:	69fa      	ldr	r2, [r7, #28]
 8002374:	2300      	movs	r3, #0
 8002376:	f002 fbab 	bl	8004ad0 <xQueueGenericSend>
					break;
 800237a:	bf00      	nop
			}
		}
	
		
	
	}
 800237c:	e6f2      	b.n	8002164 <motorControl_task+0x60>
 800237e:	bf00      	nop
 8002380:	20014220 	.word	0x20014220
 8002384:	200004b4 	.word	0x200004b4
 8002388:	20013270 	.word	0x20013270
 800238c:	200004d0 	.word	0x200004d0
 8002390:	200004bc 	.word	0x200004bc
 8002394:	200004d8 	.word	0x200004d8

08002398 <handleVariable_set>:
				int xParamLength,
				xQueueHandle Qhandle,
				uint8_t * Value,
				int xValueLength,
				int socket )
{
 8002398:	b5b0      	push	{r4, r5, r7, lr}
 800239a:	b088      	sub	sp, #32
 800239c:	af00      	add	r7, sp, #0
 800239e:	60f8      	str	r0, [r7, #12]
 80023a0:	60b9      	str	r1, [r7, #8]
 80023a2:	607a      	str	r2, [r7, #4]
 80023a4:	603b      	str	r3, [r7, #0]

	//================================================================================//
	//		CASE PARAMETER speed [value]
	//================================================================================//

	if ( !strncmp ( Param, "speed", 5))
 80023a6:	6878      	ldr	r0, [r7, #4]
 80023a8:	49a5      	ldr	r1, [pc, #660]	; (8002640 <handleVariable_set+0x2a8>)
 80023aa:	2205      	movs	r2, #5
 80023ac:	f006 fcba 	bl	8008d24 <strncmp>
 80023b0:	4603      	mov	r3, r0
 80023b2:	2b00      	cmp	r3, #0
 80023b4:	f040 80a2 	bne.w	80024fc <handleVariable_set+0x164>
	{	
	
	
		
		// now convert parameter to proper value and check if it is in range 
        	Value[xValueLength] = '\0'; 	
 80023b8:	6bbb      	ldr	r3, [r7, #56]	; 0x38
 80023ba:	6b7a      	ldr	r2, [r7, #52]	; 0x34
 80023bc:	4413      	add	r3, r2
 80023be:	2200      	movs	r2, #0
 80023c0:	701a      	strb	r2, [r3, #0]
		uint16_t s1 = atoi ( Value ); 
 80023c2:	6b78      	ldr	r0, [r7, #52]	; 0x34
 80023c4:	f006 fb76 	bl	8008ab4 <atoi>
 80023c8:	4603      	mov	r3, r0
 80023ca:	83fb      	strh	r3, [r7, #30]
		// if speed is in range
		if(s1 < 1 ||  s1 > 100 )
 80023cc:	8bfb      	ldrh	r3, [r7, #30]
 80023ce:	2b00      	cmp	r3, #0
 80023d0:	d002      	beq.n	80023d8 <handleVariable_set+0x40>
 80023d2:	8bfb      	ldrh	r3, [r7, #30]
 80023d4:	2b64      	cmp	r3, #100	; 0x64
 80023d6:	d907      	bls.n	80023e8 <handleVariable_set+0x50>
		{
			// send error via TCP
			sprintf(pcWriteBuffer, "Error: speed is out of range [1,100]p : %d\n\n\0", s1);
 80023d8:	8bfb      	ldrh	r3, [r7, #30]
 80023da:	68f8      	ldr	r0, [r7, #12]
 80023dc:	4999      	ldr	r1, [pc, #612]	; (8002644 <handleVariable_set+0x2ac>)
 80023de:	461a      	mov	r2, r3
 80023e0:	f000 ff0c 	bl	80031fc <sprintf>
		//	pcWriteBuffer[11+ 3] = "\0"; 
			
			////send( socket_0, buf, 11+3, 0);

	       		return pdFALSE; 	
 80023e4:	2300      	movs	r3, #0
 80023e6:	e1a3      	b.n	8002730 <handleVariable_set+0x398>
		}	
	
		// convert to correct value ( * 100 ) 
		s1 *= 100; 
 80023e8:	8bfb      	ldrh	r3, [r7, #30]
 80023ea:	461a      	mov	r2, r3
 80023ec:	0092      	lsls	r2, r2, #2
 80023ee:	4413      	add	r3, r2
 80023f0:	461a      	mov	r2, r3
 80023f2:	0091      	lsls	r1, r2, #2
 80023f4:	461a      	mov	r2, r3
 80023f6:	460b      	mov	r3, r1
 80023f8:	4413      	add	r3, r2
 80023fa:	009b      	lsls	r3, r3, #2
 80023fc:	83fb      	strh	r3, [r7, #30]
		
		// test i
		telegramS.data[1] = 0;	
 80023fe:	4b92      	ldr	r3, [pc, #584]	; (8002648 <handleVariable_set+0x2b0>)
 8002400:	2200      	movs	r2, #0
 8002402:	815a      	strh	r2, [r3, #10]
		telegramS.data[2] = 2250;
 8002404:	4b90      	ldr	r3, [pc, #576]	; (8002648 <handleVariable_set+0x2b0>)
 8002406:	f640 02ca 	movw	r2, #2250	; 0x8ca
 800240a:	819a      	strh	r2, [r3, #12]
		telegramS.data[3] = 10;	
 800240c:	4b8e      	ldr	r3, [pc, #568]	; (8002648 <handleVariable_set+0x2b0>)
 800240e:	220a      	movs	r2, #10
 8002410:	81da      	strh	r2, [r3, #14]
		telegramS.data[4] = 10;	
 8002412:	4b8d      	ldr	r3, [pc, #564]	; (8002648 <handleVariable_set+0x2b0>)
 8002414:	220a      	movs	r2, #10
 8002416:	821a      	strh	r2, [r3, #16]
		telegramS.size = 5;
 8002418:	4b8b      	ldr	r3, [pc, #556]	; (8002648 <handleVariable_set+0x2b0>)
 800241a:	2205      	movs	r2, #5
 800241c:	605a      	str	r2, [r3, #4]
		telegramS.Qcmd = SETDATA;	
 800241e:	4b8a      	ldr	r3, [pc, #552]	; (8002648 <handleVariable_set+0x2b0>)
 8002420:	2200      	movs	r2, #0
 8002422:	701a      	strb	r2, [r3, #0]
		// test /
		// setup telegram 
		telegramS.Qcmd = SETDATA;
 8002424:	4b88      	ldr	r3, [pc, #544]	; (8002648 <handleVariable_set+0x2b0>)
 8002426:	2200      	movs	r2, #0
 8002428:	701a      	strb	r2, [r3, #0]
		telegramS.size = 5;
 800242a:	4b87      	ldr	r3, [pc, #540]	; (8002648 <handleVariable_set+0x2b0>)
 800242c:	2205      	movs	r2, #5
 800242e:	605a      	str	r2, [r3, #4]
		telegramS.data[0] = s1;
 8002430:	4b85      	ldr	r3, [pc, #532]	; (8002648 <handleVariable_set+0x2b0>)
 8002432:	8bfa      	ldrh	r2, [r7, #30]
 8002434:	811a      	strh	r2, [r3, #8]
		
	
		// send value to setSpeed_task via Queue 
		if ( xQueueSend ( QSpd_handle, (void *)&telegramS, xDelay ) == pdPASS )
 8002436:	4b85      	ldr	r3, [pc, #532]	; (800264c <handleVariable_set+0x2b4>)
 8002438:	681a      	ldr	r2, [r3, #0]
 800243a:	4b85      	ldr	r3, [pc, #532]	; (8002650 <handleVariable_set+0x2b8>)
 800243c:	681b      	ldr	r3, [r3, #0]
 800243e:	4610      	mov	r0, r2
 8002440:	4981      	ldr	r1, [pc, #516]	; (8002648 <handleVariable_set+0x2b0>)
 8002442:	461a      	mov	r2, r3
 8002444:	2300      	movs	r3, #0
 8002446:	f002 fb43 	bl	8004ad0 <xQueueGenericSend>
 800244a:	4603      	mov	r3, r0
 800244c:	2b01      	cmp	r3, #1
 800244e:	d142      	bne.n	80024d6 <handleVariable_set+0x13e>
		{	
					
			if (  xQueueReceive ( QSpd_handle, &telegramR, xDelay)== pdPASS)
 8002450:	4b7e      	ldr	r3, [pc, #504]	; (800264c <handleVariable_set+0x2b4>)
 8002452:	681a      	ldr	r2, [r3, #0]
 8002454:	4b7e      	ldr	r3, [pc, #504]	; (8002650 <handleVariable_set+0x2b8>)
 8002456:	681b      	ldr	r3, [r3, #0]
 8002458:	4610      	mov	r0, r2
 800245a:	497e      	ldr	r1, [pc, #504]	; (8002654 <handleVariable_set+0x2bc>)
 800245c:	461a      	mov	r2, r3
 800245e:	2300      	movs	r3, #0
 8002460:	f002 fc50 	bl	8004d04 <xQueueGenericReceive>
 8002464:	4603      	mov	r3, r0
 8002466:	2b01      	cmp	r3, #1
 8002468:	d124      	bne.n	80024b4 <handleVariable_set+0x11c>
			{
				if ( telegramR.Qcmd == SUCCSESS) 
 800246a:	4b7a      	ldr	r3, [pc, #488]	; (8002654 <handleVariable_set+0x2bc>)
 800246c:	781b      	ldrb	r3, [r3, #0]
 800246e:	2b06      	cmp	r3, #6
 8002470:	d111      	bne.n	8002496 <handleVariable_set+0xfe>
				{	
					sprintf(pcWriteBuffer, "Speed succsesfully set.\n\n");
 8002472:	68fa      	ldr	r2, [r7, #12]
 8002474:	4b78      	ldr	r3, [pc, #480]	; (8002658 <handleVariable_set+0x2c0>)
 8002476:	4615      	mov	r5, r2
 8002478:	461c      	mov	r4, r3
 800247a:	cc0f      	ldmia	r4!, {r0, r1, r2, r3}
 800247c:	6028      	str	r0, [r5, #0]
 800247e:	6069      	str	r1, [r5, #4]
 8002480:	60aa      	str	r2, [r5, #8]
 8002482:	60eb      	str	r3, [r5, #12]
 8002484:	cc03      	ldmia	r4!, {r0, r1}
 8002486:	6128      	str	r0, [r5, #16]
 8002488:	6169      	str	r1, [r5, #20]
 800248a:	8823      	ldrh	r3, [r4, #0]
 800248c:	832b      	strh	r3, [r5, #24]
					xWriteBufferLen = 25; 	
 800248e:	2319      	movs	r3, #25
 8002490:	61bb      	str	r3, [r7, #24]
				//	//send( socket, buf, len, 0);


					return pdPASS;
 8002492:	2301      	movs	r3, #1
 8002494:	e14c      	b.n	8002730 <handleVariable_set+0x398>

				}
				else
				{
					sprintf(pcWriteBuffer, "MODBUS ERROR !!!.\n\n");
 8002496:	68fa      	ldr	r2, [r7, #12]
 8002498:	4b70      	ldr	r3, [pc, #448]	; (800265c <handleVariable_set+0x2c4>)
 800249a:	4615      	mov	r5, r2
 800249c:	461c      	mov	r4, r3
 800249e:	cc0f      	ldmia	r4!, {r0, r1, r2, r3}
 80024a0:	6028      	str	r0, [r5, #0]
 80024a2:	6069      	str	r1, [r5, #4]
 80024a4:	60aa      	str	r2, [r5, #8]
 80024a6:	60eb      	str	r3, [r5, #12]
 80024a8:	6820      	ldr	r0, [r4, #0]
 80024aa:	6128      	str	r0, [r5, #16]
			       		xWriteBufferLen = 19; 	
 80024ac:	2313      	movs	r3, #19
 80024ae:	61bb      	str	r3, [r7, #24]
//					//send( socket, buf, len, 0);

					return pdFALSE;
 80024b0:	2300      	movs	r3, #0
 80024b2:	e13d      	b.n	8002730 <handleVariable_set+0x398>
			else
			{
					// send to Queue was unsuccsessful
				// send error via TCP 
		
				sprintf(pcWriteBuffer, "Error recieving response!\n\n");
 80024b4:	68fa      	ldr	r2, [r7, #12]
 80024b6:	4b6a      	ldr	r3, [pc, #424]	; (8002660 <handleVariable_set+0x2c8>)
 80024b8:	4615      	mov	r5, r2
 80024ba:	461c      	mov	r4, r3
 80024bc:	cc0f      	ldmia	r4!, {r0, r1, r2, r3}
 80024be:	6028      	str	r0, [r5, #0]
 80024c0:	6069      	str	r1, [r5, #4]
 80024c2:	60aa      	str	r2, [r5, #8]
 80024c4:	60eb      	str	r3, [r5, #12]
 80024c6:	cc07      	ldmia	r4!, {r0, r1, r2}
 80024c8:	6128      	str	r0, [r5, #16]
 80024ca:	6169      	str	r1, [r5, #20]
 80024cc:	61aa      	str	r2, [r5, #24]
	 			xWriteBufferLen = 27; 	
 80024ce:	231b      	movs	r3, #27
 80024d0:	61bb      	str	r3, [r7, #24]
				//send( socket_0, buf, len, 0);

				return pdFALSE; 	
 80024d2:	2300      	movs	r3, #0
 80024d4:	e12c      	b.n	8002730 <handleVariable_set+0x398>
		else
		{
			// send to Queue was unsuccsessful
			// send error via TCP 
		
			sprintf(pcWriteBuffer, "Error sending Queue!\n\n");
 80024d6:	68fa      	ldr	r2, [r7, #12]
 80024d8:	4b62      	ldr	r3, [pc, #392]	; (8002664 <handleVariable_set+0x2cc>)
 80024da:	4614      	mov	r4, r2
 80024dc:	461d      	mov	r5, r3
 80024de:	cd0f      	ldmia	r5!, {r0, r1, r2, r3}
 80024e0:	6020      	str	r0, [r4, #0]
 80024e2:	6061      	str	r1, [r4, #4]
 80024e4:	60a2      	str	r2, [r4, #8]
 80024e6:	60e3      	str	r3, [r4, #12]
 80024e8:	6828      	ldr	r0, [r5, #0]
 80024ea:	6120      	str	r0, [r4, #16]
 80024ec:	88aa      	ldrh	r2, [r5, #4]
 80024ee:	79ab      	ldrb	r3, [r5, #6]
 80024f0:	82a2      	strh	r2, [r4, #20]
 80024f2:	75a3      	strb	r3, [r4, #22]
	 		xWriteBufferLen = 22; 	
 80024f4:	2316      	movs	r3, #22
 80024f6:	61bb      	str	r3, [r7, #24]
			//send( socket, buf, len, 0);

			return pdFALSE; 	
 80024f8:	2300      	movs	r3, #0
 80024fa:	e119      	b.n	8002730 <handleVariable_set+0x398>
	
	//================================================================================//
	//		CASE PARAMETER upramp [value]
	//================================================================================//

	if ( !strncmp ( Param, "upramp", 6))
 80024fc:	6878      	ldr	r0, [r7, #4]
 80024fe:	495a      	ldr	r1, [pc, #360]	; (8002668 <handleVariable_set+0x2d0>)
 8002500:	2206      	movs	r2, #6
 8002502:	f006 fc0f 	bl	8008d24 <strncmp>
 8002506:	4603      	mov	r3, r0
 8002508:	2b00      	cmp	r3, #0
 800250a:	d174      	bne.n	80025f6 <handleVariable_set+0x25e>
	{	
	
	
		
		// now convert parameter to proper value and check if it is in range 
        	Value[xValueLength] = '\0'; 	
 800250c:	6bbb      	ldr	r3, [r7, #56]	; 0x38
 800250e:	6b7a      	ldr	r2, [r7, #52]	; 0x34
 8002510:	4413      	add	r3, r2
 8002512:	2200      	movs	r2, #0
 8002514:	701a      	strb	r2, [r3, #0]
		uint16_t s1 = atoi ( Value ); 
 8002516:	6b78      	ldr	r0, [r7, #52]	; 0x34
 8002518:	f006 facc 	bl	8008ab4 <atoi>
 800251c:	4603      	mov	r3, r0
 800251e:	82fb      	strh	r3, [r7, #22]
		// if speed is in range
		if(s1 < 15 ||  s1 > 300 )
 8002520:	8afb      	ldrh	r3, [r7, #22]
 8002522:	2b0e      	cmp	r3, #14
 8002524:	d903      	bls.n	800252e <handleVariable_set+0x196>
 8002526:	8afb      	ldrh	r3, [r7, #22]
 8002528:	f5b3 7f96 	cmp.w	r3, #300	; 0x12c
 800252c:	d909      	bls.n	8002542 <handleVariable_set+0x1aa>
		{
			// send error via TCP
			
			xWriteBufferLen = 100; 
 800252e:	2364      	movs	r3, #100	; 0x64
 8002530:	61bb      	str	r3, [r7, #24]
			sprintf(pcWriteBuffer, "Error: Ramp time is out of range [15,300]s : %d\n\n\0", s1);
 8002532:	8afb      	ldrh	r3, [r7, #22]
 8002534:	68f8      	ldr	r0, [r7, #12]
 8002536:	494d      	ldr	r1, [pc, #308]	; (800266c <handleVariable_set+0x2d4>)
 8002538:	461a      	mov	r2, r3
 800253a:	f000 fe5f 	bl	80031fc <sprintf>
			//send( socket_0, buf, len, 0);

	       		return pdFALSE; 	
 800253e:	2300      	movs	r3, #0
 8002540:	e0f6      	b.n	8002730 <handleVariable_set+0x398>
		}	
	
		telegramS.data[3] = s1; 
 8002542:	4b41      	ldr	r3, [pc, #260]	; (8002648 <handleVariable_set+0x2b0>)
 8002544:	8afa      	ldrh	r2, [r7, #22]
 8002546:	81da      	strh	r2, [r3, #14]
		telegramS.size = 5; 
 8002548:	4b3f      	ldr	r3, [pc, #252]	; (8002648 <handleVariable_set+0x2b0>)
 800254a:	2205      	movs	r2, #5
 800254c:	605a      	str	r2, [r3, #4]
		telegramS.Qcmd = SETDATA;
 800254e:	4b3e      	ldr	r3, [pc, #248]	; (8002648 <handleVariable_set+0x2b0>)
 8002550:	2200      	movs	r2, #0
 8002552:	701a      	strb	r2, [r3, #0]
		
	
		// send value to setSpeed_task via Queue 
		if ( xQueueSend ( QSpd_handle, (void *)&telegramS, xDelay ) == pdPASS )
 8002554:	4b3d      	ldr	r3, [pc, #244]	; (800264c <handleVariable_set+0x2b4>)
 8002556:	681a      	ldr	r2, [r3, #0]
 8002558:	4b3d      	ldr	r3, [pc, #244]	; (8002650 <handleVariable_set+0x2b8>)
 800255a:	681b      	ldr	r3, [r3, #0]
 800255c:	4610      	mov	r0, r2
 800255e:	493a      	ldr	r1, [pc, #232]	; (8002648 <handleVariable_set+0x2b0>)
 8002560:	461a      	mov	r2, r3
 8002562:	2300      	movs	r3, #0
 8002564:	f002 fab4 	bl	8004ad0 <xQueueGenericSend>
 8002568:	4603      	mov	r3, r0
 800256a:	2b01      	cmp	r3, #1
 800256c:	d130      	bne.n	80025d0 <handleVariable_set+0x238>
		{	
					
			if (  xQueueReceive ( QSpd_handle, &telegramR, xDelay))
 800256e:	4b37      	ldr	r3, [pc, #220]	; (800264c <handleVariable_set+0x2b4>)
 8002570:	681a      	ldr	r2, [r3, #0]
 8002572:	4b37      	ldr	r3, [pc, #220]	; (8002650 <handleVariable_set+0x2b8>)
 8002574:	681b      	ldr	r3, [r3, #0]
 8002576:	4610      	mov	r0, r2
 8002578:	4936      	ldr	r1, [pc, #216]	; (8002654 <handleVariable_set+0x2bc>)
 800257a:	461a      	mov	r2, r3
 800257c:	2300      	movs	r3, #0
 800257e:	f002 fbc1 	bl	8004d04 <xQueueGenericReceive>
 8002582:	4603      	mov	r3, r0
 8002584:	2b00      	cmp	r3, #0
 8002586:	d036      	beq.n	80025f6 <handleVariable_set+0x25e>
			{
				if ( telegramR.Qcmd == SUCCSESS) 
 8002588:	4b32      	ldr	r3, [pc, #200]	; (8002654 <handleVariable_set+0x2bc>)
 800258a:	781b      	ldrb	r3, [r3, #0]
 800258c:	2b06      	cmp	r3, #6
 800258e:	d110      	bne.n	80025b2 <handleVariable_set+0x21a>
				{	
					sprintf(pcWriteBuffer, "Up ramp succsesfully set.\n\n");
 8002590:	68fa      	ldr	r2, [r7, #12]
 8002592:	4b37      	ldr	r3, [pc, #220]	; (8002670 <handleVariable_set+0x2d8>)
 8002594:	4615      	mov	r5, r2
 8002596:	461c      	mov	r4, r3
 8002598:	cc0f      	ldmia	r4!, {r0, r1, r2, r3}
 800259a:	6028      	str	r0, [r5, #0]
 800259c:	6069      	str	r1, [r5, #4]
 800259e:	60aa      	str	r2, [r5, #8]
 80025a0:	60eb      	str	r3, [r5, #12]
 80025a2:	cc07      	ldmia	r4!, {r0, r1, r2}
 80025a4:	6128      	str	r0, [r5, #16]
 80025a6:	6169      	str	r1, [r5, #20]
 80025a8:	61aa      	str	r2, [r5, #24]
					xWriteBufferLen = 27; 	
 80025aa:	231b      	movs	r3, #27
 80025ac:	61bb      	str	r3, [r7, #24]
					//send( socket, buf, len, 0);


					return pdPASS;
 80025ae:	2301      	movs	r3, #1
 80025b0:	e0be      	b.n	8002730 <handleVariable_set+0x398>

				}
				else
				{
					sprintf(pcWriteBuffer, "MODBUS ERROR !!!.\n\n");
 80025b2:	68fa      	ldr	r2, [r7, #12]
 80025b4:	4b29      	ldr	r3, [pc, #164]	; (800265c <handleVariable_set+0x2c4>)
 80025b6:	4615      	mov	r5, r2
 80025b8:	461c      	mov	r4, r3
 80025ba:	cc0f      	ldmia	r4!, {r0, r1, r2, r3}
 80025bc:	6028      	str	r0, [r5, #0]
 80025be:	6069      	str	r1, [r5, #4]
 80025c0:	60aa      	str	r2, [r5, #8]
 80025c2:	60eb      	str	r3, [r5, #12]
 80025c4:	6820      	ldr	r0, [r4, #0]
 80025c6:	6128      	str	r0, [r5, #16]
			       		xWriteBufferLen = 19; 	
 80025c8:	2313      	movs	r3, #19
 80025ca:	61bb      	str	r3, [r7, #24]
					//send( socket, buf, len, 0);

					return pdFALSE;
 80025cc:	2300      	movs	r3, #0
 80025ce:	e0af      	b.n	8002730 <handleVariable_set+0x398>
		else
		{
			// send to Queue was unsuccsessful
			// send error via TCP 
		
			sprintf(pcWriteBuffer, "Error sending Queue!\n\n");
 80025d0:	68fa      	ldr	r2, [r7, #12]
 80025d2:	4b24      	ldr	r3, [pc, #144]	; (8002664 <handleVariable_set+0x2cc>)
 80025d4:	4614      	mov	r4, r2
 80025d6:	461d      	mov	r5, r3
 80025d8:	cd0f      	ldmia	r5!, {r0, r1, r2, r3}
 80025da:	6020      	str	r0, [r4, #0]
 80025dc:	6061      	str	r1, [r4, #4]
 80025de:	60a2      	str	r2, [r4, #8]
 80025e0:	60e3      	str	r3, [r4, #12]
 80025e2:	6828      	ldr	r0, [r5, #0]
 80025e4:	6120      	str	r0, [r4, #16]
 80025e6:	88aa      	ldrh	r2, [r5, #4]
 80025e8:	79ab      	ldrb	r3, [r5, #6]
 80025ea:	82a2      	strh	r2, [r4, #20]
 80025ec:	75a3      	strb	r3, [r4, #22]
	 		xWriteBufferLen = 22; 	
 80025ee:	2316      	movs	r3, #22
 80025f0:	61bb      	str	r3, [r7, #24]
			//send( socket, buf, len, 0);

			return pdFALSE; 	
 80025f2:	2300      	movs	r3, #0
 80025f4:	e09c      	b.n	8002730 <handleVariable_set+0x398>

	//================================================================================//
	//		CASE PARAMETER downramp [value]
	//================================================================================//

	if ( !strncmp ( Param, "downramp", 8))
 80025f6:	6878      	ldr	r0, [r7, #4]
 80025f8:	491e      	ldr	r1, [pc, #120]	; (8002674 <handleVariable_set+0x2dc>)
 80025fa:	2208      	movs	r2, #8
 80025fc:	f006 fb92 	bl	8008d24 <strncmp>
 8002600:	4603      	mov	r3, r0
 8002602:	2b00      	cmp	r3, #0
 8002604:	f040 8094 	bne.w	8002730 <handleVariable_set+0x398>
	{	
	
		// now convert parameter to proper value and check if it is in range 
        	Value[xValueLength] = '\0'; 	
 8002608:	6bbb      	ldr	r3, [r7, #56]	; 0x38
 800260a:	6b7a      	ldr	r2, [r7, #52]	; 0x34
 800260c:	4413      	add	r3, r2
 800260e:	2200      	movs	r2, #0
 8002610:	701a      	strb	r2, [r3, #0]
		uint16_t s1 = atoi ( Value ); 
 8002612:	6b78      	ldr	r0, [r7, #52]	; 0x34
 8002614:	f006 fa4e 	bl	8008ab4 <atoi>
 8002618:	4603      	mov	r3, r0
 800261a:	82bb      	strh	r3, [r7, #20]
		// if speed is in range
		if(s1 < 15 ||  s1 > 300 )
 800261c:	8abb      	ldrh	r3, [r7, #20]
 800261e:	2b0e      	cmp	r3, #14
 8002620:	d903      	bls.n	800262a <handleVariable_set+0x292>
 8002622:	8abb      	ldrh	r3, [r7, #20]
 8002624:	f5b3 7f96 	cmp.w	r3, #300	; 0x12c
 8002628:	d926      	bls.n	8002678 <handleVariable_set+0x2e0>
		{
			// send error via TCP
			
			xWriteBufferLen = 100; 
 800262a:	2364      	movs	r3, #100	; 0x64
 800262c:	61bb      	str	r3, [r7, #24]
			sprintf(pcWriteBuffer, "Error: Ramp time is out of range [15,300]s : %d\n\n\0", s1);
 800262e:	8abb      	ldrh	r3, [r7, #20]
 8002630:	68f8      	ldr	r0, [r7, #12]
 8002632:	490e      	ldr	r1, [pc, #56]	; (800266c <handleVariable_set+0x2d4>)
 8002634:	461a      	mov	r2, r3
 8002636:	f000 fde1 	bl	80031fc <sprintf>
			//send( socket_0, buf, len, 0);

	       		return pdFALSE; 	
 800263a:	2300      	movs	r3, #0
 800263c:	e078      	b.n	8002730 <handleVariable_set+0x398>
 800263e:	bf00      	nop
 8002640:	080091fc 	.word	0x080091fc
 8002644:	08009204 	.word	0x08009204
 8002648:	20014470 	.word	0x20014470
 800264c:	20013270 	.word	0x20013270
 8002650:	20000000 	.word	0x20000000
 8002654:	20014454 	.word	0x20014454
 8002658:	08009234 	.word	0x08009234
 800265c:	08009250 	.word	0x08009250
 8002660:	08009264 	.word	0x08009264
 8002664:	08009280 	.word	0x08009280
 8002668:	08009298 	.word	0x08009298
 800266c:	080092a0 	.word	0x080092a0
 8002670:	080092d4 	.word	0x080092d4
 8002674:	080092f0 	.word	0x080092f0
		}	
	
		telegramS.data[3] = s1; 
 8002678:	4b2f      	ldr	r3, [pc, #188]	; (8002738 <handleVariable_set+0x3a0>)
 800267a:	8aba      	ldrh	r2, [r7, #20]
 800267c:	81da      	strh	r2, [r3, #14]
		telegramS.size = 5; 
 800267e:	4b2e      	ldr	r3, [pc, #184]	; (8002738 <handleVariable_set+0x3a0>)
 8002680:	2205      	movs	r2, #5
 8002682:	605a      	str	r2, [r3, #4]
		telegramS.Qcmd = SETDATA;
 8002684:	4b2c      	ldr	r3, [pc, #176]	; (8002738 <handleVariable_set+0x3a0>)
 8002686:	2200      	movs	r2, #0
 8002688:	701a      	strb	r2, [r3, #0]
		
	
		// send value to setSpeed_task via Queue 
		if ( xQueueSend ( QSpd_handle, (void *)&telegramS, xDelay ) == pdPASS )
 800268a:	4b2c      	ldr	r3, [pc, #176]	; (800273c <handleVariable_set+0x3a4>)
 800268c:	681a      	ldr	r2, [r3, #0]
 800268e:	4b2c      	ldr	r3, [pc, #176]	; (8002740 <handleVariable_set+0x3a8>)
 8002690:	681b      	ldr	r3, [r3, #0]
 8002692:	4610      	mov	r0, r2
 8002694:	4928      	ldr	r1, [pc, #160]	; (8002738 <handleVariable_set+0x3a0>)
 8002696:	461a      	mov	r2, r3
 8002698:	2300      	movs	r3, #0
 800269a:	f002 fa19 	bl	8004ad0 <xQueueGenericSend>
 800269e:	4603      	mov	r3, r0
 80026a0:	2b01      	cmp	r3, #1
 80026a2:	d132      	bne.n	800270a <handleVariable_set+0x372>
		{	
					
			if (  xQueueReceive ( QSpd_handle, &telegramR, xDelay))
 80026a4:	4b25      	ldr	r3, [pc, #148]	; (800273c <handleVariable_set+0x3a4>)
 80026a6:	681a      	ldr	r2, [r3, #0]
 80026a8:	4b25      	ldr	r3, [pc, #148]	; (8002740 <handleVariable_set+0x3a8>)
 80026aa:	681b      	ldr	r3, [r3, #0]
 80026ac:	4610      	mov	r0, r2
 80026ae:	4925      	ldr	r1, [pc, #148]	; (8002744 <handleVariable_set+0x3ac>)
 80026b0:	461a      	mov	r2, r3
 80026b2:	2300      	movs	r3, #0
 80026b4:	f002 fb26 	bl	8004d04 <xQueueGenericReceive>
 80026b8:	4603      	mov	r3, r0
 80026ba:	2b00      	cmp	r3, #0
 80026bc:	d038      	beq.n	8002730 <handleVariable_set+0x398>
			{
				if ( telegramR.Qcmd == SUCCSESS) 
 80026be:	4b21      	ldr	r3, [pc, #132]	; (8002744 <handleVariable_set+0x3ac>)
 80026c0:	781b      	ldrb	r3, [r3, #0]
 80026c2:	2b06      	cmp	r3, #6
 80026c4:	d112      	bne.n	80026ec <handleVariable_set+0x354>
				{	
					sprintf(pcWriteBuffer, "Down ramp succsesfully set.\n\n");
 80026c6:	68fa      	ldr	r2, [r7, #12]
 80026c8:	4b1f      	ldr	r3, [pc, #124]	; (8002748 <handleVariable_set+0x3b0>)
 80026ca:	4615      	mov	r5, r2
 80026cc:	461c      	mov	r4, r3
 80026ce:	cc0f      	ldmia	r4!, {r0, r1, r2, r3}
 80026d0:	6028      	str	r0, [r5, #0]
 80026d2:	6069      	str	r1, [r5, #4]
 80026d4:	60aa      	str	r2, [r5, #8]
 80026d6:	60eb      	str	r3, [r5, #12]
 80026d8:	cc07      	ldmia	r4!, {r0, r1, r2}
 80026da:	6128      	str	r0, [r5, #16]
 80026dc:	6169      	str	r1, [r5, #20]
 80026de:	61aa      	str	r2, [r5, #24]
 80026e0:	8823      	ldrh	r3, [r4, #0]
 80026e2:	83ab      	strh	r3, [r5, #28]
					xWriteBufferLen = 29; 	
 80026e4:	231d      	movs	r3, #29
 80026e6:	61bb      	str	r3, [r7, #24]
					//send( socket, buf, len, 0);


					return pdPASS;
 80026e8:	2301      	movs	r3, #1
 80026ea:	e021      	b.n	8002730 <handleVariable_set+0x398>

				}
				else
				{
					sprintf(pcWriteBuffer, "MODBUS ERROR !!!.\n\n");
 80026ec:	68fa      	ldr	r2, [r7, #12]
 80026ee:	4b17      	ldr	r3, [pc, #92]	; (800274c <handleVariable_set+0x3b4>)
 80026f0:	4615      	mov	r5, r2
 80026f2:	461c      	mov	r4, r3
 80026f4:	cc0f      	ldmia	r4!, {r0, r1, r2, r3}
 80026f6:	6028      	str	r0, [r5, #0]
 80026f8:	6069      	str	r1, [r5, #4]
 80026fa:	60aa      	str	r2, [r5, #8]
 80026fc:	60eb      	str	r3, [r5, #12]
 80026fe:	6820      	ldr	r0, [r4, #0]
 8002700:	6128      	str	r0, [r5, #16]
			       		xWriteBufferLen = 19; 	
 8002702:	2313      	movs	r3, #19
 8002704:	61bb      	str	r3, [r7, #24]
					//send( socket, buf, len, 0);

					return pdFALSE;
 8002706:	2300      	movs	r3, #0
 8002708:	e012      	b.n	8002730 <handleVariable_set+0x398>
		else
		{
			// send to Queue was unsuccsessful
			// send error via TCP 
		
			sprintf(pcWriteBuffer, "Error sending Queue!\n\n");
 800270a:	68fa      	ldr	r2, [r7, #12]
 800270c:	4b10      	ldr	r3, [pc, #64]	; (8002750 <handleVariable_set+0x3b8>)
 800270e:	4614      	mov	r4, r2
 8002710:	461d      	mov	r5, r3
 8002712:	cd0f      	ldmia	r5!, {r0, r1, r2, r3}
 8002714:	6020      	str	r0, [r4, #0]
 8002716:	6061      	str	r1, [r4, #4]
 8002718:	60a2      	str	r2, [r4, #8]
 800271a:	60e3      	str	r3, [r4, #12]
 800271c:	6828      	ldr	r0, [r5, #0]
 800271e:	6120      	str	r0, [r4, #16]
 8002720:	88aa      	ldrh	r2, [r5, #4]
 8002722:	79ab      	ldrb	r3, [r5, #6]
 8002724:	82a2      	strh	r2, [r4, #20]
 8002726:	75a3      	strb	r3, [r4, #22]
	 		xWriteBufferLen = 22; 	
 8002728:	2316      	movs	r3, #22
 800272a:	61bb      	str	r3, [r7, #24]
			//send( socket, buf, len, 0);

			return pdFALSE; 	
 800272c:	2300      	movs	r3, #0
 800272e:	e7ff      	b.n	8002730 <handleVariable_set+0x398>
		
		

	}
			
}
 8002730:	4618      	mov	r0, r3
 8002732:	3720      	adds	r7, #32
 8002734:	46bd      	mov	sp, r7
 8002736:	bdb0      	pop	{r4, r5, r7, pc}
 8002738:	20014470 	.word	0x20014470
 800273c:	20013270 	.word	0x20013270
 8002740:	20000000 	.word	0x20000000
 8002744:	20014454 	.word	0x20014454
 8002748:	080092fc 	.word	0x080092fc
 800274c:	08009250 	.word	0x08009250
 8002750:	08009280 	.word	0x08009280

08002754 <handleVariable_get>:
				size_t xWriteBufferLen,
				uint8_t * Param, 
				int xParamLength,
				xQueueHandle Qhandle,
				int socket )
{
 8002754:	b5b0      	push	{r4, r5, r7, lr}
 8002756:	b086      	sub	sp, #24
 8002758:	af00      	add	r7, sp, #0
 800275a:	60f8      	str	r0, [r7, #12]
 800275c:	60b9      	str	r1, [r7, #8]
 800275e:	607a      	str	r2, [r7, #4]
 8002760:	603b      	str	r3, [r7, #0]

	//================================================================================//
	//		CASE PARAMETER speed [value]
	//================================================================================//

	if ( !strncmp ( Param, "speed", 5))
 8002762:	6878      	ldr	r0, [r7, #4]
 8002764:	493b      	ldr	r1, [pc, #236]	; (8002854 <handleVariable_get+0x100>)
 8002766:	2205      	movs	r2, #5
 8002768:	f006 fadc 	bl	8008d24 <strncmp>
 800276c:	4603      	mov	r3, r0
 800276e:	2b00      	cmp	r3, #0
 8002770:	d16c      	bne.n	800284c <handleVariable_get+0xf8>
	{	
	
		telegramS.Qcmd = GETDATA; 
 8002772:	4b39      	ldr	r3, [pc, #228]	; (8002858 <handleVariable_get+0x104>)
 8002774:	2201      	movs	r2, #1
 8002776:	701a      	strb	r2, [r3, #0]
		
	
		// send value to setSpeed_task via Queue 
		if ( xQueueSend ( QSpd_handle, (void *)&telegramS, xDelay ) == pdPASS )
 8002778:	4b38      	ldr	r3, [pc, #224]	; (800285c <handleVariable_get+0x108>)
 800277a:	681a      	ldr	r2, [r3, #0]
 800277c:	4b38      	ldr	r3, [pc, #224]	; (8002860 <handleVariable_get+0x10c>)
 800277e:	681b      	ldr	r3, [r3, #0]
 8002780:	4610      	mov	r0, r2
 8002782:	4935      	ldr	r1, [pc, #212]	; (8002858 <handleVariable_get+0x104>)
 8002784:	461a      	mov	r2, r3
 8002786:	2300      	movs	r3, #0
 8002788:	f002 f9a2 	bl	8004ad0 <xQueueGenericSend>
 800278c:	4603      	mov	r3, r0
 800278e:	2b01      	cmp	r3, #1
 8002790:	d149      	bne.n	8002826 <handleVariable_get+0xd2>
		{	
					
			if (  xQueueReceive ( QSpd_handle, &telegramR, xDelay)== pdPASS)
 8002792:	4b32      	ldr	r3, [pc, #200]	; (800285c <handleVariable_get+0x108>)
 8002794:	681a      	ldr	r2, [r3, #0]
 8002796:	4b32      	ldr	r3, [pc, #200]	; (8002860 <handleVariable_get+0x10c>)
 8002798:	681b      	ldr	r3, [r3, #0]
 800279a:	4610      	mov	r0, r2
 800279c:	4931      	ldr	r1, [pc, #196]	; (8002864 <handleVariable_get+0x110>)
 800279e:	461a      	mov	r2, r3
 80027a0:	2300      	movs	r3, #0
 80027a2:	f002 faaf 	bl	8004d04 <xQueueGenericReceive>
 80027a6:	4603      	mov	r3, r0
 80027a8:	2b01      	cmp	r3, #1
 80027aa:	d12b      	bne.n	8002804 <handleVariable_get+0xb0>
			{
				if ( telegramR.Qcmd == SUCCSESS) 
 80027ac:	4b2d      	ldr	r3, [pc, #180]	; (8002864 <handleVariable_get+0x110>)
 80027ae:	781b      	ldrb	r3, [r3, #0]
 80027b0:	2b06      	cmp	r3, #6
 80027b2:	d118      	bne.n	80027e6 <handleVariable_get+0x92>
				{	
					sprintf(pcWriteBuffer, "Speed is  %2d.%2dp \n\n\0", 
					telegramR.data[3]/100,
 80027b4:	4b2b      	ldr	r3, [pc, #172]	; (8002864 <handleVariable_get+0x110>)
 80027b6:	89da      	ldrh	r2, [r3, #14]
					
			if (  xQueueReceive ( QSpd_handle, &telegramR, xDelay)== pdPASS)
			{
				if ( telegramR.Qcmd == SUCCSESS) 
				{	
					sprintf(pcWriteBuffer, "Speed is  %2d.%2dp \n\n\0", 
 80027b8:	4b2b      	ldr	r3, [pc, #172]	; (8002868 <handleVariable_get+0x114>)
 80027ba:	fba3 0302 	umull	r0, r3, r3, r2
 80027be:	095b      	lsrs	r3, r3, #5
 80027c0:	b29b      	uxth	r3, r3
 80027c2:	461a      	mov	r2, r3
					telegramR.data[3]/100,
					telegramR.data[3] % 100);
 80027c4:	4b27      	ldr	r3, [pc, #156]	; (8002864 <handleVariable_get+0x110>)
 80027c6:	89db      	ldrh	r3, [r3, #14]
					
			if (  xQueueReceive ( QSpd_handle, &telegramR, xDelay)== pdPASS)
			{
				if ( telegramR.Qcmd == SUCCSESS) 
				{	
					sprintf(pcWriteBuffer, "Speed is  %2d.%2dp \n\n\0", 
 80027c8:	4927      	ldr	r1, [pc, #156]	; (8002868 <handleVariable_get+0x114>)
 80027ca:	fba1 0103 	umull	r0, r1, r1, r3
 80027ce:	0949      	lsrs	r1, r1, #5
 80027d0:	2064      	movs	r0, #100	; 0x64
 80027d2:	fb00 f101 	mul.w	r1, r0, r1
 80027d6:	1a5b      	subs	r3, r3, r1
 80027d8:	b29b      	uxth	r3, r3
 80027da:	68f8      	ldr	r0, [r7, #12]
 80027dc:	4923      	ldr	r1, [pc, #140]	; (800286c <handleVariable_get+0x118>)
 80027de:	f000 fd0d 	bl	80031fc <sprintf>
					telegramR.data[3] % 100);
				
					//send( socket, buf, len, 0);


					return pdPASS;
 80027e2:	2301      	movs	r3, #1
 80027e4:	e032      	b.n	800284c <handleVariable_get+0xf8>

				}
				else
				{
					sprintf(pcWriteBuffer, "MODBUS ERROR !!!.\n\n");
 80027e6:	68fa      	ldr	r2, [r7, #12]
 80027e8:	4b21      	ldr	r3, [pc, #132]	; (8002870 <handleVariable_get+0x11c>)
 80027ea:	4615      	mov	r5, r2
 80027ec:	461c      	mov	r4, r3
 80027ee:	cc0f      	ldmia	r4!, {r0, r1, r2, r3}
 80027f0:	6028      	str	r0, [r5, #0]
 80027f2:	6069      	str	r1, [r5, #4]
 80027f4:	60aa      	str	r2, [r5, #8]
 80027f6:	60eb      	str	r3, [r5, #12]
 80027f8:	6820      	ldr	r0, [r4, #0]
 80027fa:	6128      	str	r0, [r5, #16]
			       		xWriteBufferLen = 19; 	
 80027fc:	2313      	movs	r3, #19
 80027fe:	617b      	str	r3, [r7, #20]
					//send( socket, buf, len, 0);

					return pdFALSE;
 8002800:	2300      	movs	r3, #0
 8002802:	e023      	b.n	800284c <handleVariable_get+0xf8>
			else
			{
					// send to Queue was unsuccsessful
				// send error via TCP 
		
				sprintf(pcWriteBuffer, "Error recieving response!\n\n");
 8002804:	68fa      	ldr	r2, [r7, #12]
 8002806:	4b1b      	ldr	r3, [pc, #108]	; (8002874 <handleVariable_get+0x120>)
 8002808:	4615      	mov	r5, r2
 800280a:	461c      	mov	r4, r3
 800280c:	cc0f      	ldmia	r4!, {r0, r1, r2, r3}
 800280e:	6028      	str	r0, [r5, #0]
 8002810:	6069      	str	r1, [r5, #4]
 8002812:	60aa      	str	r2, [r5, #8]
 8002814:	60eb      	str	r3, [r5, #12]
 8002816:	cc07      	ldmia	r4!, {r0, r1, r2}
 8002818:	6128      	str	r0, [r5, #16]
 800281a:	6169      	str	r1, [r5, #20]
 800281c:	61aa      	str	r2, [r5, #24]
	 			xWriteBufferLen = 27; 	
 800281e:	231b      	movs	r3, #27
 8002820:	617b      	str	r3, [r7, #20]
				//send( socket_0, buf, len, 0);

				return pdFALSE; 	
 8002822:	2300      	movs	r3, #0
 8002824:	e012      	b.n	800284c <handleVariable_get+0xf8>
		else
		{
			// send to Queue was unsuccsessful
			// send error via TCP 
		
			sprintf(pcWriteBuffer, "Error sending Queue!\n\n");
 8002826:	68fa      	ldr	r2, [r7, #12]
 8002828:	4b13      	ldr	r3, [pc, #76]	; (8002878 <handleVariable_get+0x124>)
 800282a:	4614      	mov	r4, r2
 800282c:	461d      	mov	r5, r3
 800282e:	cd0f      	ldmia	r5!, {r0, r1, r2, r3}
 8002830:	6020      	str	r0, [r4, #0]
 8002832:	6061      	str	r1, [r4, #4]
 8002834:	60a2      	str	r2, [r4, #8]
 8002836:	60e3      	str	r3, [r4, #12]
 8002838:	6828      	ldr	r0, [r5, #0]
 800283a:	6120      	str	r0, [r4, #16]
 800283c:	88aa      	ldrh	r2, [r5, #4]
 800283e:	79ab      	ldrb	r3, [r5, #6]
 8002840:	82a2      	strh	r2, [r4, #20]
 8002842:	75a3      	strb	r3, [r4, #22]
	 		xWriteBufferLen = 22; 	
 8002844:	2316      	movs	r3, #22
 8002846:	617b      	str	r3, [r7, #20]
			//send( socket, buf, len, 0);

			return pdFALSE; 	
 8002848:	2300      	movs	r3, #0
 800284a:	e7ff      	b.n	800284c <handleVariable_get+0xf8>
		}
	}
	


}
 800284c:	4618      	mov	r0, r3
 800284e:	3718      	adds	r7, #24
 8002850:	46bd      	mov	sp, r7
 8002852:	bdb0      	pop	{r4, r5, r7, pc}
 8002854:	080091fc 	.word	0x080091fc
 8002858:	20014470 	.word	0x20014470
 800285c:	20013270 	.word	0x20013270
 8002860:	20000000 	.word	0x20000000
 8002864:	20014454 	.word	0x20014454
 8002868:	51eb851f 	.word	0x51eb851f
 800286c:	0800931c 	.word	0x0800931c
 8002870:	08009250 	.word	0x08009250
 8002874:	08009264 	.word	0x08009264
 8002878:	08009280 	.word	0x08009280

0800287c <prvMotorCommand>:
 * ==============================================================================================*/

portBASE_TYPE prvMotorCommand ( 	int8_t *pcWriteBuffer, 
						size_t xWriteBufferLen, 
						const int8_t *pcCommandString)
{
 800287c:	e92d 41f0 	stmdb	sp!, {r4, r5, r6, r7, r8, lr}
 8002880:	b090      	sub	sp, #64	; 0x40
 8002882:	af06      	add	r7, sp, #24
 8002884:	60f8      	str	r0, [r7, #12]
 8002886:	60b9      	str	r1, [r7, #8]
 8002888:	607a      	str	r2, [r7, #4]
	int xOptionLength, xParamLength, xValueLength; 
	//QueueTelegram telegram; 
	
	// get option from command line 

	Option = FreeRTOS_CLIGetParameter( pcCommandString, // command string 
 800288a:	f107 0318 	add.w	r3, r7, #24
 800288e:	6878      	ldr	r0, [r7, #4]
 8002890:	2101      	movs	r1, #1
 8002892:	461a      	mov	r2, r3
 8002894:	f003 fb74 	bl	8005f80 <FreeRTOS_CLIGetParameter>
 8002898:	6278      	str	r0, [r7, #36]	; 0x24
					  1,  		   // first parameter
				  	  &xOptionLength // parameter string length
					  
					 );

	if ( Option == NULL)
 800289a:	6a7b      	ldr	r3, [r7, #36]	; 0x24
 800289c:	2b00      	cmp	r3, #0
 800289e:	d10e      	bne.n	80028be <prvMotorCommand+0x42>
	{
		sprintf(pcWriteBuffer, "To few arguments. \n\n\0");
 80028a0:	68fa      	ldr	r2, [r7, #12]
 80028a2:	4b9c      	ldr	r3, [pc, #624]	; (8002b14 <prvMotorCommand+0x298>)
 80028a4:	4615      	mov	r5, r2
 80028a6:	461c      	mov	r4, r3
 80028a8:	cc0f      	ldmia	r4!, {r0, r1, r2, r3}
 80028aa:	6028      	str	r0, [r5, #0]
 80028ac:	6069      	str	r1, [r5, #4]
 80028ae:	60aa      	str	r2, [r5, #8]
 80028b0:	60eb      	str	r3, [r5, #12]
 80028b2:	6820      	ldr	r0, [r4, #0]
 80028b4:	6128      	str	r0, [r5, #16]
 80028b6:	7923      	ldrb	r3, [r4, #4]
 80028b8:	752b      	strb	r3, [r5, #20]
		return pdFALSE;
 80028ba:	2300      	movs	r3, #0
 80028bc:	e236      	b.n	8002d2c <prvMotorCommand+0x4b0>
	}

	if (!strncmp(Option, "help", 4))
 80028be:	6a78      	ldr	r0, [r7, #36]	; 0x24
 80028c0:	4995      	ldr	r1, [pc, #596]	; (8002b18 <prvMotorCommand+0x29c>)
 80028c2:	2204      	movs	r2, #4
 80028c4:	f006 fa2e 	bl	8008d24 <strncmp>
 80028c8:	4603      	mov	r3, r0
 80028ca:	2b00      	cmp	r3, #0
 80028cc:	d10b      	bne.n	80028e6 <prvMotorCommand+0x6a>
	{
		strcpy(pcWriteBuffer, 
 80028ce:	68fa      	ldr	r2, [r7, #12]
 80028d0:	4b92      	ldr	r3, [pc, #584]	; (8002b1c <prvMotorCommand+0x2a0>)
 80028d2:	4611      	mov	r1, r2
 80028d4:	461a      	mov	r2, r3
 80028d6:	23bc      	movs	r3, #188	; 0xbc
 80028d8:	4608      	mov	r0, r1
 80028da:	4611      	mov	r1, r2
 80028dc:	461a      	mov	r2, r3
 80028de:	f7fd fc7d 	bl	80001dc <memcpy>
			
			"\0"

		      );

		return pdPASS;
 80028e2:	2301      	movs	r3, #1
 80028e4:	e222      	b.n	8002d2c <prvMotorCommand+0x4b0>

	//================================================================================//
	//		CASE COMMAND SET [parameter name] [value]
	//================================================================================//

	if( !strncmp( Option, "set", 3) ) 
 80028e6:	6a78      	ldr	r0, [r7, #36]	; 0x24
 80028e8:	498d      	ldr	r1, [pc, #564]	; (8002b20 <prvMotorCommand+0x2a4>)
 80028ea:	2203      	movs	r2, #3
 80028ec:	f006 fa1a 	bl	8008d24 <strncmp>
 80028f0:	4603      	mov	r3, r0
 80028f2:	2b00      	cmp	r3, #0
 80028f4:	d133      	bne.n	800295e <prvMotorCommand+0xe2>
	{

		// get parameter from command line 
	
		Param = FreeRTOS_CLIGetParameter( pcCommandString, // command string 
 80028f6:	f107 0314 	add.w	r3, r7, #20
 80028fa:	6878      	ldr	r0, [r7, #4]
 80028fc:	2102      	movs	r1, #2
 80028fe:	461a      	mov	r2, r3
 8002900:	f003 fb3e 	bl	8005f80 <FreeRTOS_CLIGetParameter>
 8002904:	6238      	str	r0, [r7, #32]
					  2,  		   // 2nd parameter
				  	  &xParamLength // parameter string length
					  
					 );
		Value = FreeRTOS_CLIGetParameter( pcCommandString, // command string 
 8002906:	f107 0310 	add.w	r3, r7, #16
 800290a:	6878      	ldr	r0, [r7, #4]
 800290c:	2103      	movs	r1, #3
 800290e:	461a      	mov	r2, r3
 8002910:	f003 fb36 	bl	8005f80 <FreeRTOS_CLIGetParameter>
 8002914:	61f8      	str	r0, [r7, #28]
					  
					 );
		
		// return pdFALSE if there is no 3rd parameter 

		if (Value==NULL||Param==NULL)
 8002916:	69fb      	ldr	r3, [r7, #28]
 8002918:	2b00      	cmp	r3, #0
 800291a:	d002      	beq.n	8002922 <prvMotorCommand+0xa6>
 800291c:	6a3b      	ldr	r3, [r7, #32]
 800291e:	2b00      	cmp	r3, #0
 8002920:	d106      	bne.n	8002930 <prvMotorCommand+0xb4>
		{
			strcpy(pcWriteBuffer, xMotorCommand.pcHelpString);
 8002922:	4b80      	ldr	r3, [pc, #512]	; (8002b24 <prvMotorCommand+0x2a8>)
 8002924:	68f8      	ldr	r0, [r7, #12]
 8002926:	4619      	mov	r1, r3
 8002928:	f006 f96e 	bl	8008c08 <strcpy>

			return pdFALSE; 
 800292c:	2300      	movs	r3, #0
 800292e:	e1fd      	b.n	8002d2c <prvMotorCommand+0x4b0>

		}

		
		if ( handleVariable_set ( 
 8002930:	697b      	ldr	r3, [r7, #20]
 8002932:	4a7d      	ldr	r2, [pc, #500]	; (8002b28 <prvMotorCommand+0x2ac>)
 8002934:	6810      	ldr	r0, [r2, #0]
 8002936:	6939      	ldr	r1, [r7, #16]
 8002938:	4a7c      	ldr	r2, [pc, #496]	; (8002b2c <prvMotorCommand+0x2b0>)
 800293a:	6812      	ldr	r2, [r2, #0]
 800293c:	9000      	str	r0, [sp, #0]
 800293e:	69f8      	ldr	r0, [r7, #28]
 8002940:	9001      	str	r0, [sp, #4]
 8002942:	9102      	str	r1, [sp, #8]
 8002944:	9203      	str	r2, [sp, #12]
 8002946:	68f8      	ldr	r0, [r7, #12]
 8002948:	68b9      	ldr	r1, [r7, #8]
 800294a:	6a3a      	ldr	r2, [r7, #32]
 800294c:	f7ff fd24 	bl	8002398 <handleVariable_set>
 8002950:	4603      	mov	r3, r0
 8002952:	2b00      	cmp	r3, #0
 8002954:	d001      	beq.n	800295a <prvMotorCommand+0xde>
					   Param, 
					   xParamLength, 
					   QSpd_handle, 
					   Value,
					   xValueLength,  
					   socket_0)) return pdPASS;
 8002956:	2301      	movs	r3, #1
 8002958:	e1e8      	b.n	8002d2c <prvMotorCommand+0x4b0>

		
			
		return pdFALSE;
 800295a:	2300      	movs	r3, #0
 800295c:	e1e6      	b.n	8002d2c <prvMotorCommand+0x4b0>
	//================================================================================//
	//		CASE COMMAND GET [parameter name] [value]
	//================================================================================//


	if (!strncmp ( Option, "get", 3))
 800295e:	6a78      	ldr	r0, [r7, #36]	; 0x24
 8002960:	4973      	ldr	r1, [pc, #460]	; (8002b30 <prvMotorCommand+0x2b4>)
 8002962:	2203      	movs	r2, #3
 8002964:	f006 f9de 	bl	8008d24 <strncmp>
 8002968:	4603      	mov	r3, r0
 800296a:	2b00      	cmp	r3, #0
 800296c:	f040 80f4 	bne.w	8002b58 <prvMotorCommand+0x2dc>
	{
		// get parameter from command line 
	
		Param = FreeRTOS_CLIGetParameter( pcCommandString, // command string 
 8002970:	f107 0314 	add.w	r3, r7, #20
 8002974:	6878      	ldr	r0, [r7, #4]
 8002976:	2102      	movs	r1, #2
 8002978:	461a      	mov	r2, r3
 800297a:	f003 fb01 	bl	8005f80 <FreeRTOS_CLIGetParameter>
 800297e:	6238      	str	r0, [r7, #32]
					  
					 );
			
		// return pdFALSE if there is no 3rd parameter 

		if(Param==NULL)
 8002980:	6a3b      	ldr	r3, [r7, #32]
 8002982:	2b00      	cmp	r3, #0
 8002984:	f040 80b3 	bne.w	8002aee <prvMotorCommand+0x272>
		{
			telegramS.Qcmd = GETDATA;
 8002988:	4b6a      	ldr	r3, [pc, #424]	; (8002b34 <prvMotorCommand+0x2b8>)
 800298a:	2201      	movs	r2, #1
 800298c:	701a      	strb	r2, [r3, #0]
		
			if ( xQueueSend ( QSpd_handle, (void *)&telegramS, xDelay ) )
 800298e:	4b66      	ldr	r3, [pc, #408]	; (8002b28 <prvMotorCommand+0x2ac>)
 8002990:	681a      	ldr	r2, [r3, #0]
 8002992:	4b69      	ldr	r3, [pc, #420]	; (8002b38 <prvMotorCommand+0x2bc>)
 8002994:	681b      	ldr	r3, [r3, #0]
 8002996:	4610      	mov	r0, r2
 8002998:	4966      	ldr	r1, [pc, #408]	; (8002b34 <prvMotorCommand+0x2b8>)
 800299a:	461a      	mov	r2, r3
 800299c:	2300      	movs	r3, #0
 800299e:	f002 f897 	bl	8004ad0 <xQueueGenericSend>
 80029a2:	4603      	mov	r3, r0
 80029a4:	2b00      	cmp	r3, #0
 80029a6:	f000 808f 	beq.w	8002ac8 <prvMotorCommand+0x24c>
			{	
					
				if (  xQueueReceive ( QSpd_handle, &telegramR, xDelay)== pdPASS)
 80029aa:	4b5f      	ldr	r3, [pc, #380]	; (8002b28 <prvMotorCommand+0x2ac>)
 80029ac:	681a      	ldr	r2, [r3, #0]
 80029ae:	4b62      	ldr	r3, [pc, #392]	; (8002b38 <prvMotorCommand+0x2bc>)
 80029b0:	681b      	ldr	r3, [r3, #0]
 80029b2:	4610      	mov	r0, r2
 80029b4:	4961      	ldr	r1, [pc, #388]	; (8002b3c <prvMotorCommand+0x2c0>)
 80029b6:	461a      	mov	r2, r3
 80029b8:	2300      	movs	r3, #0
 80029ba:	f002 f9a3 	bl	8004d04 <xQueueGenericReceive>
 80029be:	4603      	mov	r3, r0
 80029c0:	2b01      	cmp	r3, #1
 80029c2:	d170      	bne.n	8002aa6 <prvMotorCommand+0x22a>
				{
					if ( telegramR.Qcmd == SUCCSESS) 
 80029c4:	4b5d      	ldr	r3, [pc, #372]	; (8002b3c <prvMotorCommand+0x2c0>)
 80029c6:	781b      	ldrb	r3, [r3, #0]
 80029c8:	2b06      	cmp	r3, #6
 80029ca:	d15d      	bne.n	8002a88 <prvMotorCommand+0x20c>
					{
					sprintf(pcWriteBuffer, "Speed is  %2d.%2dp \n\n\0", 
					telegramR.data[3]/100,
 80029cc:	4b5b      	ldr	r3, [pc, #364]	; (8002b3c <prvMotorCommand+0x2c0>)
 80029ce:	89da      	ldrh	r2, [r3, #14]
					
				if (  xQueueReceive ( QSpd_handle, &telegramR, xDelay)== pdPASS)
				{
					if ( telegramR.Qcmd == SUCCSESS) 
					{
					sprintf(pcWriteBuffer, "Speed is  %2d.%2dp \n\n\0", 
 80029d0:	4b5b      	ldr	r3, [pc, #364]	; (8002b40 <prvMotorCommand+0x2c4>)
 80029d2:	fba3 0302 	umull	r0, r3, r3, r2
 80029d6:	095b      	lsrs	r3, r3, #5
 80029d8:	b29b      	uxth	r3, r3
 80029da:	461a      	mov	r2, r3
					telegramR.data[3]/100,
					telegramR.data[3] % 100);
 80029dc:	4b57      	ldr	r3, [pc, #348]	; (8002b3c <prvMotorCommand+0x2c0>)
 80029de:	89db      	ldrh	r3, [r3, #14]
					
				if (  xQueueReceive ( QSpd_handle, &telegramR, xDelay)== pdPASS)
				{
					if ( telegramR.Qcmd == SUCCSESS) 
					{
					sprintf(pcWriteBuffer, "Speed is  %2d.%2dp \n\n\0", 
 80029e0:	4957      	ldr	r1, [pc, #348]	; (8002b40 <prvMotorCommand+0x2c4>)
 80029e2:	fba1 8103 	umull	r8, r1, r1, r3
 80029e6:	0949      	lsrs	r1, r1, #5
 80029e8:	2064      	movs	r0, #100	; 0x64
 80029ea:	fb00 f101 	mul.w	r1, r0, r1
 80029ee:	1a5b      	subs	r3, r3, r1
 80029f0:	b29b      	uxth	r3, r3
 80029f2:	68f8      	ldr	r0, [r7, #12]
 80029f4:	4953      	ldr	r1, [pc, #332]	; (8002b44 <prvMotorCommand+0x2c8>)
 80029f6:	f000 fc01 	bl	80031fc <sprintf>

						sprintf(pcWriteBuffer ,
							"Power In=%d, Iout=%d, Vin=%d, "
							"PrcOut=%d.%d, RPMOut=%d, "
							"InternalTemp=%d.%d\n",
							telegramR.data[8],
 80029fa:	4b50      	ldr	r3, [pc, #320]	; (8002b3c <prvMotorCommand+0x2c0>)
 80029fc:	8b1b      	ldrh	r3, [r3, #24]
					sprintf(pcWriteBuffer, "Speed is  %2d.%2dp \n\n\0", 
					telegramR.data[3]/100,
					telegramR.data[3] % 100);


						sprintf(pcWriteBuffer ,
 80029fe:	461a      	mov	r2, r3
							"Power In=%d, Iout=%d, Vin=%d, "
							"PrcOut=%d.%d, RPMOut=%d, "
							"InternalTemp=%d.%d\n",
							telegramR.data[8],
							telegramR.data[7],
 8002a00:	4b4e      	ldr	r3, [pc, #312]	; (8002b3c <prvMotorCommand+0x2c0>)
 8002a02:	8adb      	ldrh	r3, [r3, #22]
					sprintf(pcWriteBuffer, "Speed is  %2d.%2dp \n\n\0", 
					telegramR.data[3]/100,
					telegramR.data[3] % 100);


						sprintf(pcWriteBuffer ,
 8002a04:	461c      	mov	r4, r3
							"Power In=%d, Iout=%d, Vin=%d, "
							"PrcOut=%d.%d, RPMOut=%d, "
							"InternalTemp=%d.%d\n",
							telegramR.data[8],
							telegramR.data[7],
							telegramR.data[6],
 8002a06:	4b4d      	ldr	r3, [pc, #308]	; (8002b3c <prvMotorCommand+0x2c0>)
 8002a08:	8a9b      	ldrh	r3, [r3, #20]
					sprintf(pcWriteBuffer, "Speed is  %2d.%2dp \n\n\0", 
					telegramR.data[3]/100,
					telegramR.data[3] % 100);


						sprintf(pcWriteBuffer ,
 8002a0a:	469e      	mov	lr, r3
							"PrcOut=%d.%d, RPMOut=%d, "
							"InternalTemp=%d.%d\n",
							telegramR.data[8],
							telegramR.data[7],
							telegramR.data[6],
							telegramR.data[3]/100,
 8002a0c:	4b4b      	ldr	r3, [pc, #300]	; (8002b3c <prvMotorCommand+0x2c0>)
 8002a0e:	89d9      	ldrh	r1, [r3, #14]
					sprintf(pcWriteBuffer, "Speed is  %2d.%2dp \n\n\0", 
					telegramR.data[3]/100,
					telegramR.data[3] % 100);


						sprintf(pcWriteBuffer ,
 8002a10:	4b4b      	ldr	r3, [pc, #300]	; (8002b40 <prvMotorCommand+0x2c4>)
 8002a12:	fba3 c301 	umull	ip, r3, r3, r1
 8002a16:	095b      	lsrs	r3, r3, #5
 8002a18:	b29b      	uxth	r3, r3
 8002a1a:	461e      	mov	r6, r3
							"InternalTemp=%d.%d\n",
							telegramR.data[8],
							telegramR.data[7],
							telegramR.data[6],
							telegramR.data[3]/100,
							telegramR.data[3] % 100, 
 8002a1c:	4b47      	ldr	r3, [pc, #284]	; (8002b3c <prvMotorCommand+0x2c0>)
 8002a1e:	89db      	ldrh	r3, [r3, #14]
					sprintf(pcWriteBuffer, "Speed is  %2d.%2dp \n\n\0", 
					telegramR.data[3]/100,
					telegramR.data[3] % 100);


						sprintf(pcWriteBuffer ,
 8002a20:	4947      	ldr	r1, [pc, #284]	; (8002b40 <prvMotorCommand+0x2c4>)
 8002a22:	fba1 0103 	umull	r0, r1, r1, r3
 8002a26:	0949      	lsrs	r1, r1, #5
 8002a28:	2064      	movs	r0, #100	; 0x64
 8002a2a:	fb00 f101 	mul.w	r1, r0, r1
 8002a2e:	1a5b      	subs	r3, r3, r1
 8002a30:	b29b      	uxth	r3, r3
 8002a32:	461d      	mov	r5, r3
							telegramR.data[8],
							telegramR.data[7],
							telegramR.data[6],
							telegramR.data[3]/100,
							telegramR.data[3] % 100, 
							telegramR.data[4],
 8002a34:	4b41      	ldr	r3, [pc, #260]	; (8002b3c <prvMotorCommand+0x2c0>)
 8002a36:	8a1b      	ldrh	r3, [r3, #16]
					sprintf(pcWriteBuffer, "Speed is  %2d.%2dp \n\n\0", 
					telegramR.data[3]/100,
					telegramR.data[3] % 100);


						sprintf(pcWriteBuffer ,
 8002a38:	4618      	mov	r0, r3
							telegramR.data[7],
							telegramR.data[6],
							telegramR.data[3]/100,
							telegramR.data[3] % 100, 
							telegramR.data[4],
							telegramR.data[5]/100,
 8002a3a:	4b40      	ldr	r3, [pc, #256]	; (8002b3c <prvMotorCommand+0x2c0>)
 8002a3c:	8a59      	ldrh	r1, [r3, #18]
					sprintf(pcWriteBuffer, "Speed is  %2d.%2dp \n\n\0", 
					telegramR.data[3]/100,
					telegramR.data[3] % 100);


						sprintf(pcWriteBuffer ,
 8002a3e:	4b40      	ldr	r3, [pc, #256]	; (8002b40 <prvMotorCommand+0x2c4>)
 8002a40:	fba3 8301 	umull	r8, r3, r3, r1
 8002a44:	095b      	lsrs	r3, r3, #5
 8002a46:	b29b      	uxth	r3, r3
 8002a48:	4619      	mov	r1, r3
							telegramR.data[6],
							telegramR.data[3]/100,
							telegramR.data[3] % 100, 
							telegramR.data[4],
							telegramR.data[5]/100,
							telegramR.data[5] % 100);
 8002a4a:	4b3c      	ldr	r3, [pc, #240]	; (8002b3c <prvMotorCommand+0x2c0>)
 8002a4c:	8a5b      	ldrh	r3, [r3, #18]
					sprintf(pcWriteBuffer, "Speed is  %2d.%2dp \n\n\0", 
					telegramR.data[3]/100,
					telegramR.data[3] % 100);


						sprintf(pcWriteBuffer ,
 8002a4e:	f8df c0f0 	ldr.w	ip, [pc, #240]	; 8002b40 <prvMotorCommand+0x2c4>
 8002a52:	fbac 8c03 	umull	r8, ip, ip, r3
 8002a56:	ea4f 1c5c 	mov.w	ip, ip, lsr #5
 8002a5a:	f04f 0864 	mov.w	r8, #100	; 0x64
 8002a5e:	fb08 fc0c 	mul.w	ip, r8, ip
 8002a62:	ebcc 0303 	rsb	r3, ip, r3
 8002a66:	b29b      	uxth	r3, r3
 8002a68:	f8cd e000 	str.w	lr, [sp]
 8002a6c:	9601      	str	r6, [sp, #4]
 8002a6e:	9502      	str	r5, [sp, #8]
 8002a70:	9003      	str	r0, [sp, #12]
 8002a72:	9104      	str	r1, [sp, #16]
 8002a74:	9305      	str	r3, [sp, #20]
 8002a76:	68f8      	ldr	r0, [r7, #12]
 8002a78:	4933      	ldr	r1, [pc, #204]	; (8002b48 <prvMotorCommand+0x2cc>)
 8002a7a:	4623      	mov	r3, r4
 8002a7c:	f000 fbbe 	bl	80031fc <sprintf>
							telegramR.data[3]/100,
							telegramR.data[3] % 100, 
							telegramR.data[4],
							telegramR.data[5]/100,
							telegramR.data[5] % 100);
						xWriteBufferLen = 50 ; 	
 8002a80:	2332      	movs	r3, #50	; 0x32
 8002a82:	60bb      	str	r3, [r7, #8]
						//send( socket_0, buf, len, 0);

					
						return pdPASS;
 8002a84:	2301      	movs	r3, #1
 8002a86:	e151      	b.n	8002d2c <prvMotorCommand+0x4b0>

					}
					else
					{
						sprintf(pcWriteBuffer, "MODBUS ERROR !!!.\n\n");
 8002a88:	68fa      	ldr	r2, [r7, #12]
 8002a8a:	4b30      	ldr	r3, [pc, #192]	; (8002b4c <prvMotorCommand+0x2d0>)
 8002a8c:	4615      	mov	r5, r2
 8002a8e:	461c      	mov	r4, r3
 8002a90:	cc0f      	ldmia	r4!, {r0, r1, r2, r3}
 8002a92:	6028      	str	r0, [r5, #0]
 8002a94:	6069      	str	r1, [r5, #4]
 8002a96:	60aa      	str	r2, [r5, #8]
 8002a98:	60eb      	str	r3, [r5, #12]
 8002a9a:	6820      	ldr	r0, [r4, #0]
 8002a9c:	6128      	str	r0, [r5, #16]
			       			xWriteBufferLen = 19; 	
 8002a9e:	2313      	movs	r3, #19
 8002aa0:	60bb      	str	r3, [r7, #8]
						//send( socket_0, buf, len, 0);

						return pdFALSE;
 8002aa2:	2300      	movs	r3, #0
 8002aa4:	e142      	b.n	8002d2c <prvMotorCommand+0x4b0>
				else
				{
					// send to Queue was unsuccsessful
					// send error via TCP 
		
					sprintf(pcWriteBuffer, "Error recieving response!\n\n");
 8002aa6:	68fa      	ldr	r2, [r7, #12]
 8002aa8:	4b29      	ldr	r3, [pc, #164]	; (8002b50 <prvMotorCommand+0x2d4>)
 8002aaa:	4615      	mov	r5, r2
 8002aac:	461c      	mov	r4, r3
 8002aae:	cc0f      	ldmia	r4!, {r0, r1, r2, r3}
 8002ab0:	6028      	str	r0, [r5, #0]
 8002ab2:	6069      	str	r1, [r5, #4]
 8002ab4:	60aa      	str	r2, [r5, #8]
 8002ab6:	60eb      	str	r3, [r5, #12]
 8002ab8:	cc07      	ldmia	r4!, {r0, r1, r2}
 8002aba:	6128      	str	r0, [r5, #16]
 8002abc:	6169      	str	r1, [r5, #20]
 8002abe:	61aa      	str	r2, [r5, #24]
	 				xWriteBufferLen = 27; 	
 8002ac0:	231b      	movs	r3, #27
 8002ac2:	60bb      	str	r3, [r7, #8]
					//send( socket_0, buf, len, 0);

					return pdFALSE; 	
 8002ac4:	2300      	movs	r3, #0
 8002ac6:	e131      	b.n	8002d2c <prvMotorCommand+0x4b0>
			{
			
				// send to Queue was unsuccsessful
				// send error via TCP 
		
				sprintf(pcWriteBuffer, "Error sending Queue!\n\n");
 8002ac8:	68fa      	ldr	r2, [r7, #12]
 8002aca:	4b22      	ldr	r3, [pc, #136]	; (8002b54 <prvMotorCommand+0x2d8>)
 8002acc:	4614      	mov	r4, r2
 8002ace:	461d      	mov	r5, r3
 8002ad0:	cd0f      	ldmia	r5!, {r0, r1, r2, r3}
 8002ad2:	6020      	str	r0, [r4, #0]
 8002ad4:	6061      	str	r1, [r4, #4]
 8002ad6:	60a2      	str	r2, [r4, #8]
 8002ad8:	60e3      	str	r3, [r4, #12]
 8002ada:	6828      	ldr	r0, [r5, #0]
 8002adc:	6120      	str	r0, [r4, #16]
 8002ade:	88aa      	ldrh	r2, [r5, #4]
 8002ae0:	79ab      	ldrb	r3, [r5, #6]
 8002ae2:	82a2      	strh	r2, [r4, #20]
 8002ae4:	75a3      	strb	r3, [r4, #22]
	 			xWriteBufferLen = 22; 	
 8002ae6:	2316      	movs	r3, #22
 8002ae8:	60bb      	str	r3, [r7, #8]
				//send( socket, buf, len, 0);

				return pdFALSE; 	
 8002aea:	2300      	movs	r3, #0
 8002aec:	e11e      	b.n	8002d2c <prvMotorCommand+0x4b0>
		
		
		}

		
		if ( handleVariable_get ( 
 8002aee:	697b      	ldr	r3, [r7, #20]
 8002af0:	4a0d      	ldr	r2, [pc, #52]	; (8002b28 <prvMotorCommand+0x2ac>)
 8002af2:	6811      	ldr	r1, [r2, #0]
 8002af4:	4a0d      	ldr	r2, [pc, #52]	; (8002b2c <prvMotorCommand+0x2b0>)
 8002af6:	6812      	ldr	r2, [r2, #0]
 8002af8:	9100      	str	r1, [sp, #0]
 8002afa:	9201      	str	r2, [sp, #4]
 8002afc:	68f8      	ldr	r0, [r7, #12]
 8002afe:	68b9      	ldr	r1, [r7, #8]
 8002b00:	6a3a      	ldr	r2, [r7, #32]
 8002b02:	f7ff fe27 	bl	8002754 <handleVariable_get>
 8002b06:	4603      	mov	r3, r0
 8002b08:	2b00      	cmp	r3, #0
 8002b0a:	d001      	beq.n	8002b10 <prvMotorCommand+0x294>
					   xWriteBufferLen,
	
				           Param, 
					   xParamLength, 
					   QSpd_handle, 
					   socket_0)) return pdPASS;
 8002b0c:	2301      	movs	r3, #1
 8002b0e:	e10d      	b.n	8002d2c <prvMotorCommand+0x4b0>
		return pdFALSE;
 8002b10:	2300      	movs	r3, #0
 8002b12:	e10b      	b.n	8002d2c <prvMotorCommand+0x4b0>
 8002b14:	08009334 	.word	0x08009334
 8002b18:	0800934c 	.word	0x0800934c
 8002b1c:	08009354 	.word	0x08009354
 8002b20:	08009414 	.word	0x08009414
 8002b24:	08009190 	.word	0x08009190
 8002b28:	20013270 	.word	0x20013270
 8002b2c:	2001326c 	.word	0x2001326c
 8002b30:	08009418 	.word	0x08009418
 8002b34:	20014470 	.word	0x20014470
 8002b38:	20000000 	.word	0x20000000
 8002b3c:	20014454 	.word	0x20014454
 8002b40:	51eb851f 	.word	0x51eb851f
 8002b44:	0800931c 	.word	0x0800931c
 8002b48:	0800941c 	.word	0x0800941c
 8002b4c:	08009250 	.word	0x08009250
 8002b50:	08009264 	.word	0x08009264
 8002b54:	08009280 	.word	0x08009280
	}
		
	//================================================================================//
	//		CASE COMMAND STOP 
	//================================================================================//
	if (!strncmp ( Option, "stop", 4))
 8002b58:	6a78      	ldr	r0, [r7, #36]	; 0x24
 8002b5a:	4977      	ldr	r1, [pc, #476]	; (8002d38 <prvMotorCommand+0x4bc>)
 8002b5c:	2204      	movs	r2, #4
 8002b5e:	f006 f8e1 	bl	8008d24 <strncmp>
 8002b62:	4603      	mov	r3, r0
 8002b64:	2b00      	cmp	r3, #0
 8002b66:	d169      	bne.n	8002c3c <prvMotorCommand+0x3c0>
	{

		telegramS.Qcmd = STOP; 
 8002b68:	4b74      	ldr	r3, [pc, #464]	; (8002d3c <prvMotorCommand+0x4c0>)
 8002b6a:	2205      	movs	r2, #5
 8002b6c:	701a      	strb	r2, [r3, #0]
		telegramS.size = 5; 
 8002b6e:	4b73      	ldr	r3, [pc, #460]	; (8002d3c <prvMotorCommand+0x4c0>)
 8002b70:	2205      	movs	r2, #5
 8002b72:	605a      	str	r2, [r3, #4]
			// send value to setSpeed_task via Queue 
		if ( xQueueSend ( QSpd_handle, (void *)&telegramS, xDelay ) )
 8002b74:	4b72      	ldr	r3, [pc, #456]	; (8002d40 <prvMotorCommand+0x4c4>)
 8002b76:	681a      	ldr	r2, [r3, #0]
 8002b78:	4b72      	ldr	r3, [pc, #456]	; (8002d44 <prvMotorCommand+0x4c8>)
 8002b7a:	681b      	ldr	r3, [r3, #0]
 8002b7c:	4610      	mov	r0, r2
 8002b7e:	496f      	ldr	r1, [pc, #444]	; (8002d3c <prvMotorCommand+0x4c0>)
 8002b80:	461a      	mov	r2, r3
 8002b82:	2300      	movs	r3, #0
 8002b84:	f001 ffa4 	bl	8004ad0 <xQueueGenericSend>
 8002b88:	4603      	mov	r3, r0
 8002b8a:	2b00      	cmp	r3, #0
 8002b8c:	d043      	beq.n	8002c16 <prvMotorCommand+0x39a>
		{	
					
			if (  xQueueReceive ( QSpd_handle, &telegramR, xDelay)== pdPASS)
 8002b8e:	4b6c      	ldr	r3, [pc, #432]	; (8002d40 <prvMotorCommand+0x4c4>)
 8002b90:	681a      	ldr	r2, [r3, #0]
 8002b92:	4b6c      	ldr	r3, [pc, #432]	; (8002d44 <prvMotorCommand+0x4c8>)
 8002b94:	681b      	ldr	r3, [r3, #0]
 8002b96:	4610      	mov	r0, r2
 8002b98:	496b      	ldr	r1, [pc, #428]	; (8002d48 <prvMotorCommand+0x4cc>)
 8002b9a:	461a      	mov	r2, r3
 8002b9c:	2300      	movs	r3, #0
 8002b9e:	f002 f8b1 	bl	8004d04 <xQueueGenericReceive>
 8002ba2:	4603      	mov	r3, r0
 8002ba4:	2b01      	cmp	r3, #1
 8002ba6:	d125      	bne.n	8002bf4 <prvMotorCommand+0x378>
			{
				if ( telegramR.Qcmd == SUCCSESS) 
 8002ba8:	4b67      	ldr	r3, [pc, #412]	; (8002d48 <prvMotorCommand+0x4cc>)
 8002baa:	781b      	ldrb	r3, [r3, #0]
 8002bac:	2b06      	cmp	r3, #6
 8002bae:	d112      	bne.n	8002bd6 <prvMotorCommand+0x35a>
				{	
					sprintf(pcWriteBuffer ,"Motor succsesfully stopped.\n\n");
 8002bb0:	68fa      	ldr	r2, [r7, #12]
 8002bb2:	4b66      	ldr	r3, [pc, #408]	; (8002d4c <prvMotorCommand+0x4d0>)
 8002bb4:	4615      	mov	r5, r2
 8002bb6:	461c      	mov	r4, r3
 8002bb8:	cc0f      	ldmia	r4!, {r0, r1, r2, r3}
 8002bba:	6028      	str	r0, [r5, #0]
 8002bbc:	6069      	str	r1, [r5, #4]
 8002bbe:	60aa      	str	r2, [r5, #8]
 8002bc0:	60eb      	str	r3, [r5, #12]
 8002bc2:	cc07      	ldmia	r4!, {r0, r1, r2}
 8002bc4:	6128      	str	r0, [r5, #16]
 8002bc6:	6169      	str	r1, [r5, #20]
 8002bc8:	61aa      	str	r2, [r5, #24]
 8002bca:	8823      	ldrh	r3, [r4, #0]
 8002bcc:	83ab      	strh	r3, [r5, #28]
					xWriteBufferLen = 29 ; 	
 8002bce:	231d      	movs	r3, #29
 8002bd0:	60bb      	str	r3, [r7, #8]
					//send( socket_0, buf, len, 0);

					
					return pdPASS;
 8002bd2:	2301      	movs	r3, #1
 8002bd4:	e0aa      	b.n	8002d2c <prvMotorCommand+0x4b0>

				}
				else
				{
					sprintf(pcWriteBuffer, "MODBUS ERROR !!!.\n\n");
 8002bd6:	68fa      	ldr	r2, [r7, #12]
 8002bd8:	4b5d      	ldr	r3, [pc, #372]	; (8002d50 <prvMotorCommand+0x4d4>)
 8002bda:	4615      	mov	r5, r2
 8002bdc:	461c      	mov	r4, r3
 8002bde:	cc0f      	ldmia	r4!, {r0, r1, r2, r3}
 8002be0:	6028      	str	r0, [r5, #0]
 8002be2:	6069      	str	r1, [r5, #4]
 8002be4:	60aa      	str	r2, [r5, #8]
 8002be6:	60eb      	str	r3, [r5, #12]
 8002be8:	6820      	ldr	r0, [r4, #0]
 8002bea:	6128      	str	r0, [r5, #16]
			       		xWriteBufferLen = 19; 	
 8002bec:	2313      	movs	r3, #19
 8002bee:	60bb      	str	r3, [r7, #8]
					//send( socket_0, buf, len, 0);

					return pdFALSE;
 8002bf0:	2300      	movs	r3, #0
 8002bf2:	e09b      	b.n	8002d2c <prvMotorCommand+0x4b0>
			else
			{
					// send to Queue was unsuccsessful
				// send error via TCP 
		
				sprintf(pcWriteBuffer, "Error recieving response!\n\n");
 8002bf4:	68fa      	ldr	r2, [r7, #12]
 8002bf6:	4b57      	ldr	r3, [pc, #348]	; (8002d54 <prvMotorCommand+0x4d8>)
 8002bf8:	4615      	mov	r5, r2
 8002bfa:	461c      	mov	r4, r3
 8002bfc:	cc0f      	ldmia	r4!, {r0, r1, r2, r3}
 8002bfe:	6028      	str	r0, [r5, #0]
 8002c00:	6069      	str	r1, [r5, #4]
 8002c02:	60aa      	str	r2, [r5, #8]
 8002c04:	60eb      	str	r3, [r5, #12]
 8002c06:	cc07      	ldmia	r4!, {r0, r1, r2}
 8002c08:	6128      	str	r0, [r5, #16]
 8002c0a:	6169      	str	r1, [r5, #20]
 8002c0c:	61aa      	str	r2, [r5, #24]
	 			xWriteBufferLen = 27; 	
 8002c0e:	231b      	movs	r3, #27
 8002c10:	60bb      	str	r3, [r7, #8]
				//send( socket_0, buf, len, 0);

				return pdFALSE; 	
 8002c12:	2300      	movs	r3, #0
 8002c14:	e08a      	b.n	8002d2c <prvMotorCommand+0x4b0>
		{
			
			// send to Queue was unsuccsessful
			// send error via TCP 
		
			sprintf(pcWriteBuffer, "Error sending Queue!\n\n");
 8002c16:	68fa      	ldr	r2, [r7, #12]
 8002c18:	4b4f      	ldr	r3, [pc, #316]	; (8002d58 <prvMotorCommand+0x4dc>)
 8002c1a:	4614      	mov	r4, r2
 8002c1c:	461d      	mov	r5, r3
 8002c1e:	cd0f      	ldmia	r5!, {r0, r1, r2, r3}
 8002c20:	6020      	str	r0, [r4, #0]
 8002c22:	6061      	str	r1, [r4, #4]
 8002c24:	60a2      	str	r2, [r4, #8]
 8002c26:	60e3      	str	r3, [r4, #12]
 8002c28:	6828      	ldr	r0, [r5, #0]
 8002c2a:	6120      	str	r0, [r4, #16]
 8002c2c:	88aa      	ldrh	r2, [r5, #4]
 8002c2e:	79ab      	ldrb	r3, [r5, #6]
 8002c30:	82a2      	strh	r2, [r4, #20]
 8002c32:	75a3      	strb	r3, [r4, #22]
	 		xWriteBufferLen = 22; 	
 8002c34:	2316      	movs	r3, #22
 8002c36:	60bb      	str	r3, [r7, #8]
			//send( socket, buf, len, 0);

			return pdFALSE; 	
 8002c38:	2300      	movs	r3, #0
 8002c3a:	e077      	b.n	8002d2c <prvMotorCommand+0x4b0>
	}
	//================================================================================//
	//		CASE COMMAND START
	//================================================================================//

	if (!strncmp ( Option, "start", 5))
 8002c3c:	6a78      	ldr	r0, [r7, #36]	; 0x24
 8002c3e:	4947      	ldr	r1, [pc, #284]	; (8002d5c <prvMotorCommand+0x4e0>)
 8002c40:	2205      	movs	r2, #5
 8002c42:	f006 f86f 	bl	8008d24 <strncmp>
 8002c46:	4603      	mov	r3, r0
 8002c48:	2b00      	cmp	r3, #0
 8002c4a:	d169      	bne.n	8002d20 <prvMotorCommand+0x4a4>
	{
		telegramS.Qcmd = START; 
 8002c4c:	4b3b      	ldr	r3, [pc, #236]	; (8002d3c <prvMotorCommand+0x4c0>)
 8002c4e:	2204      	movs	r2, #4
 8002c50:	701a      	strb	r2, [r3, #0]
		telegramS.size = 5; 
 8002c52:	4b3a      	ldr	r3, [pc, #232]	; (8002d3c <prvMotorCommand+0x4c0>)
 8002c54:	2205      	movs	r2, #5
 8002c56:	605a      	str	r2, [r3, #4]
			// send value to setSpeed_task via Queue 
		if ( xQueueSend ( QSpd_handle, (void *)&telegramS, xDelay ) == pdPASS )
 8002c58:	4b39      	ldr	r3, [pc, #228]	; (8002d40 <prvMotorCommand+0x4c4>)
 8002c5a:	681a      	ldr	r2, [r3, #0]
 8002c5c:	4b39      	ldr	r3, [pc, #228]	; (8002d44 <prvMotorCommand+0x4c8>)
 8002c5e:	681b      	ldr	r3, [r3, #0]
 8002c60:	4610      	mov	r0, r2
 8002c62:	4936      	ldr	r1, [pc, #216]	; (8002d3c <prvMotorCommand+0x4c0>)
 8002c64:	461a      	mov	r2, r3
 8002c66:	2300      	movs	r3, #0
 8002c68:	f001 ff32 	bl	8004ad0 <xQueueGenericSend>
 8002c6c:	4603      	mov	r3, r0
 8002c6e:	2b01      	cmp	r3, #1
 8002c70:	d143      	bne.n	8002cfa <prvMotorCommand+0x47e>
		{	
		//	vTaskDelay(500/portTICK_RATE_MS);		
			if (  xQueueReceive ( QSpd_handle, &telegramR, xDelay) == pdPASS)
 8002c72:	4b33      	ldr	r3, [pc, #204]	; (8002d40 <prvMotorCommand+0x4c4>)
 8002c74:	681a      	ldr	r2, [r3, #0]
 8002c76:	4b33      	ldr	r3, [pc, #204]	; (8002d44 <prvMotorCommand+0x4c8>)
 8002c78:	681b      	ldr	r3, [r3, #0]
 8002c7a:	4610      	mov	r0, r2
 8002c7c:	4932      	ldr	r1, [pc, #200]	; (8002d48 <prvMotorCommand+0x4cc>)
 8002c7e:	461a      	mov	r2, r3
 8002c80:	2300      	movs	r3, #0
 8002c82:	f002 f83f 	bl	8004d04 <xQueueGenericReceive>
 8002c86:	4603      	mov	r3, r0
 8002c88:	2b01      	cmp	r3, #1
 8002c8a:	d125      	bne.n	8002cd8 <prvMotorCommand+0x45c>
			{
				if ( telegramR.Qcmd == SUCCSESS) 
 8002c8c:	4b2e      	ldr	r3, [pc, #184]	; (8002d48 <prvMotorCommand+0x4cc>)
 8002c8e:	781b      	ldrb	r3, [r3, #0]
 8002c90:	2b06      	cmp	r3, #6
 8002c92:	d112      	bne.n	8002cba <prvMotorCommand+0x43e>
				{	
					sprintf(pcWriteBuffer , "Motor succsesfully started.\n\n");
 8002c94:	68fa      	ldr	r2, [r7, #12]
 8002c96:	4b32      	ldr	r3, [pc, #200]	; (8002d60 <prvMotorCommand+0x4e4>)
 8002c98:	4615      	mov	r5, r2
 8002c9a:	461c      	mov	r4, r3
 8002c9c:	cc0f      	ldmia	r4!, {r0, r1, r2, r3}
 8002c9e:	6028      	str	r0, [r5, #0]
 8002ca0:	6069      	str	r1, [r5, #4]
 8002ca2:	60aa      	str	r2, [r5, #8]
 8002ca4:	60eb      	str	r3, [r5, #12]
 8002ca6:	cc07      	ldmia	r4!, {r0, r1, r2}
 8002ca8:	6128      	str	r0, [r5, #16]
 8002caa:	6169      	str	r1, [r5, #20]
 8002cac:	61aa      	str	r2, [r5, #24]
 8002cae:	8823      	ldrh	r3, [r4, #0]
 8002cb0:	83ab      	strh	r3, [r5, #28]
					xWriteBufferLen = 29; 	
 8002cb2:	231d      	movs	r3, #29
 8002cb4:	60bb      	str	r3, [r7, #8]
					//send( socket_0, buf, len, 0);

					
					return pdPASS;
 8002cb6:	2301      	movs	r3, #1
 8002cb8:	e038      	b.n	8002d2c <prvMotorCommand+0x4b0>

				}
				else
				{
					sprintf(pcWriteBuffer, "MODBUS ERROR !!!.\n\n");
 8002cba:	68fa      	ldr	r2, [r7, #12]
 8002cbc:	4b24      	ldr	r3, [pc, #144]	; (8002d50 <prvMotorCommand+0x4d4>)
 8002cbe:	4615      	mov	r5, r2
 8002cc0:	461c      	mov	r4, r3
 8002cc2:	cc0f      	ldmia	r4!, {r0, r1, r2, r3}
 8002cc4:	6028      	str	r0, [r5, #0]
 8002cc6:	6069      	str	r1, [r5, #4]
 8002cc8:	60aa      	str	r2, [r5, #8]
 8002cca:	60eb      	str	r3, [r5, #12]
 8002ccc:	6820      	ldr	r0, [r4, #0]
 8002cce:	6128      	str	r0, [r5, #16]
			       		xWriteBufferLen = 19; 	
 8002cd0:	2313      	movs	r3, #19
 8002cd2:	60bb      	str	r3, [r7, #8]
					//send( socket_0, buf, len, 0);

					return pdFALSE;
 8002cd4:	2300      	movs	r3, #0
 8002cd6:	e029      	b.n	8002d2c <prvMotorCommand+0x4b0>
			else
			{
					// send to Queue was unsuccsessful
				// send error via TCP 
		
				sprintf(pcWriteBuffer, "Error recieving response!\n\n");
 8002cd8:	68fa      	ldr	r2, [r7, #12]
 8002cda:	4b1e      	ldr	r3, [pc, #120]	; (8002d54 <prvMotorCommand+0x4d8>)
 8002cdc:	4615      	mov	r5, r2
 8002cde:	461c      	mov	r4, r3
 8002ce0:	cc0f      	ldmia	r4!, {r0, r1, r2, r3}
 8002ce2:	6028      	str	r0, [r5, #0]
 8002ce4:	6069      	str	r1, [r5, #4]
 8002ce6:	60aa      	str	r2, [r5, #8]
 8002ce8:	60eb      	str	r3, [r5, #12]
 8002cea:	cc07      	ldmia	r4!, {r0, r1, r2}
 8002cec:	6128      	str	r0, [r5, #16]
 8002cee:	6169      	str	r1, [r5, #20]
 8002cf0:	61aa      	str	r2, [r5, #24]
	 			xWriteBufferLen = 27; 	
 8002cf2:	231b      	movs	r3, #27
 8002cf4:	60bb      	str	r3, [r7, #8]
				//send( socket_0, buf, len, 0);

				return pdFALSE; 	
 8002cf6:	2300      	movs	r3, #0
 8002cf8:	e018      	b.n	8002d2c <prvMotorCommand+0x4b0>
		{
			
			// send to Queue was unsuccsessful
			// send error via TCP 
		
			sprintf(pcWriteBuffer,"Error sending Queue!\n\n");
 8002cfa:	68fa      	ldr	r2, [r7, #12]
 8002cfc:	4b16      	ldr	r3, [pc, #88]	; (8002d58 <prvMotorCommand+0x4dc>)
 8002cfe:	4614      	mov	r4, r2
 8002d00:	461d      	mov	r5, r3
 8002d02:	cd0f      	ldmia	r5!, {r0, r1, r2, r3}
 8002d04:	6020      	str	r0, [r4, #0]
 8002d06:	6061      	str	r1, [r4, #4]
 8002d08:	60a2      	str	r2, [r4, #8]
 8002d0a:	60e3      	str	r3, [r4, #12]
 8002d0c:	6828      	ldr	r0, [r5, #0]
 8002d0e:	6120      	str	r0, [r4, #16]
 8002d10:	88aa      	ldrh	r2, [r5, #4]
 8002d12:	79ab      	ldrb	r3, [r5, #6]
 8002d14:	82a2      	strh	r2, [r4, #20]
 8002d16:	75a3      	strb	r3, [r4, #22]
	 		xWriteBufferLen = 22; 	
 8002d18:	2316      	movs	r3, #22
 8002d1a:	60bb      	str	r3, [r7, #8]
			//send( socket_0, buf, len, 0);

			return pdFALSE; 	
 8002d1c:	2300      	movs	r3, #0
 8002d1e:	e005      	b.n	8002d2c <prvMotorCommand+0x4b0>


	}


	strcpy(pcWriteBuffer, xMotorCommand.pcHelpString);
 8002d20:	4b10      	ldr	r3, [pc, #64]	; (8002d64 <prvMotorCommand+0x4e8>)
 8002d22:	68f8      	ldr	r0, [r7, #12]
 8002d24:	4619      	mov	r1, r3
 8002d26:	f005 ff6f 	bl	8008c08 <strcpy>
		
	return pdFALSE;
 8002d2a:	2300      	movs	r3, #0


}
 8002d2c:	4618      	mov	r0, r3
 8002d2e:	3728      	adds	r7, #40	; 0x28
 8002d30:	46bd      	mov	sp, r7
 8002d32:	e8bd 81f0 	ldmia.w	sp!, {r4, r5, r6, r7, r8, pc}
 8002d36:	bf00      	nop
 8002d38:	08009468 	.word	0x08009468
 8002d3c:	20014470 	.word	0x20014470
 8002d40:	20013270 	.word	0x20013270
 8002d44:	20000000 	.word	0x20000000
 8002d48:	20014454 	.word	0x20014454
 8002d4c:	08009470 	.word	0x08009470
 8002d50:	08009250 	.word	0x08009250
 8002d54:	08009264 	.word	0x08009264
 8002d58:	08009280 	.word	0x08009280
 8002d5c:	08009490 	.word	0x08009490
 8002d60:	08009498 	.word	0x08009498
 8002d64:	08009190 	.word	0x08009190

08002d68 <prvTaskStatsCommand>:

portBASE_TYPE prvTaskStatsCommand ( 	int8_t *pcWriteBuffer, 
						size_t xWriteBufferLen, 
						const int8_t *pcCommandString)
{
 8002d68:	e92d 41f0 	stmdb	sp!, {r4, r5, r6, r7, r8, lr}
 8002d6c:	b08a      	sub	sp, #40	; 0x28
 8002d6e:	af04      	add	r7, sp, #16
 8002d70:	60f8      	str	r0, [r7, #12]
 8002d72:	60b9      	str	r1, [r7, #8]
 8002d74:	607a      	str	r2, [r7, #4]
	int xOptionLength, xParamLength, xValueLength; 
	//QueueTelegram telegram; 
	
	// get option from command line 

	Option = FreeRTOS_CLIGetParameter( pcCommandString, // command string 
 8002d76:	f107 0310 	add.w	r3, r7, #16
 8002d7a:	6878      	ldr	r0, [r7, #4]
 8002d7c:	2101      	movs	r1, #1
 8002d7e:	461a      	mov	r2, r3
 8002d80:	f003 f8fe 	bl	8005f80 <FreeRTOS_CLIGetParameter>
 8002d84:	6178      	str	r0, [r7, #20]
					  1,  		   // first parameter
				  	  &xOptionLength // parameter string length
					  
					 );
    	( void ) xWriteBufferLen;
	if ( Option == NULL)
 8002d86:	697b      	ldr	r3, [r7, #20]
 8002d88:	2b00      	cmp	r3, #0
 8002d8a:	d102      	bne.n	8002d92 <prvTaskStatsCommand+0x2a>
	{
		 vTaskList( pcWriteBuffer);
 8002d8c:	68f8      	ldr	r0, [r7, #12]
 8002d8e:	f001 fd47 	bl	8004820 <vTaskList>
	}	
    /* For simplicity, this function assumes the output buffer is large enough
    to hold all the text generated by executing the vTaskList() API function,
    so the xWriteBufferLen parameter is not used. */

	if (!strncmp ( Option, "kill", 7))
 8002d92:	6978      	ldr	r0, [r7, #20]
 8002d94:	492d      	ldr	r1, [pc, #180]	; (8002e4c <prvTaskStatsCommand+0xe4>)
 8002d96:	2207      	movs	r2, #7
 8002d98:	f005 ffc4 	bl	8008d24 <strncmp>
 8002d9c:	4603      	mov	r3, r0
 8002d9e:	2b00      	cmp	r3, #0
 8002da0:	d11c      	bne.n	8002ddc <prvTaskStatsCommand+0x74>
	{
	
		vTaskDelete(motorHeartBeatHandle);
 8002da2:	4b2b      	ldr	r3, [pc, #172]	; (8002e50 <prvTaskStatsCommand+0xe8>)
 8002da4:	681b      	ldr	r3, [r3, #0]
 8002da6:	4618      	mov	r0, r3
 8002da8:	f000 fdf0 	bl	800398c <vTaskDelete>
		strcpy ( pcWriteBuffer, "Task: motorHB succsessfully killed\n\0");
 8002dac:	68fb      	ldr	r3, [r7, #12]
 8002dae:	4a29      	ldr	r2, [pc, #164]	; (8002e54 <prvTaskStatsCommand+0xec>)
 8002db0:	4614      	mov	r4, r2
 8002db2:	461d      	mov	r5, r3
 8002db4:	f104 0820 	add.w	r8, r4, #32
 8002db8:	462e      	mov	r6, r5
 8002dba:	46a4      	mov	ip, r4
 8002dbc:	e8bc 000f 	ldmia.w	ip!, {r0, r1, r2, r3}
 8002dc0:	6030      	str	r0, [r6, #0]
 8002dc2:	6071      	str	r1, [r6, #4]
 8002dc4:	60b2      	str	r2, [r6, #8]
 8002dc6:	60f3      	str	r3, [r6, #12]
 8002dc8:	3410      	adds	r4, #16
 8002dca:	3510      	adds	r5, #16
 8002dcc:	4544      	cmp	r4, r8
 8002dce:	d1f3      	bne.n	8002db8 <prvTaskStatsCommand+0x50>
 8002dd0:	462b      	mov	r3, r5
 8002dd2:	4622      	mov	r2, r4
 8002dd4:	6810      	ldr	r0, [r2, #0]
 8002dd6:	6018      	str	r0, [r3, #0]
		return pdPASS;
 8002dd8:	2301      	movs	r3, #1
 8002dda:	e031      	b.n	8002e40 <prvTaskStatsCommand+0xd8>
	}
	if (!strncmp ( Option, "start", 5))
 8002ddc:	6978      	ldr	r0, [r7, #20]
 8002dde:	491e      	ldr	r1, [pc, #120]	; (8002e58 <prvTaskStatsCommand+0xf0>)
 8002de0:	2205      	movs	r2, #5
 8002de2:	f005 ff9f 	bl	8008d24 <strncmp>
 8002de6:	4603      	mov	r3, r0
 8002de8:	2b00      	cmp	r3, #0
 8002dea:	d128      	bne.n	8002e3e <prvTaskStatsCommand+0xd6>
	{
		// set motor task 
		xTaskCreate(motorHeartBeat_task, "motorHB", configMINIMAL_STACK_SIZE * 8,		       				
 8002dec:	2301      	movs	r3, #1
 8002dee:	9300      	str	r3, [sp, #0]
 8002df0:	4b17      	ldr	r3, [pc, #92]	; (8002e50 <prvTaskStatsCommand+0xe8>)
 8002df2:	9301      	str	r3, [sp, #4]
 8002df4:	2300      	movs	r3, #0
 8002df6:	9302      	str	r3, [sp, #8]
 8002df8:	2300      	movs	r3, #0
 8002dfa:	9303      	str	r3, [sp, #12]
 8002dfc:	4817      	ldr	r0, [pc, #92]	; (8002e5c <prvTaskStatsCommand+0xf4>)
 8002dfe:	4918      	ldr	r1, [pc, #96]	; (8002e60 <prvTaskStatsCommand+0xf8>)
 8002e00:	f44f 6200 	mov.w	r2, #2048	; 0x800
 8002e04:	2300      	movs	r3, #0
 8002e06:	f000 fd0d 	bl	8003824 <xTaskGenericCreate>
			NULL, 0x1/*mainFLASH_TASK_PRIORITY*/ , &motorHeartBeatHandle);

		strcpy ( pcWriteBuffer, "Task: motorHB succsessfully started\n\0");
 8002e0a:	68fb      	ldr	r3, [r7, #12]
 8002e0c:	4a15      	ldr	r2, [pc, #84]	; (8002e64 <prvTaskStatsCommand+0xfc>)
 8002e0e:	4614      	mov	r4, r2
 8002e10:	461d      	mov	r5, r3
 8002e12:	f104 0820 	add.w	r8, r4, #32
 8002e16:	462e      	mov	r6, r5
 8002e18:	46a4      	mov	ip, r4
 8002e1a:	e8bc 000f 	ldmia.w	ip!, {r0, r1, r2, r3}
 8002e1e:	6030      	str	r0, [r6, #0]
 8002e20:	6071      	str	r1, [r6, #4]
 8002e22:	60b2      	str	r2, [r6, #8]
 8002e24:	60f3      	str	r3, [r6, #12]
 8002e26:	3410      	adds	r4, #16
 8002e28:	3510      	adds	r5, #16
 8002e2a:	4544      	cmp	r4, r8
 8002e2c:	d1f3      	bne.n	8002e16 <prvTaskStatsCommand+0xae>
 8002e2e:	462b      	mov	r3, r5
 8002e30:	4622      	mov	r2, r4
 8002e32:	6810      	ldr	r0, [r2, #0]
 8002e34:	6018      	str	r0, [r3, #0]
 8002e36:	7912      	ldrb	r2, [r2, #4]
 8002e38:	711a      	strb	r2, [r3, #4]

	
		return pdPASS;	
 8002e3a:	2301      	movs	r3, #1
 8002e3c:	e000      	b.n	8002e40 <prvTaskStatsCommand+0xd8>

 

    /* The entire table was written directly to the output buffer.  Execution
    of this command is complete, so return pdFALSE. */
    return pdFALSE;
 8002e3e:	2300      	movs	r3, #0
}
 8002e40:	4618      	mov	r0, r3
 8002e42:	3718      	adds	r7, #24
 8002e44:	46bd      	mov	sp, r7
 8002e46:	e8bd 81f0 	ldmia.w	sp!, {r4, r5, r6, r7, r8, pc}
 8002e4a:	bf00      	nop
 8002e4c:	080094b8 	.word	0x080094b8
 8002e50:	20013a48 	.word	0x20013a48
 8002e54:	080094c0 	.word	0x080094c0
 8002e58:	08009490 	.word	0x08009490
 8002e5c:	080020cd 	.word	0x080020cd
 8002e60:	080094e8 	.word	0x080094e8
 8002e64:	080094f0 	.word	0x080094f0

08002e68 <printchar>:
#define putchar(c) c

#include <stdarg.h>

static void printchar(char **str, int c)
{
 8002e68:	b480      	push	{r7}
 8002e6a:	b083      	sub	sp, #12
 8002e6c:	af00      	add	r7, sp, #0
 8002e6e:	6078      	str	r0, [r7, #4]
 8002e70:	6039      	str	r1, [r7, #0]
	//extern int putchar(int c);
	
	if (str) {
 8002e72:	687b      	ldr	r3, [r7, #4]
 8002e74:	2b00      	cmp	r3, #0
 8002e76:	d009      	beq.n	8002e8c <printchar+0x24>
		**str = (char)c;
 8002e78:	687b      	ldr	r3, [r7, #4]
 8002e7a:	681b      	ldr	r3, [r3, #0]
 8002e7c:	683a      	ldr	r2, [r7, #0]
 8002e7e:	b2d2      	uxtb	r2, r2
 8002e80:	701a      	strb	r2, [r3, #0]
		++(*str);
 8002e82:	687b      	ldr	r3, [r7, #4]
 8002e84:	681b      	ldr	r3, [r3, #0]
 8002e86:	1c5a      	adds	r2, r3, #1
 8002e88:	687b      	ldr	r3, [r7, #4]
 8002e8a:	601a      	str	r2, [r3, #0]
	}
	else
	{ 
		(void)putchar(c);
	}
}
 8002e8c:	370c      	adds	r7, #12
 8002e8e:	46bd      	mov	sp, r7
 8002e90:	f85d 7b04 	ldr.w	r7, [sp], #4
 8002e94:	4770      	bx	lr
 8002e96:	bf00      	nop

08002e98 <prints>:
//***********************************************************************************************************//
//***********************************************************************************************************//
//***********************************************************************************************************//
//***********************************************************************************************************//
static int prints(char **out, const char *string, int width, int pad)
{
 8002e98:	e92d 41f0 	stmdb	sp!, {r4, r5, r6, r7, r8, lr}
 8002e9c:	b084      	sub	sp, #16
 8002e9e:	af00      	add	r7, sp, #0
 8002ea0:	60f8      	str	r0, [r7, #12]
 8002ea2:	60b9      	str	r1, [r7, #8]
 8002ea4:	607a      	str	r2, [r7, #4]
 8002ea6:	603b      	str	r3, [r7, #0]
	register int pc = 0, padchar = ' ';
 8002ea8:	2400      	movs	r4, #0
 8002eaa:	2620      	movs	r6, #32

	if (width > 0) {
 8002eac:	687b      	ldr	r3, [r7, #4]
 8002eae:	2b00      	cmp	r3, #0
 8002eb0:	dd19      	ble.n	8002ee6 <prints+0x4e>
		register int len = 0;
 8002eb2:	2500      	movs	r5, #0
		register const char *ptr;
		for (ptr = string; *ptr; ++ptr) ++len;
 8002eb4:	f8d7 8008 	ldr.w	r8, [r7, #8]
 8002eb8:	e002      	b.n	8002ec0 <prints+0x28>
 8002eba:	3501      	adds	r5, #1
 8002ebc:	f108 0801 	add.w	r8, r8, #1
 8002ec0:	f898 3000 	ldrb.w	r3, [r8]
 8002ec4:	2b00      	cmp	r3, #0
 8002ec6:	d1f8      	bne.n	8002eba <prints+0x22>
		if (len >= width) width = 0;
 8002ec8:	687b      	ldr	r3, [r7, #4]
 8002eca:	429d      	cmp	r5, r3
 8002ecc:	db02      	blt.n	8002ed4 <prints+0x3c>
 8002ece:	2300      	movs	r3, #0
 8002ed0:	607b      	str	r3, [r7, #4]
 8002ed2:	e002      	b.n	8002eda <prints+0x42>
		else width -= len;
 8002ed4:	687b      	ldr	r3, [r7, #4]
 8002ed6:	1b5b      	subs	r3, r3, r5
 8002ed8:	607b      	str	r3, [r7, #4]
		if (pad & PAD_ZERO) padchar = '0';
 8002eda:	683b      	ldr	r3, [r7, #0]
 8002edc:	f003 0302 	and.w	r3, r3, #2
 8002ee0:	2b00      	cmp	r3, #0
 8002ee2:	d000      	beq.n	8002ee6 <prints+0x4e>
 8002ee4:	2630      	movs	r6, #48	; 0x30
	}
	if (!(pad & PAD_RIGHT)) {
 8002ee6:	683b      	ldr	r3, [r7, #0]
 8002ee8:	f003 0301 	and.w	r3, r3, #1
 8002eec:	2b00      	cmp	r3, #0
 8002eee:	d10b      	bne.n	8002f08 <prints+0x70>
		for ( ; width > 0; --width) {
 8002ef0:	e007      	b.n	8002f02 <prints+0x6a>
			printchar (out, padchar);
 8002ef2:	68f8      	ldr	r0, [r7, #12]
 8002ef4:	4631      	mov	r1, r6
 8002ef6:	f7ff ffb7 	bl	8002e68 <printchar>
			++pc;
 8002efa:	3401      	adds	r4, #1
		if (len >= width) width = 0;
		else width -= len;
		if (pad & PAD_ZERO) padchar = '0';
	}
	if (!(pad & PAD_RIGHT)) {
		for ( ; width > 0; --width) {
 8002efc:	687b      	ldr	r3, [r7, #4]
 8002efe:	3b01      	subs	r3, #1
 8002f00:	607b      	str	r3, [r7, #4]
 8002f02:	687b      	ldr	r3, [r7, #4]
 8002f04:	2b00      	cmp	r3, #0
 8002f06:	dcf4      	bgt.n	8002ef2 <prints+0x5a>
			printchar (out, padchar);
			++pc;
		}
	}
	for ( ; *string ; ++string) {
 8002f08:	e009      	b.n	8002f1e <prints+0x86>
		printchar (out, *string);
 8002f0a:	68bb      	ldr	r3, [r7, #8]
 8002f0c:	781b      	ldrb	r3, [r3, #0]
 8002f0e:	68f8      	ldr	r0, [r7, #12]
 8002f10:	4619      	mov	r1, r3
 8002f12:	f7ff ffa9 	bl	8002e68 <printchar>
		++pc;
 8002f16:	3401      	adds	r4, #1
		for ( ; width > 0; --width) {
			printchar (out, padchar);
			++pc;
		}
	}
	for ( ; *string ; ++string) {
 8002f18:	68bb      	ldr	r3, [r7, #8]
 8002f1a:	3301      	adds	r3, #1
 8002f1c:	60bb      	str	r3, [r7, #8]
 8002f1e:	68bb      	ldr	r3, [r7, #8]
 8002f20:	781b      	ldrb	r3, [r3, #0]
 8002f22:	2b00      	cmp	r3, #0
 8002f24:	d1f1      	bne.n	8002f0a <prints+0x72>
		printchar (out, *string);
		++pc;
	}
	for ( ; width > 0; --width) {
 8002f26:	e007      	b.n	8002f38 <prints+0xa0>
		printchar (out, padchar);
 8002f28:	68f8      	ldr	r0, [r7, #12]
 8002f2a:	4631      	mov	r1, r6
 8002f2c:	f7ff ff9c 	bl	8002e68 <printchar>
		++pc;
 8002f30:	3401      	adds	r4, #1
	}
	for ( ; *string ; ++string) {
		printchar (out, *string);
		++pc;
	}
	for ( ; width > 0; --width) {
 8002f32:	687b      	ldr	r3, [r7, #4]
 8002f34:	3b01      	subs	r3, #1
 8002f36:	607b      	str	r3, [r7, #4]
 8002f38:	687b      	ldr	r3, [r7, #4]
 8002f3a:	2b00      	cmp	r3, #0
 8002f3c:	dcf4      	bgt.n	8002f28 <prints+0x90>
		printchar (out, padchar);
		++pc;
	}

	return pc;
 8002f3e:	4623      	mov	r3, r4
}
 8002f40:	4618      	mov	r0, r3
 8002f42:	3710      	adds	r7, #16
 8002f44:	46bd      	mov	sp, r7
 8002f46:	e8bd 81f0 	ldmia.w	sp!, {r4, r5, r6, r7, r8, pc}
 8002f4a:	bf00      	nop

08002f4c <printi>:

/* the following should be enough for 32 bit int */
#define PRINT_BUF_LEN 12

static int printi(char **out, int i, int b, int sg, int width, int pad, int letbase)
{
 8002f4c:	e92d 43f0 	stmdb	sp!, {r4, r5, r6, r7, r8, r9, lr}
 8002f50:	b089      	sub	sp, #36	; 0x24
 8002f52:	af00      	add	r7, sp, #0
 8002f54:	60f8      	str	r0, [r7, #12]
 8002f56:	60b9      	str	r1, [r7, #8]
 8002f58:	607a      	str	r2, [r7, #4]
 8002f5a:	603b      	str	r3, [r7, #0]
	char print_buf[PRINT_BUF_LEN];
	register char *s;
	register int t, neg = 0, pc = 0;
 8002f5c:	f04f 0900 	mov.w	r9, #0
 8002f60:	f04f 0800 	mov.w	r8, #0
	register unsigned int u = (unsigned int)i;
 8002f64:	68bd      	ldr	r5, [r7, #8]

	if (i == 0) {
 8002f66:	68bb      	ldr	r3, [r7, #8]
 8002f68:	2b00      	cmp	r3, #0
 8002f6a:	d10d      	bne.n	8002f88 <printi+0x3c>
		print_buf[0] = '0';
 8002f6c:	2330      	movs	r3, #48	; 0x30
 8002f6e:	753b      	strb	r3, [r7, #20]
		print_buf[1] = '\0';
 8002f70:	2300      	movs	r3, #0
 8002f72:	757b      	strb	r3, [r7, #21]
		return prints (out, print_buf, width, pad);
 8002f74:	f107 0314 	add.w	r3, r7, #20
 8002f78:	68f8      	ldr	r0, [r7, #12]
 8002f7a:	4619      	mov	r1, r3
 8002f7c:	6c3a      	ldr	r2, [r7, #64]	; 0x40
 8002f7e:	6c7b      	ldr	r3, [r7, #68]	; 0x44
 8002f80:	f7ff ff8a 	bl	8002e98 <prints>
 8002f84:	4603      	mov	r3, r0
 8002f86:	e049      	b.n	800301c <printi+0xd0>
	}

	if (sg && b == 10 && i < 0) {
 8002f88:	683b      	ldr	r3, [r7, #0]
 8002f8a:	2b00      	cmp	r3, #0
 8002f8c:	d00a      	beq.n	8002fa4 <printi+0x58>
 8002f8e:	687b      	ldr	r3, [r7, #4]
 8002f90:	2b0a      	cmp	r3, #10
 8002f92:	d107      	bne.n	8002fa4 <printi+0x58>
 8002f94:	68bb      	ldr	r3, [r7, #8]
 8002f96:	2b00      	cmp	r3, #0
 8002f98:	da04      	bge.n	8002fa4 <printi+0x58>
		neg = 1;
 8002f9a:	f04f 0901 	mov.w	r9, #1
		u = (unsigned int)-i;
 8002f9e:	68bb      	ldr	r3, [r7, #8]
 8002fa0:	425b      	negs	r3, r3
 8002fa2:	461d      	mov	r5, r3
	}

	s = print_buf + PRINT_BUF_LEN-1;
 8002fa4:	f107 0414 	add.w	r4, r7, #20
 8002fa8:	340b      	adds	r4, #11
	*s = '\0';
 8002faa:	2300      	movs	r3, #0
 8002fac:	7023      	strb	r3, [r4, #0]

	while (u) {
 8002fae:	e013      	b.n	8002fd8 <printi+0x8c>
		t = (unsigned int)u % b;
 8002fb0:	687b      	ldr	r3, [r7, #4]
 8002fb2:	fbb5 f2f3 	udiv	r2, r5, r3
 8002fb6:	fb03 f302 	mul.w	r3, r3, r2
 8002fba:	1aeb      	subs	r3, r5, r3
 8002fbc:	461e      	mov	r6, r3
		if( t >= 10 )
 8002fbe:	2e09      	cmp	r6, #9
 8002fc0:	dd02      	ble.n	8002fc8 <printi+0x7c>
			t += letbase - '0' - 10;
 8002fc2:	6cbb      	ldr	r3, [r7, #72]	; 0x48
 8002fc4:	3b3a      	subs	r3, #58	; 0x3a
 8002fc6:	441e      	add	r6, r3
		*--s = (char)(t + '0');
 8002fc8:	3c01      	subs	r4, #1
 8002fca:	b2f3      	uxtb	r3, r6
 8002fcc:	3330      	adds	r3, #48	; 0x30
 8002fce:	b2db      	uxtb	r3, r3
 8002fd0:	7023      	strb	r3, [r4, #0]
		u /= b;
 8002fd2:	687b      	ldr	r3, [r7, #4]
 8002fd4:	fbb5 f5f3 	udiv	r5, r5, r3
	}

	s = print_buf + PRINT_BUF_LEN-1;
	*s = '\0';

	while (u) {
 8002fd8:	2d00      	cmp	r5, #0
 8002fda:	d1e9      	bne.n	8002fb0 <printi+0x64>
			t += letbase - '0' - 10;
		*--s = (char)(t + '0');
		u /= b;
	}

	if (neg) {
 8002fdc:	f1b9 0f00 	cmp.w	r9, #0
 8002fe0:	d014      	beq.n	800300c <printi+0xc0>
		if( width && (pad & PAD_ZERO) ) {
 8002fe2:	6c3b      	ldr	r3, [r7, #64]	; 0x40
 8002fe4:	2b00      	cmp	r3, #0
 8002fe6:	d00e      	beq.n	8003006 <printi+0xba>
 8002fe8:	6c7b      	ldr	r3, [r7, #68]	; 0x44
 8002fea:	f003 0302 	and.w	r3, r3, #2
 8002fee:	2b00      	cmp	r3, #0
 8002ff0:	d009      	beq.n	8003006 <printi+0xba>
			printchar (out, '-');
 8002ff2:	68f8      	ldr	r0, [r7, #12]
 8002ff4:	212d      	movs	r1, #45	; 0x2d
 8002ff6:	f7ff ff37 	bl	8002e68 <printchar>
			++pc;
 8002ffa:	f108 0801 	add.w	r8, r8, #1
			--width;
 8002ffe:	6c3b      	ldr	r3, [r7, #64]	; 0x40
 8003000:	3b01      	subs	r3, #1
 8003002:	643b      	str	r3, [r7, #64]	; 0x40
 8003004:	e002      	b.n	800300c <printi+0xc0>
		}
		else {
			*--s = '-';
 8003006:	3c01      	subs	r4, #1
 8003008:	232d      	movs	r3, #45	; 0x2d
 800300a:	7023      	strb	r3, [r4, #0]
		}
	}

	return pc + prints (out, s, width, pad);
 800300c:	68f8      	ldr	r0, [r7, #12]
 800300e:	4621      	mov	r1, r4
 8003010:	6c3a      	ldr	r2, [r7, #64]	; 0x40
 8003012:	6c7b      	ldr	r3, [r7, #68]	; 0x44
 8003014:	f7ff ff40 	bl	8002e98 <prints>
 8003018:	4603      	mov	r3, r0
 800301a:	4443      	add	r3, r8
}
 800301c:	4618      	mov	r0, r3
 800301e:	3724      	adds	r7, #36	; 0x24
 8003020:	46bd      	mov	sp, r7
 8003022:	e8bd 83f0 	ldmia.w	sp!, {r4, r5, r6, r7, r8, r9, pc}
 8003026:	bf00      	nop

08003028 <print>:

static int print( char **out, const char *format, va_list args )
{
 8003028:	e92d 41f0 	stmdb	sp!, {r4, r5, r6, r7, r8, lr}
 800302c:	b08a      	sub	sp, #40	; 0x28
 800302e:	af04      	add	r7, sp, #16
 8003030:	60f8      	str	r0, [r7, #12]
 8003032:	60b9      	str	r1, [r7, #8]
 8003034:	607a      	str	r2, [r7, #4]
	register int width, pad;
	register int pc = 0;
 8003036:	2400      	movs	r4, #0
	char scr[2];

	for (; *format != 0; ++format) {
 8003038:	e0cc      	b.n	80031d4 <print+0x1ac>
		if (*format == '%') {
 800303a:	68bb      	ldr	r3, [r7, #8]
 800303c:	781b      	ldrb	r3, [r3, #0]
 800303e:	2b25      	cmp	r3, #37	; 0x25
 8003040:	f040 80be 	bne.w	80031c0 <print+0x198>
			++format;
 8003044:	68bb      	ldr	r3, [r7, #8]
 8003046:	3301      	adds	r3, #1
 8003048:	60bb      	str	r3, [r7, #8]
			width = pad = 0;
 800304a:	2600      	movs	r6, #0
 800304c:	4635      	mov	r5, r6
			if (*format == '\0') break;
 800304e:	68bb      	ldr	r3, [r7, #8]
 8003050:	781b      	ldrb	r3, [r3, #0]
 8003052:	2b00      	cmp	r3, #0
 8003054:	d100      	bne.n	8003058 <print+0x30>
 8003056:	e0c2      	b.n	80031de <print+0x1b6>
			if (*format == '%') goto out;
 8003058:	68bb      	ldr	r3, [r7, #8]
 800305a:	781b      	ldrb	r3, [r3, #0]
 800305c:	2b25      	cmp	r3, #37	; 0x25
 800305e:	d100      	bne.n	8003062 <print+0x3a>
 8003060:	e0ae      	b.n	80031c0 <print+0x198>
			if (*format == '-') {
 8003062:	68bb      	ldr	r3, [r7, #8]
 8003064:	781b      	ldrb	r3, [r3, #0]
 8003066:	2b2d      	cmp	r3, #45	; 0x2d
 8003068:	d104      	bne.n	8003074 <print+0x4c>
				++format;
 800306a:	68bb      	ldr	r3, [r7, #8]
 800306c:	3301      	adds	r3, #1
 800306e:	60bb      	str	r3, [r7, #8]
				pad = PAD_RIGHT;
 8003070:	2601      	movs	r6, #1
			}
			while (*format == '0') {
 8003072:	e005      	b.n	8003080 <print+0x58>
 8003074:	e004      	b.n	8003080 <print+0x58>
				++format;
 8003076:	68bb      	ldr	r3, [r7, #8]
 8003078:	3301      	adds	r3, #1
 800307a:	60bb      	str	r3, [r7, #8]
				pad |= PAD_ZERO;
 800307c:	f046 0602 	orr.w	r6, r6, #2
			if (*format == '%') goto out;
			if (*format == '-') {
				++format;
				pad = PAD_RIGHT;
			}
			while (*format == '0') {
 8003080:	68bb      	ldr	r3, [r7, #8]
 8003082:	781b      	ldrb	r3, [r3, #0]
 8003084:	2b30      	cmp	r3, #48	; 0x30
 8003086:	d0f6      	beq.n	8003076 <print+0x4e>
				++format;
				pad |= PAD_ZERO;
			}
			for ( ; *format >= '0' && *format <= '9'; ++format) {
 8003088:	e00b      	b.n	80030a2 <print+0x7a>
				width *= 10;
 800308a:	462b      	mov	r3, r5
 800308c:	009b      	lsls	r3, r3, #2
 800308e:	442b      	add	r3, r5
 8003090:	005b      	lsls	r3, r3, #1
 8003092:	461d      	mov	r5, r3
				width += *format - '0';
 8003094:	68bb      	ldr	r3, [r7, #8]
 8003096:	781b      	ldrb	r3, [r3, #0]
 8003098:	3b30      	subs	r3, #48	; 0x30
 800309a:	441d      	add	r5, r3
			}
			while (*format == '0') {
				++format;
				pad |= PAD_ZERO;
			}
			for ( ; *format >= '0' && *format <= '9'; ++format) {
 800309c:	68bb      	ldr	r3, [r7, #8]
 800309e:	3301      	adds	r3, #1
 80030a0:	60bb      	str	r3, [r7, #8]
 80030a2:	68bb      	ldr	r3, [r7, #8]
 80030a4:	781b      	ldrb	r3, [r3, #0]
 80030a6:	2b2f      	cmp	r3, #47	; 0x2f
 80030a8:	d903      	bls.n	80030b2 <print+0x8a>
 80030aa:	68bb      	ldr	r3, [r7, #8]
 80030ac:	781b      	ldrb	r3, [r3, #0]
 80030ae:	2b39      	cmp	r3, #57	; 0x39
 80030b0:	d9eb      	bls.n	800308a <print+0x62>
				width *= 10;
				width += *format - '0';
			}
			if( *format == 's' ) {
 80030b2:	68bb      	ldr	r3, [r7, #8]
 80030b4:	781b      	ldrb	r3, [r3, #0]
 80030b6:	2b73      	cmp	r3, #115	; 0x73
 80030b8:	d113      	bne.n	80030e2 <print+0xba>
				register char *s = (char *)va_arg( args, int );
 80030ba:	687b      	ldr	r3, [r7, #4]
 80030bc:	1d1a      	adds	r2, r3, #4
 80030be:	607a      	str	r2, [r7, #4]
 80030c0:	681b      	ldr	r3, [r3, #0]
 80030c2:	4698      	mov	r8, r3
				pc += prints (out, s?s:"(null)", width, pad);
 80030c4:	f1b8 0f00 	cmp.w	r8, #0
 80030c8:	d001      	beq.n	80030ce <print+0xa6>
 80030ca:	4643      	mov	r3, r8
 80030cc:	e000      	b.n	80030d0 <print+0xa8>
 80030ce:	4b4a      	ldr	r3, [pc, #296]	; (80031f8 <print+0x1d0>)
 80030d0:	68f8      	ldr	r0, [r7, #12]
 80030d2:	4619      	mov	r1, r3
 80030d4:	462a      	mov	r2, r5
 80030d6:	4633      	mov	r3, r6
 80030d8:	f7ff fede 	bl	8002e98 <prints>
 80030dc:	4603      	mov	r3, r0
 80030de:	441c      	add	r4, r3
				continue;
 80030e0:	e075      	b.n	80031ce <print+0x1a6>
			}
			if( *format == 'd' || *format == 'i' ) {
 80030e2:	68bb      	ldr	r3, [r7, #8]
 80030e4:	781b      	ldrb	r3, [r3, #0]
 80030e6:	2b64      	cmp	r3, #100	; 0x64
 80030e8:	d003      	beq.n	80030f2 <print+0xca>
 80030ea:	68bb      	ldr	r3, [r7, #8]
 80030ec:	781b      	ldrb	r3, [r3, #0]
 80030ee:	2b69      	cmp	r3, #105	; 0x69
 80030f0:	d110      	bne.n	8003114 <print+0xec>
				pc += printi (out, va_arg( args, int ), 10, 1, width, pad, 'a');
 80030f2:	687b      	ldr	r3, [r7, #4]
 80030f4:	1d1a      	adds	r2, r3, #4
 80030f6:	607a      	str	r2, [r7, #4]
 80030f8:	681b      	ldr	r3, [r3, #0]
 80030fa:	9500      	str	r5, [sp, #0]
 80030fc:	9601      	str	r6, [sp, #4]
 80030fe:	2261      	movs	r2, #97	; 0x61
 8003100:	9202      	str	r2, [sp, #8]
 8003102:	68f8      	ldr	r0, [r7, #12]
 8003104:	4619      	mov	r1, r3
 8003106:	220a      	movs	r2, #10
 8003108:	2301      	movs	r3, #1
 800310a:	f7ff ff1f 	bl	8002f4c <printi>
 800310e:	4603      	mov	r3, r0
 8003110:	441c      	add	r4, r3
				continue;
 8003112:	e05c      	b.n	80031ce <print+0x1a6>
			}
			if( *format == 'x' ) {
 8003114:	68bb      	ldr	r3, [r7, #8]
 8003116:	781b      	ldrb	r3, [r3, #0]
 8003118:	2b78      	cmp	r3, #120	; 0x78
 800311a:	d110      	bne.n	800313e <print+0x116>
				pc += printi (out, va_arg( args, int ), 16, 0, width, pad, 'a');
 800311c:	687b      	ldr	r3, [r7, #4]
 800311e:	1d1a      	adds	r2, r3, #4
 8003120:	607a      	str	r2, [r7, #4]
 8003122:	681b      	ldr	r3, [r3, #0]
 8003124:	9500      	str	r5, [sp, #0]
 8003126:	9601      	str	r6, [sp, #4]
 8003128:	2261      	movs	r2, #97	; 0x61
 800312a:	9202      	str	r2, [sp, #8]
 800312c:	68f8      	ldr	r0, [r7, #12]
 800312e:	4619      	mov	r1, r3
 8003130:	2210      	movs	r2, #16
 8003132:	2300      	movs	r3, #0
 8003134:	f7ff ff0a 	bl	8002f4c <printi>
 8003138:	4603      	mov	r3, r0
 800313a:	441c      	add	r4, r3
				continue;
 800313c:	e047      	b.n	80031ce <print+0x1a6>
			}
			if( *format == 'X' ) {
 800313e:	68bb      	ldr	r3, [r7, #8]
 8003140:	781b      	ldrb	r3, [r3, #0]
 8003142:	2b58      	cmp	r3, #88	; 0x58
 8003144:	d110      	bne.n	8003168 <print+0x140>
				pc += printi (out, va_arg( args, int ), 16, 0, width, pad, 'A');
 8003146:	687b      	ldr	r3, [r7, #4]
 8003148:	1d1a      	adds	r2, r3, #4
 800314a:	607a      	str	r2, [r7, #4]
 800314c:	681b      	ldr	r3, [r3, #0]
 800314e:	9500      	str	r5, [sp, #0]
 8003150:	9601      	str	r6, [sp, #4]
 8003152:	2241      	movs	r2, #65	; 0x41
 8003154:	9202      	str	r2, [sp, #8]
 8003156:	68f8      	ldr	r0, [r7, #12]
 8003158:	4619      	mov	r1, r3
 800315a:	2210      	movs	r2, #16
 800315c:	2300      	movs	r3, #0
 800315e:	f7ff fef5 	bl	8002f4c <printi>
 8003162:	4603      	mov	r3, r0
 8003164:	441c      	add	r4, r3
				continue;
 8003166:	e032      	b.n	80031ce <print+0x1a6>
			}
			if( *format == 'u' ) {
 8003168:	68bb      	ldr	r3, [r7, #8]
 800316a:	781b      	ldrb	r3, [r3, #0]
 800316c:	2b75      	cmp	r3, #117	; 0x75
 800316e:	d110      	bne.n	8003192 <print+0x16a>
				pc += printi (out, va_arg( args, int ), 10, 0, width, pad, 'a');
 8003170:	687b      	ldr	r3, [r7, #4]
 8003172:	1d1a      	adds	r2, r3, #4
 8003174:	607a      	str	r2, [r7, #4]
 8003176:	681b      	ldr	r3, [r3, #0]
 8003178:	9500      	str	r5, [sp, #0]
 800317a:	9601      	str	r6, [sp, #4]
 800317c:	2261      	movs	r2, #97	; 0x61
 800317e:	9202      	str	r2, [sp, #8]
 8003180:	68f8      	ldr	r0, [r7, #12]
 8003182:	4619      	mov	r1, r3
 8003184:	220a      	movs	r2, #10
 8003186:	2300      	movs	r3, #0
 8003188:	f7ff fee0 	bl	8002f4c <printi>
 800318c:	4603      	mov	r3, r0
 800318e:	441c      	add	r4, r3
				continue;
 8003190:	e01d      	b.n	80031ce <print+0x1a6>
			}
			if( *format == 'c' ) {
 8003192:	68bb      	ldr	r3, [r7, #8]
 8003194:	781b      	ldrb	r3, [r3, #0]
 8003196:	2b63      	cmp	r3, #99	; 0x63
 8003198:	d119      	bne.n	80031ce <print+0x1a6>
				/* char are converted to int then pushed on the stack */
				scr[0] = (char)va_arg( args, int );
 800319a:	687b      	ldr	r3, [r7, #4]
 800319c:	1d1a      	adds	r2, r3, #4
 800319e:	607a      	str	r2, [r7, #4]
 80031a0:	681b      	ldr	r3, [r3, #0]
 80031a2:	b2db      	uxtb	r3, r3
 80031a4:	753b      	strb	r3, [r7, #20]
				scr[1] = '\0';
 80031a6:	2300      	movs	r3, #0
 80031a8:	757b      	strb	r3, [r7, #21]
				pc += prints (out, scr, width, pad);
 80031aa:	f107 0314 	add.w	r3, r7, #20
 80031ae:	68f8      	ldr	r0, [r7, #12]
 80031b0:	4619      	mov	r1, r3
 80031b2:	462a      	mov	r2, r5
 80031b4:	4633      	mov	r3, r6
 80031b6:	f7ff fe6f 	bl	8002e98 <prints>
 80031ba:	4603      	mov	r3, r0
 80031bc:	441c      	add	r4, r3
				continue;
 80031be:	e006      	b.n	80031ce <print+0x1a6>
			}
		}
		else {
		out:
			printchar (out, *format);
 80031c0:	68bb      	ldr	r3, [r7, #8]
 80031c2:	781b      	ldrb	r3, [r3, #0]
 80031c4:	68f8      	ldr	r0, [r7, #12]
 80031c6:	4619      	mov	r1, r3
 80031c8:	f7ff fe4e 	bl	8002e68 <printchar>
			++pc;
 80031cc:	3401      	adds	r4, #1
{
	register int width, pad;
	register int pc = 0;
	char scr[2];

	for (; *format != 0; ++format) {
 80031ce:	68bb      	ldr	r3, [r7, #8]
 80031d0:	3301      	adds	r3, #1
 80031d2:	60bb      	str	r3, [r7, #8]
 80031d4:	68bb      	ldr	r3, [r7, #8]
 80031d6:	781b      	ldrb	r3, [r3, #0]
 80031d8:	2b00      	cmp	r3, #0
 80031da:	f47f af2e 	bne.w	800303a <print+0x12>
		out:
			printchar (out, *format);
			++pc;
		}
	}
	if (out) **out = '\0';
 80031de:	68fb      	ldr	r3, [r7, #12]
 80031e0:	2b00      	cmp	r3, #0
 80031e2:	d003      	beq.n	80031ec <print+0x1c4>
 80031e4:	68fb      	ldr	r3, [r7, #12]
 80031e6:	681b      	ldr	r3, [r3, #0]
 80031e8:	2200      	movs	r2, #0
 80031ea:	701a      	strb	r2, [r3, #0]
	va_end( args );
	return pc;
 80031ec:	4623      	mov	r3, r4
}
 80031ee:	4618      	mov	r0, r3
 80031f0:	3718      	adds	r7, #24
 80031f2:	46bd      	mov	sp, r7
 80031f4:	e8bd 81f0 	ldmia.w	sp!, {r4, r5, r6, r7, r8, pc}
 80031f8:	08009518 	.word	0x08009518

080031fc <sprintf>:
	va_start( args, format );
	return print( 0, format, args );
}

int sprintf(char *out, const char *format, ...)
{
 80031fc:	b40e      	push	{r1, r2, r3}
 80031fe:	b580      	push	{r7, lr}
 8003200:	b085      	sub	sp, #20
 8003202:	af00      	add	r7, sp, #0
 8003204:	6078      	str	r0, [r7, #4]
	va_list args;

	va_start( args, format );
 8003206:	f107 0320 	add.w	r3, r7, #32
 800320a:	60fb      	str	r3, [r7, #12]
	return print( &out, format, args );
 800320c:	1d3b      	adds	r3, r7, #4
 800320e:	4618      	mov	r0, r3
 8003210:	69f9      	ldr	r1, [r7, #28]
 8003212:	68fa      	ldr	r2, [r7, #12]
 8003214:	f7ff ff08 	bl	8003028 <print>
 8003218:	4603      	mov	r3, r0
}
 800321a:	4618      	mov	r0, r3
 800321c:	3714      	adds	r7, #20
 800321e:	46bd      	mov	sp, r7
 8003220:	e8bd 4080 	ldmia.w	sp!, {r7, lr}
 8003224:	b003      	add	sp, #12
 8003226:	4770      	bx	lr

08003228 <NVIC_SetPendingIRQ>:
    The interrupt number cannot be a negative value.

    \param [in]      IRQn  Number of the interrupt for set pending
 */
static __INLINE void NVIC_SetPendingIRQ(IRQn_Type IRQn)
{
 8003228:	b480      	push	{r7}
 800322a:	b083      	sub	sp, #12
 800322c:	af00      	add	r7, sp, #0
 800322e:	4603      	mov	r3, r0
 8003230:	71fb      	strb	r3, [r7, #7]
  NVIC->ISPR[((uint32_t)(IRQn) >> 5)] = (1 << ((uint32_t)(IRQn) & 0x1F)); /* set interrupt pending */
 8003232:	4b09      	ldr	r3, [pc, #36]	; (8003258 <NVIC_SetPendingIRQ+0x30>)
 8003234:	f997 2007 	ldrsb.w	r2, [r7, #7]
 8003238:	0952      	lsrs	r2, r2, #5
 800323a:	79f9      	ldrb	r1, [r7, #7]
 800323c:	f001 011f 	and.w	r1, r1, #31
 8003240:	2001      	movs	r0, #1
 8003242:	fa00 f101 	lsl.w	r1, r0, r1
 8003246:	3240      	adds	r2, #64	; 0x40
 8003248:	f843 1022 	str.w	r1, [r3, r2, lsl #2]
}
 800324c:	370c      	adds	r7, #12
 800324e:	46bd      	mov	sp, r7
 8003250:	f85d 7b04 	ldr.w	r7, [sp], #4
 8003254:	4770      	bx	lr
 8003256:	bf00      	nop
 8003258:	e000e100 	.word	0xe000e100

0800325c <CoreSight_configure>:


#define SWO_BAUD_RATE 230400

void CoreSight_configure(uint32_t SystemCoreClock)
{
 800325c:	b480      	push	{r7}
 800325e:	b085      	sub	sp, #20
 8003260:	af00      	add	r7, sp, #0
 8003262:	6078      	str	r0, [r7, #4]

  uint32_t SWOPrescaler;

  SWOPrescaler = (SystemCoreClock / SWO_BAUD_RATE ) - 1;
 8003264:	687a      	ldr	r2, [r7, #4]
 8003266:	4b15      	ldr	r3, [pc, #84]	; (80032bc <CoreSight_configure+0x60>)
 8003268:	fba3 1302 	umull	r1, r3, r3, r2
 800326c:	0c5b      	lsrs	r3, r3, #17
 800326e:	3b01      	subs	r3, #1
 8003270:	60fb      	str	r3, [r7, #12]

  CoreDebug->DEMCR = 1 << CoreDebug_DEMCR_TRCENA_Pos; /* Enable trace */
 8003272:	4b13      	ldr	r3, [pc, #76]	; (80032c0 <CoreSight_configure+0x64>)
 8003274:	f04f 7280 	mov.w	r2, #16777216	; 0x1000000
 8003278:	60da      	str	r2, [r3, #12]
  *((volatile unsigned *) 0xE0042004) = 0x00000020;   /* DBGMCU_CR */
 800327a:	4b12      	ldr	r3, [pc, #72]	; (80032c4 <CoreSight_configure+0x68>)
 800327c:	2220      	movs	r2, #32
 800327e:	601a      	str	r2, [r3, #0]
  
  
  *((volatile unsigned *) 0xE0040004) = 0x00000001; /* port size -> 1 bit */
 8003280:	4b11      	ldr	r3, [pc, #68]	; (80032c8 <CoreSight_configure+0x6c>)
 8003282:	2201      	movs	r2, #1
 8003284:	601a      	str	r2, [r3, #0]

  /* Set TPIU register->Selected pinprotocol = 10b: Serial Wire Output - NRZ */
  *((volatile unsigned *) 0xE00400F0) = 0x00000002; /* "Selected PIN Protocol Register": Select which protocol to use for trace output (2: SWO)*/
 8003286:	4b11      	ldr	r3, [pc, #68]	; (80032cc <CoreSight_configure+0x70>)
 8003288:	2202      	movs	r2, #2
 800328a:	601a      	str	r2, [r3, #0]

  /* Set TPIU -> Async Clock Prescaler Register [bits 0-12] */
  *((volatile unsigned *) 0xE0040010) = SWOPrescaler; /* "Async Clock Prescaler Register". Scale the baud rate of the asynchronous output */
 800328c:	4b10      	ldr	r3, [pc, #64]	; (80032d0 <CoreSight_configure+0x74>)
 800328e:	68fa      	ldr	r2, [r7, #12]
 8003290:	601a      	str	r2, [r3, #0]

  *((volatile unsigned *) 0xE0040304) = 0x00000100; /* Formatter and Flush Control Register */
 8003292:	4b10      	ldr	r3, [pc, #64]	; (80032d4 <CoreSight_configure+0x78>)
 8003294:	f44f 7280 	mov.w	r2, #256	; 0x100
 8003298:	601a      	str	r2, [r3, #0]

  /* ITM Lock Access Register */
  *((volatile unsigned *) 0xE0000FB0) = 0xC5ACCE55; /* ITM Lock Access Register, C5ACCE55 enables more */
 800329a:	4b0f      	ldr	r3, [pc, #60]	; (80032d8 <CoreSight_configure+0x7c>)
 800329c:	4a0f      	ldr	r2, [pc, #60]	; (80032dc <CoreSight_configure+0x80>)
 800329e:	601a      	str	r2, [r3, #0]
                                                    /* write access to Control Register 0xE00 :: 0xFFC */
  *((volatile unsigned *) 0xE0000E80) = 0x00010005; /* ITM Trace Control Register */
 80032a0:	4b0f      	ldr	r3, [pc, #60]	; (80032e0 <CoreSight_configure+0x84>)
 80032a2:	4a10      	ldr	r2, [pc, #64]	; (80032e4 <CoreSight_configure+0x88>)
 80032a4:	601a      	str	r2, [r3, #0]
  *((volatile unsigned *) 0xE0000E00) = 0x00000001; /* ITM Trace Enable Register. Enabled tracing on stimulus */
 80032a6:	4b10      	ldr	r3, [pc, #64]	; (80032e8 <CoreSight_configure+0x8c>)
 80032a8:	2201      	movs	r2, #1
 80032aa:	601a      	str	r2, [r3, #0]
                                                    /* ports. One bit per stimulus port. */
  *((volatile unsigned *) 0xE0000E40) = 0x00000001; /* ITM Trace Privilege Register */
 80032ac:	4b0f      	ldr	r3, [pc, #60]	; (80032ec <CoreSight_configure+0x90>)
 80032ae:	2201      	movs	r2, #1
 80032b0:	601a      	str	r2, [r3, #0]

  /*  *((volatile unsigned *) 0xE0001000) = 0x400003FE; */ /* DWT_CTRL */

  //  *(volatile unsigned int *)0xE0001000 |= 0x00000001 ;  /* Enable cycle counter*/
  // *(volatile unsigned int *)0xE0001004 = 0;             /* Reset counter */
}
 80032b2:	3714      	adds	r7, #20
 80032b4:	46bd      	mov	sp, r7
 80032b6:	f85d 7b04 	ldr.w	r7, [sp], #4
 80032ba:	4770      	bx	lr
 80032bc:	91a2b3c5 	.word	0x91a2b3c5
 80032c0:	e000edf0 	.word	0xe000edf0
 80032c4:	e0042004 	.word	0xe0042004
 80032c8:	e0040004 	.word	0xe0040004
 80032cc:	e00400f0 	.word	0xe00400f0
 80032d0:	e0040010 	.word	0xe0040010
 80032d4:	e0040304 	.word	0xe0040304
 80032d8:	e0000fb0 	.word	0xe0000fb0
 80032dc:	c5acce55 	.word	0xc5acce55
 80032e0:	e0000e80 	.word	0xe0000e80
 80032e4:	00010005 	.word	0x00010005
 80032e8:	e0000e00 	.word	0xe0000e00
 80032ec:	e0000e40 	.word	0xe0000e40

080032f0 <main>:

/*-----------------------------------------------------------*/

int main(void)
{
 80032f0:	b580      	push	{r7, lr}
 80032f2:	b084      	sub	sp, #16
 80032f4:	af04      	add	r7, sp, #16
	SystemCoreClockUpdate();
 80032f6:	f000 f99f 	bl	8003638 <SystemCoreClockUpdate>

	CoreSight_configure(SystemCoreClock);
 80032fa:	4b44      	ldr	r3, [pc, #272]	; (800340c <main+0x11c>)
 80032fc:	681b      	ldr	r3, [r3, #0]
 80032fe:	4618      	mov	r0, r3
 8003300:	f7ff ffac 	bl	800325c <CoreSight_configure>
	/*<! Configure the hardware ready to run the test. */
	#ifdef DEBUG
	t_printf("Starting\n");
 8003304:	4842      	ldr	r0, [pc, #264]	; (8003410 <main+0x120>)
 8003306:	f002 fc43 	bl	8005b90 <t_printf>
	#endif
	prvSetupHardware();
 800330a:	f000 f8ad 	bl	8003468 <prvSetupHardware>

	xSemaphoreREADLEN = xSemaphoreCreateMutex();
 800330e:	2001      	movs	r0, #1
 8003310:	f001 fb96 	bl	8004a40 <xQueueCreateMutex>
 8003314:	4602      	mov	r2, r0
 8003316:	4b3f      	ldr	r3, [pc, #252]	; (8003414 <main+0x124>)
 8003318:	601a      	str	r2, [r3, #0]
	xSmphrUSART = xSemaphoreCreateBinary();
 800331a:	2001      	movs	r0, #1
 800331c:	2100      	movs	r1, #0
 800331e:	2203      	movs	r2, #3
 8003320:	f001 fb4c 	bl	80049bc <xQueueGenericCreate>
 8003324:	4602      	mov	r2, r0
 8003326:	4b3c      	ldr	r3, [pc, #240]	; (8003418 <main+0x128>)
 8003328:	601a      	str	r2, [r3, #0]
	
	// ============now register CLI commands ===================
	
	FreeRTOS_CLIRegisterCommand( &xMotorCommand );
 800332a:	483c      	ldr	r0, [pc, #240]	; (800341c <main+0x12c>)
 800332c:	f002 fd6e 	bl	8005e0c <FreeRTOS_CLIRegisterCommand>
       	FreeRTOS_CLIRegisterCommand( &xTaskStatsCommand);		
 8003330:	483b      	ldr	r0, [pc, #236]	; (8003420 <main+0x130>)
 8003332:	f002 fd6b 	bl	8005e0c <FreeRTOS_CLIRegisterCommand>

	// create queues 
	QSpd_handle = xQueueCreate(2, sizeof(QueueTelegram));
 8003336:	2002      	movs	r0, #2
 8003338:	211c      	movs	r1, #28
 800333a:	2200      	movs	r2, #0
 800333c:	f001 fb3e 	bl	80049bc <xQueueGenericCreate>
 8003340:	4602      	mov	r2, r0
 8003342:	4b38      	ldr	r3, [pc, #224]	; (8003424 <main+0x134>)
 8003344:	601a      	str	r2, [r3, #0]
	QTCP_handle = xQueueCreate(2, sizeof(QueueTelegram));
 8003346:	2002      	movs	r0, #2
 8003348:	211c      	movs	r1, #28
 800334a:	2200      	movs	r2, #0
 800334c:	f001 fb36 	bl	80049bc <xQueueGenericCreate>
 8003350:	4602      	mov	r2, r0
 8003352:	4b35      	ldr	r3, [pc, #212]	; (8003428 <main+0x138>)
 8003354:	601a      	str	r2, [r3, #0]
/*------------------added by Matic Knap 24 Jun 2014 ---------------------------------*/



	// echo server task 
	if ( xTaskCreate(tcp_srv_Task, "TCPsrv", configMINIMAL_STACK_SIZE * 10, 
 8003356:	2302      	movs	r3, #2
 8003358:	9300      	str	r3, [sp, #0]
 800335a:	4b34      	ldr	r3, [pc, #208]	; (800342c <main+0x13c>)
 800335c:	9301      	str	r3, [sp, #4]
 800335e:	2300      	movs	r3, #0
 8003360:	9302      	str	r3, [sp, #8]
 8003362:	2300      	movs	r3, #0
 8003364:	9303      	str	r3, [sp, #12]
 8003366:	4832      	ldr	r0, [pc, #200]	; (8003430 <main+0x140>)
 8003368:	4932      	ldr	r1, [pc, #200]	; (8003434 <main+0x144>)
 800336a:	f44f 6220 	mov.w	r2, #2560	; 0xa00
 800336e:	2300      	movs	r3, #0
 8003370:	f000 fa58 	bl	8003824 <xTaskGenericCreate>
 8003374:	4603      	mov	r3, r0
 8003376:	2b01      	cmp	r3, #1
 8003378:	d005      	beq.n	8003386 <main+0x96>
			NULL, mainFLASH_TASK_PRIORITY + 1, &set_macTaskHandle)
			!= pdTRUE) 
	{
		#ifdef DEBUG
		t_printf("Error creating tcp_srv_task\n");
 800337a:	482f      	ldr	r0, [pc, #188]	; (8003438 <main+0x148>)
 800337c:	f002 fc08 	bl	8005b90 <t_printf>
		#endif
		return -1;
 8003380:	f04f 33ff 	mov.w	r3, #4294967295	; 0xffffffff
 8003384:	e03e      	b.n	8003404 <main+0x114>
	}
	else
	{
		#ifdef DEBUG
		t_printf("Succsessfully created tcp_srv_task\n");
 8003386:	482d      	ldr	r0, [pc, #180]	; (800343c <main+0x14c>)
 8003388:	f002 fc02 	bl	8005b90 <t_printf>
		#endif
			
	}
	
	// run motor task
	if (xTaskCreate(motorControl_task, "motor", configMINIMAL_STACK_SIZE * 10,
 800338c:	2302      	movs	r3, #2
 800338e:	9300      	str	r3, [sp, #0]
 8003390:	4b2b      	ldr	r3, [pc, #172]	; (8003440 <main+0x150>)
 8003392:	9301      	str	r3, [sp, #4]
 8003394:	2300      	movs	r3, #0
 8003396:	9302      	str	r3, [sp, #8]
 8003398:	2300      	movs	r3, #0
 800339a:	9303      	str	r3, [sp, #12]
 800339c:	4829      	ldr	r0, [pc, #164]	; (8003444 <main+0x154>)
 800339e:	492a      	ldr	r1, [pc, #168]	; (8003448 <main+0x158>)
 80033a0:	f44f 6220 	mov.w	r2, #2560	; 0xa00
 80033a4:	2300      	movs	r3, #0
 80033a6:	f000 fa3d 	bl	8003824 <xTaskGenericCreate>
 80033aa:	4603      	mov	r3, r0
 80033ac:	2b01      	cmp	r3, #1
 80033ae:	d005      	beq.n	80033bc <main+0xcc>
		       	NULL, mainFLASH_TASK_PRIORITY + 1, &motorHBHandle)
		!= pdTRUE)
	{
		#ifdef DEBUG
		t_printf("Error creating motor task.\n");
 80033b0:	4826      	ldr	r0, [pc, #152]	; (800344c <main+0x15c>)
 80033b2:	f002 fbed 	bl	8005b90 <t_printf>
		#endif
		return -1;
 80033b6:	f04f 33ff 	mov.w	r3, #4294967295	; 0xffffffff
 80033ba:	e023      	b.n	8003404 <main+0x114>

	}
	else
	{
		#ifdef DEBUG
		t_printf("Succsessfully created motor task\n");
 80033bc:	4824      	ldr	r0, [pc, #144]	; (8003450 <main+0x160>)
 80033be:	f002 fbe7 	bl	8005b90 <t_printf>
			
	}


	// set motor task 
	if (xTaskCreate(motorHeartBeat_task, "motorHB", configMINIMAL_STACK_SIZE * 5,		       				
 80033c2:	2302      	movs	r3, #2
 80033c4:	9300      	str	r3, [sp, #0]
 80033c6:	2300      	movs	r3, #0
 80033c8:	9301      	str	r3, [sp, #4]
 80033ca:	2300      	movs	r3, #0
 80033cc:	9302      	str	r3, [sp, #8]
 80033ce:	2300      	movs	r3, #0
 80033d0:	9303      	str	r3, [sp, #12]
 80033d2:	4820      	ldr	r0, [pc, #128]	; (8003454 <main+0x164>)
 80033d4:	4920      	ldr	r1, [pc, #128]	; (8003458 <main+0x168>)
 80033d6:	f44f 62a0 	mov.w	r2, #1280	; 0x500
 80033da:	2300      	movs	r3, #0
 80033dc:	f000 fa22 	bl	8003824 <xTaskGenericCreate>
 80033e0:	4603      	mov	r3, r0
 80033e2:	2b01      	cmp	r3, #1
 80033e4:	d005      	beq.n	80033f2 <main+0x102>
			NULL, mainFLASH_TASK_PRIORITY + 1 , NULL)
			!= pdTRUE)
	{
		#ifdef DEBUG
		t_printf("Error creating motorHB task.\n");
 80033e6:	481d      	ldr	r0, [pc, #116]	; (800345c <main+0x16c>)
 80033e8:	f002 fbd2 	bl	8005b90 <t_printf>
		#endif
		return -1;
 80033ec:	f04f 33ff 	mov.w	r3, #4294967295	; 0xffffffff
 80033f0:	e008      	b.n	8003404 <main+0x114>

	}
	else
	{
		#ifdef DEBUG
		t_printf("Succsessfully created motorHB task\n");
 80033f2:	481b      	ldr	r0, [pc, #108]	; (8003460 <main+0x170>)
 80033f4:	f002 fbcc 	bl	8005b90 <t_printf>
	mainCREATE_SIMPLE_LED_FLASHER_DEMO_ONLY is set to 0 (at the top of this
	file).  See the comments at the top of this file for more information. */
	//prvOptionallyCreateComprehensveTestApplication();

	/* Start the scheduler. */
	vTaskStartScheduler();
 80033f8:	f000 fb8e 	bl	8003b18 <vTaskStartScheduler>

	#ifdef DEBUG
	t_printf("\n\nError with scheduler!! .\n\n");
 80033fc:	4819      	ldr	r0, [pc, #100]	; (8003464 <main+0x174>)
 80033fe:	f002 fbc7 	bl	8005b90 <t_printf>
	/* If all is well, the scheduler will now be running, and the following line
	will never be reached.  If the following line does execute, then there was
	insufficient FreeRTOS heap memory available for the idle and/or timer tasks
	to be created.  See the memory management section on the FreeRTOS web site
	for more details. */
	for( ;; );
 8003402:	e7fe      	b.n	8003402 <main+0x112>
}
 8003404:	4618      	mov	r0, r3
 8003406:	46bd      	mov	sp, r7
 8003408:	bd80      	pop	{r7, pc}
 800340a:	bf00      	nop
 800340c:	20000004 	.word	0x20000004
 8003410:	08009594 	.word	0x08009594
 8003414:	20013264 	.word	0x20013264
 8003418:	20014220 	.word	0x20014220
 800341c:	08009c28 	.word	0x08009c28
 8003420:	08009c38 	.word	0x08009c38
 8003424:	20013270 	.word	0x20013270
 8003428:	20014228 	.word	0x20014228
 800342c:	20014230 	.word	0x20014230
 8003430:	0800165d 	.word	0x0800165d
 8003434:	080095a0 	.word	0x080095a0
 8003438:	080095a8 	.word	0x080095a8
 800343c:	080095c8 	.word	0x080095c8
 8003440:	20013268 	.word	0x20013268
 8003444:	08002105 	.word	0x08002105
 8003448:	08009520 	.word	0x08009520
 800344c:	080095ec 	.word	0x080095ec
 8003450:	08009608 	.word	0x08009608
 8003454:	080020cd 	.word	0x080020cd
 8003458:	0800962c 	.word	0x0800962c
 800345c:	08009634 	.word	0x08009634
 8003460:	08009654 	.word	0x08009654
 8003464:	08009678 	.word	0x08009678

08003468 <prvSetupHardware>:
/*! 	\fn static void prvSetupHardware(void) 
 *	\brief Sets up hardware
 * 	
 */
void prvSetupHardware( void )
{
 8003468:	b580      	push	{r7, lr}
 800346a:	b084      	sub	sp, #16
 800346c:	af04      	add	r7, sp, #16
	/* Setup STM32 system (clock, PLL and Flash configuration) */
	SystemInit();
 800346e:	f000 f8af 	bl	80035d0 <SystemInit>

	/* Ensure all priority bits are assigned as preemption priority bits. */
	NVIC_PriorityGroupConfig( NVIC_PriorityGroup_4 );
 8003472:	f44f 7040 	mov.w	r0, #768	; 0x300
 8003476:	f002 ffb7 	bl	80063e8 <NVIC_PriorityGroupConfig>
	
	//init_SPIx();
	init_SPIx();	
 800347a:	f7fc ff49 	bl	8000310 <init_SPIx>
	
	// init USARTx 
	init_USARTx();
 800347e:	f7fe f9d5 	bl	800182c <init_USARTx>
	 * Function : 		init_W5200 from W5200.c file 
	 * Stack size :		5 times minimial stack size 
	 * Task priority :	main flash task priority + 1 
	 * Parameters 	 :	no parameters (NULL)
	 */  
	xTaskCreate(init_W5200, "init_W5200", configMINIMAL_STACK_SIZE, 
 8003482:	2303      	movs	r3, #3
 8003484:	9300      	str	r3, [sp, #0]
 8003486:	2300      	movs	r3, #0
 8003488:	9301      	str	r3, [sp, #4]
 800348a:	2300      	movs	r3, #0
 800348c:	9302      	str	r3, [sp, #8]
 800348e:	2300      	movs	r3, #0
 8003490:	9303      	str	r3, [sp, #12]
 8003492:	4804      	ldr	r0, [pc, #16]	; (80034a4 <prvSetupHardware+0x3c>)
 8003494:	4904      	ldr	r1, [pc, #16]	; (80034a8 <prvSetupHardware+0x40>)
 8003496:	f44f 7280 	mov.w	r2, #256	; 0x100
 800349a:	2300      	movs	r3, #0
 800349c:	f000 f9c2 	bl	8003824 <xTaskGenericCreate>
			NULL, mainFLASH_TASK_PRIORITY + 2 , NULL);


	
	
}
 80034a0:	46bd      	mov	sp, r7
 80034a2:	bd80      	pop	{r7, pc}
 80034a4:	08000ac5 	.word	0x08000ac5
 80034a8:	08009698 	.word	0x08009698

080034ac <vApplicationTickHook>:
/*-----------------------------------------------------------*/

void vApplicationTickHook( void )
{
 80034ac:	b580      	push	{r7, lr}
 80034ae:	af00      	add	r7, sp, #0
	#if ( mainCREATE_SIMPLE_LED_FLASHER_DEMO_ONLY == 0 )
	{
		/* Just to verify that the interrupt nesting behaves as expected,
		increment ulFPUInterruptNesting on entry, and decrement it on exit. */
		ulFPUInterruptNesting++;
 80034b0:	4b06      	ldr	r3, [pc, #24]	; (80034cc <vApplicationTickHook+0x20>)
 80034b2:	681b      	ldr	r3, [r3, #0]
 80034b4:	1c5a      	adds	r2, r3, #1
 80034b6:	4b05      	ldr	r3, [pc, #20]	; (80034cc <vApplicationTickHook+0x20>)
 80034b8:	601a      	str	r2, [r3, #0]

		/* Trigger a timer 2 interrupt, which will fill the registers with a
		different value and itself trigger a timer 3 interrupt.  Note that the
		timers are not actually used.  The timer 2 and 3 interrupt vectors are
		just used for convenience. */
		NVIC_SetPendingIRQ( TIM2_IRQn );
 80034ba:	201c      	movs	r0, #28
 80034bc:	f7ff feb4 	bl	8003228 <NVIC_SetPendingIRQ>
		/* Ensure that, after returning from the nested interrupts, all the FPU
		registers contain the value to which they were set by the tick hook
		function. */
		//configASSERT( ulRegTestCheckFlopRegistersContainParameterValue( 0UL ) );

		ulFPUInterruptNesting--;
 80034c0:	4b02      	ldr	r3, [pc, #8]	; (80034cc <vApplicationTickHook+0x20>)
 80034c2:	681b      	ldr	r3, [r3, #0]
 80034c4:	1e5a      	subs	r2, r3, #1
 80034c6:	4b01      	ldr	r3, [pc, #4]	; (80034cc <vApplicationTickHook+0x20>)
 80034c8:	601a      	str	r2, [r3, #0]
	}
	#endif
}
 80034ca:	bd80      	pop	{r7, pc}
 80034cc:	200004ec 	.word	0x200004ec

080034d0 <TIM3_IRQHandler>:
	NVIC_Init( &NVIC_InitStructure );
}
/*-----------------------------------------------------------*/

void TIM3_IRQHandler( void )
{
 80034d0:	b480      	push	{r7}
 80034d2:	af00      	add	r7, sp, #0
	/* Just to verify that the interrupt nesting behaves as expected, increment
	ulFPUInterruptNesting on entry, and decrement it on exit. */
	ulFPUInterruptNesting++;
 80034d4:	4b0b      	ldr	r3, [pc, #44]	; (8003504 <TIM3_IRQHandler+0x34>)
 80034d6:	681b      	ldr	r3, [r3, #0]
 80034d8:	1c5a      	adds	r2, r3, #1
 80034da:	4b0a      	ldr	r3, [pc, #40]	; (8003504 <TIM3_IRQHandler+0x34>)
 80034dc:	601a      	str	r2, [r3, #0]

	/* This is the highest priority interrupt in the chain of forced nesting
	interrupts, so latch the maximum value reached by ulFPUInterruptNesting.
	This is done purely to allow verification that the nesting depth reaches
	that intended. */
	if( ulFPUInterruptNesting > ulMaxFPUInterruptNesting )
 80034de:	4b09      	ldr	r3, [pc, #36]	; (8003504 <TIM3_IRQHandler+0x34>)
 80034e0:	681a      	ldr	r2, [r3, #0]
 80034e2:	4b09      	ldr	r3, [pc, #36]	; (8003508 <TIM3_IRQHandler+0x38>)
 80034e4:	681b      	ldr	r3, [r3, #0]
 80034e6:	429a      	cmp	r2, r3
 80034e8:	d903      	bls.n	80034f2 <TIM3_IRQHandler+0x22>
	{
		ulMaxFPUInterruptNesting = ulFPUInterruptNesting;
 80034ea:	4b06      	ldr	r3, [pc, #24]	; (8003504 <TIM3_IRQHandler+0x34>)
 80034ec:	681a      	ldr	r2, [r3, #0]
 80034ee:	4b06      	ldr	r3, [pc, #24]	; (8003508 <TIM3_IRQHandler+0x38>)
 80034f0:	601a      	str	r2, [r3, #0]

	/* Fill the FPU registers with 99 to overwrite the values written by
	TIM2_IRQHandler(). */
	//vRegTestClearFlopRegistersToParameterValue( 99UL );

	ulFPUInterruptNesting--;
 80034f2:	4b04      	ldr	r3, [pc, #16]	; (8003504 <TIM3_IRQHandler+0x34>)
 80034f4:	681b      	ldr	r3, [r3, #0]
 80034f6:	1e5a      	subs	r2, r3, #1
 80034f8:	4b02      	ldr	r3, [pc, #8]	; (8003504 <TIM3_IRQHandler+0x34>)
 80034fa:	601a      	str	r2, [r3, #0]
}
 80034fc:	46bd      	mov	sp, r7
 80034fe:	f85d 7b04 	ldr.w	r7, [sp], #4
 8003502:	4770      	bx	lr
 8003504:	200004ec 	.word	0x200004ec
 8003508:	200004f0 	.word	0x200004f0

0800350c <TIM2_IRQHandler>:
/*-----------------------------------------------------------*/

void TIM2_IRQHandler( void )
{
 800350c:	b580      	push	{r7, lr}
 800350e:	af00      	add	r7, sp, #0
	/* Just to verify that the interrupt nesting behaves as expected, increment
	ulFPUInterruptNesting on entry, and decrement it on exit. */
	ulFPUInterruptNesting++;
 8003510:	4b06      	ldr	r3, [pc, #24]	; (800352c <TIM2_IRQHandler+0x20>)
 8003512:	681b      	ldr	r3, [r3, #0]
 8003514:	1c5a      	adds	r2, r3, #1
 8003516:	4b05      	ldr	r3, [pc, #20]	; (800352c <TIM2_IRQHandler+0x20>)
 8003518:	601a      	str	r2, [r3, #0]
	/* Fill the FPU registers with 1. */
	//vRegTestClearFlopRegistersToParameterValue( 1UL );

	/* Trigger a timer 3 interrupt, which will fill the registers with a
	different value. */
	NVIC_SetPendingIRQ( TIM3_IRQn );
 800351a:	201d      	movs	r0, #29
 800351c:	f7ff fe84 	bl	8003228 <NVIC_SetPendingIRQ>
	/* Ensure that, after returning from the nesting interrupt, all the FPU
	registers contain the value to which they were set by this interrupt
	function. */
	//configASSERT( ulRegTestCheckFlopRegistersContainParameterValue( 1UL ) );

	ulFPUInterruptNesting--;
 8003520:	4b02      	ldr	r3, [pc, #8]	; (800352c <TIM2_IRQHandler+0x20>)
 8003522:	681b      	ldr	r3, [r3, #0]
 8003524:	1e5a      	subs	r2, r3, #1
 8003526:	4b01      	ldr	r3, [pc, #4]	; (800352c <TIM2_IRQHandler+0x20>)
 8003528:	601a      	str	r2, [r3, #0]
}
 800352a:	bd80      	pop	{r7, pc}
 800352c:	200004ec 	.word	0x200004ec

08003530 <vApplicationMallocFailedHook>:


/*-----------------------------------------------------------*/

void vApplicationMallocFailedHook( void )
{
 8003530:	b580      	push	{r7, lr}
 8003532:	af00      	add	r7, sp, #0
	demo application.  If heap_1.c or heap_2.c are used, then the size of the
	heap available to pvPortMalloc() is defined by configTOTAL_HEAP_SIZE in
	FreeRTOSConfig.h, and the xPortGetFreeHeapSize() API function can be used
	to query the size of free heap space that remains (although it does not
	provide information on how the remaining heap might be fragmented). */
	taskDISABLE_INTERRUPTS();
 8003534:	f001 ff8c 	bl	8005450 <ulPortSetInterruptMask>
	for( ;; );
 8003538:	e7fe      	b.n	8003538 <vApplicationMallocFailedHook+0x8>
 800353a:	bf00      	nop

0800353c <vApplicationIdleHook>:
}
/*-----------------------------------------------------------*/

void vApplicationIdleHook( void )
{
 800353c:	b480      	push	{r7}
 800353e:	af00      	add	r7, sp, #0
	specified, or call vTaskDelay()).  If the application makes use of the
	vTaskDelete() API function (as this demo application does) then it is also
	important that vApplicationIdleHook() is permitted to return to its calling
	unction, because it is the responsibility of the idle task to clean up
	memory allocated by the kernel to any task that has since been deleted. */
}
 8003540:	46bd      	mov	sp, r7
 8003542:	f85d 7b04 	ldr.w	r7, [sp], #4
 8003546:	4770      	bx	lr

08003548 <vApplicationStackOverflowHook>:
/*-----------------------------------------------------------*/

void vApplicationStackOverflowHook( xTaskHandle pxTask, signed char *pcTaskName )
{
 8003548:	b580      	push	{r7, lr}
 800354a:	b082      	sub	sp, #8
 800354c:	af00      	add	r7, sp, #0
 800354e:	6078      	str	r0, [r7, #4]
 8003550:	6039      	str	r1, [r7, #0]
	( void ) pxTask;

	/* Run time stack overflow checking is performed if
	configCHECK_FOR_STACK_OVERFLOW is defined to 1 or 2.  This hook
	function is called if a stack overflow is detected. */
	taskDISABLE_INTERRUPTS();
 8003552:	f001 ff7d 	bl	8005450 <ulPortSetInterruptMask>
	for( ;; );
 8003556:	e7fe      	b.n	8003556 <vApplicationStackOverflowHook+0xe>

08003558 <assert_failed>:
}
///*-----------------------------------------------------------*/
void assert_failed(uint8_t* file, uint32_t line){
 8003558:	b480      	push	{r7}
 800355a:	b083      	sub	sp, #12
 800355c:	af00      	add	r7, sp, #0
 800355e:	6078      	str	r0, [r7, #4]
 8003560:	6039      	str	r1, [r7, #0]

}
 8003562:	370c      	adds	r7, #12
 8003564:	46bd      	mov	sp, r7
 8003566:	f85d 7b04 	ldr.w	r7, [sp], #4
 800356a:	4770      	bx	lr

0800356c <Reset_Handler>:
 800356c:	2100      	movs	r1, #0
 800356e:	f000 b804 	b.w	800357a <LoopCopyDataInit>

08003572 <CopyDataInit>:
 8003572:	4b10      	ldr	r3, [pc, #64]	; (80035b4 <LoopFillZerobss+0x22>)
 8003574:	585b      	ldr	r3, [r3, r1]
 8003576:	5043      	str	r3, [r0, r1]
 8003578:	3104      	adds	r1, #4

0800357a <LoopCopyDataInit>:
 800357a:	480f      	ldr	r0, [pc, #60]	; (80035b8 <LoopFillZerobss+0x26>)
 800357c:	4b0f      	ldr	r3, [pc, #60]	; (80035bc <LoopFillZerobss+0x2a>)
 800357e:	1842      	adds	r2, r0, r1
 8003580:	429a      	cmp	r2, r3
 8003582:	f4ff aff6 	bcc.w	8003572 <CopyDataInit>
 8003586:	4a0e      	ldr	r2, [pc, #56]	; (80035c0 <LoopFillZerobss+0x2e>)
 8003588:	f000 b803 	b.w	8003592 <LoopFillZerobss>

0800358c <FillZerobss>:
 800358c:	2300      	movs	r3, #0
 800358e:	f842 3b04 	str.w	r3, [r2], #4

08003592 <LoopFillZerobss>:
 8003592:	4b0c      	ldr	r3, [pc, #48]	; (80035c4 <LoopFillZerobss+0x32>)
 8003594:	429a      	cmp	r2, r3
 8003596:	f4ff aff9 	bcc.w	800358c <FillZerobss>
 800359a:	480b      	ldr	r0, [pc, #44]	; (80035c8 <LoopFillZerobss+0x36>)
 800359c:	6801      	ldr	r1, [r0, #0]
 800359e:	f441 0170 	orr.w	r1, r1, #15728640	; 0xf00000
 80035a2:	6001      	str	r1, [r0, #0]
 80035a4:	f000 f814 	bl	80035d0 <SystemInit>
 80035a8:	f005 fa88 	bl	8008abc <__libc_init_array>
 80035ac:	f7ff fea0 	bl	80032f0 <main>
 80035b0:	4770      	bx	lr
 80035b2:	0000      	.short	0x0000
 80035b4:	08009d9c 	.word	0x08009d9c
 80035b8:	20000000 	.word	0x20000000
 80035bc:	20000470 	.word	0x20000470
 80035c0:	20000470 	.word	0x20000470
 80035c4:	2001448c 	.word	0x2001448c
 80035c8:	e000ed88 	.word	0xe000ed88

080035cc <ADC_IRQHandler>:
 80035cc:	f7ff bffe 	b.w	80035cc <ADC_IRQHandler>

080035d0 <SystemInit>:
  *         SystemFrequency variable.
  * @param  None
  * @retval None
  */
void SystemInit(void)
{
 80035d0:	b580      	push	{r7, lr}
 80035d2:	af00      	add	r7, sp, #0
  /* FPU settings ------------------------------------------------------------*/
  #if (__FPU_PRESENT == 1) && (__FPU_USED == 1)
    SCB->CPACR |= ((3UL << 10*2)|(3UL << 11*2));  /* set CP10 and CP11 Full Access */
 80035d4:	4b15      	ldr	r3, [pc, #84]	; (800362c <SystemInit+0x5c>)
 80035d6:	4a15      	ldr	r2, [pc, #84]	; (800362c <SystemInit+0x5c>)
 80035d8:	f8d2 2088 	ldr.w	r2, [r2, #136]	; 0x88
 80035dc:	f442 0270 	orr.w	r2, r2, #15728640	; 0xf00000
 80035e0:	f8c3 2088 	str.w	r2, [r3, #136]	; 0x88
  #endif
  /* Reset the RCC clock configuration to the default reset state ------------*/
  /* Set HSION bit */
  RCC->CR |= (uint32_t)0x00000001;
 80035e4:	4b12      	ldr	r3, [pc, #72]	; (8003630 <SystemInit+0x60>)
 80035e6:	4a12      	ldr	r2, [pc, #72]	; (8003630 <SystemInit+0x60>)
 80035e8:	6812      	ldr	r2, [r2, #0]
 80035ea:	f042 0201 	orr.w	r2, r2, #1
 80035ee:	601a      	str	r2, [r3, #0]

  /* Reset CFGR register */
  RCC->CFGR = 0x00000000;
 80035f0:	4b0f      	ldr	r3, [pc, #60]	; (8003630 <SystemInit+0x60>)
 80035f2:	2200      	movs	r2, #0
 80035f4:	609a      	str	r2, [r3, #8]

  /* Reset HSEON, CSSON and PLLON bits */
  RCC->CR &= (uint32_t)0xFEF6FFFF;
 80035f6:	4a0e      	ldr	r2, [pc, #56]	; (8003630 <SystemInit+0x60>)
 80035f8:	4b0d      	ldr	r3, [pc, #52]	; (8003630 <SystemInit+0x60>)
 80035fa:	681b      	ldr	r3, [r3, #0]
 80035fc:	f023 7384 	bic.w	r3, r3, #17301504	; 0x1080000
 8003600:	f423 3380 	bic.w	r3, r3, #65536	; 0x10000
 8003604:	6013      	str	r3, [r2, #0]

  /* Reset PLLCFGR register */
  RCC->PLLCFGR = 0x24003010;
 8003606:	4b0a      	ldr	r3, [pc, #40]	; (8003630 <SystemInit+0x60>)
 8003608:	4a0a      	ldr	r2, [pc, #40]	; (8003634 <SystemInit+0x64>)
 800360a:	605a      	str	r2, [r3, #4]

  /* Reset HSEBYP bit */
  RCC->CR &= (uint32_t)0xFFFBFFFF;
 800360c:	4b08      	ldr	r3, [pc, #32]	; (8003630 <SystemInit+0x60>)
 800360e:	4a08      	ldr	r2, [pc, #32]	; (8003630 <SystemInit+0x60>)
 8003610:	6812      	ldr	r2, [r2, #0]
 8003612:	f422 2280 	bic.w	r2, r2, #262144	; 0x40000
 8003616:	601a      	str	r2, [r3, #0]

  /* Disable all interrupts */
  RCC->CIR = 0x00000000;
 8003618:	4b05      	ldr	r3, [pc, #20]	; (8003630 <SystemInit+0x60>)
 800361a:	2200      	movs	r2, #0
 800361c:	60da      	str	r2, [r3, #12]
  SystemInit_ExtMemCtl(); 
#endif /* DATA_IN_ExtSRAM */
         
  /* Configure the System clock source, PLL Multiplier and Divider factors, 
     AHB/APBx prescalers and Flash settings ----------------------------------*/
  SetSysClock();
 800361e:	f000 f887 	bl	8003730 <SetSysClock>

  /* Configure the Vector Table location add offset address ------------------*/
#ifdef VECT_TAB_SRAM
  SCB->VTOR = SRAM_BASE | VECT_TAB_OFFSET; /* Vector Table Relocation in Internal SRAM */
#else
  SCB->VTOR = FLASH_BASE | VECT_TAB_OFFSET; /* Vector Table Relocation in Internal FLASH */
 8003622:	4b02      	ldr	r3, [pc, #8]	; (800362c <SystemInit+0x5c>)
 8003624:	f04f 6200 	mov.w	r2, #134217728	; 0x8000000
 8003628:	609a      	str	r2, [r3, #8]
#endif
}
 800362a:	bd80      	pop	{r7, pc}
 800362c:	e000ed00 	.word	0xe000ed00
 8003630:	40023800 	.word	0x40023800
 8003634:	24003010 	.word	0x24003010

08003638 <SystemCoreClockUpdate>:
  *     
  * @param  None
  * @retval None
  */
void SystemCoreClockUpdate(void)
{
 8003638:	b480      	push	{r7}
 800363a:	b087      	sub	sp, #28
 800363c:	af00      	add	r7, sp, #0
  uint32_t tmp = 0, pllvco = 0, pllp = 2, pllsource = 0, pllm = 2;
 800363e:	2300      	movs	r3, #0
 8003640:	613b      	str	r3, [r7, #16]
 8003642:	2300      	movs	r3, #0
 8003644:	617b      	str	r3, [r7, #20]
 8003646:	2302      	movs	r3, #2
 8003648:	60fb      	str	r3, [r7, #12]
 800364a:	2300      	movs	r3, #0
 800364c:	60bb      	str	r3, [r7, #8]
 800364e:	2302      	movs	r3, #2
 8003650:	607b      	str	r3, [r7, #4]
  
  /* Get SYSCLK source -------------------------------------------------------*/
  tmp = RCC->CFGR & RCC_CFGR_SWS;
 8003652:	4b32      	ldr	r3, [pc, #200]	; (800371c <SystemCoreClockUpdate+0xe4>)
 8003654:	689b      	ldr	r3, [r3, #8]
 8003656:	f003 030c 	and.w	r3, r3, #12
 800365a:	613b      	str	r3, [r7, #16]

  switch (tmp)
 800365c:	693b      	ldr	r3, [r7, #16]
 800365e:	2b04      	cmp	r3, #4
 8003660:	d007      	beq.n	8003672 <SystemCoreClockUpdate+0x3a>
 8003662:	2b08      	cmp	r3, #8
 8003664:	d009      	beq.n	800367a <SystemCoreClockUpdate+0x42>
 8003666:	2b00      	cmp	r3, #0
 8003668:	d13f      	bne.n	80036ea <SystemCoreClockUpdate+0xb2>
  {
    case 0x00:  /* HSI used as system clock source */
      SystemCoreClock = HSI_VALUE;
 800366a:	4b2d      	ldr	r3, [pc, #180]	; (8003720 <SystemCoreClockUpdate+0xe8>)
 800366c:	4a2d      	ldr	r2, [pc, #180]	; (8003724 <SystemCoreClockUpdate+0xec>)
 800366e:	601a      	str	r2, [r3, #0]
      break;
 8003670:	e03f      	b.n	80036f2 <SystemCoreClockUpdate+0xba>
    case 0x04:  /* HSE used as system clock source */
      SystemCoreClock = HSE_VALUE;
 8003672:	4b2b      	ldr	r3, [pc, #172]	; (8003720 <SystemCoreClockUpdate+0xe8>)
 8003674:	4a2c      	ldr	r2, [pc, #176]	; (8003728 <SystemCoreClockUpdate+0xf0>)
 8003676:	601a      	str	r2, [r3, #0]
      break;
 8003678:	e03b      	b.n	80036f2 <SystemCoreClockUpdate+0xba>
    case 0x08:  /* PLL used as system clock source */

      /* PLL_VCO = (HSE_VALUE or HSI_VALUE / PLL_M) * PLL_N
         SYSCLK = PLL_VCO / PLL_P
         */    
      pllsource = (RCC->PLLCFGR & RCC_PLLCFGR_PLLSRC) >> 22;
 800367a:	4b28      	ldr	r3, [pc, #160]	; (800371c <SystemCoreClockUpdate+0xe4>)
 800367c:	685b      	ldr	r3, [r3, #4]
 800367e:	f403 0380 	and.w	r3, r3, #4194304	; 0x400000
 8003682:	0d9b      	lsrs	r3, r3, #22
 8003684:	60bb      	str	r3, [r7, #8]
      pllm = RCC->PLLCFGR & RCC_PLLCFGR_PLLM;
 8003686:	4b25      	ldr	r3, [pc, #148]	; (800371c <SystemCoreClockUpdate+0xe4>)
 8003688:	685b      	ldr	r3, [r3, #4]
 800368a:	f003 033f 	and.w	r3, r3, #63	; 0x3f
 800368e:	607b      	str	r3, [r7, #4]
      
      if (pllsource != 0)
 8003690:	68bb      	ldr	r3, [r7, #8]
 8003692:	2b00      	cmp	r3, #0
 8003694:	d00d      	beq.n	80036b2 <SystemCoreClockUpdate+0x7a>
      {
        /* HSE used as PLL clock source */
        pllvco = (HSE_VALUE / pllm) * ((RCC->PLLCFGR & RCC_PLLCFGR_PLLN) >> 6);
 8003696:	4a24      	ldr	r2, [pc, #144]	; (8003728 <SystemCoreClockUpdate+0xf0>)
 8003698:	687b      	ldr	r3, [r7, #4]
 800369a:	fbb2 f2f3 	udiv	r2, r2, r3
 800369e:	4b1f      	ldr	r3, [pc, #124]	; (800371c <SystemCoreClockUpdate+0xe4>)
 80036a0:	6859      	ldr	r1, [r3, #4]
 80036a2:	f647 73c0 	movw	r3, #32704	; 0x7fc0
 80036a6:	400b      	ands	r3, r1
 80036a8:	099b      	lsrs	r3, r3, #6
 80036aa:	fb03 f302 	mul.w	r3, r3, r2
 80036ae:	617b      	str	r3, [r7, #20]
 80036b0:	e00c      	b.n	80036cc <SystemCoreClockUpdate+0x94>
      }
      else
      {
        /* HSI used as PLL clock source */
        pllvco = (HSI_VALUE / pllm) * ((RCC->PLLCFGR & RCC_PLLCFGR_PLLN) >> 6);      
 80036b2:	4a1c      	ldr	r2, [pc, #112]	; (8003724 <SystemCoreClockUpdate+0xec>)
 80036b4:	687b      	ldr	r3, [r7, #4]
 80036b6:	fbb2 f2f3 	udiv	r2, r2, r3
 80036ba:	4b18      	ldr	r3, [pc, #96]	; (800371c <SystemCoreClockUpdate+0xe4>)
 80036bc:	6859      	ldr	r1, [r3, #4]
 80036be:	f647 73c0 	movw	r3, #32704	; 0x7fc0
 80036c2:	400b      	ands	r3, r1
 80036c4:	099b      	lsrs	r3, r3, #6
 80036c6:	fb03 f302 	mul.w	r3, r3, r2
 80036ca:	617b      	str	r3, [r7, #20]
      }

      pllp = (((RCC->PLLCFGR & RCC_PLLCFGR_PLLP) >>16) + 1 ) *2;
 80036cc:	4b13      	ldr	r3, [pc, #76]	; (800371c <SystemCoreClockUpdate+0xe4>)
 80036ce:	685b      	ldr	r3, [r3, #4]
 80036d0:	f403 3340 	and.w	r3, r3, #196608	; 0x30000
 80036d4:	0c1b      	lsrs	r3, r3, #16
 80036d6:	3301      	adds	r3, #1
 80036d8:	005b      	lsls	r3, r3, #1
 80036da:	60fb      	str	r3, [r7, #12]
      SystemCoreClock = pllvco/pllp;
 80036dc:	697a      	ldr	r2, [r7, #20]
 80036de:	68fb      	ldr	r3, [r7, #12]
 80036e0:	fbb2 f2f3 	udiv	r2, r2, r3
 80036e4:	4b0e      	ldr	r3, [pc, #56]	; (8003720 <SystemCoreClockUpdate+0xe8>)
 80036e6:	601a      	str	r2, [r3, #0]
      break;
 80036e8:	e003      	b.n	80036f2 <SystemCoreClockUpdate+0xba>
    default:
      SystemCoreClock = HSI_VALUE;
 80036ea:	4b0d      	ldr	r3, [pc, #52]	; (8003720 <SystemCoreClockUpdate+0xe8>)
 80036ec:	4a0d      	ldr	r2, [pc, #52]	; (8003724 <SystemCoreClockUpdate+0xec>)
 80036ee:	601a      	str	r2, [r3, #0]
      break;
 80036f0:	bf00      	nop
  }
  /* Compute HCLK frequency --------------------------------------------------*/
  /* Get HCLK prescaler */
  tmp = AHBPrescTable[((RCC->CFGR & RCC_CFGR_HPRE) >> 4)];
 80036f2:	4b0a      	ldr	r3, [pc, #40]	; (800371c <SystemCoreClockUpdate+0xe4>)
 80036f4:	689b      	ldr	r3, [r3, #8]
 80036f6:	f003 03f0 	and.w	r3, r3, #240	; 0xf0
 80036fa:	091b      	lsrs	r3, r3, #4
 80036fc:	4a0b      	ldr	r2, [pc, #44]	; (800372c <SystemCoreClockUpdate+0xf4>)
 80036fe:	5cd3      	ldrb	r3, [r2, r3]
 8003700:	b2db      	uxtb	r3, r3
 8003702:	613b      	str	r3, [r7, #16]
  /* HCLK frequency */
  SystemCoreClock >>= tmp;
 8003704:	4b06      	ldr	r3, [pc, #24]	; (8003720 <SystemCoreClockUpdate+0xe8>)
 8003706:	681a      	ldr	r2, [r3, #0]
 8003708:	693b      	ldr	r3, [r7, #16]
 800370a:	40da      	lsrs	r2, r3
 800370c:	4b04      	ldr	r3, [pc, #16]	; (8003720 <SystemCoreClockUpdate+0xe8>)
 800370e:	601a      	str	r2, [r3, #0]
}
 8003710:	371c      	adds	r7, #28
 8003712:	46bd      	mov	sp, r7
 8003714:	f85d 7b04 	ldr.w	r7, [sp], #4
 8003718:	4770      	bx	lr
 800371a:	bf00      	nop
 800371c:	40023800 	.word	0x40023800
 8003720:	20000004 	.word	0x20000004
 8003724:	00f42400 	.word	0x00f42400
 8003728:	017d7840 	.word	0x017d7840
 800372c:	20000008 	.word	0x20000008

08003730 <SetSysClock>:
  *         is reset to the default reset state (done in SystemInit() function).   
  * @param  None
  * @retval None
  */
static void SetSysClock(void)
{
 8003730:	b480      	push	{r7}
 8003732:	b083      	sub	sp, #12
 8003734:	af00      	add	r7, sp, #0
/******************************************************************************/
/*            PLL (clocked by HSE) used as System clock source                */
/******************************************************************************/
  __IO uint32_t StartUpCounter = 0, HSEStatus = 0;
 8003736:	2300      	movs	r3, #0
 8003738:	607b      	str	r3, [r7, #4]
 800373a:	2300      	movs	r3, #0
 800373c:	603b      	str	r3, [r7, #0]
  
  /* Enable HSE */
  RCC->CR |= ((uint32_t)RCC_CR_HSEON);
 800373e:	4b35      	ldr	r3, [pc, #212]	; (8003814 <SetSysClock+0xe4>)
 8003740:	4a34      	ldr	r2, [pc, #208]	; (8003814 <SetSysClock+0xe4>)
 8003742:	6812      	ldr	r2, [r2, #0]
 8003744:	f442 3280 	orr.w	r2, r2, #65536	; 0x10000
 8003748:	601a      	str	r2, [r3, #0]
 
  /* Wait till HSE is ready and if Time out is reached exit */
  do
  {
    HSEStatus = RCC->CR & RCC_CR_HSERDY;
 800374a:	4b32      	ldr	r3, [pc, #200]	; (8003814 <SetSysClock+0xe4>)
 800374c:	681b      	ldr	r3, [r3, #0]
 800374e:	f403 3300 	and.w	r3, r3, #131072	; 0x20000
 8003752:	603b      	str	r3, [r7, #0]
    StartUpCounter++;
 8003754:	687b      	ldr	r3, [r7, #4]
 8003756:	3301      	adds	r3, #1
 8003758:	607b      	str	r3, [r7, #4]
  } while((HSEStatus == 0) && (StartUpCounter != HSE_STARTUP_TIMEOUT));
 800375a:	683b      	ldr	r3, [r7, #0]
 800375c:	2b00      	cmp	r3, #0
 800375e:	d103      	bne.n	8003768 <SetSysClock+0x38>
 8003760:	687b      	ldr	r3, [r7, #4]
 8003762:	f5b3 6fa0 	cmp.w	r3, #1280	; 0x500
 8003766:	d1f0      	bne.n	800374a <SetSysClock+0x1a>

  if ((RCC->CR & RCC_CR_HSERDY) != RESET)
 8003768:	4b2a      	ldr	r3, [pc, #168]	; (8003814 <SetSysClock+0xe4>)
 800376a:	681b      	ldr	r3, [r3, #0]
 800376c:	f403 3300 	and.w	r3, r3, #131072	; 0x20000
 8003770:	2b00      	cmp	r3, #0
 8003772:	d002      	beq.n	800377a <SetSysClock+0x4a>
  {
    HSEStatus = (uint32_t)0x01;
 8003774:	2301      	movs	r3, #1
 8003776:	603b      	str	r3, [r7, #0]
 8003778:	e001      	b.n	800377e <SetSysClock+0x4e>
  }
  else
  {
    HSEStatus = (uint32_t)0x00;
 800377a:	2300      	movs	r3, #0
 800377c:	603b      	str	r3, [r7, #0]
  }

  if (HSEStatus == (uint32_t)0x01)
 800377e:	683b      	ldr	r3, [r7, #0]
 8003780:	2b01      	cmp	r3, #1
 8003782:	d142      	bne.n	800380a <SetSysClock+0xda>
  {
    /* Select regulator voltage output Scale 1 mode, System frequency up to 168 MHz */
    RCC->APB1ENR |= RCC_APB1ENR_PWREN;
 8003784:	4b23      	ldr	r3, [pc, #140]	; (8003814 <SetSysClock+0xe4>)
 8003786:	4a23      	ldr	r2, [pc, #140]	; (8003814 <SetSysClock+0xe4>)
 8003788:	6c12      	ldr	r2, [r2, #64]	; 0x40
 800378a:	f042 5280 	orr.w	r2, r2, #268435456	; 0x10000000
 800378e:	641a      	str	r2, [r3, #64]	; 0x40
    PWR->CR |= PWR_CR_VOS;
 8003790:	4b21      	ldr	r3, [pc, #132]	; (8003818 <SetSysClock+0xe8>)
 8003792:	4a21      	ldr	r2, [pc, #132]	; (8003818 <SetSysClock+0xe8>)
 8003794:	6812      	ldr	r2, [r2, #0]
 8003796:	f442 4280 	orr.w	r2, r2, #16384	; 0x4000
 800379a:	601a      	str	r2, [r3, #0]

    /* HCLK = SYSCLK / 1*/
    RCC->CFGR |= RCC_CFGR_HPRE_DIV1;
 800379c:	4b1d      	ldr	r3, [pc, #116]	; (8003814 <SetSysClock+0xe4>)
 800379e:	4a1d      	ldr	r2, [pc, #116]	; (8003814 <SetSysClock+0xe4>)
 80037a0:	6892      	ldr	r2, [r2, #8]
 80037a2:	609a      	str	r2, [r3, #8]
      
    /* PCLK2 = HCLK / 2*/
    RCC->CFGR |= RCC_CFGR_PPRE2_DIV2;
 80037a4:	4b1b      	ldr	r3, [pc, #108]	; (8003814 <SetSysClock+0xe4>)
 80037a6:	4a1b      	ldr	r2, [pc, #108]	; (8003814 <SetSysClock+0xe4>)
 80037a8:	6892      	ldr	r2, [r2, #8]
 80037aa:	f442 4200 	orr.w	r2, r2, #32768	; 0x8000
 80037ae:	609a      	str	r2, [r3, #8]
    
    /* PCLK1 = HCLK / 4*/
    RCC->CFGR |= RCC_CFGR_PPRE1_DIV4;
 80037b0:	4b18      	ldr	r3, [pc, #96]	; (8003814 <SetSysClock+0xe4>)
 80037b2:	4a18      	ldr	r2, [pc, #96]	; (8003814 <SetSysClock+0xe4>)
 80037b4:	6892      	ldr	r2, [r2, #8]
 80037b6:	f442 52a0 	orr.w	r2, r2, #5120	; 0x1400
 80037ba:	609a      	str	r2, [r3, #8]

    /* Configure the main PLL */
    RCC->PLLCFGR = PLL_M | (PLL_N << 6) | (((PLL_P >> 1) -1) << 16) |
 80037bc:	4b15      	ldr	r3, [pc, #84]	; (8003814 <SetSysClock+0xe4>)
 80037be:	4a17      	ldr	r2, [pc, #92]	; (800381c <SetSysClock+0xec>)
 80037c0:	605a      	str	r2, [r3, #4]
                   (RCC_PLLCFGR_PLLSRC_HSE) | (PLL_Q << 24);

    /* Enable the main PLL */
    RCC->CR |= RCC_CR_PLLON;
 80037c2:	4b14      	ldr	r3, [pc, #80]	; (8003814 <SetSysClock+0xe4>)
 80037c4:	4a13      	ldr	r2, [pc, #76]	; (8003814 <SetSysClock+0xe4>)
 80037c6:	6812      	ldr	r2, [r2, #0]
 80037c8:	f042 7280 	orr.w	r2, r2, #16777216	; 0x1000000
 80037cc:	601a      	str	r2, [r3, #0]

    /* Wait till the main PLL is ready */
    while((RCC->CR & RCC_CR_PLLRDY) == 0)
 80037ce:	bf00      	nop
 80037d0:	4b10      	ldr	r3, [pc, #64]	; (8003814 <SetSysClock+0xe4>)
 80037d2:	681b      	ldr	r3, [r3, #0]
 80037d4:	f003 7300 	and.w	r3, r3, #33554432	; 0x2000000
 80037d8:	2b00      	cmp	r3, #0
 80037da:	d0f9      	beq.n	80037d0 <SetSysClock+0xa0>
    {
    }
   
    /* Configure Flash prefetch, Instruction cache, Data cache and wait state */
    FLASH->ACR = FLASH_ACR_ICEN |FLASH_ACR_DCEN |FLASH_ACR_LATENCY_4WS;
 80037dc:	4b10      	ldr	r3, [pc, #64]	; (8003820 <SetSysClock+0xf0>)
 80037de:	f240 6204 	movw	r2, #1540	; 0x604
 80037e2:	601a      	str	r2, [r3, #0]

    /* Select the main PLL as system clock source */
    RCC->CFGR &= (uint32_t)((uint32_t)~(RCC_CFGR_SW));
 80037e4:	4b0b      	ldr	r3, [pc, #44]	; (8003814 <SetSysClock+0xe4>)
 80037e6:	4a0b      	ldr	r2, [pc, #44]	; (8003814 <SetSysClock+0xe4>)
 80037e8:	6892      	ldr	r2, [r2, #8]
 80037ea:	f022 0203 	bic.w	r2, r2, #3
 80037ee:	609a      	str	r2, [r3, #8]
    RCC->CFGR |= RCC_CFGR_SW_PLL;
 80037f0:	4b08      	ldr	r3, [pc, #32]	; (8003814 <SetSysClock+0xe4>)
 80037f2:	4a08      	ldr	r2, [pc, #32]	; (8003814 <SetSysClock+0xe4>)
 80037f4:	6892      	ldr	r2, [r2, #8]
 80037f6:	f042 0202 	orr.w	r2, r2, #2
 80037fa:	609a      	str	r2, [r3, #8]

    /* Wait till the main PLL is used as system clock source */
    while ((RCC->CFGR & (uint32_t)RCC_CFGR_SWS ) != RCC_CFGR_SWS_PLL);
 80037fc:	bf00      	nop
 80037fe:	4b05      	ldr	r3, [pc, #20]	; (8003814 <SetSysClock+0xe4>)
 8003800:	689b      	ldr	r3, [r3, #8]
 8003802:	f003 030c 	and.w	r3, r3, #12
 8003806:	2b08      	cmp	r3, #8
 8003808:	d1f9      	bne.n	80037fe <SetSysClock+0xce>
  else
  { /* If HSE fails to start-up, the application will have wrong clock
         configuration. User can add here some code to deal with this error */
  }

}
 800380a:	370c      	adds	r7, #12
 800380c:	46bd      	mov	sp, r7
 800380e:	f85d 7b04 	ldr.w	r7, [sp], #4
 8003812:	4770      	bx	lr
 8003814:	40023800 	.word	0x40023800
 8003818:	40007000 	.word	0x40007000
 800381c:	07404b19 	.word	0x07404b19
 8003820:	40023c00 	.word	0x40023c00

08003824 <xTaskGenericCreate>:
	static portTickType prvGetExpectedIdleTime( void ) PRIVILEGED_FUNCTION;

#endif

signed portBASE_TYPE xTaskGenericCreate( pdTASK_CODE pxTaskCode, const signed char * const pcName, unsigned short usStackDepth, void *pvParameters, unsigned portBASE_TYPE uxPriority, xTaskHandle *pxCreatedTask, portSTACK_TYPE *puxStackBuffer, const xMemoryRegion * const xRegions )
{
 8003824:	b580      	push	{r7, lr}
 8003826:	b08a      	sub	sp, #40	; 0x28
 8003828:	af02      	add	r7, sp, #8
 800382a:	60f8      	str	r0, [r7, #12]
 800382c:	60b9      	str	r1, [r7, #8]
 800382e:	603b      	str	r3, [r7, #0]
 8003830:	4613      	mov	r3, r2
 8003832:	80fb      	strh	r3, [r7, #6]
signed portBASE_TYPE xReturn;
tskTCB * pxNewTCB;

	configASSERT( pxTaskCode );
 8003834:	68fb      	ldr	r3, [r7, #12]
 8003836:	2b00      	cmp	r3, #0
 8003838:	d102      	bne.n	8003840 <xTaskGenericCreate+0x1c>
 800383a:	f001 fe09 	bl	8005450 <ulPortSetInterruptMask>
 800383e:	e7fe      	b.n	800383e <xTaskGenericCreate+0x1a>
	configASSERT( ( ( uxPriority & ( ~portPRIVILEGE_BIT ) ) < configMAX_PRIORITIES ) );
 8003840:	6abb      	ldr	r3, [r7, #40]	; 0x28
 8003842:	2b04      	cmp	r3, #4
 8003844:	d902      	bls.n	800384c <xTaskGenericCreate+0x28>
 8003846:	f001 fe03 	bl	8005450 <ulPortSetInterruptMask>
 800384a:	e7fe      	b.n	800384a <xTaskGenericCreate+0x26>

	/* Allocate the memory required by the TCB and stack for the new task,
	checking that the allocation was successful. */
	pxNewTCB = prvAllocateTCBAndStack( usStackDepth, puxStackBuffer );
 800384c:	88fb      	ldrh	r3, [r7, #6]
 800384e:	4618      	mov	r0, r3
 8003850:	6b39      	ldr	r1, [r7, #48]	; 0x30
 8003852:	f000 fe43 	bl	80044dc <prvAllocateTCBAndStack>
 8003856:	61b8      	str	r0, [r7, #24]

	if( pxNewTCB != NULL )
 8003858:	69bb      	ldr	r3, [r7, #24]
 800385a:	2b00      	cmp	r3, #0
 800385c:	d072      	beq.n	8003944 <xTaskGenericCreate+0x120>
		stack grows from high memory to low (as per the 80x86) or visa versa.
		portSTACK_GROWTH is used to make the result positive or negative as
		required by the port. */
		#if( portSTACK_GROWTH < 0 )
		{
			pxTopOfStack = pxNewTCB->pxStack + ( usStackDepth - ( unsigned short ) 1 );
 800385e:	69bb      	ldr	r3, [r7, #24]
 8003860:	6b1a      	ldr	r2, [r3, #48]	; 0x30
 8003862:	88fb      	ldrh	r3, [r7, #6]
 8003864:	f103 4380 	add.w	r3, r3, #1073741824	; 0x40000000
 8003868:	3b01      	subs	r3, #1
 800386a:	009b      	lsls	r3, r3, #2
 800386c:	4413      	add	r3, r2
 800386e:	617b      	str	r3, [r7, #20]
			pxTopOfStack = ( portSTACK_TYPE * ) ( ( ( portPOINTER_SIZE_TYPE ) pxTopOfStack ) & ( ( portPOINTER_SIZE_TYPE ) ~portBYTE_ALIGNMENT_MASK  ) ); /*lint !e923 MISRA exception.  Avoiding casts between pointers and integers is not practical.  Size differences accounted for using portPOINTER_SIZE_TYPE type. */
 8003870:	697b      	ldr	r3, [r7, #20]
 8003872:	f023 0307 	bic.w	r3, r3, #7
 8003876:	617b      	str	r3, [r7, #20]

			/* Check the alignment of the calculated top of stack is correct. */
			configASSERT( ( ( ( unsigned long ) pxTopOfStack & ( unsigned long ) portBYTE_ALIGNMENT_MASK ) == 0UL ) );
 8003878:	697b      	ldr	r3, [r7, #20]
 800387a:	f003 0307 	and.w	r3, r3, #7
 800387e:	2b00      	cmp	r3, #0
 8003880:	d002      	beq.n	8003888 <xTaskGenericCreate+0x64>
 8003882:	f001 fde5 	bl	8005450 <ulPortSetInterruptMask>
 8003886:	e7fe      	b.n	8003886 <xTaskGenericCreate+0x62>
			pxNewTCB->pxEndOfStack = pxNewTCB->pxStack + ( usStackDepth - 1 );
		}
		#endif /* portSTACK_GROWTH */

		/* Setup the newly allocated TCB with the initial state of the task. */
		prvInitialiseTCBVariables( pxNewTCB, pcName, uxPriority, xRegions, usStackDepth );
 8003888:	88fb      	ldrh	r3, [r7, #6]
 800388a:	9300      	str	r3, [sp, #0]
 800388c:	69b8      	ldr	r0, [r7, #24]
 800388e:	68b9      	ldr	r1, [r7, #8]
 8003890:	6aba      	ldr	r2, [r7, #40]	; 0x28
 8003892:	6b7b      	ldr	r3, [r7, #52]	; 0x34
 8003894:	f000 fd2c 	bl	80042f0 <prvInitialiseTCBVariables>
		{
			pxNewTCB->pxTopOfStack = pxPortInitialiseStack( pxTopOfStack, pxTaskCode, pvParameters, xRunPrivileged );
		}
		#else /* portUSING_MPU_WRAPPERS */
		{
			pxNewTCB->pxTopOfStack = pxPortInitialiseStack( pxTopOfStack, pxTaskCode, pvParameters );
 8003898:	6978      	ldr	r0, [r7, #20]
 800389a:	68f9      	ldr	r1, [r7, #12]
 800389c:	683a      	ldr	r2, [r7, #0]
 800389e:	f001 fce5 	bl	800526c <pxPortInitialiseStack>
 80038a2:	4602      	mov	r2, r0
 80038a4:	69bb      	ldr	r3, [r7, #24]
 80038a6:	601a      	str	r2, [r3, #0]
		}
		#endif /* portUSING_MPU_WRAPPERS */

		if( ( void * ) pxCreatedTask != NULL )
 80038a8:	6afb      	ldr	r3, [r7, #44]	; 0x2c
 80038aa:	2b00      	cmp	r3, #0
 80038ac:	d002      	beq.n	80038b4 <xTaskGenericCreate+0x90>
		{
			/* Pass the TCB out - in an anonymous way.  The calling function/
			task can use this as a handle to delete the task later if
			required.*/
			*pxCreatedTask = ( xTaskHandle ) pxNewTCB;
 80038ae:	6afb      	ldr	r3, [r7, #44]	; 0x2c
 80038b0:	69ba      	ldr	r2, [r7, #24]
 80038b2:	601a      	str	r2, [r3, #0]
		}

		/* Ensure interrupts don't access the task lists while they are being
		updated. */
		taskENTER_CRITICAL();
 80038b4:	f001 fdaa 	bl	800540c <vPortEnterCritical>
		{
			uxCurrentNumberOfTasks++;
 80038b8:	4b2e      	ldr	r3, [pc, #184]	; (8003974 <xTaskGenericCreate+0x150>)
 80038ba:	681b      	ldr	r3, [r3, #0]
 80038bc:	1c5a      	adds	r2, r3, #1
 80038be:	4b2d      	ldr	r3, [pc, #180]	; (8003974 <xTaskGenericCreate+0x150>)
 80038c0:	601a      	str	r2, [r3, #0]
			if( pxCurrentTCB == NULL )
 80038c2:	4b2d      	ldr	r3, [pc, #180]	; (8003978 <xTaskGenericCreate+0x154>)
 80038c4:	681b      	ldr	r3, [r3, #0]
 80038c6:	2b00      	cmp	r3, #0
 80038c8:	d109      	bne.n	80038de <xTaskGenericCreate+0xba>
			{
				/* There are no other tasks, or all the other tasks are in
				the suspended state - make this the current task. */
				pxCurrentTCB =  pxNewTCB;
 80038ca:	4b2b      	ldr	r3, [pc, #172]	; (8003978 <xTaskGenericCreate+0x154>)
 80038cc:	69ba      	ldr	r2, [r7, #24]
 80038ce:	601a      	str	r2, [r3, #0]

				if( uxCurrentNumberOfTasks == ( unsigned portBASE_TYPE ) 1 )
 80038d0:	4b28      	ldr	r3, [pc, #160]	; (8003974 <xTaskGenericCreate+0x150>)
 80038d2:	681b      	ldr	r3, [r3, #0]
 80038d4:	2b01      	cmp	r3, #1
 80038d6:	d10f      	bne.n	80038f8 <xTaskGenericCreate+0xd4>
				{
					/* This is the first task to be created so do the preliminary
					initialisation required.  We will not recover if this call
					fails, but we will report the failure. */
					prvInitialiseTaskLists();
 80038d8:	f000 fd52 	bl	8004380 <prvInitialiseTaskLists>
 80038dc:	e00c      	b.n	80038f8 <xTaskGenericCreate+0xd4>
			else
			{
				/* If the scheduler is not already running, make this task the
				current task if it is the highest priority task to be created
				so far. */
				if( xSchedulerRunning == pdFALSE )
 80038de:	4b27      	ldr	r3, [pc, #156]	; (800397c <xTaskGenericCreate+0x158>)
 80038e0:	681b      	ldr	r3, [r3, #0]
 80038e2:	2b00      	cmp	r3, #0
 80038e4:	d108      	bne.n	80038f8 <xTaskGenericCreate+0xd4>
				{
					if( pxCurrentTCB->uxPriority <= uxPriority )
 80038e6:	4b24      	ldr	r3, [pc, #144]	; (8003978 <xTaskGenericCreate+0x154>)
 80038e8:	681b      	ldr	r3, [r3, #0]
 80038ea:	6ada      	ldr	r2, [r3, #44]	; 0x2c
 80038ec:	6abb      	ldr	r3, [r7, #40]	; 0x28
 80038ee:	429a      	cmp	r2, r3
 80038f0:	d802      	bhi.n	80038f8 <xTaskGenericCreate+0xd4>
					{
						pxCurrentTCB = pxNewTCB;
 80038f2:	4b21      	ldr	r3, [pc, #132]	; (8003978 <xTaskGenericCreate+0x154>)
 80038f4:	69ba      	ldr	r2, [r7, #24]
 80038f6:	601a      	str	r2, [r3, #0]
					}
				}
			}

			uxTaskNumber++;
 80038f8:	4b21      	ldr	r3, [pc, #132]	; (8003980 <xTaskGenericCreate+0x15c>)
 80038fa:	681b      	ldr	r3, [r3, #0]
 80038fc:	1c5a      	adds	r2, r3, #1
 80038fe:	4b20      	ldr	r3, [pc, #128]	; (8003980 <xTaskGenericCreate+0x15c>)
 8003900:	601a      	str	r2, [r3, #0]

			#if ( configUSE_TRACE_FACILITY == 1 )
			{
				/* Add a counter into the TCB for tracing only. */
				pxNewTCB->uxTCBNumber = uxTaskNumber;
 8003902:	4b1f      	ldr	r3, [pc, #124]	; (8003980 <xTaskGenericCreate+0x15c>)
 8003904:	681a      	ldr	r2, [r3, #0]
 8003906:	69bb      	ldr	r3, [r7, #24]
 8003908:	641a      	str	r2, [r3, #64]	; 0x40
			}
			#endif /* configUSE_TRACE_FACILITY */
			traceTASK_CREATE( pxNewTCB );

			prvAddTaskToReadyList( pxNewTCB );
 800390a:	69bb      	ldr	r3, [r7, #24]
 800390c:	6ada      	ldr	r2, [r3, #44]	; 0x2c
 800390e:	4b1d      	ldr	r3, [pc, #116]	; (8003984 <xTaskGenericCreate+0x160>)
 8003910:	681b      	ldr	r3, [r3, #0]
 8003912:	429a      	cmp	r2, r3
 8003914:	d903      	bls.n	800391e <xTaskGenericCreate+0xfa>
 8003916:	69bb      	ldr	r3, [r7, #24]
 8003918:	6ada      	ldr	r2, [r3, #44]	; 0x2c
 800391a:	4b1a      	ldr	r3, [pc, #104]	; (8003984 <xTaskGenericCreate+0x160>)
 800391c:	601a      	str	r2, [r3, #0]
 800391e:	69bb      	ldr	r3, [r7, #24]
 8003920:	6ada      	ldr	r2, [r3, #44]	; 0x2c
 8003922:	4613      	mov	r3, r2
 8003924:	009b      	lsls	r3, r3, #2
 8003926:	4413      	add	r3, r2
 8003928:	009b      	lsls	r3, r3, #2
 800392a:	4a17      	ldr	r2, [pc, #92]	; (8003988 <xTaskGenericCreate+0x164>)
 800392c:	441a      	add	r2, r3
 800392e:	69bb      	ldr	r3, [r7, #24]
 8003930:	3304      	adds	r3, #4
 8003932:	4610      	mov	r0, r2
 8003934:	4619      	mov	r1, r3
 8003936:	f001 fc13 	bl	8005160 <vListInsertEnd>

			xReturn = pdPASS;
 800393a:	2301      	movs	r3, #1
 800393c:	61fb      	str	r3, [r7, #28]
			portSETUP_TCB( pxNewTCB );
		}
		taskEXIT_CRITICAL();
 800393e:	f001 fd75 	bl	800542c <vPortExitCritical>
 8003942:	e002      	b.n	800394a <xTaskGenericCreate+0x126>
	}
	else
	{
		xReturn = errCOULD_NOT_ALLOCATE_REQUIRED_MEMORY;
 8003944:	f04f 33ff 	mov.w	r3, #4294967295	; 0xffffffff
 8003948:	61fb      	str	r3, [r7, #28]
		traceTASK_CREATE_FAILED();
	}

	if( xReturn == pdPASS )
 800394a:	69fb      	ldr	r3, [r7, #28]
 800394c:	2b01      	cmp	r3, #1
 800394e:	d10b      	bne.n	8003968 <xTaskGenericCreate+0x144>
	{
		if( xSchedulerRunning != pdFALSE )
 8003950:	4b0a      	ldr	r3, [pc, #40]	; (800397c <xTaskGenericCreate+0x158>)
 8003952:	681b      	ldr	r3, [r3, #0]
 8003954:	2b00      	cmp	r3, #0
 8003956:	d007      	beq.n	8003968 <xTaskGenericCreate+0x144>
		{
			/* If the created task is of a higher priority than the current task
			then it should run now. */
			if( pxCurrentTCB->uxPriority < uxPriority )
 8003958:	4b07      	ldr	r3, [pc, #28]	; (8003978 <xTaskGenericCreate+0x154>)
 800395a:	681b      	ldr	r3, [r3, #0]
 800395c:	6ada      	ldr	r2, [r3, #44]	; 0x2c
 800395e:	6abb      	ldr	r3, [r7, #40]	; 0x28
 8003960:	429a      	cmp	r2, r3
 8003962:	d201      	bcs.n	8003968 <xTaskGenericCreate+0x144>
			{
				portYIELD_WITHIN_API();
 8003964:	f001 fd42 	bl	80053ec <vPortYield>
			}
		}
	}

	return xReturn;
 8003968:	69fb      	ldr	r3, [r7, #28]
}
 800396a:	4618      	mov	r0, r3
 800396c:	3720      	adds	r7, #32
 800396e:	46bd      	mov	sp, r7
 8003970:	bd80      	pop	{r7, pc}
 8003972:	bf00      	nop
 8003974:	200005cc 	.word	0x200005cc
 8003978:	200004f4 	.word	0x200004f4
 800397c:	200005d8 	.word	0x200005d8
 8003980:	200005ec 	.word	0x200005ec
 8003984:	200005d4 	.word	0x200005d4
 8003988:	200004f8 	.word	0x200004f8

0800398c <vTaskDelete>:
/*-----------------------------------------------------------*/

#if ( INCLUDE_vTaskDelete == 1 )

	void vTaskDelete( xTaskHandle xTaskToDelete )
	{
 800398c:	b580      	push	{r7, lr}
 800398e:	b084      	sub	sp, #16
 8003990:	af00      	add	r7, sp, #0
 8003992:	6078      	str	r0, [r7, #4]
	tskTCB *pxTCB;

		taskENTER_CRITICAL();
 8003994:	f001 fd3a 	bl	800540c <vPortEnterCritical>
		{
			/* If null is passed in here then we are deleting ourselves. */
			pxTCB = prvGetTCBFromHandle( xTaskToDelete );
 8003998:	687b      	ldr	r3, [r7, #4]
 800399a:	2b00      	cmp	r3, #0
 800399c:	d102      	bne.n	80039a4 <vTaskDelete+0x18>
 800399e:	4b19      	ldr	r3, [pc, #100]	; (8003a04 <vTaskDelete+0x78>)
 80039a0:	681b      	ldr	r3, [r3, #0]
 80039a2:	e000      	b.n	80039a6 <vTaskDelete+0x1a>
 80039a4:	687b      	ldr	r3, [r7, #4]
 80039a6:	60fb      	str	r3, [r7, #12]

			/* Remove task from the ready list and place in the	termination list.
			This will stop the task from be scheduled.  The idle task will check
			the termination list and free up any memory allocated by the
			scheduler for the TCB and stack. */
			if( uxListRemove( &( pxTCB->xGenericListItem ) ) == ( unsigned portBASE_TYPE ) 0 )
 80039a8:	68fb      	ldr	r3, [r7, #12]
 80039aa:	3304      	adds	r3, #4
 80039ac:	4618      	mov	r0, r3
 80039ae:	f001 fc33 	bl	8005218 <uxListRemove>
			{
				taskRESET_READY_PRIORITY( pxTCB->uxPriority );
			}

			/* Is the task waiting on an event also? */
			if( listLIST_ITEM_CONTAINER( &( pxTCB->xEventListItem ) ) != NULL )
 80039b2:	68fb      	ldr	r3, [r7, #12]
 80039b4:	6a9b      	ldr	r3, [r3, #40]	; 0x28
 80039b6:	2b00      	cmp	r3, #0
 80039b8:	d004      	beq.n	80039c4 <vTaskDelete+0x38>
			{
				( void ) uxListRemove( &( pxTCB->xEventListItem ) );
 80039ba:	68fb      	ldr	r3, [r7, #12]
 80039bc:	3318      	adds	r3, #24
 80039be:	4618      	mov	r0, r3
 80039c0:	f001 fc2a 	bl	8005218 <uxListRemove>
			}

			vListInsertEnd( &xTasksWaitingTermination, &( pxTCB->xGenericListItem ) );
 80039c4:	68fb      	ldr	r3, [r7, #12]
 80039c6:	3304      	adds	r3, #4
 80039c8:	480f      	ldr	r0, [pc, #60]	; (8003a08 <vTaskDelete+0x7c>)
 80039ca:	4619      	mov	r1, r3
 80039cc:	f001 fbc8 	bl	8005160 <vListInsertEnd>

			/* Increment the ucTasksDeleted variable so the idle task knows
			there is a task that has been deleted and that it should therefore
			check the xTasksWaitingTermination list. */
			++uxTasksDeleted;
 80039d0:	4b0e      	ldr	r3, [pc, #56]	; (8003a0c <vTaskDelete+0x80>)
 80039d2:	681b      	ldr	r3, [r3, #0]
 80039d4:	1c5a      	adds	r2, r3, #1
 80039d6:	4b0d      	ldr	r3, [pc, #52]	; (8003a0c <vTaskDelete+0x80>)
 80039d8:	601a      	str	r2, [r3, #0]

			/* Increment the uxTaskNumberVariable also so kernel aware debuggers
			can detect that the task lists need re-generating. */
			uxTaskNumber++;
 80039da:	4b0d      	ldr	r3, [pc, #52]	; (8003a10 <vTaskDelete+0x84>)
 80039dc:	681b      	ldr	r3, [r3, #0]
 80039de:	1c5a      	adds	r2, r3, #1
 80039e0:	4b0b      	ldr	r3, [pc, #44]	; (8003a10 <vTaskDelete+0x84>)
 80039e2:	601a      	str	r2, [r3, #0]

			traceTASK_DELETE( pxTCB );
		}
		taskEXIT_CRITICAL();
 80039e4:	f001 fd22 	bl	800542c <vPortExitCritical>

		/* Force a reschedule if we have just deleted the current task. */
		if( xSchedulerRunning != pdFALSE )
 80039e8:	4b0a      	ldr	r3, [pc, #40]	; (8003a14 <vTaskDelete+0x88>)
 80039ea:	681b      	ldr	r3, [r3, #0]
 80039ec:	2b00      	cmp	r3, #0
 80039ee:	d006      	beq.n	80039fe <vTaskDelete+0x72>
		{
			if( pxTCB == pxCurrentTCB )
 80039f0:	4b04      	ldr	r3, [pc, #16]	; (8003a04 <vTaskDelete+0x78>)
 80039f2:	681b      	ldr	r3, [r3, #0]
 80039f4:	68fa      	ldr	r2, [r7, #12]
 80039f6:	429a      	cmp	r2, r3
 80039f8:	d101      	bne.n	80039fe <vTaskDelete+0x72>
			{
				portYIELD_WITHIN_API();
 80039fa:	f001 fcf7 	bl	80053ec <vPortYield>
			}
		}
	}
 80039fe:	3710      	adds	r7, #16
 8003a00:	46bd      	mov	sp, r7
 8003a02:	bd80      	pop	{r7, pc}
 8003a04:	200004f4 	.word	0x200004f4
 8003a08:	200005a0 	.word	0x200005a0
 8003a0c:	200005b4 	.word	0x200005b4
 8003a10:	200005ec 	.word	0x200005ec
 8003a14:	200005d8 	.word	0x200005d8

08003a18 <vTaskDelayUntil>:
/*-----------------------------------------------------------*/

#if ( INCLUDE_vTaskDelayUntil == 1 )

	void vTaskDelayUntil( portTickType * const pxPreviousWakeTime, portTickType xTimeIncrement )
	{
 8003a18:	b580      	push	{r7, lr}
 8003a1a:	b086      	sub	sp, #24
 8003a1c:	af00      	add	r7, sp, #0
 8003a1e:	6078      	str	r0, [r7, #4]
 8003a20:	6039      	str	r1, [r7, #0]
	portTickType xTimeToWake;
	portBASE_TYPE xAlreadyYielded, xShouldDelay = pdFALSE;
 8003a22:	2300      	movs	r3, #0
 8003a24:	617b      	str	r3, [r7, #20]

		configASSERT( pxPreviousWakeTime );
 8003a26:	687b      	ldr	r3, [r7, #4]
 8003a28:	2b00      	cmp	r3, #0
 8003a2a:	d102      	bne.n	8003a32 <vTaskDelayUntil+0x1a>
 8003a2c:	f001 fd10 	bl	8005450 <ulPortSetInterruptMask>
 8003a30:	e7fe      	b.n	8003a30 <vTaskDelayUntil+0x18>
		configASSERT( ( xTimeIncrement > 0U ) );
 8003a32:	683b      	ldr	r3, [r7, #0]
 8003a34:	2b00      	cmp	r3, #0
 8003a36:	d102      	bne.n	8003a3e <vTaskDelayUntil+0x26>
 8003a38:	f001 fd0a 	bl	8005450 <ulPortSetInterruptMask>
 8003a3c:	e7fe      	b.n	8003a3c <vTaskDelayUntil+0x24>

		vTaskSuspendAll();
 8003a3e:	f000 f8a3 	bl	8003b88 <vTaskSuspendAll>
		{
			/* Minor optimisation.  The tick count cannot change in this
			block. */
			const portTickType xConstTickCount = xTickCount;
 8003a42:	4b1f      	ldr	r3, [pc, #124]	; (8003ac0 <vTaskDelayUntil+0xa8>)
 8003a44:	681b      	ldr	r3, [r3, #0]
 8003a46:	613b      	str	r3, [r7, #16]

			/* Generate the tick time at which the task wants to wake. */
			xTimeToWake = *pxPreviousWakeTime + xTimeIncrement;
 8003a48:	687b      	ldr	r3, [r7, #4]
 8003a4a:	681a      	ldr	r2, [r3, #0]
 8003a4c:	683b      	ldr	r3, [r7, #0]
 8003a4e:	4413      	add	r3, r2
 8003a50:	60fb      	str	r3, [r7, #12]

			if( xConstTickCount < *pxPreviousWakeTime )
 8003a52:	687b      	ldr	r3, [r7, #4]
 8003a54:	681a      	ldr	r2, [r3, #0]
 8003a56:	693b      	ldr	r3, [r7, #16]
 8003a58:	429a      	cmp	r2, r3
 8003a5a:	d90b      	bls.n	8003a74 <vTaskDelayUntil+0x5c>
				/* The tick count has overflowed since this function was
				lasted called.  In this case the only time we should ever
				actually delay is if the wake time has also	overflowed,
				and the wake time is greater than the tick time.  When this
				is the case it is as if neither time had overflowed. */
				if( ( xTimeToWake < *pxPreviousWakeTime ) && ( xTimeToWake > xConstTickCount ) )
 8003a5c:	687b      	ldr	r3, [r7, #4]
 8003a5e:	681a      	ldr	r2, [r3, #0]
 8003a60:	68fb      	ldr	r3, [r7, #12]
 8003a62:	429a      	cmp	r2, r3
 8003a64:	d911      	bls.n	8003a8a <vTaskDelayUntil+0x72>
 8003a66:	68fa      	ldr	r2, [r7, #12]
 8003a68:	693b      	ldr	r3, [r7, #16]
 8003a6a:	429a      	cmp	r2, r3
 8003a6c:	d90d      	bls.n	8003a8a <vTaskDelayUntil+0x72>
				{
					xShouldDelay = pdTRUE;
 8003a6e:	2301      	movs	r3, #1
 8003a70:	617b      	str	r3, [r7, #20]
 8003a72:	e00a      	b.n	8003a8a <vTaskDelayUntil+0x72>
			else
			{
				/* The tick time has not overflowed.  In this case we will
				delay if either the wake time has overflowed, and/or the
				tick time is less than the wake time. */
				if( ( xTimeToWake < *pxPreviousWakeTime ) || ( xTimeToWake > xConstTickCount ) )
 8003a74:	687b      	ldr	r3, [r7, #4]
 8003a76:	681a      	ldr	r2, [r3, #0]
 8003a78:	68fb      	ldr	r3, [r7, #12]
 8003a7a:	429a      	cmp	r2, r3
 8003a7c:	d803      	bhi.n	8003a86 <vTaskDelayUntil+0x6e>
 8003a7e:	68fa      	ldr	r2, [r7, #12]
 8003a80:	693b      	ldr	r3, [r7, #16]
 8003a82:	429a      	cmp	r2, r3
 8003a84:	d901      	bls.n	8003a8a <vTaskDelayUntil+0x72>
				{
					xShouldDelay = pdTRUE;
 8003a86:	2301      	movs	r3, #1
 8003a88:	617b      	str	r3, [r7, #20]
				}
			}

			/* Update the wake time ready for the next call. */
			*pxPreviousWakeTime = xTimeToWake;
 8003a8a:	687b      	ldr	r3, [r7, #4]
 8003a8c:	68fa      	ldr	r2, [r7, #12]
 8003a8e:	601a      	str	r2, [r3, #0]

			if( xShouldDelay != pdFALSE )
 8003a90:	697b      	ldr	r3, [r7, #20]
 8003a92:	2b00      	cmp	r3, #0
 8003a94:	d008      	beq.n	8003aa8 <vTaskDelayUntil+0x90>
				traceTASK_DELAY_UNTIL();

				/* We must remove ourselves from the ready list before adding
				ourselves to the blocked list as the same list item is used for
				both lists. */
				if( uxListRemove( &( pxCurrentTCB->xGenericListItem ) ) == ( unsigned portBASE_TYPE ) 0 )
 8003a96:	4b0b      	ldr	r3, [pc, #44]	; (8003ac4 <vTaskDelayUntil+0xac>)
 8003a98:	681b      	ldr	r3, [r3, #0]
 8003a9a:	3304      	adds	r3, #4
 8003a9c:	4618      	mov	r0, r3
 8003a9e:	f001 fbbb 	bl	8005218 <uxListRemove>
					no need to check, and the port reset macro can be called
					directly. */
					portRESET_READY_PRIORITY( pxCurrentTCB->uxPriority, uxTopReadyPriority );
				}

				prvAddCurrentTaskToDelayedList( xTimeToWake );
 8003aa2:	68f8      	ldr	r0, [r7, #12]
 8003aa4:	f000 fce4 	bl	8004470 <prvAddCurrentTaskToDelayedList>
			}
		}
		xAlreadyYielded = xTaskResumeAll();
 8003aa8:	f000 f87c 	bl	8003ba4 <xTaskResumeAll>
 8003aac:	60b8      	str	r0, [r7, #8]

		/* Force a reschedule if xTaskResumeAll has not already done so, we may
		have put ourselves to sleep. */
		if( xAlreadyYielded == pdFALSE )
 8003aae:	68bb      	ldr	r3, [r7, #8]
 8003ab0:	2b00      	cmp	r3, #0
 8003ab2:	d101      	bne.n	8003ab8 <vTaskDelayUntil+0xa0>
		{
			portYIELD_WITHIN_API();
 8003ab4:	f001 fc9a 	bl	80053ec <vPortYield>
		}
	}
 8003ab8:	3718      	adds	r7, #24
 8003aba:	46bd      	mov	sp, r7
 8003abc:	bd80      	pop	{r7, pc}
 8003abe:	bf00      	nop
 8003ac0:	200005d0 	.word	0x200005d0
 8003ac4:	200004f4 	.word	0x200004f4

08003ac8 <vTaskDelay>:
/*-----------------------------------------------------------*/

#if ( INCLUDE_vTaskDelay == 1 )

	void vTaskDelay( portTickType xTicksToDelay )
	{
 8003ac8:	b580      	push	{r7, lr}
 8003aca:	b084      	sub	sp, #16
 8003acc:	af00      	add	r7, sp, #0
 8003ace:	6078      	str	r0, [r7, #4]
	portTickType xTimeToWake;
	signed portBASE_TYPE xAlreadyYielded = pdFALSE;
 8003ad0:	2300      	movs	r3, #0
 8003ad2:	60fb      	str	r3, [r7, #12]

		/* A delay time of zero just forces a reschedule. */
		if( xTicksToDelay > ( portTickType ) 0U )
 8003ad4:	687b      	ldr	r3, [r7, #4]
 8003ad6:	2b00      	cmp	r3, #0
 8003ad8:	d012      	beq.n	8003b00 <vTaskDelay+0x38>
		{
			vTaskSuspendAll();
 8003ada:	f000 f855 	bl	8003b88 <vTaskSuspendAll>
				This task cannot be in an event list as it is the currently
				executing task. */

				/* Calculate the time to wake - this may overflow but this is
				not a problem. */
				xTimeToWake = xTickCount + xTicksToDelay;
 8003ade:	4b0c      	ldr	r3, [pc, #48]	; (8003b10 <vTaskDelay+0x48>)
 8003ae0:	681a      	ldr	r2, [r3, #0]
 8003ae2:	687b      	ldr	r3, [r7, #4]
 8003ae4:	4413      	add	r3, r2
 8003ae6:	60bb      	str	r3, [r7, #8]

				/* We must remove ourselves from the ready list before adding
				ourselves to the blocked list as the same list item is used for
				both lists. */
				if( uxListRemove( &( pxCurrentTCB->xGenericListItem ) ) == ( unsigned portBASE_TYPE ) 0 )
 8003ae8:	4b0a      	ldr	r3, [pc, #40]	; (8003b14 <vTaskDelay+0x4c>)
 8003aea:	681b      	ldr	r3, [r3, #0]
 8003aec:	3304      	adds	r3, #4
 8003aee:	4618      	mov	r0, r3
 8003af0:	f001 fb92 	bl	8005218 <uxListRemove>
					/* The current task must be in a ready list, so there is
					no need to check, and the port reset macro can be called
					directly. */
					portRESET_READY_PRIORITY( pxCurrentTCB->uxPriority, uxTopReadyPriority );
				}
				prvAddCurrentTaskToDelayedList( xTimeToWake );
 8003af4:	68b8      	ldr	r0, [r7, #8]
 8003af6:	f000 fcbb 	bl	8004470 <prvAddCurrentTaskToDelayedList>
			}
			xAlreadyYielded = xTaskResumeAll();
 8003afa:	f000 f853 	bl	8003ba4 <xTaskResumeAll>
 8003afe:	60f8      	str	r0, [r7, #12]
		}

		/* Force a reschedule if xTaskResumeAll has not already done so, we may
		have put ourselves to sleep. */
		if( xAlreadyYielded == pdFALSE )
 8003b00:	68fb      	ldr	r3, [r7, #12]
 8003b02:	2b00      	cmp	r3, #0
 8003b04:	d101      	bne.n	8003b0a <vTaskDelay+0x42>
		{
			portYIELD_WITHIN_API();
 8003b06:	f001 fc71 	bl	80053ec <vPortYield>
		}
	}
 8003b0a:	3710      	adds	r7, #16
 8003b0c:	46bd      	mov	sp, r7
 8003b0e:	bd80      	pop	{r7, pc}
 8003b10:	200005d0 	.word	0x200005d0
 8003b14:	200004f4 	.word	0x200004f4

08003b18 <vTaskStartScheduler>:

#endif /* ( ( INCLUDE_xTaskResumeFromISR == 1 ) && ( INCLUDE_vTaskSuspend == 1 ) ) */
/*-----------------------------------------------------------*/

void vTaskStartScheduler( void )
{
 8003b18:	b580      	push	{r7, lr}
 8003b1a:	b086      	sub	sp, #24
 8003b1c:	af04      	add	r7, sp, #16
		xReturn = xTaskCreate( prvIdleTask, ( signed char * ) "IDLE", tskIDLE_STACK_SIZE, ( void * ) NULL, ( tskIDLE_PRIORITY | portPRIVILEGE_BIT ), &xIdleTaskHandle ); /*lint !e961 MISRA exception, justified as it is not a redundant explicit cast to all supported compilers. */
	}
	#else
	{
		/* Create the idle task without storing its handle. */
		xReturn = xTaskCreate( prvIdleTask, ( signed char * ) "IDLE", tskIDLE_STACK_SIZE, ( void * ) NULL, ( tskIDLE_PRIORITY | portPRIVILEGE_BIT ), NULL );  /*lint !e961 MISRA exception, justified as it is not a redundant explicit cast to all supported compilers. */
 8003b1e:	2300      	movs	r3, #0
 8003b20:	9300      	str	r3, [sp, #0]
 8003b22:	2300      	movs	r3, #0
 8003b24:	9301      	str	r3, [sp, #4]
 8003b26:	2300      	movs	r3, #0
 8003b28:	9302      	str	r3, [sp, #8]
 8003b2a:	2300      	movs	r3, #0
 8003b2c:	9303      	str	r3, [sp, #12]
 8003b2e:	4812      	ldr	r0, [pc, #72]	; (8003b78 <vTaskStartScheduler+0x60>)
 8003b30:	4912      	ldr	r1, [pc, #72]	; (8003b7c <vTaskStartScheduler+0x64>)
 8003b32:	f44f 7280 	mov.w	r2, #256	; 0x100
 8003b36:	2300      	movs	r3, #0
 8003b38:	f7ff fe74 	bl	8003824 <xTaskGenericCreate>
 8003b3c:	6078      	str	r0, [r7, #4]
	}
	#endif /* INCLUDE_xTaskGetIdleTaskHandle */

	#if ( configUSE_TIMERS == 1 )
	{
		if( xReturn == pdPASS )
 8003b3e:	687b      	ldr	r3, [r7, #4]
 8003b40:	2b01      	cmp	r3, #1
 8003b42:	d102      	bne.n	8003b4a <vTaskStartScheduler+0x32>
		{
			xReturn = xTimerCreateTimerTask();
 8003b44:	f001 fd1e 	bl	8005584 <xTimerCreateTimerTask>
 8003b48:	6078      	str	r0, [r7, #4]
		}
	}
	#endif /* configUSE_TIMERS */

	if( xReturn == pdPASS )
 8003b4a:	687b      	ldr	r3, [r7, #4]
 8003b4c:	2b01      	cmp	r3, #1
 8003b4e:	d10a      	bne.n	8003b66 <vTaskStartScheduler+0x4e>
		/* Interrupts are turned off here, to ensure a tick does not occur
		before or during the call to xPortStartScheduler().  The stacks of
		the created tasks contain a status word with interrupts switched on
		so interrupts will automatically get re-enabled when the first task
		starts to run. */
		portDISABLE_INTERRUPTS();
 8003b50:	f001 fc7e 	bl	8005450 <ulPortSetInterruptMask>
			structure specific to the task that will run first. */
			_impure_ptr = &( pxCurrentTCB->xNewLib_reent );
		}
		#endif /* configUSE_NEWLIB_REENTRANT */

		xSchedulerRunning = pdTRUE;
 8003b54:	4b0a      	ldr	r3, [pc, #40]	; (8003b80 <vTaskStartScheduler+0x68>)
 8003b56:	2201      	movs	r2, #1
 8003b58:	601a      	str	r2, [r3, #0]
		xTickCount = ( portTickType ) 0U;
 8003b5a:	4b0a      	ldr	r3, [pc, #40]	; (8003b84 <vTaskStartScheduler+0x6c>)
 8003b5c:	2200      	movs	r2, #0
 8003b5e:	601a      	str	r2, [r3, #0]
		the run time counter time base. */
		portCONFIGURE_TIMER_FOR_RUN_TIME_STATS();

		/* Setting up the timer tick is hardware specific and thus in the
		portable interface. */
		if( xPortStartScheduler() != pdFALSE )
 8003b60:	f001 fbde 	bl	8005320 <xPortStartScheduler>
 8003b64:	e005      	b.n	8003b72 <vTaskStartScheduler+0x5a>
	else
	{
		/* This line will only be reached if the kernel could not be started,
		because there was not enough FreeRTOS heap to create the idle task
		or the timer task. */
		configASSERT( xReturn );
 8003b66:	687b      	ldr	r3, [r7, #4]
 8003b68:	2b00      	cmp	r3, #0
 8003b6a:	d102      	bne.n	8003b72 <vTaskStartScheduler+0x5a>
 8003b6c:	f001 fc70 	bl	8005450 <ulPortSetInterruptMask>
 8003b70:	e7fe      	b.n	8003b70 <vTaskStartScheduler+0x58>
	}
}
 8003b72:	3708      	adds	r7, #8
 8003b74:	46bd      	mov	sp, r7
 8003b76:	bd80      	pop	{r7, pc}
 8003b78:	080042cd 	.word	0x080042cd
 8003b7c:	080096a4 	.word	0x080096a4
 8003b80:	200005d8 	.word	0x200005d8
 8003b84:	200005d0 	.word	0x200005d0

08003b88 <vTaskSuspendAll>:
	vPortEndScheduler();
}
/*----------------------------------------------------------*/

void vTaskSuspendAll( void )
{
 8003b88:	b480      	push	{r7}
 8003b8a:	af00      	add	r7, sp, #0
	/* A critical section is not required as the variable is of type
	portBASE_TYPE. */
	++uxSchedulerSuspended;
 8003b8c:	4b04      	ldr	r3, [pc, #16]	; (8003ba0 <vTaskSuspendAll+0x18>)
 8003b8e:	681b      	ldr	r3, [r3, #0]
 8003b90:	1c5a      	adds	r2, r3, #1
 8003b92:	4b03      	ldr	r3, [pc, #12]	; (8003ba0 <vTaskSuspendAll+0x18>)
 8003b94:	601a      	str	r2, [r3, #0]
}
 8003b96:	46bd      	mov	sp, r7
 8003b98:	f85d 7b04 	ldr.w	r7, [sp], #4
 8003b9c:	4770      	bx	lr
 8003b9e:	bf00      	nop
 8003ba0:	200005dc 	.word	0x200005dc

08003ba4 <xTaskResumeAll>:

#endif /* configUSE_TICKLESS_IDLE */
/*----------------------------------------------------------*/

signed portBASE_TYPE xTaskResumeAll( void )
{
 8003ba4:	b580      	push	{r7, lr}
 8003ba6:	b082      	sub	sp, #8
 8003ba8:	af00      	add	r7, sp, #0
tskTCB *pxTCB;
portBASE_TYPE xAlreadyYielded = pdFALSE;
 8003baa:	2300      	movs	r3, #0
 8003bac:	607b      	str	r3, [r7, #4]

	/* If uxSchedulerSuspended is zero then this function does not match a
	previous call to vTaskSuspendAll(). */
	configASSERT( uxSchedulerSuspended );
 8003bae:	4b38      	ldr	r3, [pc, #224]	; (8003c90 <xTaskResumeAll+0xec>)
 8003bb0:	681b      	ldr	r3, [r3, #0]
 8003bb2:	2b00      	cmp	r3, #0
 8003bb4:	d102      	bne.n	8003bbc <xTaskResumeAll+0x18>
 8003bb6:	f001 fc4b 	bl	8005450 <ulPortSetInterruptMask>
 8003bba:	e7fe      	b.n	8003bba <xTaskResumeAll+0x16>
	/* It is possible that an ISR caused a task to be removed from an event
	list while the scheduler was suspended.  If this was the case then the
	removed task will have been added to the xPendingReadyList.  Once the
	scheduler has been resumed it is safe to move all the pending ready
	tasks from this list into their appropriate ready list. */
	taskENTER_CRITICAL();
 8003bbc:	f001 fc26 	bl	800540c <vPortEnterCritical>
	{
		--uxSchedulerSuspended;
 8003bc0:	4b33      	ldr	r3, [pc, #204]	; (8003c90 <xTaskResumeAll+0xec>)
 8003bc2:	681b      	ldr	r3, [r3, #0]
 8003bc4:	1e5a      	subs	r2, r3, #1
 8003bc6:	4b32      	ldr	r3, [pc, #200]	; (8003c90 <xTaskResumeAll+0xec>)
 8003bc8:	601a      	str	r2, [r3, #0]

		if( uxSchedulerSuspended == ( unsigned portBASE_TYPE ) pdFALSE )
 8003bca:	4b31      	ldr	r3, [pc, #196]	; (8003c90 <xTaskResumeAll+0xec>)
 8003bcc:	681b      	ldr	r3, [r3, #0]
 8003bce:	2b00      	cmp	r3, #0
 8003bd0:	d156      	bne.n	8003c80 <xTaskResumeAll+0xdc>
		{
			if( uxCurrentNumberOfTasks > ( unsigned portBASE_TYPE ) 0U )
 8003bd2:	4b30      	ldr	r3, [pc, #192]	; (8003c94 <xTaskResumeAll+0xf0>)
 8003bd4:	681b      	ldr	r3, [r3, #0]
 8003bd6:	2b00      	cmp	r3, #0
 8003bd8:	d052      	beq.n	8003c80 <xTaskResumeAll+0xdc>
			{
				/* Move any readied tasks from the pending list into the
				appropriate ready list. */
				while( listLIST_IS_EMPTY( &xPendingReadyList ) == pdFALSE )
 8003bda:	e02f      	b.n	8003c3c <xTaskResumeAll+0x98>
				{
					pxTCB = ( tskTCB * ) listGET_OWNER_OF_HEAD_ENTRY( ( &xPendingReadyList ) );
 8003bdc:	4b2e      	ldr	r3, [pc, #184]	; (8003c98 <xTaskResumeAll+0xf4>)
 8003bde:	68db      	ldr	r3, [r3, #12]
 8003be0:	68db      	ldr	r3, [r3, #12]
 8003be2:	603b      	str	r3, [r7, #0]
					( void ) uxListRemove( &( pxTCB->xEventListItem ) );
 8003be4:	683b      	ldr	r3, [r7, #0]
 8003be6:	3318      	adds	r3, #24
 8003be8:	4618      	mov	r0, r3
 8003bea:	f001 fb15 	bl	8005218 <uxListRemove>
					( void ) uxListRemove( &( pxTCB->xGenericListItem ) );
 8003bee:	683b      	ldr	r3, [r7, #0]
 8003bf0:	3304      	adds	r3, #4
 8003bf2:	4618      	mov	r0, r3
 8003bf4:	f001 fb10 	bl	8005218 <uxListRemove>
					prvAddTaskToReadyList( pxTCB );
 8003bf8:	683b      	ldr	r3, [r7, #0]
 8003bfa:	6ada      	ldr	r2, [r3, #44]	; 0x2c
 8003bfc:	4b27      	ldr	r3, [pc, #156]	; (8003c9c <xTaskResumeAll+0xf8>)
 8003bfe:	681b      	ldr	r3, [r3, #0]
 8003c00:	429a      	cmp	r2, r3
 8003c02:	d903      	bls.n	8003c0c <xTaskResumeAll+0x68>
 8003c04:	683b      	ldr	r3, [r7, #0]
 8003c06:	6ada      	ldr	r2, [r3, #44]	; 0x2c
 8003c08:	4b24      	ldr	r3, [pc, #144]	; (8003c9c <xTaskResumeAll+0xf8>)
 8003c0a:	601a      	str	r2, [r3, #0]
 8003c0c:	683b      	ldr	r3, [r7, #0]
 8003c0e:	6ada      	ldr	r2, [r3, #44]	; 0x2c
 8003c10:	4613      	mov	r3, r2
 8003c12:	009b      	lsls	r3, r3, #2
 8003c14:	4413      	add	r3, r2
 8003c16:	009b      	lsls	r3, r3, #2
 8003c18:	4a21      	ldr	r2, [pc, #132]	; (8003ca0 <xTaskResumeAll+0xfc>)
 8003c1a:	441a      	add	r2, r3
 8003c1c:	683b      	ldr	r3, [r7, #0]
 8003c1e:	3304      	adds	r3, #4
 8003c20:	4610      	mov	r0, r2
 8003c22:	4619      	mov	r1, r3
 8003c24:	f001 fa9c 	bl	8005160 <vListInsertEnd>

					/* If we have moved a task that has a priority higher than
					the current task then we should yield. */
					if( pxTCB->uxPriority >= pxCurrentTCB->uxPriority )
 8003c28:	683b      	ldr	r3, [r7, #0]
 8003c2a:	6ada      	ldr	r2, [r3, #44]	; 0x2c
 8003c2c:	4b1d      	ldr	r3, [pc, #116]	; (8003ca4 <xTaskResumeAll+0x100>)
 8003c2e:	681b      	ldr	r3, [r3, #0]
 8003c30:	6adb      	ldr	r3, [r3, #44]	; 0x2c
 8003c32:	429a      	cmp	r2, r3
 8003c34:	d302      	bcc.n	8003c3c <xTaskResumeAll+0x98>
					{
						xYieldPending = pdTRUE;
 8003c36:	4b1c      	ldr	r3, [pc, #112]	; (8003ca8 <xTaskResumeAll+0x104>)
 8003c38:	2201      	movs	r2, #1
 8003c3a:	601a      	str	r2, [r3, #0]
		{
			if( uxCurrentNumberOfTasks > ( unsigned portBASE_TYPE ) 0U )
			{
				/* Move any readied tasks from the pending list into the
				appropriate ready list. */
				while( listLIST_IS_EMPTY( &xPendingReadyList ) == pdFALSE )
 8003c3c:	4b16      	ldr	r3, [pc, #88]	; (8003c98 <xTaskResumeAll+0xf4>)
 8003c3e:	681b      	ldr	r3, [r3, #0]
 8003c40:	2b00      	cmp	r3, #0
 8003c42:	d1cb      	bne.n	8003bdc <xTaskResumeAll+0x38>
				}

				/* If any ticks occurred while the scheduler was suspended then
				they should be processed now.  This ensures the tick count does not
				slip, and that any delayed tasks are resumed at the correct time. */
				if( uxPendedTicks > ( unsigned portBASE_TYPE ) 0U )
 8003c44:	4b19      	ldr	r3, [pc, #100]	; (8003cac <xTaskResumeAll+0x108>)
 8003c46:	681b      	ldr	r3, [r3, #0]
 8003c48:	2b00      	cmp	r3, #0
 8003c4a:	d011      	beq.n	8003c70 <xTaskResumeAll+0xcc>
				{
					while( uxPendedTicks > ( unsigned portBASE_TYPE ) 0U )
 8003c4c:	e00c      	b.n	8003c68 <xTaskResumeAll+0xc4>
					{
						if( xTaskIncrementTick() != pdFALSE )
 8003c4e:	f000 f8bd 	bl	8003dcc <xTaskIncrementTick>
 8003c52:	4603      	mov	r3, r0
 8003c54:	2b00      	cmp	r3, #0
 8003c56:	d002      	beq.n	8003c5e <xTaskResumeAll+0xba>
						{
							xYieldPending = pdTRUE;
 8003c58:	4b13      	ldr	r3, [pc, #76]	; (8003ca8 <xTaskResumeAll+0x104>)
 8003c5a:	2201      	movs	r2, #1
 8003c5c:	601a      	str	r2, [r3, #0]
						}
						--uxPendedTicks;
 8003c5e:	4b13      	ldr	r3, [pc, #76]	; (8003cac <xTaskResumeAll+0x108>)
 8003c60:	681b      	ldr	r3, [r3, #0]
 8003c62:	1e5a      	subs	r2, r3, #1
 8003c64:	4b11      	ldr	r3, [pc, #68]	; (8003cac <xTaskResumeAll+0x108>)
 8003c66:	601a      	str	r2, [r3, #0]
				/* If any ticks occurred while the scheduler was suspended then
				they should be processed now.  This ensures the tick count does not
				slip, and that any delayed tasks are resumed at the correct time. */
				if( uxPendedTicks > ( unsigned portBASE_TYPE ) 0U )
				{
					while( uxPendedTicks > ( unsigned portBASE_TYPE ) 0U )
 8003c68:	4b10      	ldr	r3, [pc, #64]	; (8003cac <xTaskResumeAll+0x108>)
 8003c6a:	681b      	ldr	r3, [r3, #0]
 8003c6c:	2b00      	cmp	r3, #0
 8003c6e:	d1ee      	bne.n	8003c4e <xTaskResumeAll+0xaa>
						}
						--uxPendedTicks;
					}
				}

				if( xYieldPending == pdTRUE )
 8003c70:	4b0d      	ldr	r3, [pc, #52]	; (8003ca8 <xTaskResumeAll+0x104>)
 8003c72:	681b      	ldr	r3, [r3, #0]
 8003c74:	2b01      	cmp	r3, #1
 8003c76:	d103      	bne.n	8003c80 <xTaskResumeAll+0xdc>
				{
					xAlreadyYielded = pdTRUE;
 8003c78:	2301      	movs	r3, #1
 8003c7a:	607b      	str	r3, [r7, #4]
					portYIELD_WITHIN_API();
 8003c7c:	f001 fbb6 	bl	80053ec <vPortYield>
				}
			}
		}
	}
	taskEXIT_CRITICAL();
 8003c80:	f001 fbd4 	bl	800542c <vPortExitCritical>

	return xAlreadyYielded;
 8003c84:	687b      	ldr	r3, [r7, #4]
}
 8003c86:	4618      	mov	r0, r3
 8003c88:	3708      	adds	r7, #8
 8003c8a:	46bd      	mov	sp, r7
 8003c8c:	bd80      	pop	{r7, pc}
 8003c8e:	bf00      	nop
 8003c90:	200005dc 	.word	0x200005dc
 8003c94:	200005cc 	.word	0x200005cc
 8003c98:	2000058c 	.word	0x2000058c
 8003c9c:	200005d4 	.word	0x200005d4
 8003ca0:	200004f8 	.word	0x200004f8
 8003ca4:	200004f4 	.word	0x200004f4
 8003ca8:	200005e4 	.word	0x200005e4
 8003cac:	200005e0 	.word	0x200005e0

08003cb0 <xTaskGetTickCount>:
/*-----------------------------------------------------------*/

portTickType xTaskGetTickCount( void )
{
 8003cb0:	b580      	push	{r7, lr}
 8003cb2:	b082      	sub	sp, #8
 8003cb4:	af00      	add	r7, sp, #0
portTickType xTicks;

	/* Critical section required if running on a 16 bit processor. */
	taskENTER_CRITICAL();
 8003cb6:	f001 fba9 	bl	800540c <vPortEnterCritical>
	{
		xTicks = xTickCount;
 8003cba:	4b05      	ldr	r3, [pc, #20]	; (8003cd0 <xTaskGetTickCount+0x20>)
 8003cbc:	681b      	ldr	r3, [r3, #0]
 8003cbe:	607b      	str	r3, [r7, #4]
	}
	taskEXIT_CRITICAL();
 8003cc0:	f001 fbb4 	bl	800542c <vPortExitCritical>

	return xTicks;
 8003cc4:	687b      	ldr	r3, [r7, #4]
}
 8003cc6:	4618      	mov	r0, r3
 8003cc8:	3708      	adds	r7, #8
 8003cca:	46bd      	mov	sp, r7
 8003ccc:	bd80      	pop	{r7, pc}
 8003cce:	bf00      	nop
 8003cd0:	200005d0 	.word	0x200005d0

08003cd4 <uxTaskGetSystemState>:
/*-----------------------------------------------------------*/

#if ( configUSE_TRACE_FACILITY == 1 )

	unsigned portBASE_TYPE uxTaskGetSystemState( xTaskStatusType *pxTaskStatusArray, unsigned portBASE_TYPE uxArraySize, unsigned long *pulTotalRunTime )
	{
 8003cd4:	b580      	push	{r7, lr}
 8003cd6:	b086      	sub	sp, #24
 8003cd8:	af00      	add	r7, sp, #0
 8003cda:	60f8      	str	r0, [r7, #12]
 8003cdc:	60b9      	str	r1, [r7, #8]
 8003cde:	607a      	str	r2, [r7, #4]
	unsigned portBASE_TYPE uxTask = 0, uxQueue = configMAX_PRIORITIES;
 8003ce0:	2300      	movs	r3, #0
 8003ce2:	617b      	str	r3, [r7, #20]
 8003ce4:	2305      	movs	r3, #5
 8003ce6:	613b      	str	r3, [r7, #16]

		vTaskSuspendAll();
 8003ce8:	f7ff ff4e 	bl	8003b88 <vTaskSuspendAll>
		{
			/* Is there a space in the array for each task in the system? */
			if( uxArraySize >= uxCurrentNumberOfTasks )
 8003cec:	4b31      	ldr	r3, [pc, #196]	; (8003db4 <uxTaskGetSystemState+0xe0>)
 8003cee:	681b      	ldr	r3, [r3, #0]
 8003cf0:	68ba      	ldr	r2, [r7, #8]
 8003cf2:	429a      	cmp	r2, r3
 8003cf4:	d357      	bcc.n	8003da6 <uxTaskGetSystemState+0xd2>
			{
				/* Fill in an xTaskStatusType structure with information on each
				task in the Ready state. */
				do
				{
					uxQueue--;
 8003cf6:	693b      	ldr	r3, [r7, #16]
 8003cf8:	3b01      	subs	r3, #1
 8003cfa:	613b      	str	r3, [r7, #16]
					uxTask += prvListTaskWithinSingleList( &( pxTaskStatusArray[ uxTask ] ), &( pxReadyTasksLists[ uxQueue ] ), eReady );
 8003cfc:	697b      	ldr	r3, [r7, #20]
 8003cfe:	015b      	lsls	r3, r3, #5
 8003d00:	68fa      	ldr	r2, [r7, #12]
 8003d02:	18d1      	adds	r1, r2, r3
 8003d04:	693a      	ldr	r2, [r7, #16]
 8003d06:	4613      	mov	r3, r2
 8003d08:	009b      	lsls	r3, r3, #2
 8003d0a:	4413      	add	r3, r2
 8003d0c:	009b      	lsls	r3, r3, #2
 8003d0e:	4a2a      	ldr	r2, [pc, #168]	; (8003db8 <uxTaskGetSystemState+0xe4>)
 8003d10:	4413      	add	r3, r2
 8003d12:	4608      	mov	r0, r1
 8003d14:	4619      	mov	r1, r3
 8003d16:	2201      	movs	r2, #1
 8003d18:	f000 fc12 	bl	8004540 <prvListTaskWithinSingleList>
 8003d1c:	4603      	mov	r3, r0
 8003d1e:	697a      	ldr	r2, [r7, #20]
 8003d20:	4413      	add	r3, r2
 8003d22:	617b      	str	r3, [r7, #20]

				} while( uxQueue > ( unsigned portBASE_TYPE ) tskIDLE_PRIORITY ); /*lint !e961 MISRA exception as the casts are only redundant for some ports. */
 8003d24:	693b      	ldr	r3, [r7, #16]
 8003d26:	2b00      	cmp	r3, #0
 8003d28:	d1e5      	bne.n	8003cf6 <uxTaskGetSystemState+0x22>

				/* Fill in an xTaskStatusType structure with information on each
				task in the Blocked state. */
				uxTask += prvListTaskWithinSingleList( &( pxTaskStatusArray[ uxTask ] ), ( xList * ) pxDelayedTaskList, eBlocked );
 8003d2a:	697b      	ldr	r3, [r7, #20]
 8003d2c:	015b      	lsls	r3, r3, #5
 8003d2e:	68fa      	ldr	r2, [r7, #12]
 8003d30:	441a      	add	r2, r3
 8003d32:	4b22      	ldr	r3, [pc, #136]	; (8003dbc <uxTaskGetSystemState+0xe8>)
 8003d34:	681b      	ldr	r3, [r3, #0]
 8003d36:	4610      	mov	r0, r2
 8003d38:	4619      	mov	r1, r3
 8003d3a:	2202      	movs	r2, #2
 8003d3c:	f000 fc00 	bl	8004540 <prvListTaskWithinSingleList>
 8003d40:	4603      	mov	r3, r0
 8003d42:	697a      	ldr	r2, [r7, #20]
 8003d44:	4413      	add	r3, r2
 8003d46:	617b      	str	r3, [r7, #20]
				uxTask += prvListTaskWithinSingleList( &( pxTaskStatusArray[ uxTask ] ), ( xList * ) pxOverflowDelayedTaskList, eBlocked );
 8003d48:	697b      	ldr	r3, [r7, #20]
 8003d4a:	015b      	lsls	r3, r3, #5
 8003d4c:	68fa      	ldr	r2, [r7, #12]
 8003d4e:	441a      	add	r2, r3
 8003d50:	4b1b      	ldr	r3, [pc, #108]	; (8003dc0 <uxTaskGetSystemState+0xec>)
 8003d52:	681b      	ldr	r3, [r3, #0]
 8003d54:	4610      	mov	r0, r2
 8003d56:	4619      	mov	r1, r3
 8003d58:	2202      	movs	r2, #2
 8003d5a:	f000 fbf1 	bl	8004540 <prvListTaskWithinSingleList>
 8003d5e:	4603      	mov	r3, r0
 8003d60:	697a      	ldr	r2, [r7, #20]
 8003d62:	4413      	add	r3, r2
 8003d64:	617b      	str	r3, [r7, #20]

				#if( INCLUDE_vTaskDelete == 1 )
				{
					/* Fill in an xTaskStatusType structure with information on
					each task that has been deleted but not yet cleaned up. */
					uxTask += prvListTaskWithinSingleList( &( pxTaskStatusArray[ uxTask ] ), &xTasksWaitingTermination, eDeleted );
 8003d66:	697b      	ldr	r3, [r7, #20]
 8003d68:	015b      	lsls	r3, r3, #5
 8003d6a:	68fa      	ldr	r2, [r7, #12]
 8003d6c:	4413      	add	r3, r2
 8003d6e:	4618      	mov	r0, r3
 8003d70:	4914      	ldr	r1, [pc, #80]	; (8003dc4 <uxTaskGetSystemState+0xf0>)
 8003d72:	2204      	movs	r2, #4
 8003d74:	f000 fbe4 	bl	8004540 <prvListTaskWithinSingleList>
 8003d78:	4603      	mov	r3, r0
 8003d7a:	697a      	ldr	r2, [r7, #20]
 8003d7c:	4413      	add	r3, r2
 8003d7e:	617b      	str	r3, [r7, #20]

				#if ( INCLUDE_vTaskSuspend == 1 )
				{
					/* Fill in an xTaskStatusType structure with information on
					each task in the Suspended state. */
					uxTask += prvListTaskWithinSingleList( &( pxTaskStatusArray[ uxTask ] ), &xSuspendedTaskList, eSuspended );
 8003d80:	697b      	ldr	r3, [r7, #20]
 8003d82:	015b      	lsls	r3, r3, #5
 8003d84:	68fa      	ldr	r2, [r7, #12]
 8003d86:	4413      	add	r3, r2
 8003d88:	4618      	mov	r0, r3
 8003d8a:	490f      	ldr	r1, [pc, #60]	; (8003dc8 <uxTaskGetSystemState+0xf4>)
 8003d8c:	2203      	movs	r2, #3
 8003d8e:	f000 fbd7 	bl	8004540 <prvListTaskWithinSingleList>
 8003d92:	4603      	mov	r3, r0
 8003d94:	697a      	ldr	r2, [r7, #20]
 8003d96:	4413      	add	r3, r2
 8003d98:	617b      	str	r3, [r7, #20]
						#endif
					}
				}
				#else
				{
					if( pulTotalRunTime != NULL )
 8003d9a:	687b      	ldr	r3, [r7, #4]
 8003d9c:	2b00      	cmp	r3, #0
 8003d9e:	d002      	beq.n	8003da6 <uxTaskGetSystemState+0xd2>
					{
						*pulTotalRunTime = 0;
 8003da0:	687b      	ldr	r3, [r7, #4]
 8003da2:	2200      	movs	r2, #0
 8003da4:	601a      	str	r2, [r3, #0]
					}
				}
				#endif
			}
		}
		( void ) xTaskResumeAll();
 8003da6:	f7ff fefd 	bl	8003ba4 <xTaskResumeAll>

		return uxTask;
 8003daa:	697b      	ldr	r3, [r7, #20]
	}
 8003dac:	4618      	mov	r0, r3
 8003dae:	3718      	adds	r7, #24
 8003db0:	46bd      	mov	sp, r7
 8003db2:	bd80      	pop	{r7, pc}
 8003db4:	200005cc 	.word	0x200005cc
 8003db8:	200004f8 	.word	0x200004f8
 8003dbc:	20000584 	.word	0x20000584
 8003dc0:	20000588 	.word	0x20000588
 8003dc4:	200005a0 	.word	0x200005a0
 8003dc8:	200005b8 	.word	0x200005b8

08003dcc <xTaskIncrementTick>:

#endif /* configUSE_TICKLESS_IDLE */
/*----------------------------------------------------------*/

portBASE_TYPE xTaskIncrementTick( void )
{
 8003dcc:	b580      	push	{r7, lr}
 8003dce:	b086      	sub	sp, #24
 8003dd0:	af00      	add	r7, sp, #0
tskTCB * pxTCB;
portTickType xItemValue;
portBASE_TYPE xSwitchRequired = pdFALSE;
 8003dd2:	2300      	movs	r3, #0
 8003dd4:	617b      	str	r3, [r7, #20]

	/* Called by the portable layer each time a tick interrupt occurs.
	Increments the tick then checks to see if the new tick value will cause any
	tasks to be unblocked. */
	traceTASK_INCREMENT_TICK( xTickCount );
	if( uxSchedulerSuspended == ( unsigned portBASE_TYPE ) pdFALSE )
 8003dd6:	4b5d      	ldr	r3, [pc, #372]	; (8003f4c <xTaskIncrementTick+0x180>)
 8003dd8:	681b      	ldr	r3, [r3, #0]
 8003dda:	2b00      	cmp	r3, #0
 8003ddc:	f040 80a4 	bne.w	8003f28 <xTaskIncrementTick+0x15c>
	{
		/* Increment the RTOS tick, switching the delayed and overflowed
		delayed lists if it wraps to 0. */
		++xTickCount;
 8003de0:	4b5b      	ldr	r3, [pc, #364]	; (8003f50 <xTaskIncrementTick+0x184>)
 8003de2:	681b      	ldr	r3, [r3, #0]
 8003de4:	1c5a      	adds	r2, r3, #1
 8003de6:	4b5a      	ldr	r3, [pc, #360]	; (8003f50 <xTaskIncrementTick+0x184>)
 8003de8:	601a      	str	r2, [r3, #0]

		{
			/* Minor optimisation.  The tick count cannot change in this
			block. */
			const portTickType xConstTickCount = xTickCount;
 8003dea:	4b59      	ldr	r3, [pc, #356]	; (8003f50 <xTaskIncrementTick+0x184>)
 8003dec:	681b      	ldr	r3, [r3, #0]
 8003dee:	613b      	str	r3, [r7, #16]

			if( xConstTickCount == ( portTickType ) 0U )
 8003df0:	693b      	ldr	r3, [r7, #16]
 8003df2:	2b00      	cmp	r3, #0
 8003df4:	d12e      	bne.n	8003e54 <xTaskIncrementTick+0x88>
			{
				taskSWITCH_DELAYED_LISTS();
 8003df6:	4b57      	ldr	r3, [pc, #348]	; (8003f54 <xTaskIncrementTick+0x188>)
 8003df8:	681b      	ldr	r3, [r3, #0]
 8003dfa:	681b      	ldr	r3, [r3, #0]
 8003dfc:	2b00      	cmp	r3, #0
 8003dfe:	d002      	beq.n	8003e06 <xTaskIncrementTick+0x3a>
 8003e00:	f001 fb26 	bl	8005450 <ulPortSetInterruptMask>
 8003e04:	e7fe      	b.n	8003e04 <xTaskIncrementTick+0x38>
 8003e06:	4b53      	ldr	r3, [pc, #332]	; (8003f54 <xTaskIncrementTick+0x188>)
 8003e08:	681b      	ldr	r3, [r3, #0]
 8003e0a:	60fb      	str	r3, [r7, #12]
 8003e0c:	4b52      	ldr	r3, [pc, #328]	; (8003f58 <xTaskIncrementTick+0x18c>)
 8003e0e:	681a      	ldr	r2, [r3, #0]
 8003e10:	4b50      	ldr	r3, [pc, #320]	; (8003f54 <xTaskIncrementTick+0x188>)
 8003e12:	601a      	str	r2, [r3, #0]
 8003e14:	4b50      	ldr	r3, [pc, #320]	; (8003f58 <xTaskIncrementTick+0x18c>)
 8003e16:	68fa      	ldr	r2, [r7, #12]
 8003e18:	601a      	str	r2, [r3, #0]
 8003e1a:	4b50      	ldr	r3, [pc, #320]	; (8003f5c <xTaskIncrementTick+0x190>)
 8003e1c:	681b      	ldr	r3, [r3, #0]
 8003e1e:	1c5a      	adds	r2, r3, #1
 8003e20:	4b4e      	ldr	r3, [pc, #312]	; (8003f5c <xTaskIncrementTick+0x190>)
 8003e22:	601a      	str	r2, [r3, #0]
 8003e24:	4b4b      	ldr	r3, [pc, #300]	; (8003f54 <xTaskIncrementTick+0x188>)
 8003e26:	681b      	ldr	r3, [r3, #0]
 8003e28:	681b      	ldr	r3, [r3, #0]
 8003e2a:	2b00      	cmp	r3, #0
 8003e2c:	d101      	bne.n	8003e32 <xTaskIncrementTick+0x66>
 8003e2e:	2301      	movs	r3, #1
 8003e30:	e000      	b.n	8003e34 <xTaskIncrementTick+0x68>
 8003e32:	2300      	movs	r3, #0
 8003e34:	2b00      	cmp	r3, #0
 8003e36:	d004      	beq.n	8003e42 <xTaskIncrementTick+0x76>
 8003e38:	4b49      	ldr	r3, [pc, #292]	; (8003f60 <xTaskIncrementTick+0x194>)
 8003e3a:	f04f 32ff 	mov.w	r2, #4294967295	; 0xffffffff
 8003e3e:	601a      	str	r2, [r3, #0]
 8003e40:	e008      	b.n	8003e54 <xTaskIncrementTick+0x88>
 8003e42:	4b44      	ldr	r3, [pc, #272]	; (8003f54 <xTaskIncrementTick+0x188>)
 8003e44:	681b      	ldr	r3, [r3, #0]
 8003e46:	68db      	ldr	r3, [r3, #12]
 8003e48:	68db      	ldr	r3, [r3, #12]
 8003e4a:	60bb      	str	r3, [r7, #8]
 8003e4c:	68bb      	ldr	r3, [r7, #8]
 8003e4e:	685a      	ldr	r2, [r3, #4]
 8003e50:	4b43      	ldr	r3, [pc, #268]	; (8003f60 <xTaskIncrementTick+0x194>)
 8003e52:	601a      	str	r2, [r3, #0]

			/* See if this tick has made a timeout expire.  Tasks are stored in the
			queue in the order of their wake time - meaning once one tasks has been
			found whose block time has not expired there is no need not look any
			further	down the list. */
			if( xConstTickCount >= xNextTaskUnblockTime )
 8003e54:	4b42      	ldr	r3, [pc, #264]	; (8003f60 <xTaskIncrementTick+0x194>)
 8003e56:	681b      	ldr	r3, [r3, #0]
 8003e58:	693a      	ldr	r2, [r7, #16]
 8003e5a:	429a      	cmp	r2, r3
 8003e5c:	d34f      	bcc.n	8003efe <xTaskIncrementTick+0x132>
			{
				for( ;; )
				{
					if( listLIST_IS_EMPTY( pxDelayedTaskList ) != pdFALSE )
 8003e5e:	4b3d      	ldr	r3, [pc, #244]	; (8003f54 <xTaskIncrementTick+0x188>)
 8003e60:	681b      	ldr	r3, [r3, #0]
 8003e62:	681b      	ldr	r3, [r3, #0]
 8003e64:	2b00      	cmp	r3, #0
 8003e66:	d101      	bne.n	8003e6c <xTaskIncrementTick+0xa0>
 8003e68:	2301      	movs	r3, #1
 8003e6a:	e000      	b.n	8003e6e <xTaskIncrementTick+0xa2>
 8003e6c:	2300      	movs	r3, #0
 8003e6e:	2b00      	cmp	r3, #0
 8003e70:	d004      	beq.n	8003e7c <xTaskIncrementTick+0xb0>
					{
						/* The delayed list is empty.  Set xNextTaskUnblockTime to
						the	maximum possible value so it is extremely unlikely that
						the if( xTickCount >= xNextTaskUnblockTime ) test will pass
						next time through. */
						xNextTaskUnblockTime = portMAX_DELAY;
 8003e72:	4b3b      	ldr	r3, [pc, #236]	; (8003f60 <xTaskIncrementTick+0x194>)
 8003e74:	f04f 32ff 	mov.w	r2, #4294967295	; 0xffffffff
 8003e78:	601a      	str	r2, [r3, #0]
						break;
 8003e7a:	e040      	b.n	8003efe <xTaskIncrementTick+0x132>
					{
						/* The delayed list is not empty, get the value of the item
						at the head of the delayed list.  This is the time at which
						the task at the head of the delayed list must be removed
						from the Blocked state. */
						pxTCB = ( tskTCB * ) listGET_OWNER_OF_HEAD_ENTRY( pxDelayedTaskList );
 8003e7c:	4b35      	ldr	r3, [pc, #212]	; (8003f54 <xTaskIncrementTick+0x188>)
 8003e7e:	681b      	ldr	r3, [r3, #0]
 8003e80:	68db      	ldr	r3, [r3, #12]
 8003e82:	68db      	ldr	r3, [r3, #12]
 8003e84:	60bb      	str	r3, [r7, #8]
						xItemValue = listGET_LIST_ITEM_VALUE( &( pxTCB->xGenericListItem ) );
 8003e86:	68bb      	ldr	r3, [r7, #8]
 8003e88:	685b      	ldr	r3, [r3, #4]
 8003e8a:	607b      	str	r3, [r7, #4]

						if( xConstTickCount < xItemValue )
 8003e8c:	693a      	ldr	r2, [r7, #16]
 8003e8e:	687b      	ldr	r3, [r7, #4]
 8003e90:	429a      	cmp	r2, r3
 8003e92:	d203      	bcs.n	8003e9c <xTaskIncrementTick+0xd0>
						{
							/* It is not time to unblock this item yet, but the item
							value is the time at which the task at the head of the
							blocked list must be removed from the Blocked state -
							so record the item value in xNextTaskUnblockTime. */
							xNextTaskUnblockTime = xItemValue;
 8003e94:	4b32      	ldr	r3, [pc, #200]	; (8003f60 <xTaskIncrementTick+0x194>)
 8003e96:	687a      	ldr	r2, [r7, #4]
 8003e98:	601a      	str	r2, [r3, #0]
							break;
 8003e9a:	e030      	b.n	8003efe <xTaskIncrementTick+0x132>
						}

						/* It is time to remove the item from the Blocked state. */
						( void ) uxListRemove( &( pxTCB->xGenericListItem ) );
 8003e9c:	68bb      	ldr	r3, [r7, #8]
 8003e9e:	3304      	adds	r3, #4
 8003ea0:	4618      	mov	r0, r3
 8003ea2:	f001 f9b9 	bl	8005218 <uxListRemove>

						/* Is the task waiting on an event also?  If so remove it
						from the event list. */
						if( listLIST_ITEM_CONTAINER( &( pxTCB->xEventListItem ) ) != NULL )
 8003ea6:	68bb      	ldr	r3, [r7, #8]
 8003ea8:	6a9b      	ldr	r3, [r3, #40]	; 0x28
 8003eaa:	2b00      	cmp	r3, #0
 8003eac:	d004      	beq.n	8003eb8 <xTaskIncrementTick+0xec>
						{
							( void ) uxListRemove( &( pxTCB->xEventListItem ) );
 8003eae:	68bb      	ldr	r3, [r7, #8]
 8003eb0:	3318      	adds	r3, #24
 8003eb2:	4618      	mov	r0, r3
 8003eb4:	f001 f9b0 	bl	8005218 <uxListRemove>
						}

						/* Place the unblocked task into the appropriate ready
						list. */
						prvAddTaskToReadyList( pxTCB );
 8003eb8:	68bb      	ldr	r3, [r7, #8]
 8003eba:	6ada      	ldr	r2, [r3, #44]	; 0x2c
 8003ebc:	4b29      	ldr	r3, [pc, #164]	; (8003f64 <xTaskIncrementTick+0x198>)
 8003ebe:	681b      	ldr	r3, [r3, #0]
 8003ec0:	429a      	cmp	r2, r3
 8003ec2:	d903      	bls.n	8003ecc <xTaskIncrementTick+0x100>
 8003ec4:	68bb      	ldr	r3, [r7, #8]
 8003ec6:	6ada      	ldr	r2, [r3, #44]	; 0x2c
 8003ec8:	4b26      	ldr	r3, [pc, #152]	; (8003f64 <xTaskIncrementTick+0x198>)
 8003eca:	601a      	str	r2, [r3, #0]
 8003ecc:	68bb      	ldr	r3, [r7, #8]
 8003ece:	6ada      	ldr	r2, [r3, #44]	; 0x2c
 8003ed0:	4613      	mov	r3, r2
 8003ed2:	009b      	lsls	r3, r3, #2
 8003ed4:	4413      	add	r3, r2
 8003ed6:	009b      	lsls	r3, r3, #2
 8003ed8:	4a23      	ldr	r2, [pc, #140]	; (8003f68 <xTaskIncrementTick+0x19c>)
 8003eda:	441a      	add	r2, r3
 8003edc:	68bb      	ldr	r3, [r7, #8]
 8003ede:	3304      	adds	r3, #4
 8003ee0:	4610      	mov	r0, r2
 8003ee2:	4619      	mov	r1, r3
 8003ee4:	f001 f93c 	bl	8005160 <vListInsertEnd>
						{
							/* Preemption is on, but a context switch should only
							be performed if the unblocked task has a priority that
							is equal to or higher than the currently executing
							task. */
							if( pxTCB->uxPriority >= pxCurrentTCB->uxPriority )
 8003ee8:	68bb      	ldr	r3, [r7, #8]
 8003eea:	6ada      	ldr	r2, [r3, #44]	; 0x2c
 8003eec:	4b1f      	ldr	r3, [pc, #124]	; (8003f6c <xTaskIncrementTick+0x1a0>)
 8003eee:	681b      	ldr	r3, [r3, #0]
 8003ef0:	6adb      	ldr	r3, [r3, #44]	; 0x2c
 8003ef2:	429a      	cmp	r2, r3
 8003ef4:	d302      	bcc.n	8003efc <xTaskIncrementTick+0x130>
							{
								xSwitchRequired = pdTRUE;
 8003ef6:	2301      	movs	r3, #1
 8003ef8:	617b      	str	r3, [r7, #20]
							}
						}
						#endif /* configUSE_PREEMPTION */
					}
				}
 8003efa:	e7b0      	b.n	8003e5e <xTaskIncrementTick+0x92>
 8003efc:	e7af      	b.n	8003e5e <xTaskIncrementTick+0x92>
		/* Tasks of equal priority to the currently running task will share
		processing time (time slice) if preemption is on, and the application
		writer has not explicitly turned time slicing off. */
		#if ( ( configUSE_PREEMPTION == 1 ) && ( configUSE_TIME_SLICING == 1 ) )
		{
			if( listCURRENT_LIST_LENGTH( &( pxReadyTasksLists[ pxCurrentTCB->uxPriority ] ) ) > ( unsigned portBASE_TYPE ) 1 )
 8003efe:	4b1b      	ldr	r3, [pc, #108]	; (8003f6c <xTaskIncrementTick+0x1a0>)
 8003f00:	681b      	ldr	r3, [r3, #0]
 8003f02:	6ada      	ldr	r2, [r3, #44]	; 0x2c
 8003f04:	4918      	ldr	r1, [pc, #96]	; (8003f68 <xTaskIncrementTick+0x19c>)
 8003f06:	4613      	mov	r3, r2
 8003f08:	009b      	lsls	r3, r3, #2
 8003f0a:	4413      	add	r3, r2
 8003f0c:	009b      	lsls	r3, r3, #2
 8003f0e:	440b      	add	r3, r1
 8003f10:	681b      	ldr	r3, [r3, #0]
 8003f12:	2b01      	cmp	r3, #1
 8003f14:	d901      	bls.n	8003f1a <xTaskIncrementTick+0x14e>
			{
				xSwitchRequired = pdTRUE;
 8003f16:	2301      	movs	r3, #1
 8003f18:	617b      	str	r3, [r7, #20]
		
		#if ( configUSE_TICK_HOOK == 1 )
		{
			/* Guard against the tick hook being called when the pended tick
			count is being unwound (when the scheduler is being unlocked). */
			if( uxPendedTicks == ( unsigned portBASE_TYPE ) 0U )
 8003f1a:	4b15      	ldr	r3, [pc, #84]	; (8003f70 <xTaskIncrementTick+0x1a4>)
 8003f1c:	681b      	ldr	r3, [r3, #0]
 8003f1e:	2b00      	cmp	r3, #0
 8003f20:	d109      	bne.n	8003f36 <xTaskIncrementTick+0x16a>
			{
				vApplicationTickHook();
 8003f22:	f7ff fac3 	bl	80034ac <vApplicationTickHook>
 8003f26:	e006      	b.n	8003f36 <xTaskIncrementTick+0x16a>
		}
		#endif /* configUSE_TICK_HOOK */		
	}
	else
	{
		++uxPendedTicks;
 8003f28:	4b11      	ldr	r3, [pc, #68]	; (8003f70 <xTaskIncrementTick+0x1a4>)
 8003f2a:	681b      	ldr	r3, [r3, #0]
 8003f2c:	1c5a      	adds	r2, r3, #1
 8003f2e:	4b10      	ldr	r3, [pc, #64]	; (8003f70 <xTaskIncrementTick+0x1a4>)
 8003f30:	601a      	str	r2, [r3, #0]

		/* The tick hook gets called at regular intervals, even if the
		scheduler is locked. */
		#if ( configUSE_TICK_HOOK == 1 )
		{
			vApplicationTickHook();
 8003f32:	f7ff fabb 	bl	80034ac <vApplicationTickHook>
		#endif
	}

	#if ( configUSE_PREEMPTION == 1 )
	{
		if( xYieldPending != pdFALSE )
 8003f36:	4b0f      	ldr	r3, [pc, #60]	; (8003f74 <xTaskIncrementTick+0x1a8>)
 8003f38:	681b      	ldr	r3, [r3, #0]
 8003f3a:	2b00      	cmp	r3, #0
 8003f3c:	d001      	beq.n	8003f42 <xTaskIncrementTick+0x176>
		{
			xSwitchRequired = pdTRUE;
 8003f3e:	2301      	movs	r3, #1
 8003f40:	617b      	str	r3, [r7, #20]
		}
	}
	#endif /* configUSE_PREEMPTION */

	return xSwitchRequired;
 8003f42:	697b      	ldr	r3, [r7, #20]
}
 8003f44:	4618      	mov	r0, r3
 8003f46:	3718      	adds	r7, #24
 8003f48:	46bd      	mov	sp, r7
 8003f4a:	bd80      	pop	{r7, pc}
 8003f4c:	200005dc 	.word	0x200005dc
 8003f50:	200005d0 	.word	0x200005d0
 8003f54:	20000584 	.word	0x20000584
 8003f58:	20000588 	.word	0x20000588
 8003f5c:	200005e8 	.word	0x200005e8
 8003f60:	20000018 	.word	0x20000018
 8003f64:	200005d4 	.word	0x200005d4
 8003f68:	200004f8 	.word	0x200004f8
 8003f6c:	200004f4 	.word	0x200004f4
 8003f70:	200005e0 	.word	0x200005e0
 8003f74:	200005e4 	.word	0x200005e4

08003f78 <vTaskSwitchContext>:

#endif /* configUSE_APPLICATION_TASK_TAG */
/*-----------------------------------------------------------*/

void vTaskSwitchContext( void )
{
 8003f78:	b580      	push	{r7, lr}
 8003f7a:	b082      	sub	sp, #8
 8003f7c:	af00      	add	r7, sp, #0
	if( uxSchedulerSuspended != ( unsigned portBASE_TYPE ) pdFALSE )
 8003f7e:	4b35      	ldr	r3, [pc, #212]	; (8004054 <vTaskSwitchContext+0xdc>)
 8003f80:	681b      	ldr	r3, [r3, #0]
 8003f82:	2b00      	cmp	r3, #0
 8003f84:	d003      	beq.n	8003f8e <vTaskSwitchContext+0x16>
	{
		/* The scheduler is currently suspended - do not allow a context
		switch. */
		xYieldPending = pdTRUE;
 8003f86:	4b34      	ldr	r3, [pc, #208]	; (8004058 <vTaskSwitchContext+0xe0>)
 8003f88:	2201      	movs	r2, #1
 8003f8a:	601a      	str	r2, [r3, #0]
 8003f8c:	e05e      	b.n	800404c <vTaskSwitchContext+0xd4>
	}
	else
	{
		xYieldPending = pdFALSE;
 8003f8e:	4b32      	ldr	r3, [pc, #200]	; (8004058 <vTaskSwitchContext+0xe0>)
 8003f90:	2200      	movs	r2, #0
 8003f92:	601a      	str	r2, [r3, #0]
				}
				ulTaskSwitchedInTime = ulTotalRunTime;
		}
		#endif /* configGENERATE_RUN_TIME_STATS */

		taskFIRST_CHECK_FOR_STACK_OVERFLOW();
 8003f94:	4b31      	ldr	r3, [pc, #196]	; (800405c <vTaskSwitchContext+0xe4>)
 8003f96:	681b      	ldr	r3, [r3, #0]
 8003f98:	681a      	ldr	r2, [r3, #0]
 8003f9a:	4b30      	ldr	r3, [pc, #192]	; (800405c <vTaskSwitchContext+0xe4>)
 8003f9c:	681b      	ldr	r3, [r3, #0]
 8003f9e:	6b1b      	ldr	r3, [r3, #48]	; 0x30
 8003fa0:	429a      	cmp	r2, r3
 8003fa2:	d808      	bhi.n	8003fb6 <vTaskSwitchContext+0x3e>
 8003fa4:	4b2d      	ldr	r3, [pc, #180]	; (800405c <vTaskSwitchContext+0xe4>)
 8003fa6:	681a      	ldr	r2, [r3, #0]
 8003fa8:	4b2c      	ldr	r3, [pc, #176]	; (800405c <vTaskSwitchContext+0xe4>)
 8003faa:	681b      	ldr	r3, [r3, #0]
 8003fac:	3334      	adds	r3, #52	; 0x34
 8003fae:	4610      	mov	r0, r2
 8003fb0:	4619      	mov	r1, r3
 8003fb2:	f7ff fac9 	bl	8003548 <vApplicationStackOverflowHook>
		taskSECOND_CHECK_FOR_STACK_OVERFLOW();
 8003fb6:	4b29      	ldr	r3, [pc, #164]	; (800405c <vTaskSwitchContext+0xe4>)
 8003fb8:	681b      	ldr	r3, [r3, #0]
 8003fba:	6b1b      	ldr	r3, [r3, #48]	; 0x30
 8003fbc:	4618      	mov	r0, r3
 8003fbe:	4928      	ldr	r1, [pc, #160]	; (8004060 <vTaskSwitchContext+0xe8>)
 8003fc0:	2214      	movs	r2, #20
 8003fc2:	f004 fda3 	bl	8008b0c <memcmp>
 8003fc6:	4603      	mov	r3, r0
 8003fc8:	2b00      	cmp	r3, #0
 8003fca:	d009      	beq.n	8003fe0 <vTaskSwitchContext+0x68>
 8003fcc:	4b23      	ldr	r3, [pc, #140]	; (800405c <vTaskSwitchContext+0xe4>)
 8003fce:	681a      	ldr	r2, [r3, #0]
 8003fd0:	4b22      	ldr	r3, [pc, #136]	; (800405c <vTaskSwitchContext+0xe4>)
 8003fd2:	681b      	ldr	r3, [r3, #0]
 8003fd4:	3334      	adds	r3, #52	; 0x34
 8003fd6:	4610      	mov	r0, r2
 8003fd8:	4619      	mov	r1, r3
 8003fda:	f7ff fab5 	bl	8003548 <vApplicationStackOverflowHook>

		taskSELECT_HIGHEST_PRIORITY_TASK();
 8003fde:	e00c      	b.n	8003ffa <vTaskSwitchContext+0x82>
 8003fe0:	e00b      	b.n	8003ffa <vTaskSwitchContext+0x82>
 8003fe2:	4b20      	ldr	r3, [pc, #128]	; (8004064 <vTaskSwitchContext+0xec>)
 8003fe4:	681b      	ldr	r3, [r3, #0]
 8003fe6:	2b00      	cmp	r3, #0
 8003fe8:	d102      	bne.n	8003ff0 <vTaskSwitchContext+0x78>
 8003fea:	f001 fa31 	bl	8005450 <ulPortSetInterruptMask>
 8003fee:	e7fe      	b.n	8003fee <vTaskSwitchContext+0x76>
 8003ff0:	4b1c      	ldr	r3, [pc, #112]	; (8004064 <vTaskSwitchContext+0xec>)
 8003ff2:	681b      	ldr	r3, [r3, #0]
 8003ff4:	1e5a      	subs	r2, r3, #1
 8003ff6:	4b1b      	ldr	r3, [pc, #108]	; (8004064 <vTaskSwitchContext+0xec>)
 8003ff8:	601a      	str	r2, [r3, #0]
 8003ffa:	4b1a      	ldr	r3, [pc, #104]	; (8004064 <vTaskSwitchContext+0xec>)
 8003ffc:	681a      	ldr	r2, [r3, #0]
 8003ffe:	491a      	ldr	r1, [pc, #104]	; (8004068 <vTaskSwitchContext+0xf0>)
 8004000:	4613      	mov	r3, r2
 8004002:	009b      	lsls	r3, r3, #2
 8004004:	4413      	add	r3, r2
 8004006:	009b      	lsls	r3, r3, #2
 8004008:	440b      	add	r3, r1
 800400a:	681b      	ldr	r3, [r3, #0]
 800400c:	2b00      	cmp	r3, #0
 800400e:	d0e8      	beq.n	8003fe2 <vTaskSwitchContext+0x6a>
 8004010:	4b14      	ldr	r3, [pc, #80]	; (8004064 <vTaskSwitchContext+0xec>)
 8004012:	681a      	ldr	r2, [r3, #0]
 8004014:	4613      	mov	r3, r2
 8004016:	009b      	lsls	r3, r3, #2
 8004018:	4413      	add	r3, r2
 800401a:	009b      	lsls	r3, r3, #2
 800401c:	4a12      	ldr	r2, [pc, #72]	; (8004068 <vTaskSwitchContext+0xf0>)
 800401e:	4413      	add	r3, r2
 8004020:	607b      	str	r3, [r7, #4]
 8004022:	687b      	ldr	r3, [r7, #4]
 8004024:	685b      	ldr	r3, [r3, #4]
 8004026:	685a      	ldr	r2, [r3, #4]
 8004028:	687b      	ldr	r3, [r7, #4]
 800402a:	605a      	str	r2, [r3, #4]
 800402c:	687b      	ldr	r3, [r7, #4]
 800402e:	685a      	ldr	r2, [r3, #4]
 8004030:	687b      	ldr	r3, [r7, #4]
 8004032:	3308      	adds	r3, #8
 8004034:	429a      	cmp	r2, r3
 8004036:	d104      	bne.n	8004042 <vTaskSwitchContext+0xca>
 8004038:	687b      	ldr	r3, [r7, #4]
 800403a:	685b      	ldr	r3, [r3, #4]
 800403c:	685a      	ldr	r2, [r3, #4]
 800403e:	687b      	ldr	r3, [r7, #4]
 8004040:	605a      	str	r2, [r3, #4]
 8004042:	687b      	ldr	r3, [r7, #4]
 8004044:	685b      	ldr	r3, [r3, #4]
 8004046:	68da      	ldr	r2, [r3, #12]
 8004048:	4b04      	ldr	r3, [pc, #16]	; (800405c <vTaskSwitchContext+0xe4>)
 800404a:	601a      	str	r2, [r3, #0]
			structure specific to this task. */
			_impure_ptr = &( pxCurrentTCB->xNewLib_reent );
		}
		#endif /* configUSE_NEWLIB_REENTRANT */
	}
}
 800404c:	3708      	adds	r7, #8
 800404e:	46bd      	mov	sp, r7
 8004050:	bd80      	pop	{r7, pc}
 8004052:	bf00      	nop
 8004054:	200005dc 	.word	0x200005dc
 8004058:	200005e4 	.word	0x200005e4
 800405c:	200004f4 	.word	0x200004f4
 8004060:	08009c48 	.word	0x08009c48
 8004064:	200005d4 	.word	0x200005d4
 8004068:	200004f8 	.word	0x200004f8

0800406c <vTaskPlaceOnEventList>:
/*-----------------------------------------------------------*/

void vTaskPlaceOnEventList( xList * const pxEventList, portTickType xTicksToWait )
{
 800406c:	b580      	push	{r7, lr}
 800406e:	b084      	sub	sp, #16
 8004070:	af00      	add	r7, sp, #0
 8004072:	6078      	str	r0, [r7, #4]
 8004074:	6039      	str	r1, [r7, #0]
portTickType xTimeToWake;

	configASSERT( pxEventList );
 8004076:	687b      	ldr	r3, [r7, #4]
 8004078:	2b00      	cmp	r3, #0
 800407a:	d102      	bne.n	8004082 <vTaskPlaceOnEventList+0x16>
 800407c:	f001 f9e8 	bl	8005450 <ulPortSetInterruptMask>
 8004080:	e7fe      	b.n	8004080 <vTaskPlaceOnEventList+0x14>
	SCHEDULER SUSPENDED. */

	/* Place the event list item of the TCB in the appropriate event list.
	This is placed in the list in priority order so the highest priority task
	is the first to be woken by the event. */
	vListInsert( pxEventList, &( pxCurrentTCB->xEventListItem ) );
 8004082:	4b12      	ldr	r3, [pc, #72]	; (80040cc <vTaskPlaceOnEventList+0x60>)
 8004084:	681b      	ldr	r3, [r3, #0]
 8004086:	3318      	adds	r3, #24
 8004088:	6878      	ldr	r0, [r7, #4]
 800408a:	4619      	mov	r1, r3
 800408c:	f001 f88c 	bl	80051a8 <vListInsert>

	/* We must remove ourselves from the ready list before adding ourselves
	to the blocked list as the same list item is used for both lists.  We have
	exclusive access to the ready lists as the scheduler is locked. */
	if( uxListRemove( &( pxCurrentTCB->xGenericListItem ) ) == ( unsigned portBASE_TYPE ) 0 )
 8004090:	4b0e      	ldr	r3, [pc, #56]	; (80040cc <vTaskPlaceOnEventList+0x60>)
 8004092:	681b      	ldr	r3, [r3, #0]
 8004094:	3304      	adds	r3, #4
 8004096:	4618      	mov	r0, r3
 8004098:	f001 f8be 	bl	8005218 <uxListRemove>
		portRESET_READY_PRIORITY( pxCurrentTCB->uxPriority, uxTopReadyPriority );
	}

	#if ( INCLUDE_vTaskSuspend == 1 )
	{
		if( xTicksToWait == portMAX_DELAY )
 800409c:	683b      	ldr	r3, [r7, #0]
 800409e:	f1b3 3fff 	cmp.w	r3, #4294967295	; 0xffffffff
 80040a2:	d107      	bne.n	80040b4 <vTaskPlaceOnEventList+0x48>
		{
			/* Add ourselves to the suspended task list instead of a delayed task
			list to ensure we are not woken by a timing event.  We will block
			indefinitely. */
			vListInsertEnd( &xSuspendedTaskList, &( pxCurrentTCB->xGenericListItem ) );
 80040a4:	4b09      	ldr	r3, [pc, #36]	; (80040cc <vTaskPlaceOnEventList+0x60>)
 80040a6:	681b      	ldr	r3, [r3, #0]
 80040a8:	3304      	adds	r3, #4
 80040aa:	4809      	ldr	r0, [pc, #36]	; (80040d0 <vTaskPlaceOnEventList+0x64>)
 80040ac:	4619      	mov	r1, r3
 80040ae:	f001 f857 	bl	8005160 <vListInsertEnd>
 80040b2:	e007      	b.n	80040c4 <vTaskPlaceOnEventList+0x58>
		}
		else
		{
			/* Calculate the time at which the task should be woken if the event does
			not occur.  This may overflow but this doesn't matter. */
			xTimeToWake = xTickCount + xTicksToWait;
 80040b4:	4b07      	ldr	r3, [pc, #28]	; (80040d4 <vTaskPlaceOnEventList+0x68>)
 80040b6:	681a      	ldr	r2, [r3, #0]
 80040b8:	683b      	ldr	r3, [r7, #0]
 80040ba:	4413      	add	r3, r2
 80040bc:	60fb      	str	r3, [r7, #12]
			prvAddCurrentTaskToDelayedList( xTimeToWake );
 80040be:	68f8      	ldr	r0, [r7, #12]
 80040c0:	f000 f9d6 	bl	8004470 <prvAddCurrentTaskToDelayedList>
			not occur.  This may overflow but this doesn't matter. */
			xTimeToWake = xTickCount + xTicksToWait;
			prvAddCurrentTaskToDelayedList( xTimeToWake );
	}
	#endif /* INCLUDE_vTaskSuspend */
}
 80040c4:	3710      	adds	r7, #16
 80040c6:	46bd      	mov	sp, r7
 80040c8:	bd80      	pop	{r7, pc}
 80040ca:	bf00      	nop
 80040cc:	200004f4 	.word	0x200004f4
 80040d0:	200005b8 	.word	0x200005b8
 80040d4:	200005d0 	.word	0x200005d0

080040d8 <vTaskPlaceOnEventListRestricted>:
/*-----------------------------------------------------------*/

#if configUSE_TIMERS == 1

	void vTaskPlaceOnEventListRestricted( xList * const pxEventList, portTickType xTicksToWait )
	{
 80040d8:	b580      	push	{r7, lr}
 80040da:	b084      	sub	sp, #16
 80040dc:	af00      	add	r7, sp, #0
 80040de:	6078      	str	r0, [r7, #4]
 80040e0:	6039      	str	r1, [r7, #0]
	portTickType xTimeToWake;

		configASSERT( pxEventList );
 80040e2:	687b      	ldr	r3, [r7, #4]
 80040e4:	2b00      	cmp	r3, #0
 80040e6:	d102      	bne.n	80040ee <vTaskPlaceOnEventListRestricted+0x16>
 80040e8:	f001 f9b2 	bl	8005450 <ulPortSetInterruptMask>
 80040ec:	e7fe      	b.n	80040ec <vTaskPlaceOnEventListRestricted+0x14>

		/* Place the event list item of the TCB in the appropriate event list.
		In this case it is assume that this is the only task that is going to
		be waiting on this event list, so the faster vListInsertEnd() function
		can be used in place of vListInsert. */
		vListInsertEnd( pxEventList, &( pxCurrentTCB->xEventListItem ) );
 80040ee:	4b0c      	ldr	r3, [pc, #48]	; (8004120 <vTaskPlaceOnEventListRestricted+0x48>)
 80040f0:	681b      	ldr	r3, [r3, #0]
 80040f2:	3318      	adds	r3, #24
 80040f4:	6878      	ldr	r0, [r7, #4]
 80040f6:	4619      	mov	r1, r3
 80040f8:	f001 f832 	bl	8005160 <vListInsertEnd>

		/* We must remove this task from the ready list before adding it to the
		blocked list as the same list item is used for both lists.  This
		function is called form a critical section. */
		if( uxListRemove( &( pxCurrentTCB->xGenericListItem ) ) == ( unsigned portBASE_TYPE ) 0 )
 80040fc:	4b08      	ldr	r3, [pc, #32]	; (8004120 <vTaskPlaceOnEventListRestricted+0x48>)
 80040fe:	681b      	ldr	r3, [r3, #0]
 8004100:	3304      	adds	r3, #4
 8004102:	4618      	mov	r0, r3
 8004104:	f001 f888 	bl	8005218 <uxListRemove>
			portRESET_READY_PRIORITY( pxCurrentTCB->uxPriority, uxTopReadyPriority );
		}

		/* Calculate the time at which the task should be woken if the event does
		not occur.  This may overflow but this doesn't matter. */
		xTimeToWake = xTickCount + xTicksToWait;
 8004108:	4b06      	ldr	r3, [pc, #24]	; (8004124 <vTaskPlaceOnEventListRestricted+0x4c>)
 800410a:	681a      	ldr	r2, [r3, #0]
 800410c:	683b      	ldr	r3, [r7, #0]
 800410e:	4413      	add	r3, r2
 8004110:	60fb      	str	r3, [r7, #12]

		traceTASK_DELAY_UNTIL();
		prvAddCurrentTaskToDelayedList( xTimeToWake );
 8004112:	68f8      	ldr	r0, [r7, #12]
 8004114:	f000 f9ac 	bl	8004470 <prvAddCurrentTaskToDelayedList>
	}
 8004118:	3710      	adds	r7, #16
 800411a:	46bd      	mov	sp, r7
 800411c:	bd80      	pop	{r7, pc}
 800411e:	bf00      	nop
 8004120:	200004f4 	.word	0x200004f4
 8004124:	200005d0 	.word	0x200005d0

08004128 <xTaskRemoveFromEventList>:

#endif /* configUSE_TIMERS */
/*-----------------------------------------------------------*/

signed portBASE_TYPE xTaskRemoveFromEventList( const xList * const pxEventList )
{
 8004128:	b580      	push	{r7, lr}
 800412a:	b084      	sub	sp, #16
 800412c:	af00      	add	r7, sp, #0
 800412e:	6078      	str	r0, [r7, #4]
	get called - the lock count on the queue will get modified instead.  This
	means we can always expect exclusive access to the event list here.

	This function assumes that a check has already been made to ensure that
	pxEventList is not empty. */
	pxUnblockedTCB = ( tskTCB * ) listGET_OWNER_OF_HEAD_ENTRY( pxEventList );
 8004130:	687b      	ldr	r3, [r7, #4]
 8004132:	68db      	ldr	r3, [r3, #12]
 8004134:	68db      	ldr	r3, [r3, #12]
 8004136:	60bb      	str	r3, [r7, #8]
	configASSERT( pxUnblockedTCB );
 8004138:	68bb      	ldr	r3, [r7, #8]
 800413a:	2b00      	cmp	r3, #0
 800413c:	d102      	bne.n	8004144 <xTaskRemoveFromEventList+0x1c>
 800413e:	f001 f987 	bl	8005450 <ulPortSetInterruptMask>
 8004142:	e7fe      	b.n	8004142 <xTaskRemoveFromEventList+0x1a>
	( void ) uxListRemove( &( pxUnblockedTCB->xEventListItem ) );
 8004144:	68bb      	ldr	r3, [r7, #8]
 8004146:	3318      	adds	r3, #24
 8004148:	4618      	mov	r0, r3
 800414a:	f001 f865 	bl	8005218 <uxListRemove>

	if( uxSchedulerSuspended == ( unsigned portBASE_TYPE ) pdFALSE )
 800414e:	4b1e      	ldr	r3, [pc, #120]	; (80041c8 <xTaskRemoveFromEventList+0xa0>)
 8004150:	681b      	ldr	r3, [r3, #0]
 8004152:	2b00      	cmp	r3, #0
 8004154:	d11d      	bne.n	8004192 <xTaskRemoveFromEventList+0x6a>
	{
		( void ) uxListRemove( &( pxUnblockedTCB->xGenericListItem ) );
 8004156:	68bb      	ldr	r3, [r7, #8]
 8004158:	3304      	adds	r3, #4
 800415a:	4618      	mov	r0, r3
 800415c:	f001 f85c 	bl	8005218 <uxListRemove>
		prvAddTaskToReadyList( pxUnblockedTCB );
 8004160:	68bb      	ldr	r3, [r7, #8]
 8004162:	6ada      	ldr	r2, [r3, #44]	; 0x2c
 8004164:	4b19      	ldr	r3, [pc, #100]	; (80041cc <xTaskRemoveFromEventList+0xa4>)
 8004166:	681b      	ldr	r3, [r3, #0]
 8004168:	429a      	cmp	r2, r3
 800416a:	d903      	bls.n	8004174 <xTaskRemoveFromEventList+0x4c>
 800416c:	68bb      	ldr	r3, [r7, #8]
 800416e:	6ada      	ldr	r2, [r3, #44]	; 0x2c
 8004170:	4b16      	ldr	r3, [pc, #88]	; (80041cc <xTaskRemoveFromEventList+0xa4>)
 8004172:	601a      	str	r2, [r3, #0]
 8004174:	68bb      	ldr	r3, [r7, #8]
 8004176:	6ada      	ldr	r2, [r3, #44]	; 0x2c
 8004178:	4613      	mov	r3, r2
 800417a:	009b      	lsls	r3, r3, #2
 800417c:	4413      	add	r3, r2
 800417e:	009b      	lsls	r3, r3, #2
 8004180:	4a13      	ldr	r2, [pc, #76]	; (80041d0 <xTaskRemoveFromEventList+0xa8>)
 8004182:	441a      	add	r2, r3
 8004184:	68bb      	ldr	r3, [r7, #8]
 8004186:	3304      	adds	r3, #4
 8004188:	4610      	mov	r0, r2
 800418a:	4619      	mov	r1, r3
 800418c:	f000 ffe8 	bl	8005160 <vListInsertEnd>
 8004190:	e005      	b.n	800419e <xTaskRemoveFromEventList+0x76>
	}
	else
	{
		/* We cannot access the delayed or ready lists, so will hold this
		task pending until the scheduler is resumed. */
		vListInsertEnd( &( xPendingReadyList ), &( pxUnblockedTCB->xEventListItem ) );
 8004192:	68bb      	ldr	r3, [r7, #8]
 8004194:	3318      	adds	r3, #24
 8004196:	480f      	ldr	r0, [pc, #60]	; (80041d4 <xTaskRemoveFromEventList+0xac>)
 8004198:	4619      	mov	r1, r3
 800419a:	f000 ffe1 	bl	8005160 <vListInsertEnd>
	}

	if( pxUnblockedTCB->uxPriority >= pxCurrentTCB->uxPriority )
 800419e:	68bb      	ldr	r3, [r7, #8]
 80041a0:	6ada      	ldr	r2, [r3, #44]	; 0x2c
 80041a2:	4b0d      	ldr	r3, [pc, #52]	; (80041d8 <xTaskRemoveFromEventList+0xb0>)
 80041a4:	681b      	ldr	r3, [r3, #0]
 80041a6:	6adb      	ldr	r3, [r3, #44]	; 0x2c
 80041a8:	429a      	cmp	r2, r3
 80041aa:	d305      	bcc.n	80041b8 <xTaskRemoveFromEventList+0x90>
	{
		/* Return true if the task removed from the event list has
		a higher priority than the calling task.  This allows
		the calling task to know if it should force a context
		switch now. */
		xReturn = pdTRUE;
 80041ac:	2301      	movs	r3, #1
 80041ae:	60fb      	str	r3, [r7, #12]

		/* Mark that a yield is pending in case the user is not using the
		"xHigherPriorityTaskWoken" parameter to an ISR safe FreeRTOS function. */
		xYieldPending = pdTRUE;
 80041b0:	4b0a      	ldr	r3, [pc, #40]	; (80041dc <xTaskRemoveFromEventList+0xb4>)
 80041b2:	2201      	movs	r2, #1
 80041b4:	601a      	str	r2, [r3, #0]
 80041b6:	e001      	b.n	80041bc <xTaskRemoveFromEventList+0x94>
	}
	else
	{
		xReturn = pdFALSE;
 80041b8:	2300      	movs	r3, #0
 80041ba:	60fb      	str	r3, [r7, #12]
	}

	return xReturn;
 80041bc:	68fb      	ldr	r3, [r7, #12]
}
 80041be:	4618      	mov	r0, r3
 80041c0:	3710      	adds	r7, #16
 80041c2:	46bd      	mov	sp, r7
 80041c4:	bd80      	pop	{r7, pc}
 80041c6:	bf00      	nop
 80041c8:	200005dc 	.word	0x200005dc
 80041cc:	200005d4 	.word	0x200005d4
 80041d0:	200004f8 	.word	0x200004f8
 80041d4:	2000058c 	.word	0x2000058c
 80041d8:	200004f4 	.word	0x200004f4
 80041dc:	200005e4 	.word	0x200005e4

080041e0 <vTaskSetTimeOutState>:
/*-----------------------------------------------------------*/

void vTaskSetTimeOutState( xTimeOutType * const pxTimeOut )
{
 80041e0:	b580      	push	{r7, lr}
 80041e2:	b082      	sub	sp, #8
 80041e4:	af00      	add	r7, sp, #0
 80041e6:	6078      	str	r0, [r7, #4]
	configASSERT( pxTimeOut );
 80041e8:	687b      	ldr	r3, [r7, #4]
 80041ea:	2b00      	cmp	r3, #0
 80041ec:	d102      	bne.n	80041f4 <vTaskSetTimeOutState+0x14>
 80041ee:	f001 f92f 	bl	8005450 <ulPortSetInterruptMask>
 80041f2:	e7fe      	b.n	80041f2 <vTaskSetTimeOutState+0x12>
	pxTimeOut->xOverflowCount = xNumOfOverflows;
 80041f4:	4b05      	ldr	r3, [pc, #20]	; (800420c <vTaskSetTimeOutState+0x2c>)
 80041f6:	681a      	ldr	r2, [r3, #0]
 80041f8:	687b      	ldr	r3, [r7, #4]
 80041fa:	601a      	str	r2, [r3, #0]
	pxTimeOut->xTimeOnEntering = xTickCount;
 80041fc:	4b04      	ldr	r3, [pc, #16]	; (8004210 <vTaskSetTimeOutState+0x30>)
 80041fe:	681a      	ldr	r2, [r3, #0]
 8004200:	687b      	ldr	r3, [r7, #4]
 8004202:	605a      	str	r2, [r3, #4]
}
 8004204:	3708      	adds	r7, #8
 8004206:	46bd      	mov	sp, r7
 8004208:	bd80      	pop	{r7, pc}
 800420a:	bf00      	nop
 800420c:	200005e8 	.word	0x200005e8
 8004210:	200005d0 	.word	0x200005d0

08004214 <xTaskCheckForTimeOut>:
/*-----------------------------------------------------------*/

portBASE_TYPE xTaskCheckForTimeOut( xTimeOutType * const pxTimeOut, portTickType * const pxTicksToWait )
{
 8004214:	b580      	push	{r7, lr}
 8004216:	b084      	sub	sp, #16
 8004218:	af00      	add	r7, sp, #0
 800421a:	6078      	str	r0, [r7, #4]
 800421c:	6039      	str	r1, [r7, #0]
portBASE_TYPE xReturn;

	configASSERT( pxTimeOut );
 800421e:	687b      	ldr	r3, [r7, #4]
 8004220:	2b00      	cmp	r3, #0
 8004222:	d102      	bne.n	800422a <xTaskCheckForTimeOut+0x16>
 8004224:	f001 f914 	bl	8005450 <ulPortSetInterruptMask>
 8004228:	e7fe      	b.n	8004228 <xTaskCheckForTimeOut+0x14>
	configASSERT( pxTicksToWait );
 800422a:	683b      	ldr	r3, [r7, #0]
 800422c:	2b00      	cmp	r3, #0
 800422e:	d102      	bne.n	8004236 <xTaskCheckForTimeOut+0x22>
 8004230:	f001 f90e 	bl	8005450 <ulPortSetInterruptMask>
 8004234:	e7fe      	b.n	8004234 <xTaskCheckForTimeOut+0x20>

	taskENTER_CRITICAL();
 8004236:	f001 f8e9 	bl	800540c <vPortEnterCritical>
	{
		/* Minor optimisation.  The tick count cannot change in this block. */
		const portTickType xConstTickCount = xTickCount;
 800423a:	4b1c      	ldr	r3, [pc, #112]	; (80042ac <xTaskCheckForTimeOut+0x98>)
 800423c:	681b      	ldr	r3, [r3, #0]
 800423e:	60bb      	str	r3, [r7, #8]

		#if ( INCLUDE_vTaskSuspend == 1 )
			/* If INCLUDE_vTaskSuspend is set to 1 and the block time specified is
			the maximum block time then the task should block indefinitely, and
			therefore never time out. */
			if( *pxTicksToWait == portMAX_DELAY )
 8004240:	683b      	ldr	r3, [r7, #0]
 8004242:	681b      	ldr	r3, [r3, #0]
 8004244:	f1b3 3fff 	cmp.w	r3, #4294967295	; 0xffffffff
 8004248:	d102      	bne.n	8004250 <xTaskCheckForTimeOut+0x3c>
			{
				xReturn = pdFALSE;
 800424a:	2300      	movs	r3, #0
 800424c:	60fb      	str	r3, [r7, #12]
 800424e:	e026      	b.n	800429e <xTaskCheckForTimeOut+0x8a>
			}
			else /* We are not blocking indefinitely, perform the checks below. */
		#endif

		if( ( xNumOfOverflows != pxTimeOut->xOverflowCount ) && ( xConstTickCount >= pxTimeOut->xTimeOnEntering ) ) /*lint !e525 Indentation preferred as is to make code within pre-processor directives clearer. */
 8004250:	687b      	ldr	r3, [r7, #4]
 8004252:	681a      	ldr	r2, [r3, #0]
 8004254:	4b16      	ldr	r3, [pc, #88]	; (80042b0 <xTaskCheckForTimeOut+0x9c>)
 8004256:	681b      	ldr	r3, [r3, #0]
 8004258:	429a      	cmp	r2, r3
 800425a:	d007      	beq.n	800426c <xTaskCheckForTimeOut+0x58>
 800425c:	687b      	ldr	r3, [r7, #4]
 800425e:	685a      	ldr	r2, [r3, #4]
 8004260:	68bb      	ldr	r3, [r7, #8]
 8004262:	429a      	cmp	r2, r3
 8004264:	d802      	bhi.n	800426c <xTaskCheckForTimeOut+0x58>
		{
			/* The tick count is greater than the time at which vTaskSetTimeout()
			was called, but has also overflowed since vTaskSetTimeOut() was called.
			It must have wrapped all the way around and gone past us again. This
			passed since vTaskSetTimeout() was called. */
			xReturn = pdTRUE;
 8004266:	2301      	movs	r3, #1
 8004268:	60fb      	str	r3, [r7, #12]
 800426a:	e018      	b.n	800429e <xTaskCheckForTimeOut+0x8a>
		}
		else if( ( xConstTickCount - pxTimeOut->xTimeOnEntering ) < *pxTicksToWait )
 800426c:	687b      	ldr	r3, [r7, #4]
 800426e:	685b      	ldr	r3, [r3, #4]
 8004270:	68ba      	ldr	r2, [r7, #8]
 8004272:	1ad2      	subs	r2, r2, r3
 8004274:	683b      	ldr	r3, [r7, #0]
 8004276:	681b      	ldr	r3, [r3, #0]
 8004278:	429a      	cmp	r2, r3
 800427a:	d20e      	bcs.n	800429a <xTaskCheckForTimeOut+0x86>
		{
			/* Not a genuine timeout. Adjust parameters for time remaining. */
			*pxTicksToWait -= ( xConstTickCount -  pxTimeOut->xTimeOnEntering );
 800427c:	683b      	ldr	r3, [r7, #0]
 800427e:	681a      	ldr	r2, [r3, #0]
 8004280:	687b      	ldr	r3, [r7, #4]
 8004282:	6859      	ldr	r1, [r3, #4]
 8004284:	68bb      	ldr	r3, [r7, #8]
 8004286:	1acb      	subs	r3, r1, r3
 8004288:	441a      	add	r2, r3
 800428a:	683b      	ldr	r3, [r7, #0]
 800428c:	601a      	str	r2, [r3, #0]
			vTaskSetTimeOutState( pxTimeOut );
 800428e:	6878      	ldr	r0, [r7, #4]
 8004290:	f7ff ffa6 	bl	80041e0 <vTaskSetTimeOutState>
			xReturn = pdFALSE;
 8004294:	2300      	movs	r3, #0
 8004296:	60fb      	str	r3, [r7, #12]
 8004298:	e001      	b.n	800429e <xTaskCheckForTimeOut+0x8a>
		}
		else
		{
			xReturn = pdTRUE;
 800429a:	2301      	movs	r3, #1
 800429c:	60fb      	str	r3, [r7, #12]
		}
	}
	taskEXIT_CRITICAL();
 800429e:	f001 f8c5 	bl	800542c <vPortExitCritical>

	return xReturn;
 80042a2:	68fb      	ldr	r3, [r7, #12]
}
 80042a4:	4618      	mov	r0, r3
 80042a6:	3710      	adds	r7, #16
 80042a8:	46bd      	mov	sp, r7
 80042aa:	bd80      	pop	{r7, pc}
 80042ac:	200005d0 	.word	0x200005d0
 80042b0:	200005e8 	.word	0x200005e8

080042b4 <vTaskMissedYield>:
/*-----------------------------------------------------------*/

void vTaskMissedYield( void )
{
 80042b4:	b480      	push	{r7}
 80042b6:	af00      	add	r7, sp, #0
	xYieldPending = pdTRUE;
 80042b8:	4b03      	ldr	r3, [pc, #12]	; (80042c8 <vTaskMissedYield+0x14>)
 80042ba:	2201      	movs	r2, #1
 80042bc:	601a      	str	r2, [r3, #0]
}
 80042be:	46bd      	mov	sp, r7
 80042c0:	f85d 7b04 	ldr.w	r7, [sp], #4
 80042c4:	4770      	bx	lr
 80042c6:	bf00      	nop
 80042c8:	200005e4 	.word	0x200005e4

080042cc <prvIdleTask>:
 *
 * void prvIdleTask( void *pvParameters );
 *
 */
static portTASK_FUNCTION( prvIdleTask, pvParameters )
{
 80042cc:	b580      	push	{r7, lr}
 80042ce:	b082      	sub	sp, #8
 80042d0:	af00      	add	r7, sp, #0
 80042d2:	6078      	str	r0, [r7, #4]
	( void ) pvParameters;

	for( ;; )
	{
		/* See if any tasks have been deleted. */
		prvCheckTasksWaitingTermination();
 80042d4:	f000 f892 	bl	80043fc <prvCheckTasksWaitingTermination>

			A critical region is not required here as we are just reading from
			the list, and an occasional incorrect value will not matter.  If
			the ready list at the idle priority contains more than one task
			then a task other than the idle task is ready to execute. */
			if( listCURRENT_LIST_LENGTH( &( pxReadyTasksLists[ tskIDLE_PRIORITY ] ) ) > ( unsigned portBASE_TYPE ) 1U )
 80042d8:	4b04      	ldr	r3, [pc, #16]	; (80042ec <prvIdleTask+0x20>)
 80042da:	681b      	ldr	r3, [r3, #0]
 80042dc:	2b01      	cmp	r3, #1
 80042de:	d901      	bls.n	80042e4 <prvIdleTask+0x18>
			{
				taskYIELD();
 80042e0:	f001 f884 	bl	80053ec <vPortYield>
			/* Call the user defined function from within the idle task.  This
			allows the application designer to add background functionality
			without the overhead of a separate task.
			NOTE: vApplicationIdleHook() MUST NOT, UNDER ANY CIRCUMSTANCES,
			CALL A FUNCTION THAT MIGHT BLOCK. */
			vApplicationIdleHook();
 80042e4:	f7ff f92a 	bl	800353c <vApplicationIdleHook>
				}
				( void ) xTaskResumeAll();
			}
		}
		#endif /* configUSE_TICKLESS_IDLE */
	}
 80042e8:	e7f4      	b.n	80042d4 <prvIdleTask+0x8>
 80042ea:	bf00      	nop
 80042ec:	200004f8 	.word	0x200004f8

080042f0 <prvInitialiseTCBVariables>:
	}
#endif /* configUSE_TICKLESS_IDLE */
/*-----------------------------------------------------------*/

static void prvInitialiseTCBVariables( tskTCB *pxTCB, const signed char * const pcName, unsigned portBASE_TYPE uxPriority, const xMemoryRegion * const xRegions, unsigned short usStackDepth )
{
 80042f0:	b580      	push	{r7, lr}
 80042f2:	b086      	sub	sp, #24
 80042f4:	af00      	add	r7, sp, #0
 80042f6:	60f8      	str	r0, [r7, #12]
 80042f8:	60b9      	str	r1, [r7, #8]
 80042fa:	607a      	str	r2, [r7, #4]
 80042fc:	603b      	str	r3, [r7, #0]
unsigned portBASE_TYPE x;

	/* Store the task name in the TCB. */
	for( x = ( unsigned portBASE_TYPE ) 0; x < ( unsigned portBASE_TYPE ) configMAX_TASK_NAME_LEN; x++ )
 80042fe:	2300      	movs	r3, #0
 8004300:	617b      	str	r3, [r7, #20]
 8004302:	e012      	b.n	800432a <prvInitialiseTCBVariables+0x3a>
	{
		pxTCB->pcTaskName[ x ] = pcName[ x ];
 8004304:	68ba      	ldr	r2, [r7, #8]
 8004306:	697b      	ldr	r3, [r7, #20]
 8004308:	4413      	add	r3, r2
 800430a:	781a      	ldrb	r2, [r3, #0]
 800430c:	68f9      	ldr	r1, [r7, #12]
 800430e:	697b      	ldr	r3, [r7, #20]
 8004310:	440b      	add	r3, r1
 8004312:	3330      	adds	r3, #48	; 0x30
 8004314:	711a      	strb	r2, [r3, #4]

		/* Don't copy all configMAX_TASK_NAME_LEN if the string is shorter than
		configMAX_TASK_NAME_LEN characters just in case the memory after the
		string is not accessible (extremely unlikely). */
		if( pcName[ x ] == 0x00 )
 8004316:	68ba      	ldr	r2, [r7, #8]
 8004318:	697b      	ldr	r3, [r7, #20]
 800431a:	4413      	add	r3, r2
 800431c:	781b      	ldrb	r3, [r3, #0]
 800431e:	2b00      	cmp	r3, #0
 8004320:	d100      	bne.n	8004324 <prvInitialiseTCBVariables+0x34>
		{
			break;
 8004322:	e005      	b.n	8004330 <prvInitialiseTCBVariables+0x40>
static void prvInitialiseTCBVariables( tskTCB *pxTCB, const signed char * const pcName, unsigned portBASE_TYPE uxPriority, const xMemoryRegion * const xRegions, unsigned short usStackDepth )
{
unsigned portBASE_TYPE x;

	/* Store the task name in the TCB. */
	for( x = ( unsigned portBASE_TYPE ) 0; x < ( unsigned portBASE_TYPE ) configMAX_TASK_NAME_LEN; x++ )
 8004324:	697b      	ldr	r3, [r7, #20]
 8004326:	3301      	adds	r3, #1
 8004328:	617b      	str	r3, [r7, #20]
 800432a:	697b      	ldr	r3, [r7, #20]
 800432c:	2b09      	cmp	r3, #9
 800432e:	d9e9      	bls.n	8004304 <prvInitialiseTCBVariables+0x14>
		}
	}

	/* Ensure the name string is terminated in the case that the string length
	was greater or equal to configMAX_TASK_NAME_LEN. */
	pxTCB->pcTaskName[ configMAX_TASK_NAME_LEN - 1 ] = ( signed char ) '\0';
 8004330:	68fb      	ldr	r3, [r7, #12]
 8004332:	2200      	movs	r2, #0
 8004334:	f883 203d 	strb.w	r2, [r3, #61]	; 0x3d

	/* This is used as an array index so must ensure it's not too large.  First
	remove the privilege bit if one is present. */
	if( uxPriority >= ( unsigned portBASE_TYPE ) configMAX_PRIORITIES )
 8004338:	687b      	ldr	r3, [r7, #4]
 800433a:	2b04      	cmp	r3, #4
 800433c:	d901      	bls.n	8004342 <prvInitialiseTCBVariables+0x52>
	{
		uxPriority = ( unsigned portBASE_TYPE ) configMAX_PRIORITIES - ( unsigned portBASE_TYPE ) 1U;
 800433e:	2304      	movs	r3, #4
 8004340:	607b      	str	r3, [r7, #4]
	}

	pxTCB->uxPriority = uxPriority;
 8004342:	68fb      	ldr	r3, [r7, #12]
 8004344:	687a      	ldr	r2, [r7, #4]
 8004346:	62da      	str	r2, [r3, #44]	; 0x2c
	#if ( configUSE_MUTEXES == 1 )
	{
		pxTCB->uxBasePriority = uxPriority;
 8004348:	68fb      	ldr	r3, [r7, #12]
 800434a:	687a      	ldr	r2, [r7, #4]
 800434c:	649a      	str	r2, [r3, #72]	; 0x48
	}
	#endif /* configUSE_MUTEXES */

	vListInitialiseItem( &( pxTCB->xGenericListItem ) );
 800434e:	68fb      	ldr	r3, [r7, #12]
 8004350:	3304      	adds	r3, #4
 8004352:	4618      	mov	r0, r3
 8004354:	f000 fef8 	bl	8005148 <vListInitialiseItem>
	vListInitialiseItem( &( pxTCB->xEventListItem ) );
 8004358:	68fb      	ldr	r3, [r7, #12]
 800435a:	3318      	adds	r3, #24
 800435c:	4618      	mov	r0, r3
 800435e:	f000 fef3 	bl	8005148 <vListInitialiseItem>

	/* Set the pxTCB as a link back from the xListItem.  This is so we can get
	back to	the containing TCB from a generic item in a list. */
	listSET_LIST_ITEM_OWNER( &( pxTCB->xGenericListItem ), pxTCB );
 8004362:	68fb      	ldr	r3, [r7, #12]
 8004364:	68fa      	ldr	r2, [r7, #12]
 8004366:	611a      	str	r2, [r3, #16]

	/* Event lists are always in priority order. */
	listSET_LIST_ITEM_VALUE( &( pxTCB->xEventListItem ), ( portTickType ) configMAX_PRIORITIES - ( portTickType ) uxPriority ); /*lint !e961 MISRA exception as the casts are only redundant for some ports. */
 8004368:	687b      	ldr	r3, [r7, #4]
 800436a:	f1c3 0205 	rsb	r2, r3, #5
 800436e:	68fb      	ldr	r3, [r7, #12]
 8004370:	619a      	str	r2, [r3, #24]
	listSET_LIST_ITEM_OWNER( &( pxTCB->xEventListItem ), pxTCB );
 8004372:	68fb      	ldr	r3, [r7, #12]
 8004374:	68fa      	ldr	r2, [r7, #12]
 8004376:	625a      	str	r2, [r3, #36]	; 0x24
	{
		/* Initialise this task's Newlib reent structure. */
		_REENT_INIT_PTR( ( &( pxTCB->xNewLib_reent ) ) );
	}
	#endif /* configUSE_NEWLIB_REENTRANT */
}
 8004378:	3718      	adds	r7, #24
 800437a:	46bd      	mov	sp, r7
 800437c:	bd80      	pop	{r7, pc}
 800437e:	bf00      	nop

08004380 <prvInitialiseTaskLists>:

#endif /* portUSING_MPU_WRAPPERS */
/*-----------------------------------------------------------*/

static void prvInitialiseTaskLists( void )
{
 8004380:	b580      	push	{r7, lr}
 8004382:	b082      	sub	sp, #8
 8004384:	af00      	add	r7, sp, #0
unsigned portBASE_TYPE uxPriority;

	for( uxPriority = ( unsigned portBASE_TYPE ) 0U; uxPriority < ( unsigned portBASE_TYPE ) configMAX_PRIORITIES; uxPriority++ )
 8004386:	2300      	movs	r3, #0
 8004388:	607b      	str	r3, [r7, #4]
 800438a:	e00c      	b.n	80043a6 <prvInitialiseTaskLists+0x26>
	{
		vListInitialise( &( pxReadyTasksLists[ uxPriority ] ) );
 800438c:	687a      	ldr	r2, [r7, #4]
 800438e:	4613      	mov	r3, r2
 8004390:	009b      	lsls	r3, r3, #2
 8004392:	4413      	add	r3, r2
 8004394:	009b      	lsls	r3, r3, #2
 8004396:	4a11      	ldr	r2, [pc, #68]	; (80043dc <prvInitialiseTaskLists+0x5c>)
 8004398:	4413      	add	r3, r2
 800439a:	4618      	mov	r0, r3
 800439c:	f000 feb4 	bl	8005108 <vListInitialise>

static void prvInitialiseTaskLists( void )
{
unsigned portBASE_TYPE uxPriority;

	for( uxPriority = ( unsigned portBASE_TYPE ) 0U; uxPriority < ( unsigned portBASE_TYPE ) configMAX_PRIORITIES; uxPriority++ )
 80043a0:	687b      	ldr	r3, [r7, #4]
 80043a2:	3301      	adds	r3, #1
 80043a4:	607b      	str	r3, [r7, #4]
 80043a6:	687b      	ldr	r3, [r7, #4]
 80043a8:	2b04      	cmp	r3, #4
 80043aa:	d9ef      	bls.n	800438c <prvInitialiseTaskLists+0xc>
	{
		vListInitialise( &( pxReadyTasksLists[ uxPriority ] ) );
	}

	vListInitialise( &xDelayedTaskList1 );
 80043ac:	480c      	ldr	r0, [pc, #48]	; (80043e0 <prvInitialiseTaskLists+0x60>)
 80043ae:	f000 feab 	bl	8005108 <vListInitialise>
	vListInitialise( &xDelayedTaskList2 );
 80043b2:	480c      	ldr	r0, [pc, #48]	; (80043e4 <prvInitialiseTaskLists+0x64>)
 80043b4:	f000 fea8 	bl	8005108 <vListInitialise>
	vListInitialise( &xPendingReadyList );
 80043b8:	480b      	ldr	r0, [pc, #44]	; (80043e8 <prvInitialiseTaskLists+0x68>)
 80043ba:	f000 fea5 	bl	8005108 <vListInitialise>

	#if ( INCLUDE_vTaskDelete == 1 )
	{
		vListInitialise( &xTasksWaitingTermination );
 80043be:	480b      	ldr	r0, [pc, #44]	; (80043ec <prvInitialiseTaskLists+0x6c>)
 80043c0:	f000 fea2 	bl	8005108 <vListInitialise>
	}
	#endif /* INCLUDE_vTaskDelete */

	#if ( INCLUDE_vTaskSuspend == 1 )
	{
		vListInitialise( &xSuspendedTaskList );
 80043c4:	480a      	ldr	r0, [pc, #40]	; (80043f0 <prvInitialiseTaskLists+0x70>)
 80043c6:	f000 fe9f 	bl	8005108 <vListInitialise>
	}
	#endif /* INCLUDE_vTaskSuspend */

	/* Start with pxDelayedTaskList using list1 and the pxOverflowDelayedTaskList
	using list2. */
	pxDelayedTaskList = &xDelayedTaskList1;
 80043ca:	4b0a      	ldr	r3, [pc, #40]	; (80043f4 <prvInitialiseTaskLists+0x74>)
 80043cc:	4a04      	ldr	r2, [pc, #16]	; (80043e0 <prvInitialiseTaskLists+0x60>)
 80043ce:	601a      	str	r2, [r3, #0]
	pxOverflowDelayedTaskList = &xDelayedTaskList2;
 80043d0:	4b09      	ldr	r3, [pc, #36]	; (80043f8 <prvInitialiseTaskLists+0x78>)
 80043d2:	4a04      	ldr	r2, [pc, #16]	; (80043e4 <prvInitialiseTaskLists+0x64>)
 80043d4:	601a      	str	r2, [r3, #0]
}
 80043d6:	3708      	adds	r7, #8
 80043d8:	46bd      	mov	sp, r7
 80043da:	bd80      	pop	{r7, pc}
 80043dc:	200004f8 	.word	0x200004f8
 80043e0:	2000055c 	.word	0x2000055c
 80043e4:	20000570 	.word	0x20000570
 80043e8:	2000058c 	.word	0x2000058c
 80043ec:	200005a0 	.word	0x200005a0
 80043f0:	200005b8 	.word	0x200005b8
 80043f4:	20000584 	.word	0x20000584
 80043f8:	20000588 	.word	0x20000588

080043fc <prvCheckTasksWaitingTermination>:
/*-----------------------------------------------------------*/

static void prvCheckTasksWaitingTermination( void )
{
 80043fc:	b580      	push	{r7, lr}
 80043fe:	b082      	sub	sp, #8
 8004400:	af00      	add	r7, sp, #0
	{
		portBASE_TYPE xListIsEmpty;

		/* ucTasksDeleted is used to prevent vTaskSuspendAll() being called
		too often in the idle task. */
		while( uxTasksDeleted > ( unsigned portBASE_TYPE ) 0U )
 8004402:	e028      	b.n	8004456 <prvCheckTasksWaitingTermination+0x5a>
		{
			vTaskSuspendAll();
 8004404:	f7ff fbc0 	bl	8003b88 <vTaskSuspendAll>
				xListIsEmpty = listLIST_IS_EMPTY( &xTasksWaitingTermination );
 8004408:	4b16      	ldr	r3, [pc, #88]	; (8004464 <prvCheckTasksWaitingTermination+0x68>)
 800440a:	681b      	ldr	r3, [r3, #0]
 800440c:	2b00      	cmp	r3, #0
 800440e:	bf14      	ite	ne
 8004410:	2300      	movne	r3, #0
 8004412:	2301      	moveq	r3, #1
 8004414:	b2db      	uxtb	r3, r3
 8004416:	607b      	str	r3, [r7, #4]
			( void ) xTaskResumeAll();
 8004418:	f7ff fbc4 	bl	8003ba4 <xTaskResumeAll>

			if( xListIsEmpty == pdFALSE )
 800441c:	687b      	ldr	r3, [r7, #4]
 800441e:	2b00      	cmp	r3, #0
 8004420:	d119      	bne.n	8004456 <prvCheckTasksWaitingTermination+0x5a>
			{
				tskTCB *pxTCB;

				taskENTER_CRITICAL();
 8004422:	f000 fff3 	bl	800540c <vPortEnterCritical>
				{
					pxTCB = ( tskTCB * ) listGET_OWNER_OF_HEAD_ENTRY( ( &xTasksWaitingTermination ) );
 8004426:	4b0f      	ldr	r3, [pc, #60]	; (8004464 <prvCheckTasksWaitingTermination+0x68>)
 8004428:	68db      	ldr	r3, [r3, #12]
 800442a:	68db      	ldr	r3, [r3, #12]
 800442c:	603b      	str	r3, [r7, #0]
					( void ) uxListRemove( &( pxTCB->xGenericListItem ) );
 800442e:	683b      	ldr	r3, [r7, #0]
 8004430:	3304      	adds	r3, #4
 8004432:	4618      	mov	r0, r3
 8004434:	f000 fef0 	bl	8005218 <uxListRemove>
					--uxCurrentNumberOfTasks;
 8004438:	4b0b      	ldr	r3, [pc, #44]	; (8004468 <prvCheckTasksWaitingTermination+0x6c>)
 800443a:	681b      	ldr	r3, [r3, #0]
 800443c:	1e5a      	subs	r2, r3, #1
 800443e:	4b0a      	ldr	r3, [pc, #40]	; (8004468 <prvCheckTasksWaitingTermination+0x6c>)
 8004440:	601a      	str	r2, [r3, #0]
					--uxTasksDeleted;
 8004442:	4b0a      	ldr	r3, [pc, #40]	; (800446c <prvCheckTasksWaitingTermination+0x70>)
 8004444:	681b      	ldr	r3, [r3, #0]
 8004446:	1e5a      	subs	r2, r3, #1
 8004448:	4b08      	ldr	r3, [pc, #32]	; (800446c <prvCheckTasksWaitingTermination+0x70>)
 800444a:	601a      	str	r2, [r3, #0]
				}
				taskEXIT_CRITICAL();
 800444c:	f000 ffee 	bl	800542c <vPortExitCritical>

				prvDeleteTCB( pxTCB );
 8004450:	6838      	ldr	r0, [r7, #0]
 8004452:	f000 f90f 	bl	8004674 <prvDeleteTCB>
	{
		portBASE_TYPE xListIsEmpty;

		/* ucTasksDeleted is used to prevent vTaskSuspendAll() being called
		too often in the idle task. */
		while( uxTasksDeleted > ( unsigned portBASE_TYPE ) 0U )
 8004456:	4b05      	ldr	r3, [pc, #20]	; (800446c <prvCheckTasksWaitingTermination+0x70>)
 8004458:	681b      	ldr	r3, [r3, #0]
 800445a:	2b00      	cmp	r3, #0
 800445c:	d1d2      	bne.n	8004404 <prvCheckTasksWaitingTermination+0x8>
				prvDeleteTCB( pxTCB );
			}
		}
	}
	#endif /* vTaskDelete */
}
 800445e:	3708      	adds	r7, #8
 8004460:	46bd      	mov	sp, r7
 8004462:	bd80      	pop	{r7, pc}
 8004464:	200005a0 	.word	0x200005a0
 8004468:	200005cc 	.word	0x200005cc
 800446c:	200005b4 	.word	0x200005b4

08004470 <prvAddCurrentTaskToDelayedList>:
/*-----------------------------------------------------------*/

static void prvAddCurrentTaskToDelayedList( portTickType xTimeToWake )
{
 8004470:	b580      	push	{r7, lr}
 8004472:	b082      	sub	sp, #8
 8004474:	af00      	add	r7, sp, #0
 8004476:	6078      	str	r0, [r7, #4]
	/* The list item will be inserted in wake time order. */
	listSET_LIST_ITEM_VALUE( &( pxCurrentTCB->xGenericListItem ), xTimeToWake );
 8004478:	4b13      	ldr	r3, [pc, #76]	; (80044c8 <prvAddCurrentTaskToDelayedList+0x58>)
 800447a:	681b      	ldr	r3, [r3, #0]
 800447c:	687a      	ldr	r2, [r7, #4]
 800447e:	605a      	str	r2, [r3, #4]

	if( xTimeToWake < xTickCount )
 8004480:	4b12      	ldr	r3, [pc, #72]	; (80044cc <prvAddCurrentTaskToDelayedList+0x5c>)
 8004482:	681b      	ldr	r3, [r3, #0]
 8004484:	687a      	ldr	r2, [r7, #4]
 8004486:	429a      	cmp	r2, r3
 8004488:	d209      	bcs.n	800449e <prvAddCurrentTaskToDelayedList+0x2e>
	{
		/* Wake time has overflowed.  Place this item in the overflow list. */
		vListInsert( pxOverflowDelayedTaskList, &( pxCurrentTCB->xGenericListItem ) );
 800448a:	4b11      	ldr	r3, [pc, #68]	; (80044d0 <prvAddCurrentTaskToDelayedList+0x60>)
 800448c:	681a      	ldr	r2, [r3, #0]
 800448e:	4b0e      	ldr	r3, [pc, #56]	; (80044c8 <prvAddCurrentTaskToDelayedList+0x58>)
 8004490:	681b      	ldr	r3, [r3, #0]
 8004492:	3304      	adds	r3, #4
 8004494:	4610      	mov	r0, r2
 8004496:	4619      	mov	r1, r3
 8004498:	f000 fe86 	bl	80051a8 <vListInsert>
 800449c:	e010      	b.n	80044c0 <prvAddCurrentTaskToDelayedList+0x50>
	}
	else
	{
		/* The wake time has not overflowed, so we can use the current block list. */
		vListInsert( pxDelayedTaskList, &( pxCurrentTCB->xGenericListItem ) );
 800449e:	4b0d      	ldr	r3, [pc, #52]	; (80044d4 <prvAddCurrentTaskToDelayedList+0x64>)
 80044a0:	681a      	ldr	r2, [r3, #0]
 80044a2:	4b09      	ldr	r3, [pc, #36]	; (80044c8 <prvAddCurrentTaskToDelayedList+0x58>)
 80044a4:	681b      	ldr	r3, [r3, #0]
 80044a6:	3304      	adds	r3, #4
 80044a8:	4610      	mov	r0, r2
 80044aa:	4619      	mov	r1, r3
 80044ac:	f000 fe7c 	bl	80051a8 <vListInsert>

		/* If the task entering the blocked state was placed at the head of the
		list of blocked tasks then xNextTaskUnblockTime needs to be updated
		too. */
		if( xTimeToWake < xNextTaskUnblockTime )
 80044b0:	4b09      	ldr	r3, [pc, #36]	; (80044d8 <prvAddCurrentTaskToDelayedList+0x68>)
 80044b2:	681b      	ldr	r3, [r3, #0]
 80044b4:	687a      	ldr	r2, [r7, #4]
 80044b6:	429a      	cmp	r2, r3
 80044b8:	d202      	bcs.n	80044c0 <prvAddCurrentTaskToDelayedList+0x50>
		{
			xNextTaskUnblockTime = xTimeToWake;
 80044ba:	4b07      	ldr	r3, [pc, #28]	; (80044d8 <prvAddCurrentTaskToDelayedList+0x68>)
 80044bc:	687a      	ldr	r2, [r7, #4]
 80044be:	601a      	str	r2, [r3, #0]
		}
	}
}
 80044c0:	3708      	adds	r7, #8
 80044c2:	46bd      	mov	sp, r7
 80044c4:	bd80      	pop	{r7, pc}
 80044c6:	bf00      	nop
 80044c8:	200004f4 	.word	0x200004f4
 80044cc:	200005d0 	.word	0x200005d0
 80044d0:	20000588 	.word	0x20000588
 80044d4:	20000584 	.word	0x20000584
 80044d8:	20000018 	.word	0x20000018

080044dc <prvAllocateTCBAndStack>:
/*-----------------------------------------------------------*/

static tskTCB *prvAllocateTCBAndStack( unsigned short usStackDepth, portSTACK_TYPE *puxStackBuffer )
{
 80044dc:	b580      	push	{r7, lr}
 80044de:	b084      	sub	sp, #16
 80044e0:	af00      	add	r7, sp, #0
 80044e2:	4603      	mov	r3, r0
 80044e4:	6039      	str	r1, [r7, #0]
 80044e6:	80fb      	strh	r3, [r7, #6]
tskTCB *pxNewTCB;

	/* Allocate space for the TCB.  Where the memory comes from depends on
	the implementation of the port malloc function. */
	pxNewTCB = ( tskTCB * ) pvPortMalloc( sizeof( tskTCB ) );
 80044e8:	204c      	movs	r0, #76	; 0x4c
 80044ea:	f001 fe01 	bl	80060f0 <pvPortMalloc>
 80044ee:	60f8      	str	r0, [r7, #12]

	if( pxNewTCB != NULL )
 80044f0:	68fb      	ldr	r3, [r7, #12]
 80044f2:	2b00      	cmp	r3, #0
 80044f4:	d01f      	beq.n	8004536 <prvAllocateTCBAndStack+0x5a>
	{
		/* Allocate space for the stack used by the task being created.
		The base of the stack memory stored in the TCB so the task can
		be deleted later if required. */
		pxNewTCB->pxStack = ( portSTACK_TYPE * ) pvPortMallocAligned( ( ( ( size_t ) usStackDepth ) * sizeof( portSTACK_TYPE ) ), puxStackBuffer ); /*lint !e961 MISRA exception as the casts are only redundant for some ports. */
 80044f6:	683b      	ldr	r3, [r7, #0]
 80044f8:	2b00      	cmp	r3, #0
 80044fa:	d106      	bne.n	800450a <prvAllocateTCBAndStack+0x2e>
 80044fc:	88fb      	ldrh	r3, [r7, #6]
 80044fe:	009b      	lsls	r3, r3, #2
 8004500:	4618      	mov	r0, r3
 8004502:	f001 fdf5 	bl	80060f0 <pvPortMalloc>
 8004506:	4603      	mov	r3, r0
 8004508:	e000      	b.n	800450c <prvAllocateTCBAndStack+0x30>
 800450a:	683b      	ldr	r3, [r7, #0]
 800450c:	68fa      	ldr	r2, [r7, #12]
 800450e:	6313      	str	r3, [r2, #48]	; 0x30

		if( pxNewTCB->pxStack == NULL )
 8004510:	68fb      	ldr	r3, [r7, #12]
 8004512:	6b1b      	ldr	r3, [r3, #48]	; 0x30
 8004514:	2b00      	cmp	r3, #0
 8004516:	d105      	bne.n	8004524 <prvAllocateTCBAndStack+0x48>
		{
			/* Could not allocate the stack.  Delete the allocated TCB. */
			vPortFree( pxNewTCB );
 8004518:	68f8      	ldr	r0, [r7, #12]
 800451a:	f001 fe75 	bl	8006208 <vPortFree>
			pxNewTCB = NULL;
 800451e:	2300      	movs	r3, #0
 8004520:	60fb      	str	r3, [r7, #12]
 8004522:	e008      	b.n	8004536 <prvAllocateTCBAndStack+0x5a>
		}
		else
		{
			/* Just to help debugging. */
			( void ) memset( pxNewTCB->pxStack, ( int ) tskSTACK_FILL_BYTE, ( size_t ) usStackDepth * sizeof( portSTACK_TYPE ) );
 8004524:	68fb      	ldr	r3, [r7, #12]
 8004526:	6b1a      	ldr	r2, [r3, #48]	; 0x30
 8004528:	88fb      	ldrh	r3, [r7, #6]
 800452a:	009b      	lsls	r3, r3, #2
 800452c:	4610      	mov	r0, r2
 800452e:	21a5      	movs	r1, #165	; 0xa5
 8004530:	461a      	mov	r2, r3
 8004532:	f004 fb1f 	bl	8008b74 <memset>
		}
	}

	return pxNewTCB;
 8004536:	68fb      	ldr	r3, [r7, #12]
}
 8004538:	4618      	mov	r0, r3
 800453a:	3710      	adds	r7, #16
 800453c:	46bd      	mov	sp, r7
 800453e:	bd80      	pop	{r7, pc}

08004540 <prvListTaskWithinSingleList>:
/*-----------------------------------------------------------*/

#if ( configUSE_TRACE_FACILITY == 1 )

	static unsigned portBASE_TYPE prvListTaskWithinSingleList( xTaskStatusType *pxTaskStatusArray, xList *pxList, eTaskState eState )
	{
 8004540:	b590      	push	{r4, r7, lr}
 8004542:	b08b      	sub	sp, #44	; 0x2c
 8004544:	af00      	add	r7, sp, #0
 8004546:	60f8      	str	r0, [r7, #12]
 8004548:	60b9      	str	r1, [r7, #8]
 800454a:	4613      	mov	r3, r2
 800454c:	71fb      	strb	r3, [r7, #7]
	volatile tskTCB *pxNextTCB, *pxFirstTCB;
	unsigned portBASE_TYPE uxTask = 0;
 800454e:	2300      	movs	r3, #0
 8004550:	627b      	str	r3, [r7, #36]	; 0x24

		if( listCURRENT_LIST_LENGTH( pxList ) > ( unsigned portBASE_TYPE ) 0 )
 8004552:	68bb      	ldr	r3, [r7, #8]
 8004554:	681b      	ldr	r3, [r3, #0]
 8004556:	2b00      	cmp	r3, #0
 8004558:	d06b      	beq.n	8004632 <prvListTaskWithinSingleList+0xf2>
		{
			listGET_OWNER_OF_NEXT_ENTRY( pxFirstTCB, pxList );
 800455a:	68bb      	ldr	r3, [r7, #8]
 800455c:	623b      	str	r3, [r7, #32]
 800455e:	6a3b      	ldr	r3, [r7, #32]
 8004560:	685b      	ldr	r3, [r3, #4]
 8004562:	685a      	ldr	r2, [r3, #4]
 8004564:	6a3b      	ldr	r3, [r7, #32]
 8004566:	605a      	str	r2, [r3, #4]
 8004568:	6a3b      	ldr	r3, [r7, #32]
 800456a:	685a      	ldr	r2, [r3, #4]
 800456c:	6a3b      	ldr	r3, [r7, #32]
 800456e:	3308      	adds	r3, #8
 8004570:	429a      	cmp	r2, r3
 8004572:	d104      	bne.n	800457e <prvListTaskWithinSingleList+0x3e>
 8004574:	6a3b      	ldr	r3, [r7, #32]
 8004576:	685b      	ldr	r3, [r3, #4]
 8004578:	685a      	ldr	r2, [r3, #4]
 800457a:	6a3b      	ldr	r3, [r7, #32]
 800457c:	605a      	str	r2, [r3, #4]
 800457e:	6a3b      	ldr	r3, [r7, #32]
 8004580:	685b      	ldr	r3, [r3, #4]
 8004582:	68db      	ldr	r3, [r3, #12]
 8004584:	61fb      	str	r3, [r7, #28]
			pxTaskStatusArray array for each task that is referenced from
			pxList.  See the definition of xTaskStatusType in task.h for the
			meaning of each xTaskStatusType structure member. */
			do
			{
				listGET_OWNER_OF_NEXT_ENTRY( pxNextTCB, pxList );
 8004586:	68bb      	ldr	r3, [r7, #8]
 8004588:	61bb      	str	r3, [r7, #24]
 800458a:	69bb      	ldr	r3, [r7, #24]
 800458c:	685b      	ldr	r3, [r3, #4]
 800458e:	685a      	ldr	r2, [r3, #4]
 8004590:	69bb      	ldr	r3, [r7, #24]
 8004592:	605a      	str	r2, [r3, #4]
 8004594:	69bb      	ldr	r3, [r7, #24]
 8004596:	685a      	ldr	r2, [r3, #4]
 8004598:	69bb      	ldr	r3, [r7, #24]
 800459a:	3308      	adds	r3, #8
 800459c:	429a      	cmp	r2, r3
 800459e:	d104      	bne.n	80045aa <prvListTaskWithinSingleList+0x6a>
 80045a0:	69bb      	ldr	r3, [r7, #24]
 80045a2:	685b      	ldr	r3, [r3, #4]
 80045a4:	685a      	ldr	r2, [r3, #4]
 80045a6:	69bb      	ldr	r3, [r7, #24]
 80045a8:	605a      	str	r2, [r3, #4]
 80045aa:	69bb      	ldr	r3, [r7, #24]
 80045ac:	685b      	ldr	r3, [r3, #4]
 80045ae:	68db      	ldr	r3, [r3, #12]
 80045b0:	617b      	str	r3, [r7, #20]

				pxTaskStatusArray[ uxTask ].xHandle = ( xTaskHandle ) pxNextTCB;
 80045b2:	6a7b      	ldr	r3, [r7, #36]	; 0x24
 80045b4:	015b      	lsls	r3, r3, #5
 80045b6:	68fa      	ldr	r2, [r7, #12]
 80045b8:	4413      	add	r3, r2
 80045ba:	697a      	ldr	r2, [r7, #20]
 80045bc:	601a      	str	r2, [r3, #0]
				pxTaskStatusArray[ uxTask ].pcTaskName = ( const signed char * ) &( pxNextTCB->pcTaskName [ 0 ] );
 80045be:	6a7b      	ldr	r3, [r7, #36]	; 0x24
 80045c0:	015b      	lsls	r3, r3, #5
 80045c2:	68fa      	ldr	r2, [r7, #12]
 80045c4:	4413      	add	r3, r2
 80045c6:	697a      	ldr	r2, [r7, #20]
 80045c8:	3234      	adds	r2, #52	; 0x34
 80045ca:	605a      	str	r2, [r3, #4]
				pxTaskStatusArray[ uxTask ].xTaskNumber = pxNextTCB->uxTCBNumber;
 80045cc:	6a7b      	ldr	r3, [r7, #36]	; 0x24
 80045ce:	015b      	lsls	r3, r3, #5
 80045d0:	68fa      	ldr	r2, [r7, #12]
 80045d2:	4413      	add	r3, r2
 80045d4:	697a      	ldr	r2, [r7, #20]
 80045d6:	6c12      	ldr	r2, [r2, #64]	; 0x40
 80045d8:	609a      	str	r2, [r3, #8]
				pxTaskStatusArray[ uxTask ].eCurrentState = eState;
 80045da:	6a7b      	ldr	r3, [r7, #36]	; 0x24
 80045dc:	015b      	lsls	r3, r3, #5
 80045de:	68fa      	ldr	r2, [r7, #12]
 80045e0:	4413      	add	r3, r2
 80045e2:	79fa      	ldrb	r2, [r7, #7]
 80045e4:	731a      	strb	r2, [r3, #12]
				pxTaskStatusArray[ uxTask ].uxCurrentPriority = pxNextTCB->uxPriority;
 80045e6:	6a7b      	ldr	r3, [r7, #36]	; 0x24
 80045e8:	015b      	lsls	r3, r3, #5
 80045ea:	68fa      	ldr	r2, [r7, #12]
 80045ec:	4413      	add	r3, r2
 80045ee:	697a      	ldr	r2, [r7, #20]
 80045f0:	6ad2      	ldr	r2, [r2, #44]	; 0x2c
 80045f2:	611a      	str	r2, [r3, #16]

				#if ( configUSE_MUTEXES == 1 )
				{
					pxTaskStatusArray[ uxTask ].uxBasePriority = pxNextTCB->uxBasePriority;
 80045f4:	6a7b      	ldr	r3, [r7, #36]	; 0x24
 80045f6:	015b      	lsls	r3, r3, #5
 80045f8:	68fa      	ldr	r2, [r7, #12]
 80045fa:	4413      	add	r3, r2
 80045fc:	697a      	ldr	r2, [r7, #20]
 80045fe:	6c92      	ldr	r2, [r2, #72]	; 0x48
 8004600:	615a      	str	r2, [r3, #20]
				{
					pxTaskStatusArray[ uxTask ].ulRunTimeCounter = pxNextTCB->ulRunTimeCounter;
				}
				#else
				{
					pxTaskStatusArray[ uxTask ].ulRunTimeCounter = 0;
 8004602:	6a7b      	ldr	r3, [r7, #36]	; 0x24
 8004604:	015b      	lsls	r3, r3, #5
 8004606:	68fa      	ldr	r2, [r7, #12]
 8004608:	4413      	add	r3, r2
 800460a:	2200      	movs	r2, #0
 800460c:	619a      	str	r2, [r3, #24]
				{
					ppxTaskStatusArray[ uxTask ].usStackHighWaterMark = prvTaskCheckFreeStackSpace( ( unsigned char * ) pxNextTCB->pxEndOfStack );
				}
				#else
				{
					pxTaskStatusArray[ uxTask ].usStackHighWaterMark = prvTaskCheckFreeStackSpace( ( unsigned char * ) pxNextTCB->pxStack );
 800460e:	6a7b      	ldr	r3, [r7, #36]	; 0x24
 8004610:	015b      	lsls	r3, r3, #5
 8004612:	68fa      	ldr	r2, [r7, #12]
 8004614:	18d4      	adds	r4, r2, r3
 8004616:	697b      	ldr	r3, [r7, #20]
 8004618:	6b1b      	ldr	r3, [r3, #48]	; 0x30
 800461a:	4618      	mov	r0, r3
 800461c:	f000 f80e 	bl	800463c <prvTaskCheckFreeStackSpace>
 8004620:	4603      	mov	r3, r0
 8004622:	83a3      	strh	r3, [r4, #28]
				}
				#endif

				uxTask++;
 8004624:	6a7b      	ldr	r3, [r7, #36]	; 0x24
 8004626:	3301      	adds	r3, #1
 8004628:	627b      	str	r3, [r7, #36]	; 0x24

			} while( pxNextTCB != pxFirstTCB );
 800462a:	697a      	ldr	r2, [r7, #20]
 800462c:	69fb      	ldr	r3, [r7, #28]
 800462e:	429a      	cmp	r2, r3
 8004630:	d1a9      	bne.n	8004586 <prvListTaskWithinSingleList+0x46>
		}

		return uxTask;
 8004632:	6a7b      	ldr	r3, [r7, #36]	; 0x24
	}
 8004634:	4618      	mov	r0, r3
 8004636:	372c      	adds	r7, #44	; 0x2c
 8004638:	46bd      	mov	sp, r7
 800463a:	bd90      	pop	{r4, r7, pc}

0800463c <prvTaskCheckFreeStackSpace>:
/*-----------------------------------------------------------*/

#if ( ( configUSE_TRACE_FACILITY == 1 ) || ( INCLUDE_uxTaskGetStackHighWaterMark == 1 ) )

	static unsigned short prvTaskCheckFreeStackSpace( const unsigned char * pucStackByte )
	{
 800463c:	b480      	push	{r7}
 800463e:	b085      	sub	sp, #20
 8004640:	af00      	add	r7, sp, #0
 8004642:	6078      	str	r0, [r7, #4]
	unsigned short usCount = 0U;
 8004644:	2300      	movs	r3, #0
 8004646:	81fb      	strh	r3, [r7, #14]

		while( *pucStackByte == tskSTACK_FILL_BYTE )
 8004648:	e005      	b.n	8004656 <prvTaskCheckFreeStackSpace+0x1a>
		{
			pucStackByte -= portSTACK_GROWTH;
 800464a:	687b      	ldr	r3, [r7, #4]
 800464c:	3301      	adds	r3, #1
 800464e:	607b      	str	r3, [r7, #4]
			usCount++;
 8004650:	89fb      	ldrh	r3, [r7, #14]
 8004652:	3301      	adds	r3, #1
 8004654:	81fb      	strh	r3, [r7, #14]

	static unsigned short prvTaskCheckFreeStackSpace( const unsigned char * pucStackByte )
	{
	unsigned short usCount = 0U;

		while( *pucStackByte == tskSTACK_FILL_BYTE )
 8004656:	687b      	ldr	r3, [r7, #4]
 8004658:	781b      	ldrb	r3, [r3, #0]
 800465a:	2ba5      	cmp	r3, #165	; 0xa5
 800465c:	d0f5      	beq.n	800464a <prvTaskCheckFreeStackSpace+0xe>
		{
			pucStackByte -= portSTACK_GROWTH;
			usCount++;
		}

		usCount /= sizeof( portSTACK_TYPE );
 800465e:	89fb      	ldrh	r3, [r7, #14]
 8004660:	089b      	lsrs	r3, r3, #2
 8004662:	81fb      	strh	r3, [r7, #14]

		return usCount;
 8004664:	89fb      	ldrh	r3, [r7, #14]
	}
 8004666:	4618      	mov	r0, r3
 8004668:	3714      	adds	r7, #20
 800466a:	46bd      	mov	sp, r7
 800466c:	f85d 7b04 	ldr.w	r7, [sp], #4
 8004670:	4770      	bx	lr
 8004672:	bf00      	nop

08004674 <prvDeleteTCB>:
/*-----------------------------------------------------------*/

#if ( INCLUDE_vTaskDelete == 1 )

	static void prvDeleteTCB( tskTCB *pxTCB )
	{
 8004674:	b580      	push	{r7, lr}
 8004676:	b082      	sub	sp, #8
 8004678:	af00      	add	r7, sp, #0
 800467a:	6078      	str	r0, [r7, #4]
		want to allocate and clean RAM statically. */
		portCLEAN_UP_TCB( pxTCB );

		/* Free up the memory allocated by the scheduler for the task.  It is up to
		the task to free any memory allocated at the application level. */
		vPortFreeAligned( pxTCB->pxStack );
 800467c:	687b      	ldr	r3, [r7, #4]
 800467e:	6b1b      	ldr	r3, [r3, #48]	; 0x30
 8004680:	4618      	mov	r0, r3
 8004682:	f001 fdc1 	bl	8006208 <vPortFree>
		vPortFree( pxTCB );
 8004686:	6878      	ldr	r0, [r7, #4]
 8004688:	f001 fdbe 	bl	8006208 <vPortFree>
	}
 800468c:	3708      	adds	r7, #8
 800468e:	46bd      	mov	sp, r7
 8004690:	bd80      	pop	{r7, pc}
 8004692:	bf00      	nop

08004694 <xTaskGetCurrentTaskHandle>:
/*-----------------------------------------------------------*/

#if ( ( INCLUDE_xTaskGetCurrentTaskHandle == 1 ) || ( configUSE_MUTEXES == 1 ) )

	xTaskHandle xTaskGetCurrentTaskHandle( void )
	{
 8004694:	b480      	push	{r7}
 8004696:	b083      	sub	sp, #12
 8004698:	af00      	add	r7, sp, #0
	xTaskHandle xReturn;

		/* A critical section is not required as this is not called from
		an interrupt and the current TCB will always be the same for any
		individual execution thread. */
		xReturn = pxCurrentTCB;
 800469a:	4b05      	ldr	r3, [pc, #20]	; (80046b0 <xTaskGetCurrentTaskHandle+0x1c>)
 800469c:	681b      	ldr	r3, [r3, #0]
 800469e:	607b      	str	r3, [r7, #4]

		return xReturn;
 80046a0:	687b      	ldr	r3, [r7, #4]
	}
 80046a2:	4618      	mov	r0, r3
 80046a4:	370c      	adds	r7, #12
 80046a6:	46bd      	mov	sp, r7
 80046a8:	f85d 7b04 	ldr.w	r7, [sp], #4
 80046ac:	4770      	bx	lr
 80046ae:	bf00      	nop
 80046b0:	200004f4 	.word	0x200004f4

080046b4 <xTaskGetSchedulerState>:
/*-----------------------------------------------------------*/

#if ( ( INCLUDE_xTaskGetSchedulerState == 1 ) || ( configUSE_TIMERS == 1 ) )

	portBASE_TYPE xTaskGetSchedulerState( void )
	{
 80046b4:	b480      	push	{r7}
 80046b6:	b083      	sub	sp, #12
 80046b8:	af00      	add	r7, sp, #0
	portBASE_TYPE xReturn;

		if( xSchedulerRunning == pdFALSE )
 80046ba:	4b0b      	ldr	r3, [pc, #44]	; (80046e8 <xTaskGetSchedulerState+0x34>)
 80046bc:	681b      	ldr	r3, [r3, #0]
 80046be:	2b00      	cmp	r3, #0
 80046c0:	d102      	bne.n	80046c8 <xTaskGetSchedulerState+0x14>
		{
			xReturn = taskSCHEDULER_NOT_STARTED;
 80046c2:	2300      	movs	r3, #0
 80046c4:	607b      	str	r3, [r7, #4]
 80046c6:	e008      	b.n	80046da <xTaskGetSchedulerState+0x26>
		}
		else
		{
			if( uxSchedulerSuspended == ( unsigned portBASE_TYPE ) pdFALSE )
 80046c8:	4b08      	ldr	r3, [pc, #32]	; (80046ec <xTaskGetSchedulerState+0x38>)
 80046ca:	681b      	ldr	r3, [r3, #0]
 80046cc:	2b00      	cmp	r3, #0
 80046ce:	d102      	bne.n	80046d6 <xTaskGetSchedulerState+0x22>
			{
				xReturn = taskSCHEDULER_RUNNING;
 80046d0:	2301      	movs	r3, #1
 80046d2:	607b      	str	r3, [r7, #4]
 80046d4:	e001      	b.n	80046da <xTaskGetSchedulerState+0x26>
			}
			else
			{
				xReturn = taskSCHEDULER_SUSPENDED;
 80046d6:	2302      	movs	r3, #2
 80046d8:	607b      	str	r3, [r7, #4]
			}
		}

		return xReturn;
 80046da:	687b      	ldr	r3, [r7, #4]
	}
 80046dc:	4618      	mov	r0, r3
 80046de:	370c      	adds	r7, #12
 80046e0:	46bd      	mov	sp, r7
 80046e2:	f85d 7b04 	ldr.w	r7, [sp], #4
 80046e6:	4770      	bx	lr
 80046e8:	200005d8 	.word	0x200005d8
 80046ec:	200005dc 	.word	0x200005dc

080046f0 <vTaskPriorityInherit>:
/*-----------------------------------------------------------*/

#if ( configUSE_MUTEXES == 1 )

	void vTaskPriorityInherit( xTaskHandle const pxMutexHolder )
	{
 80046f0:	b580      	push	{r7, lr}
 80046f2:	b084      	sub	sp, #16
 80046f4:	af00      	add	r7, sp, #0
 80046f6:	6078      	str	r0, [r7, #4]
	tskTCB * const pxTCB = ( tskTCB * ) pxMutexHolder;
 80046f8:	687b      	ldr	r3, [r7, #4]
 80046fa:	60fb      	str	r3, [r7, #12]

		/* If the mutex was given back by an interrupt while the queue was
		locked then the mutex holder might now be NULL. */
		if( pxMutexHolder != NULL )
 80046fc:	687b      	ldr	r3, [r7, #4]
 80046fe:	2b00      	cmp	r3, #0
 8004700:	d046      	beq.n	8004790 <vTaskPriorityInherit+0xa0>
		{
			if( pxTCB->uxPriority < pxCurrentTCB->uxPriority )
 8004702:	68fb      	ldr	r3, [r7, #12]
 8004704:	6ada      	ldr	r2, [r3, #44]	; 0x2c
 8004706:	4b24      	ldr	r3, [pc, #144]	; (8004798 <vTaskPriorityInherit+0xa8>)
 8004708:	681b      	ldr	r3, [r3, #0]
 800470a:	6adb      	ldr	r3, [r3, #44]	; 0x2c
 800470c:	429a      	cmp	r2, r3
 800470e:	d23f      	bcs.n	8004790 <vTaskPriorityInherit+0xa0>
			{
				/* Adjust the mutex holder state to account for its new priority. */
				listSET_LIST_ITEM_VALUE( &( pxTCB->xEventListItem ), ( portTickType ) configMAX_PRIORITIES - ( portTickType ) pxCurrentTCB->uxPriority ); /*lint !e961 MISRA exception as the casts are only redundant for some ports. */
 8004710:	4b21      	ldr	r3, [pc, #132]	; (8004798 <vTaskPriorityInherit+0xa8>)
 8004712:	681b      	ldr	r3, [r3, #0]
 8004714:	6adb      	ldr	r3, [r3, #44]	; 0x2c
 8004716:	f1c3 0205 	rsb	r2, r3, #5
 800471a:	68fb      	ldr	r3, [r7, #12]
 800471c:	619a      	str	r2, [r3, #24]

				/* If the task being modified is in the ready state it will need to
				be moved into a new list. */
				if( listIS_CONTAINED_WITHIN( &( pxReadyTasksLists[ pxTCB->uxPriority ] ), &( pxTCB->xGenericListItem ) ) != pdFALSE )
 800471e:	68fb      	ldr	r3, [r7, #12]
 8004720:	6959      	ldr	r1, [r3, #20]
 8004722:	68fb      	ldr	r3, [r7, #12]
 8004724:	6ada      	ldr	r2, [r3, #44]	; 0x2c
 8004726:	4613      	mov	r3, r2
 8004728:	009b      	lsls	r3, r3, #2
 800472a:	4413      	add	r3, r2
 800472c:	009b      	lsls	r3, r3, #2
 800472e:	4a1b      	ldr	r2, [pc, #108]	; (800479c <vTaskPriorityInherit+0xac>)
 8004730:	4413      	add	r3, r2
 8004732:	4299      	cmp	r1, r3
 8004734:	d101      	bne.n	800473a <vTaskPriorityInherit+0x4a>
 8004736:	2301      	movs	r3, #1
 8004738:	e000      	b.n	800473c <vTaskPriorityInherit+0x4c>
 800473a:	2300      	movs	r3, #0
 800473c:	2b00      	cmp	r3, #0
 800473e:	d022      	beq.n	8004786 <vTaskPriorityInherit+0x96>
				{
					if( uxListRemove( &( pxTCB->xGenericListItem ) ) == ( unsigned portBASE_TYPE ) 0 )
 8004740:	68fb      	ldr	r3, [r7, #12]
 8004742:	3304      	adds	r3, #4
 8004744:	4618      	mov	r0, r3
 8004746:	f000 fd67 	bl	8005218 <uxListRemove>
					{
						taskRESET_READY_PRIORITY( pxTCB->uxPriority );
					}

					/* Inherit the priority before being moved into the new list. */
					pxTCB->uxPriority = pxCurrentTCB->uxPriority;
 800474a:	4b13      	ldr	r3, [pc, #76]	; (8004798 <vTaskPriorityInherit+0xa8>)
 800474c:	681b      	ldr	r3, [r3, #0]
 800474e:	6ada      	ldr	r2, [r3, #44]	; 0x2c
 8004750:	68fb      	ldr	r3, [r7, #12]
 8004752:	62da      	str	r2, [r3, #44]	; 0x2c
					prvAddTaskToReadyList( pxTCB );
 8004754:	68fb      	ldr	r3, [r7, #12]
 8004756:	6ada      	ldr	r2, [r3, #44]	; 0x2c
 8004758:	4b11      	ldr	r3, [pc, #68]	; (80047a0 <vTaskPriorityInherit+0xb0>)
 800475a:	681b      	ldr	r3, [r3, #0]
 800475c:	429a      	cmp	r2, r3
 800475e:	d903      	bls.n	8004768 <vTaskPriorityInherit+0x78>
 8004760:	68fb      	ldr	r3, [r7, #12]
 8004762:	6ada      	ldr	r2, [r3, #44]	; 0x2c
 8004764:	4b0e      	ldr	r3, [pc, #56]	; (80047a0 <vTaskPriorityInherit+0xb0>)
 8004766:	601a      	str	r2, [r3, #0]
 8004768:	68fb      	ldr	r3, [r7, #12]
 800476a:	6ada      	ldr	r2, [r3, #44]	; 0x2c
 800476c:	4613      	mov	r3, r2
 800476e:	009b      	lsls	r3, r3, #2
 8004770:	4413      	add	r3, r2
 8004772:	009b      	lsls	r3, r3, #2
 8004774:	4a09      	ldr	r2, [pc, #36]	; (800479c <vTaskPriorityInherit+0xac>)
 8004776:	441a      	add	r2, r3
 8004778:	68fb      	ldr	r3, [r7, #12]
 800477a:	3304      	adds	r3, #4
 800477c:	4610      	mov	r0, r2
 800477e:	4619      	mov	r1, r3
 8004780:	f000 fcee 	bl	8005160 <vListInsertEnd>
 8004784:	e004      	b.n	8004790 <vTaskPriorityInherit+0xa0>
				}
				else
				{
					/* Just inherit the priority. */
					pxTCB->uxPriority = pxCurrentTCB->uxPriority;
 8004786:	4b04      	ldr	r3, [pc, #16]	; (8004798 <vTaskPriorityInherit+0xa8>)
 8004788:	681b      	ldr	r3, [r3, #0]
 800478a:	6ada      	ldr	r2, [r3, #44]	; 0x2c
 800478c:	68fb      	ldr	r3, [r7, #12]
 800478e:	62da      	str	r2, [r3, #44]	; 0x2c
				}

				traceTASK_PRIORITY_INHERIT( pxTCB, pxCurrentTCB->uxPriority );
			}
		}
	}
 8004790:	3710      	adds	r7, #16
 8004792:	46bd      	mov	sp, r7
 8004794:	bd80      	pop	{r7, pc}
 8004796:	bf00      	nop
 8004798:	200004f4 	.word	0x200004f4
 800479c:	200004f8 	.word	0x200004f8
 80047a0:	200005d4 	.word	0x200005d4

080047a4 <vTaskPriorityDisinherit>:
/*-----------------------------------------------------------*/

#if ( configUSE_MUTEXES == 1 )

	void vTaskPriorityDisinherit( xTaskHandle const pxMutexHolder )
	{
 80047a4:	b580      	push	{r7, lr}
 80047a6:	b084      	sub	sp, #16
 80047a8:	af00      	add	r7, sp, #0
 80047aa:	6078      	str	r0, [r7, #4]
	tskTCB * const pxTCB = ( tskTCB * ) pxMutexHolder;
 80047ac:	687b      	ldr	r3, [r7, #4]
 80047ae:	60fb      	str	r3, [r7, #12]

		if( pxMutexHolder != NULL )
 80047b0:	687b      	ldr	r3, [r7, #4]
 80047b2:	2b00      	cmp	r3, #0
 80047b4:	d02c      	beq.n	8004810 <vTaskPriorityDisinherit+0x6c>
		{
			if( pxTCB->uxPriority != pxTCB->uxBasePriority )
 80047b6:	68fb      	ldr	r3, [r7, #12]
 80047b8:	6ada      	ldr	r2, [r3, #44]	; 0x2c
 80047ba:	68fb      	ldr	r3, [r7, #12]
 80047bc:	6c9b      	ldr	r3, [r3, #72]	; 0x48
 80047be:	429a      	cmp	r2, r3
 80047c0:	d026      	beq.n	8004810 <vTaskPriorityDisinherit+0x6c>
			{
				/* We must be the running task to be able to give the mutex back.
				Remove ourselves from the ready list we currently appear in. */
				if( uxListRemove( &( pxTCB->xGenericListItem ) ) == ( unsigned portBASE_TYPE ) 0 )
 80047c2:	68fb      	ldr	r3, [r7, #12]
 80047c4:	3304      	adds	r3, #4
 80047c6:	4618      	mov	r0, r3
 80047c8:	f000 fd26 	bl	8005218 <uxListRemove>
				}

				/* Disinherit the priority before adding the task into the new
				ready list. */
				traceTASK_PRIORITY_DISINHERIT( pxTCB, pxTCB->uxBasePriority );
				pxTCB->uxPriority = pxTCB->uxBasePriority;
 80047cc:	68fb      	ldr	r3, [r7, #12]
 80047ce:	6c9a      	ldr	r2, [r3, #72]	; 0x48
 80047d0:	68fb      	ldr	r3, [r7, #12]
 80047d2:	62da      	str	r2, [r3, #44]	; 0x2c
				listSET_LIST_ITEM_VALUE( &( pxTCB->xEventListItem ), ( portTickType ) configMAX_PRIORITIES - ( portTickType ) pxTCB->uxPriority ); /*lint !e961 MISRA exception as the casts are only redundant for some ports. */
 80047d4:	68fb      	ldr	r3, [r7, #12]
 80047d6:	6adb      	ldr	r3, [r3, #44]	; 0x2c
 80047d8:	f1c3 0205 	rsb	r2, r3, #5
 80047dc:	68fb      	ldr	r3, [r7, #12]
 80047de:	619a      	str	r2, [r3, #24]
				prvAddTaskToReadyList( pxTCB );
 80047e0:	68fb      	ldr	r3, [r7, #12]
 80047e2:	6ada      	ldr	r2, [r3, #44]	; 0x2c
 80047e4:	4b0c      	ldr	r3, [pc, #48]	; (8004818 <vTaskPriorityDisinherit+0x74>)
 80047e6:	681b      	ldr	r3, [r3, #0]
 80047e8:	429a      	cmp	r2, r3
 80047ea:	d903      	bls.n	80047f4 <vTaskPriorityDisinherit+0x50>
 80047ec:	68fb      	ldr	r3, [r7, #12]
 80047ee:	6ada      	ldr	r2, [r3, #44]	; 0x2c
 80047f0:	4b09      	ldr	r3, [pc, #36]	; (8004818 <vTaskPriorityDisinherit+0x74>)
 80047f2:	601a      	str	r2, [r3, #0]
 80047f4:	68fb      	ldr	r3, [r7, #12]
 80047f6:	6ada      	ldr	r2, [r3, #44]	; 0x2c
 80047f8:	4613      	mov	r3, r2
 80047fa:	009b      	lsls	r3, r3, #2
 80047fc:	4413      	add	r3, r2
 80047fe:	009b      	lsls	r3, r3, #2
 8004800:	4a06      	ldr	r2, [pc, #24]	; (800481c <vTaskPriorityDisinherit+0x78>)
 8004802:	441a      	add	r2, r3
 8004804:	68fb      	ldr	r3, [r7, #12]
 8004806:	3304      	adds	r3, #4
 8004808:	4610      	mov	r0, r2
 800480a:	4619      	mov	r1, r3
 800480c:	f000 fca8 	bl	8005160 <vListInsertEnd>
			}
		}
	}
 8004810:	3710      	adds	r7, #16
 8004812:	46bd      	mov	sp, r7
 8004814:	bd80      	pop	{r7, pc}
 8004816:	bf00      	nop
 8004818:	200005d4 	.word	0x200005d4
 800481c:	200004f8 	.word	0x200004f8

08004820 <vTaskList>:
/*-----------------------------------------------------------*/

#if ( ( configUSE_TRACE_FACILITY == 1 ) && ( configUSE_STATS_FORMATTING_FUNCTIONS == 1 ) )

	void vTaskList( signed char *pcWriteBuffer )
	{
 8004820:	b5b0      	push	{r4, r5, r7, lr}
 8004822:	b08a      	sub	sp, #40	; 0x28
 8004824:	af04      	add	r7, sp, #16
 8004826:	6078      	str	r0, [r7, #4]
		 * through a call to vTaskList().
		 */


		/* Make sure the write buffer does not contain a string. */
		*pcWriteBuffer = 0x00;
 8004828:	687b      	ldr	r3, [r7, #4]
 800482a:	2200      	movs	r2, #0
 800482c:	701a      	strb	r2, [r3, #0]

		/* Take a snapshot of the number of tasks in case it changes while this
		function is executing. */
		uxArraySize = uxCurrentNumberOfTasks;
 800482e:	4b35      	ldr	r3, [pc, #212]	; (8004904 <vTaskList+0xe4>)
 8004830:	681b      	ldr	r3, [r3, #0]
 8004832:	60fb      	str	r3, [r7, #12]

		/* Allocate an array index for each task. */
		pxTaskStatusArray = pvPortMalloc( uxCurrentNumberOfTasks * sizeof( xTaskStatusType ) );
 8004834:	4b33      	ldr	r3, [pc, #204]	; (8004904 <vTaskList+0xe4>)
 8004836:	681b      	ldr	r3, [r3, #0]
 8004838:	015b      	lsls	r3, r3, #5
 800483a:	4618      	mov	r0, r3
 800483c:	f001 fc58 	bl	80060f0 <pvPortMalloc>
 8004840:	6138      	str	r0, [r7, #16]

		if( pxTaskStatusArray != NULL )
 8004842:	693b      	ldr	r3, [r7, #16]
 8004844:	2b00      	cmp	r3, #0
 8004846:	d05a      	beq.n	80048fe <vTaskList+0xde>
		{
			/* Generate the (binary) data. */
			uxArraySize = uxTaskGetSystemState( pxTaskStatusArray, uxArraySize, NULL );
 8004848:	68fb      	ldr	r3, [r7, #12]
 800484a:	6938      	ldr	r0, [r7, #16]
 800484c:	4619      	mov	r1, r3
 800484e:	2200      	movs	r2, #0
 8004850:	f7ff fa40 	bl	8003cd4 <uxTaskGetSystemState>
 8004854:	4603      	mov	r3, r0
 8004856:	60fb      	str	r3, [r7, #12]

			/* Create a human readable table from the binary data. */
			for( x = 0; x < uxArraySize; x++ )
 8004858:	2300      	movs	r3, #0
 800485a:	60bb      	str	r3, [r7, #8]
 800485c:	e048      	b.n	80048f0 <vTaskList+0xd0>
			{
				switch( pxTaskStatusArray[ x ].eCurrentState )
 800485e:	68bb      	ldr	r3, [r7, #8]
 8004860:	015b      	lsls	r3, r3, #5
 8004862:	693a      	ldr	r2, [r7, #16]
 8004864:	4413      	add	r3, r2
 8004866:	7b1b      	ldrb	r3, [r3, #12]
 8004868:	3b01      	subs	r3, #1
 800486a:	2b03      	cmp	r3, #3
 800486c:	d816      	bhi.n	800489c <vTaskList+0x7c>
 800486e:	a201      	add	r2, pc, #4	; (adr r2, 8004874 <vTaskList+0x54>)
 8004870:	f852 f023 	ldr.w	pc, [r2, r3, lsl #2]
 8004874:	08004885 	.word	0x08004885
 8004878:	0800488b 	.word	0x0800488b
 800487c:	08004891 	.word	0x08004891
 8004880:	08004897 	.word	0x08004897
				{
				case eReady:		cStatus = tskREADY_CHAR;
 8004884:	2352      	movs	r3, #82	; 0x52
 8004886:	75fb      	strb	r3, [r7, #23]
									break;
 8004888:	e00b      	b.n	80048a2 <vTaskList+0x82>

				case eBlocked:		cStatus = tskBLOCKED_CHAR;
 800488a:	2342      	movs	r3, #66	; 0x42
 800488c:	75fb      	strb	r3, [r7, #23]
									break;
 800488e:	e008      	b.n	80048a2 <vTaskList+0x82>

				case eSuspended:	cStatus = tskSUSPENDED_CHAR;
 8004890:	2353      	movs	r3, #83	; 0x53
 8004892:	75fb      	strb	r3, [r7, #23]
									break;
 8004894:	e005      	b.n	80048a2 <vTaskList+0x82>

				case eDeleted:		cStatus = tskDELETED_CHAR;
 8004896:	2344      	movs	r3, #68	; 0x44
 8004898:	75fb      	strb	r3, [r7, #23]
									break;
 800489a:	e002      	b.n	80048a2 <vTaskList+0x82>

				default:			/* Should not get here, but it is included
									to prevent static checking errors. */
									cStatus = 0x00;
 800489c:	2300      	movs	r3, #0
 800489e:	75fb      	strb	r3, [r7, #23]
									break;
 80048a0:	bf00      	nop
				}

				sprintf( ( char * ) pcWriteBuffer, ( char * ) "%s\t\t%c\t%u\t%u\t%u\r\n", pxTaskStatusArray[ x ].pcTaskName, cStatus, ( unsigned int ) pxTaskStatusArray[ x ].uxCurrentPriority, ( unsigned int ) pxTaskStatusArray[ x ].usStackHighWaterMark, ( unsigned int ) pxTaskStatusArray[ x ].xTaskNumber );
 80048a2:	68bb      	ldr	r3, [r7, #8]
 80048a4:	015b      	lsls	r3, r3, #5
 80048a6:	693a      	ldr	r2, [r7, #16]
 80048a8:	4413      	add	r3, r2
 80048aa:	685a      	ldr	r2, [r3, #4]
 80048ac:	7dfb      	ldrb	r3, [r7, #23]
 80048ae:	68b9      	ldr	r1, [r7, #8]
 80048b0:	0149      	lsls	r1, r1, #5
 80048b2:	6938      	ldr	r0, [r7, #16]
 80048b4:	4401      	add	r1, r0
 80048b6:	690c      	ldr	r4, [r1, #16]
 80048b8:	68b9      	ldr	r1, [r7, #8]
 80048ba:	0149      	lsls	r1, r1, #5
 80048bc:	6938      	ldr	r0, [r7, #16]
 80048be:	4401      	add	r1, r0
 80048c0:	8b89      	ldrh	r1, [r1, #28]
 80048c2:	4608      	mov	r0, r1
 80048c4:	68b9      	ldr	r1, [r7, #8]
 80048c6:	0149      	lsls	r1, r1, #5
 80048c8:	693d      	ldr	r5, [r7, #16]
 80048ca:	4429      	add	r1, r5
 80048cc:	6889      	ldr	r1, [r1, #8]
 80048ce:	9400      	str	r4, [sp, #0]
 80048d0:	9001      	str	r0, [sp, #4]
 80048d2:	9102      	str	r1, [sp, #8]
 80048d4:	6878      	ldr	r0, [r7, #4]
 80048d6:	490c      	ldr	r1, [pc, #48]	; (8004908 <vTaskList+0xe8>)
 80048d8:	f7fe fc90 	bl	80031fc <sprintf>
				pcWriteBuffer += strlen( ( char * ) pcWriteBuffer );
 80048dc:	6878      	ldr	r0, [r7, #4]
 80048de:	f004 f9f1 	bl	8008cc4 <strlen>
 80048e2:	4603      	mov	r3, r0
 80048e4:	687a      	ldr	r2, [r7, #4]
 80048e6:	4413      	add	r3, r2
 80048e8:	607b      	str	r3, [r7, #4]
		{
			/* Generate the (binary) data. */
			uxArraySize = uxTaskGetSystemState( pxTaskStatusArray, uxArraySize, NULL );

			/* Create a human readable table from the binary data. */
			for( x = 0; x < uxArraySize; x++ )
 80048ea:	68bb      	ldr	r3, [r7, #8]
 80048ec:	3301      	adds	r3, #1
 80048ee:	60bb      	str	r3, [r7, #8]
 80048f0:	68ba      	ldr	r2, [r7, #8]
 80048f2:	68fb      	ldr	r3, [r7, #12]
 80048f4:	429a      	cmp	r2, r3
 80048f6:	d3b2      	bcc.n	800485e <vTaskList+0x3e>
				sprintf( ( char * ) pcWriteBuffer, ( char * ) "%s\t\t%c\t%u\t%u\t%u\r\n", pxTaskStatusArray[ x ].pcTaskName, cStatus, ( unsigned int ) pxTaskStatusArray[ x ].uxCurrentPriority, ( unsigned int ) pxTaskStatusArray[ x ].usStackHighWaterMark, ( unsigned int ) pxTaskStatusArray[ x ].xTaskNumber );
				pcWriteBuffer += strlen( ( char * ) pcWriteBuffer );
			}

			/* Free the array again. */
			vPortFree( pxTaskStatusArray );
 80048f8:	6938      	ldr	r0, [r7, #16]
 80048fa:	f001 fc85 	bl	8006208 <vPortFree>
		}
	}
 80048fe:	3718      	adds	r7, #24
 8004900:	46bd      	mov	sp, r7
 8004902:	bdb0      	pop	{r4, r5, r7, pc}
 8004904:	200005cc 	.word	0x200005cc
 8004908:	080096ac 	.word	0x080096ac

0800490c <xQueueGenericReset>:
	}														\
	taskEXIT_CRITICAL()
/*-----------------------------------------------------------*/

portBASE_TYPE xQueueGenericReset( xQueueHandle xQueue, portBASE_TYPE xNewQueue )
{
 800490c:	b580      	push	{r7, lr}
 800490e:	b084      	sub	sp, #16
 8004910:	af00      	add	r7, sp, #0
 8004912:	6078      	str	r0, [r7, #4]
 8004914:	6039      	str	r1, [r7, #0]
xQUEUE * const pxQueue = ( xQUEUE * ) xQueue;
 8004916:	687b      	ldr	r3, [r7, #4]
 8004918:	60fb      	str	r3, [r7, #12]

	configASSERT( pxQueue );
 800491a:	68fb      	ldr	r3, [r7, #12]
 800491c:	2b00      	cmp	r3, #0
 800491e:	d102      	bne.n	8004926 <xQueueGenericReset+0x1a>
 8004920:	f000 fd96 	bl	8005450 <ulPortSetInterruptMask>
 8004924:	e7fe      	b.n	8004924 <xQueueGenericReset+0x18>

	taskENTER_CRITICAL();
 8004926:	f000 fd71 	bl	800540c <vPortEnterCritical>
	{
		pxQueue->pcTail = pxQueue->pcHead + ( pxQueue->uxLength * pxQueue->uxItemSize );
 800492a:	68fb      	ldr	r3, [r7, #12]
 800492c:	681a      	ldr	r2, [r3, #0]
 800492e:	68fb      	ldr	r3, [r7, #12]
 8004930:	6bdb      	ldr	r3, [r3, #60]	; 0x3c
 8004932:	68f9      	ldr	r1, [r7, #12]
 8004934:	6c09      	ldr	r1, [r1, #64]	; 0x40
 8004936:	fb01 f303 	mul.w	r3, r1, r3
 800493a:	441a      	add	r2, r3
 800493c:	68fb      	ldr	r3, [r7, #12]
 800493e:	605a      	str	r2, [r3, #4]
		pxQueue->uxMessagesWaiting = ( unsigned portBASE_TYPE ) 0U;
 8004940:	68fb      	ldr	r3, [r7, #12]
 8004942:	2200      	movs	r2, #0
 8004944:	639a      	str	r2, [r3, #56]	; 0x38
		pxQueue->pcWriteTo = pxQueue->pcHead;
 8004946:	68fb      	ldr	r3, [r7, #12]
 8004948:	681a      	ldr	r2, [r3, #0]
 800494a:	68fb      	ldr	r3, [r7, #12]
 800494c:	609a      	str	r2, [r3, #8]
		pxQueue->u.pcReadFrom = pxQueue->pcHead + ( ( pxQueue->uxLength - ( unsigned portBASE_TYPE ) 1U ) * pxQueue->uxItemSize );
 800494e:	68fb      	ldr	r3, [r7, #12]
 8004950:	681a      	ldr	r2, [r3, #0]
 8004952:	68fb      	ldr	r3, [r7, #12]
 8004954:	6bdb      	ldr	r3, [r3, #60]	; 0x3c
 8004956:	3b01      	subs	r3, #1
 8004958:	68f9      	ldr	r1, [r7, #12]
 800495a:	6c09      	ldr	r1, [r1, #64]	; 0x40
 800495c:	fb01 f303 	mul.w	r3, r1, r3
 8004960:	441a      	add	r2, r3
 8004962:	68fb      	ldr	r3, [r7, #12]
 8004964:	60da      	str	r2, [r3, #12]
		pxQueue->xRxLock = queueUNLOCKED;
 8004966:	68fb      	ldr	r3, [r7, #12]
 8004968:	f04f 32ff 	mov.w	r2, #4294967295	; 0xffffffff
 800496c:	645a      	str	r2, [r3, #68]	; 0x44
		pxQueue->xTxLock = queueUNLOCKED;
 800496e:	68fb      	ldr	r3, [r7, #12]
 8004970:	f04f 32ff 	mov.w	r2, #4294967295	; 0xffffffff
 8004974:	649a      	str	r2, [r3, #72]	; 0x48

		if( xNewQueue == pdFALSE )
 8004976:	683b      	ldr	r3, [r7, #0]
 8004978:	2b00      	cmp	r3, #0
 800497a:	d10e      	bne.n	800499a <xQueueGenericReset+0x8e>
			/* If there are tasks blocked waiting to read from the queue, then
			the tasks will remain blocked as after this function exits the queue
			will still be empty.  If there are tasks blocked waiting to	write to
			the queue, then one should be unblocked as after this function exits
			it will be possible to write to it. */
			if( listLIST_IS_EMPTY( &( pxQueue->xTasksWaitingToSend ) ) == pdFALSE )
 800497c:	68fb      	ldr	r3, [r7, #12]
 800497e:	691b      	ldr	r3, [r3, #16]
 8004980:	2b00      	cmp	r3, #0
 8004982:	d014      	beq.n	80049ae <xQueueGenericReset+0xa2>
			{
				if( xTaskRemoveFromEventList( &( pxQueue->xTasksWaitingToSend ) ) == pdTRUE )
 8004984:	68fb      	ldr	r3, [r7, #12]
 8004986:	3310      	adds	r3, #16
 8004988:	4618      	mov	r0, r3
 800498a:	f7ff fbcd 	bl	8004128 <xTaskRemoveFromEventList>
 800498e:	4603      	mov	r3, r0
 8004990:	2b01      	cmp	r3, #1
 8004992:	d10c      	bne.n	80049ae <xQueueGenericReset+0xa2>
				{
					portYIELD_WITHIN_API();
 8004994:	f000 fd2a 	bl	80053ec <vPortYield>
 8004998:	e009      	b.n	80049ae <xQueueGenericReset+0xa2>
			}
		}
		else
		{
			/* Ensure the event queues start in the correct state. */
			vListInitialise( &( pxQueue->xTasksWaitingToSend ) );
 800499a:	68fb      	ldr	r3, [r7, #12]
 800499c:	3310      	adds	r3, #16
 800499e:	4618      	mov	r0, r3
 80049a0:	f000 fbb2 	bl	8005108 <vListInitialise>
			vListInitialise( &( pxQueue->xTasksWaitingToReceive ) );
 80049a4:	68fb      	ldr	r3, [r7, #12]
 80049a6:	3324      	adds	r3, #36	; 0x24
 80049a8:	4618      	mov	r0, r3
 80049aa:	f000 fbad 	bl	8005108 <vListInitialise>
		}
	}
	taskEXIT_CRITICAL();
 80049ae:	f000 fd3d 	bl	800542c <vPortExitCritical>

	/* A value is returned for calling semantic consistency with previous
	versions. */
	return pdPASS;
 80049b2:	2301      	movs	r3, #1
}
 80049b4:	4618      	mov	r0, r3
 80049b6:	3710      	adds	r7, #16
 80049b8:	46bd      	mov	sp, r7
 80049ba:	bd80      	pop	{r7, pc}

080049bc <xQueueGenericCreate>:
/*-----------------------------------------------------------*/

xQueueHandle xQueueGenericCreate( unsigned portBASE_TYPE uxQueueLength, unsigned portBASE_TYPE uxItemSize, unsigned char ucQueueType )
{
 80049bc:	b580      	push	{r7, lr}
 80049be:	b088      	sub	sp, #32
 80049c0:	af00      	add	r7, sp, #0
 80049c2:	60f8      	str	r0, [r7, #12]
 80049c4:	60b9      	str	r1, [r7, #8]
 80049c6:	4613      	mov	r3, r2
 80049c8:	71fb      	strb	r3, [r7, #7]
xQUEUE *pxNewQueue;
size_t xQueueSizeInBytes;
xQueueHandle xReturn = NULL;
 80049ca:	2300      	movs	r3, #0
 80049cc:	61fb      	str	r3, [r7, #28]
	/* Remove compiler warnings about unused parameters should
	configUSE_TRACE_FACILITY not be set to 1. */
	( void ) ucQueueType;

	/* Allocate the new queue structure. */
	if( uxQueueLength > ( unsigned portBASE_TYPE ) 0 )
 80049ce:	68fb      	ldr	r3, [r7, #12]
 80049d0:	2b00      	cmp	r3, #0
 80049d2:	d02a      	beq.n	8004a2a <xQueueGenericCreate+0x6e>
	{
		pxNewQueue = ( xQUEUE * ) pvPortMalloc( sizeof( xQUEUE ) );
 80049d4:	2050      	movs	r0, #80	; 0x50
 80049d6:	f001 fb8b 	bl	80060f0 <pvPortMalloc>
 80049da:	61b8      	str	r0, [r7, #24]
		if( pxNewQueue != NULL )
 80049dc:	69bb      	ldr	r3, [r7, #24]
 80049de:	2b00      	cmp	r3, #0
 80049e0:	d023      	beq.n	8004a2a <xQueueGenericCreate+0x6e>
		{
			/* Create the list of pointers to queue items.  The queue is one byte
			longer than asked for to make wrap checking easier/faster. */
			xQueueSizeInBytes = ( size_t ) ( uxQueueLength * uxItemSize ) + ( size_t ) 1; /*lint !e961 MISRA exception as the casts are only redundant for some ports. */
 80049e2:	68fb      	ldr	r3, [r7, #12]
 80049e4:	68ba      	ldr	r2, [r7, #8]
 80049e6:	fb02 f303 	mul.w	r3, r2, r3
 80049ea:	3301      	adds	r3, #1
 80049ec:	617b      	str	r3, [r7, #20]

			pxNewQueue->pcHead = ( signed char * ) pvPortMalloc( xQueueSizeInBytes );
 80049ee:	6978      	ldr	r0, [r7, #20]
 80049f0:	f001 fb7e 	bl	80060f0 <pvPortMalloc>
 80049f4:	4602      	mov	r2, r0
 80049f6:	69bb      	ldr	r3, [r7, #24]
 80049f8:	601a      	str	r2, [r3, #0]
			if( pxNewQueue->pcHead != NULL )
 80049fa:	69bb      	ldr	r3, [r7, #24]
 80049fc:	681b      	ldr	r3, [r3, #0]
 80049fe:	2b00      	cmp	r3, #0
 8004a00:	d010      	beq.n	8004a24 <xQueueGenericCreate+0x68>
			{
				/* Initialise the queue members as described above where the
				queue type is defined. */
				pxNewQueue->uxLength = uxQueueLength;
 8004a02:	69bb      	ldr	r3, [r7, #24]
 8004a04:	68fa      	ldr	r2, [r7, #12]
 8004a06:	63da      	str	r2, [r3, #60]	; 0x3c
				pxNewQueue->uxItemSize = uxItemSize;
 8004a08:	69bb      	ldr	r3, [r7, #24]
 8004a0a:	68ba      	ldr	r2, [r7, #8]
 8004a0c:	641a      	str	r2, [r3, #64]	; 0x40
				( void ) xQueueGenericReset( pxNewQueue, pdTRUE );
 8004a0e:	69b8      	ldr	r0, [r7, #24]
 8004a10:	2101      	movs	r1, #1
 8004a12:	f7ff ff7b 	bl	800490c <xQueueGenericReset>

				#if ( configUSE_TRACE_FACILITY == 1 )
				{
					pxNewQueue->ucQueueType = ucQueueType;
 8004a16:	69bb      	ldr	r3, [r7, #24]
 8004a18:	79fa      	ldrb	r2, [r7, #7]
 8004a1a:	f883 204d 	strb.w	r2, [r3, #77]	; 0x4d
					pxNewQueue->pxQueueSetContainer = NULL;
				}
				#endif /* configUSE_QUEUE_SETS */

				traceQUEUE_CREATE( pxNewQueue );
				xReturn = pxNewQueue;
 8004a1e:	69bb      	ldr	r3, [r7, #24]
 8004a20:	61fb      	str	r3, [r7, #28]
 8004a22:	e002      	b.n	8004a2a <xQueueGenericCreate+0x6e>
			}
			else
			{
				traceQUEUE_CREATE_FAILED( ucQueueType );
				vPortFree( pxNewQueue );
 8004a24:	69b8      	ldr	r0, [r7, #24]
 8004a26:	f001 fbef 	bl	8006208 <vPortFree>
			}
		}
	}

	configASSERT( xReturn );
 8004a2a:	69fb      	ldr	r3, [r7, #28]
 8004a2c:	2b00      	cmp	r3, #0
 8004a2e:	d102      	bne.n	8004a36 <xQueueGenericCreate+0x7a>
 8004a30:	f000 fd0e 	bl	8005450 <ulPortSetInterruptMask>
 8004a34:	e7fe      	b.n	8004a34 <xQueueGenericCreate+0x78>

	return xReturn;
 8004a36:	69fb      	ldr	r3, [r7, #28]
}
 8004a38:	4618      	mov	r0, r3
 8004a3a:	3720      	adds	r7, #32
 8004a3c:	46bd      	mov	sp, r7
 8004a3e:	bd80      	pop	{r7, pc}

08004a40 <xQueueCreateMutex>:
/*-----------------------------------------------------------*/

#if ( configUSE_MUTEXES == 1 )

	xQueueHandle xQueueCreateMutex( unsigned char ucQueueType )
	{
 8004a40:	b580      	push	{r7, lr}
 8004a42:	b084      	sub	sp, #16
 8004a44:	af00      	add	r7, sp, #0
 8004a46:	4603      	mov	r3, r0
 8004a48:	71fb      	strb	r3, [r7, #7]
		/* Prevent compiler warnings about unused parameters if
		configUSE_TRACE_FACILITY does not equal 1. */
		( void ) ucQueueType;

		/* Allocate the new queue structure. */
		pxNewQueue = ( xQUEUE * ) pvPortMalloc( sizeof( xQUEUE ) );
 8004a4a:	2050      	movs	r0, #80	; 0x50
 8004a4c:	f001 fb50 	bl	80060f0 <pvPortMalloc>
 8004a50:	60f8      	str	r0, [r7, #12]
		if( pxNewQueue != NULL )
 8004a52:	68fb      	ldr	r3, [r7, #12]
 8004a54:	2b00      	cmp	r3, #0
 8004a56:	d030      	beq.n	8004aba <xQueueCreateMutex+0x7a>
		{
			/* Information required for priority inheritance. */
			pxNewQueue->pxMutexHolder = NULL;
 8004a58:	68fb      	ldr	r3, [r7, #12]
 8004a5a:	2200      	movs	r2, #0
 8004a5c:	605a      	str	r2, [r3, #4]
			pxNewQueue->uxQueueType = queueQUEUE_IS_MUTEX;
 8004a5e:	68fb      	ldr	r3, [r7, #12]
 8004a60:	2200      	movs	r2, #0
 8004a62:	601a      	str	r2, [r3, #0]

			/* Queues used as a mutex no data is actually copied into or out
			of the queue. */
			pxNewQueue->pcWriteTo = NULL;
 8004a64:	68fb      	ldr	r3, [r7, #12]
 8004a66:	2200      	movs	r2, #0
 8004a68:	609a      	str	r2, [r3, #8]
			pxNewQueue->u.pcReadFrom = NULL;
 8004a6a:	68fb      	ldr	r3, [r7, #12]
 8004a6c:	2200      	movs	r2, #0
 8004a6e:	60da      	str	r2, [r3, #12]

			/* Each mutex has a length of 1 (like a binary semaphore) and
			an item size of 0 as nothing is actually copied into or out
			of the mutex. */
			pxNewQueue->uxMessagesWaiting = ( unsigned portBASE_TYPE ) 0U;
 8004a70:	68fb      	ldr	r3, [r7, #12]
 8004a72:	2200      	movs	r2, #0
 8004a74:	639a      	str	r2, [r3, #56]	; 0x38
			pxNewQueue->uxLength = ( unsigned portBASE_TYPE ) 1U;
 8004a76:	68fb      	ldr	r3, [r7, #12]
 8004a78:	2201      	movs	r2, #1
 8004a7a:	63da      	str	r2, [r3, #60]	; 0x3c
			pxNewQueue->uxItemSize = ( unsigned portBASE_TYPE ) 0U;
 8004a7c:	68fb      	ldr	r3, [r7, #12]
 8004a7e:	2200      	movs	r2, #0
 8004a80:	641a      	str	r2, [r3, #64]	; 0x40
			pxNewQueue->xRxLock = queueUNLOCKED;
 8004a82:	68fb      	ldr	r3, [r7, #12]
 8004a84:	f04f 32ff 	mov.w	r2, #4294967295	; 0xffffffff
 8004a88:	645a      	str	r2, [r3, #68]	; 0x44
			pxNewQueue->xTxLock = queueUNLOCKED;
 8004a8a:	68fb      	ldr	r3, [r7, #12]
 8004a8c:	f04f 32ff 	mov.w	r2, #4294967295	; 0xffffffff
 8004a90:	649a      	str	r2, [r3, #72]	; 0x48

			#if ( configUSE_TRACE_FACILITY == 1 )
			{
				pxNewQueue->ucQueueType = ucQueueType;
 8004a92:	68fb      	ldr	r3, [r7, #12]
 8004a94:	79fa      	ldrb	r2, [r7, #7]
 8004a96:	f883 204d 	strb.w	r2, [r3, #77]	; 0x4d
				pxNewQueue->pxQueueSetContainer = NULL;
			}
			#endif

			/* Ensure the event queues start with the correct state. */
			vListInitialise( &( pxNewQueue->xTasksWaitingToSend ) );
 8004a9a:	68fb      	ldr	r3, [r7, #12]
 8004a9c:	3310      	adds	r3, #16
 8004a9e:	4618      	mov	r0, r3
 8004aa0:	f000 fb32 	bl	8005108 <vListInitialise>
			vListInitialise( &( pxNewQueue->xTasksWaitingToReceive ) );
 8004aa4:	68fb      	ldr	r3, [r7, #12]
 8004aa6:	3324      	adds	r3, #36	; 0x24
 8004aa8:	4618      	mov	r0, r3
 8004aaa:	f000 fb2d 	bl	8005108 <vListInitialise>

			traceCREATE_MUTEX( pxNewQueue );

			/* Start with the semaphore in the expected state. */
			( void ) xQueueGenericSend( pxNewQueue, NULL, ( portTickType ) 0U, queueSEND_TO_BACK );
 8004aae:	68f8      	ldr	r0, [r7, #12]
 8004ab0:	2100      	movs	r1, #0
 8004ab2:	2200      	movs	r2, #0
 8004ab4:	2300      	movs	r3, #0
 8004ab6:	f000 f80b 	bl	8004ad0 <xQueueGenericSend>
		else
		{
			traceCREATE_MUTEX_FAILED();
		}

		configASSERT( pxNewQueue );
 8004aba:	68fb      	ldr	r3, [r7, #12]
 8004abc:	2b00      	cmp	r3, #0
 8004abe:	d102      	bne.n	8004ac6 <xQueueCreateMutex+0x86>
 8004ac0:	f000 fcc6 	bl	8005450 <ulPortSetInterruptMask>
 8004ac4:	e7fe      	b.n	8004ac4 <xQueueCreateMutex+0x84>
		return pxNewQueue;
 8004ac6:	68fb      	ldr	r3, [r7, #12]
	}
 8004ac8:	4618      	mov	r0, r3
 8004aca:	3710      	adds	r7, #16
 8004acc:	46bd      	mov	sp, r7
 8004ace:	bd80      	pop	{r7, pc}

08004ad0 <xQueueGenericSend>:

#endif /* configUSE_COUNTING_SEMAPHORES */
/*-----------------------------------------------------------*/

signed portBASE_TYPE xQueueGenericSend( xQueueHandle xQueue, const void * const pvItemToQueue, portTickType xTicksToWait, portBASE_TYPE xCopyPosition )
{
 8004ad0:	b580      	push	{r7, lr}
 8004ad2:	b088      	sub	sp, #32
 8004ad4:	af00      	add	r7, sp, #0
 8004ad6:	60f8      	str	r0, [r7, #12]
 8004ad8:	60b9      	str	r1, [r7, #8]
 8004ada:	607a      	str	r2, [r7, #4]
 8004adc:	603b      	str	r3, [r7, #0]
signed portBASE_TYPE xEntryTimeSet = pdFALSE;
 8004ade:	2300      	movs	r3, #0
 8004ae0:	61fb      	str	r3, [r7, #28]
xTimeOutType xTimeOut;
xQUEUE * const pxQueue = ( xQUEUE * ) xQueue;
 8004ae2:	68fb      	ldr	r3, [r7, #12]
 8004ae4:	61bb      	str	r3, [r7, #24]

	configASSERT( pxQueue );
 8004ae6:	69bb      	ldr	r3, [r7, #24]
 8004ae8:	2b00      	cmp	r3, #0
 8004aea:	d102      	bne.n	8004af2 <xQueueGenericSend+0x22>
 8004aec:	f000 fcb0 	bl	8005450 <ulPortSetInterruptMask>
 8004af0:	e7fe      	b.n	8004af0 <xQueueGenericSend+0x20>
	configASSERT( !( ( pvItemToQueue == NULL ) && ( pxQueue->uxItemSize != ( unsigned portBASE_TYPE ) 0U ) ) );
 8004af2:	68bb      	ldr	r3, [r7, #8]
 8004af4:	2b00      	cmp	r3, #0
 8004af6:	d103      	bne.n	8004b00 <xQueueGenericSend+0x30>
 8004af8:	69bb      	ldr	r3, [r7, #24]
 8004afa:	6c1b      	ldr	r3, [r3, #64]	; 0x40
 8004afc:	2b00      	cmp	r3, #0
 8004afe:	d101      	bne.n	8004b04 <xQueueGenericSend+0x34>
 8004b00:	2301      	movs	r3, #1
 8004b02:	e000      	b.n	8004b06 <xQueueGenericSend+0x36>
 8004b04:	2300      	movs	r3, #0
 8004b06:	2b00      	cmp	r3, #0
 8004b08:	d102      	bne.n	8004b10 <xQueueGenericSend+0x40>
 8004b0a:	f000 fca1 	bl	8005450 <ulPortSetInterruptMask>
 8004b0e:	e7fe      	b.n	8004b0e <xQueueGenericSend+0x3e>
	configASSERT( !( ( xCopyPosition == queueOVERWRITE ) && ( pxQueue->uxLength != 1 ) ) );
 8004b10:	683b      	ldr	r3, [r7, #0]
 8004b12:	2b02      	cmp	r3, #2
 8004b14:	d103      	bne.n	8004b1e <xQueueGenericSend+0x4e>
 8004b16:	69bb      	ldr	r3, [r7, #24]
 8004b18:	6bdb      	ldr	r3, [r3, #60]	; 0x3c
 8004b1a:	2b01      	cmp	r3, #1
 8004b1c:	d101      	bne.n	8004b22 <xQueueGenericSend+0x52>
 8004b1e:	2301      	movs	r3, #1
 8004b20:	e000      	b.n	8004b24 <xQueueGenericSend+0x54>
 8004b22:	2300      	movs	r3, #0
 8004b24:	2b00      	cmp	r3, #0
 8004b26:	d102      	bne.n	8004b2e <xQueueGenericSend+0x5e>
 8004b28:	f000 fc92 	bl	8005450 <ulPortSetInterruptMask>
 8004b2c:	e7fe      	b.n	8004b2c <xQueueGenericSend+0x5c>
	/* This function relaxes the coding standard somewhat to allow return
	statements within the function itself.  This is done in the interest
	of execution time efficiency. */
	for( ;; )
	{
		taskENTER_CRITICAL();
 8004b2e:	f000 fc6d 	bl	800540c <vPortEnterCritical>
		{
			/* Is there room on the queue now?  The running task must be
			the highest priority task wanting to access the queue.  If
			the head item in the queue is to be overwritten then it does
			not matter if the queue is full. */
			if( ( pxQueue->uxMessagesWaiting < pxQueue->uxLength ) || ( xCopyPosition == queueOVERWRITE ) )
 8004b32:	69bb      	ldr	r3, [r7, #24]
 8004b34:	6b9a      	ldr	r2, [r3, #56]	; 0x38
 8004b36:	69bb      	ldr	r3, [r7, #24]
 8004b38:	6bdb      	ldr	r3, [r3, #60]	; 0x3c
 8004b3a:	429a      	cmp	r2, r3
 8004b3c:	d302      	bcc.n	8004b44 <xQueueGenericSend+0x74>
 8004b3e:	683b      	ldr	r3, [r7, #0]
 8004b40:	2b02      	cmp	r3, #2
 8004b42:	d116      	bne.n	8004b72 <xQueueGenericSend+0xa2>
			{
				traceQUEUE_SEND( pxQueue );
				prvCopyDataToQueue( pxQueue, pvItemToQueue, xCopyPosition );
 8004b44:	69b8      	ldr	r0, [r7, #24]
 8004b46:	68b9      	ldr	r1, [r7, #8]
 8004b48:	683a      	ldr	r2, [r7, #0]
 8004b4a:	f000 f9a9 	bl	8004ea0 <prvCopyDataToQueue>
				}
				#else /* configUSE_QUEUE_SETS */
				{
					/* If there was a task waiting for data to arrive on the
					queue then unblock it now. */
					if( listLIST_IS_EMPTY( &( pxQueue->xTasksWaitingToReceive ) ) == pdFALSE )
 8004b4e:	69bb      	ldr	r3, [r7, #24]
 8004b50:	6a5b      	ldr	r3, [r3, #36]	; 0x24
 8004b52:	2b00      	cmp	r3, #0
 8004b54:	d009      	beq.n	8004b6a <xQueueGenericSend+0x9a>
					{
						if( xTaskRemoveFromEventList( &( pxQueue->xTasksWaitingToReceive ) ) == pdTRUE )
 8004b56:	69bb      	ldr	r3, [r7, #24]
 8004b58:	3324      	adds	r3, #36	; 0x24
 8004b5a:	4618      	mov	r0, r3
 8004b5c:	f7ff fae4 	bl	8004128 <xTaskRemoveFromEventList>
 8004b60:	4603      	mov	r3, r0
 8004b62:	2b01      	cmp	r3, #1
 8004b64:	d101      	bne.n	8004b6a <xQueueGenericSend+0x9a>
						{
							/* The unblocked task has a priority higher than
							our own so yield immediately.  Yes it is ok to do
							this from within the critical section - the kernel
							takes care of that. */
							portYIELD_WITHIN_API();
 8004b66:	f000 fc41 	bl	80053ec <vPortYield>
						}
					}
				}
				#endif /* configUSE_QUEUE_SETS */

				taskEXIT_CRITICAL();
 8004b6a:	f000 fc5f 	bl	800542c <vPortExitCritical>

				/* Return to the original privilege level before exiting the
				function. */
				return pdPASS;
 8004b6e:	2301      	movs	r3, #1
 8004b70:	e059      	b.n	8004c26 <xQueueGenericSend+0x156>
			}
			else
			{
				if( xTicksToWait == ( portTickType ) 0 )
 8004b72:	687b      	ldr	r3, [r7, #4]
 8004b74:	2b00      	cmp	r3, #0
 8004b76:	d103      	bne.n	8004b80 <xQueueGenericSend+0xb0>
				{
					/* The queue was full and no block time is specified (or
					the block time has expired) so leave now. */
					taskEXIT_CRITICAL();
 8004b78:	f000 fc58 	bl	800542c <vPortExitCritical>

					/* Return to the original privilege level before exiting
					the function. */
					traceQUEUE_SEND_FAILED( pxQueue );
					return errQUEUE_FULL;
 8004b7c:	2300      	movs	r3, #0
 8004b7e:	e052      	b.n	8004c26 <xQueueGenericSend+0x156>
				}
				else if( xEntryTimeSet == pdFALSE )
 8004b80:	69fb      	ldr	r3, [r7, #28]
 8004b82:	2b00      	cmp	r3, #0
 8004b84:	d106      	bne.n	8004b94 <xQueueGenericSend+0xc4>
				{
					/* The queue was full and a block time was specified so
					configure the timeout structure. */
					vTaskSetTimeOutState( &xTimeOut );
 8004b86:	f107 0310 	add.w	r3, r7, #16
 8004b8a:	4618      	mov	r0, r3
 8004b8c:	f7ff fb28 	bl	80041e0 <vTaskSetTimeOutState>
					xEntryTimeSet = pdTRUE;
 8004b90:	2301      	movs	r3, #1
 8004b92:	61fb      	str	r3, [r7, #28]
				{
					/* Entry time was already set. */
				}
			}
		}
		taskEXIT_CRITICAL();
 8004b94:	f000 fc4a 	bl	800542c <vPortExitCritical>

		/* Interrupts and other tasks can send to and receive from the queue
		now the critical section has been exited. */

		vTaskSuspendAll();
 8004b98:	f7fe fff6 	bl	8003b88 <vTaskSuspendAll>
		prvLockQueue( pxQueue );
 8004b9c:	f000 fc36 	bl	800540c <vPortEnterCritical>
 8004ba0:	69bb      	ldr	r3, [r7, #24]
 8004ba2:	6c5b      	ldr	r3, [r3, #68]	; 0x44
 8004ba4:	f1b3 3fff 	cmp.w	r3, #4294967295	; 0xffffffff
 8004ba8:	d102      	bne.n	8004bb0 <xQueueGenericSend+0xe0>
 8004baa:	69bb      	ldr	r3, [r7, #24]
 8004bac:	2200      	movs	r2, #0
 8004bae:	645a      	str	r2, [r3, #68]	; 0x44
 8004bb0:	69bb      	ldr	r3, [r7, #24]
 8004bb2:	6c9b      	ldr	r3, [r3, #72]	; 0x48
 8004bb4:	f1b3 3fff 	cmp.w	r3, #4294967295	; 0xffffffff
 8004bb8:	d102      	bne.n	8004bc0 <xQueueGenericSend+0xf0>
 8004bba:	69bb      	ldr	r3, [r7, #24]
 8004bbc:	2200      	movs	r2, #0
 8004bbe:	649a      	str	r2, [r3, #72]	; 0x48
 8004bc0:	f000 fc34 	bl	800542c <vPortExitCritical>

		/* Update the timeout state to see if it has expired yet. */
		if( xTaskCheckForTimeOut( &xTimeOut, &xTicksToWait ) == pdFALSE )
 8004bc4:	f107 0210 	add.w	r2, r7, #16
 8004bc8:	1d3b      	adds	r3, r7, #4
 8004bca:	4610      	mov	r0, r2
 8004bcc:	4619      	mov	r1, r3
 8004bce:	f7ff fb21 	bl	8004214 <xTaskCheckForTimeOut>
 8004bd2:	4603      	mov	r3, r0
 8004bd4:	2b00      	cmp	r3, #0
 8004bd6:	d11e      	bne.n	8004c16 <xQueueGenericSend+0x146>
		{
			if( prvIsQueueFull( pxQueue ) != pdFALSE )
 8004bd8:	69b8      	ldr	r0, [r7, #24]
 8004bda:	f000 fa51 	bl	8005080 <prvIsQueueFull>
 8004bde:	4603      	mov	r3, r0
 8004be0:	2b00      	cmp	r3, #0
 8004be2:	d012      	beq.n	8004c0a <xQueueGenericSend+0x13a>
			{
				traceBLOCKING_ON_QUEUE_SEND( pxQueue );
				vTaskPlaceOnEventList( &( pxQueue->xTasksWaitingToSend ), xTicksToWait );
 8004be4:	69bb      	ldr	r3, [r7, #24]
 8004be6:	f103 0210 	add.w	r2, r3, #16
 8004bea:	687b      	ldr	r3, [r7, #4]
 8004bec:	4610      	mov	r0, r2
 8004bee:	4619      	mov	r1, r3
 8004bf0:	f7ff fa3c 	bl	800406c <vTaskPlaceOnEventList>
				/* Unlocking the queue means queue events can effect the
				event list.  It is possible	that interrupts occurring now
				remove this task from the event	list again - but as the
				scheduler is suspended the task will go onto the pending
				ready last instead of the actual ready list. */
				prvUnlockQueue( pxQueue );
 8004bf4:	69b8      	ldr	r0, [r7, #24]
 8004bf6:	f000 f9e1 	bl	8004fbc <prvUnlockQueue>
				/* Resuming the scheduler will move tasks from the pending
				ready list into the ready list - so it is feasible that this
				task is already in a ready list before it yields - in which
				case the yield will not cause a context switch unless there
				is also a higher priority task in the pending ready list. */
				if( xTaskResumeAll() == pdFALSE )
 8004bfa:	f7fe ffd3 	bl	8003ba4 <xTaskResumeAll>
 8004bfe:	4603      	mov	r3, r0
 8004c00:	2b00      	cmp	r3, #0
 8004c02:	d10f      	bne.n	8004c24 <xQueueGenericSend+0x154>
				{
					portYIELD_WITHIN_API();
 8004c04:	f000 fbf2 	bl	80053ec <vPortYield>
 8004c08:	e00c      	b.n	8004c24 <xQueueGenericSend+0x154>
				}
			}
			else
			{
				/* Try again. */
				prvUnlockQueue( pxQueue );
 8004c0a:	69b8      	ldr	r0, [r7, #24]
 8004c0c:	f000 f9d6 	bl	8004fbc <prvUnlockQueue>
				( void ) xTaskResumeAll();
 8004c10:	f7fe ffc8 	bl	8003ba4 <xTaskResumeAll>
			/* Return to the original privilege level before exiting the
			function. */
			traceQUEUE_SEND_FAILED( pxQueue );
			return errQUEUE_FULL;
		}
	}
 8004c14:	e78b      	b.n	8004b2e <xQueueGenericSend+0x5e>
			}
		}
		else
		{
			/* The timeout has expired. */
			prvUnlockQueue( pxQueue );
 8004c16:	69b8      	ldr	r0, [r7, #24]
 8004c18:	f000 f9d0 	bl	8004fbc <prvUnlockQueue>
			( void ) xTaskResumeAll();
 8004c1c:	f7fe ffc2 	bl	8003ba4 <xTaskResumeAll>

			/* Return to the original privilege level before exiting the
			function. */
			traceQUEUE_SEND_FAILED( pxQueue );
			return errQUEUE_FULL;
 8004c20:	2300      	movs	r3, #0
 8004c22:	e000      	b.n	8004c26 <xQueueGenericSend+0x156>
		}
	}
 8004c24:	e783      	b.n	8004b2e <xQueueGenericSend+0x5e>
}
 8004c26:	4618      	mov	r0, r3
 8004c28:	3720      	adds	r7, #32
 8004c2a:	46bd      	mov	sp, r7
 8004c2c:	bd80      	pop	{r7, pc}
 8004c2e:	bf00      	nop

08004c30 <xQueueGenericSendFromISR>:

#endif /* configUSE_ALTERNATIVE_API */
/*-----------------------------------------------------------*/

signed portBASE_TYPE xQueueGenericSendFromISR( xQueueHandle xQueue, const void * const pvItemToQueue, signed portBASE_TYPE *pxHigherPriorityTaskWoken, portBASE_TYPE xCopyPosition )
{
 8004c30:	b580      	push	{r7, lr}
 8004c32:	b088      	sub	sp, #32
 8004c34:	af00      	add	r7, sp, #0
 8004c36:	60f8      	str	r0, [r7, #12]
 8004c38:	60b9      	str	r1, [r7, #8]
 8004c3a:	607a      	str	r2, [r7, #4]
 8004c3c:	603b      	str	r3, [r7, #0]
signed portBASE_TYPE xReturn;
unsigned portBASE_TYPE uxSavedInterruptStatus;
xQUEUE * const pxQueue = ( xQUEUE * ) xQueue;
 8004c3e:	68fb      	ldr	r3, [r7, #12]
 8004c40:	61bb      	str	r3, [r7, #24]

	configASSERT( pxQueue );
 8004c42:	69bb      	ldr	r3, [r7, #24]
 8004c44:	2b00      	cmp	r3, #0
 8004c46:	d102      	bne.n	8004c4e <xQueueGenericSendFromISR+0x1e>
 8004c48:	f000 fc02 	bl	8005450 <ulPortSetInterruptMask>
 8004c4c:	e7fe      	b.n	8004c4c <xQueueGenericSendFromISR+0x1c>
	configASSERT( !( ( pvItemToQueue == NULL ) && ( pxQueue->uxItemSize != ( unsigned portBASE_TYPE ) 0U ) ) );
 8004c4e:	68bb      	ldr	r3, [r7, #8]
 8004c50:	2b00      	cmp	r3, #0
 8004c52:	d103      	bne.n	8004c5c <xQueueGenericSendFromISR+0x2c>
 8004c54:	69bb      	ldr	r3, [r7, #24]
 8004c56:	6c1b      	ldr	r3, [r3, #64]	; 0x40
 8004c58:	2b00      	cmp	r3, #0
 8004c5a:	d101      	bne.n	8004c60 <xQueueGenericSendFromISR+0x30>
 8004c5c:	2301      	movs	r3, #1
 8004c5e:	e000      	b.n	8004c62 <xQueueGenericSendFromISR+0x32>
 8004c60:	2300      	movs	r3, #0
 8004c62:	2b00      	cmp	r3, #0
 8004c64:	d102      	bne.n	8004c6c <xQueueGenericSendFromISR+0x3c>
 8004c66:	f000 fbf3 	bl	8005450 <ulPortSetInterruptMask>
 8004c6a:	e7fe      	b.n	8004c6a <xQueueGenericSendFromISR+0x3a>
	configASSERT( !( ( xCopyPosition == queueOVERWRITE ) && ( pxQueue->uxLength != 1 ) ) );
 8004c6c:	683b      	ldr	r3, [r7, #0]
 8004c6e:	2b02      	cmp	r3, #2
 8004c70:	d103      	bne.n	8004c7a <xQueueGenericSendFromISR+0x4a>
 8004c72:	69bb      	ldr	r3, [r7, #24]
 8004c74:	6bdb      	ldr	r3, [r3, #60]	; 0x3c
 8004c76:	2b01      	cmp	r3, #1
 8004c78:	d101      	bne.n	8004c7e <xQueueGenericSendFromISR+0x4e>
 8004c7a:	2301      	movs	r3, #1
 8004c7c:	e000      	b.n	8004c80 <xQueueGenericSendFromISR+0x50>
 8004c7e:	2300      	movs	r3, #0
 8004c80:	2b00      	cmp	r3, #0
 8004c82:	d102      	bne.n	8004c8a <xQueueGenericSendFromISR+0x5a>
 8004c84:	f000 fbe4 	bl	8005450 <ulPortSetInterruptMask>
 8004c88:	e7fe      	b.n	8004c88 <xQueueGenericSendFromISR+0x58>
	that have been assigned a priority at or (logically) below the maximum
	system call	interrupt priority.  FreeRTOS maintains a separate interrupt
	safe API to ensure interrupt entry is as fast and as simple as possible.
	More information (albeit Cortex-M specific) is provided on the following
	link: http://www.freertos.org/RTOS-Cortex-M3-M4.html */
	portASSERT_IF_INTERRUPT_PRIORITY_INVALID();
 8004c8a:	f000 fc4f 	bl	800552c <vPortValidateInterruptPriority>
	/* Similar to xQueueGenericSend, except we don't block if there is no room
	in the queue.  Also we don't directly wake a task that was blocked on a
	queue read, instead we return a flag to say whether a context switch is
	required or not (i.e. has a task with a higher priority than us been woken
	by this	post). */
	uxSavedInterruptStatus = portSET_INTERRUPT_MASK_FROM_ISR();
 8004c8e:	f000 fbdf 	bl	8005450 <ulPortSetInterruptMask>
 8004c92:	6178      	str	r0, [r7, #20]
	{
		if( ( pxQueue->uxMessagesWaiting < pxQueue->uxLength ) || ( xCopyPosition == queueOVERWRITE ) )
 8004c94:	69bb      	ldr	r3, [r7, #24]
 8004c96:	6b9a      	ldr	r2, [r3, #56]	; 0x38
 8004c98:	69bb      	ldr	r3, [r7, #24]
 8004c9a:	6bdb      	ldr	r3, [r3, #60]	; 0x3c
 8004c9c:	429a      	cmp	r2, r3
 8004c9e:	d302      	bcc.n	8004ca6 <xQueueGenericSendFromISR+0x76>
 8004ca0:	683b      	ldr	r3, [r7, #0]
 8004ca2:	2b02      	cmp	r3, #2
 8004ca4:	d124      	bne.n	8004cf0 <xQueueGenericSendFromISR+0xc0>
		{
			traceQUEUE_SEND_FROM_ISR( pxQueue );

			prvCopyDataToQueue( pxQueue, pvItemToQueue, xCopyPosition );
 8004ca6:	69b8      	ldr	r0, [r7, #24]
 8004ca8:	68b9      	ldr	r1, [r7, #8]
 8004caa:	683a      	ldr	r2, [r7, #0]
 8004cac:	f000 f8f8 	bl	8004ea0 <prvCopyDataToQueue>

			/* If the queue is locked we do not alter the event list.  This will
			be done when the queue is unlocked later. */
			if( pxQueue->xTxLock == queueUNLOCKED )
 8004cb0:	69bb      	ldr	r3, [r7, #24]
 8004cb2:	6c9b      	ldr	r3, [r3, #72]	; 0x48
 8004cb4:	f1b3 3fff 	cmp.w	r3, #4294967295	; 0xffffffff
 8004cb8:	d112      	bne.n	8004ce0 <xQueueGenericSendFromISR+0xb0>
						}
					}
				}
				#else /* configUSE_QUEUE_SETS */
				{
					if( listLIST_IS_EMPTY( &( pxQueue->xTasksWaitingToReceive ) ) == pdFALSE )
 8004cba:	69bb      	ldr	r3, [r7, #24]
 8004cbc:	6a5b      	ldr	r3, [r3, #36]	; 0x24
 8004cbe:	2b00      	cmp	r3, #0
 8004cc0:	d013      	beq.n	8004cea <xQueueGenericSendFromISR+0xba>
					{
						if( xTaskRemoveFromEventList( &( pxQueue->xTasksWaitingToReceive ) ) != pdFALSE )
 8004cc2:	69bb      	ldr	r3, [r7, #24]
 8004cc4:	3324      	adds	r3, #36	; 0x24
 8004cc6:	4618      	mov	r0, r3
 8004cc8:	f7ff fa2e 	bl	8004128 <xTaskRemoveFromEventList>
 8004ccc:	4603      	mov	r3, r0
 8004cce:	2b00      	cmp	r3, #0
 8004cd0:	d00b      	beq.n	8004cea <xQueueGenericSendFromISR+0xba>
						{
							/* The task waiting has a higher priority so record that a
							context	switch is required. */
							if( pxHigherPriorityTaskWoken != NULL )
 8004cd2:	687b      	ldr	r3, [r7, #4]
 8004cd4:	2b00      	cmp	r3, #0
 8004cd6:	d008      	beq.n	8004cea <xQueueGenericSendFromISR+0xba>
							{
								*pxHigherPriorityTaskWoken = pdTRUE;
 8004cd8:	687b      	ldr	r3, [r7, #4]
 8004cda:	2201      	movs	r2, #1
 8004cdc:	601a      	str	r2, [r3, #0]
 8004cde:	e004      	b.n	8004cea <xQueueGenericSendFromISR+0xba>
			}
			else
			{
				/* Increment the lock count so the task that unlocks the queue
				knows that data was posted while it was locked. */
				++( pxQueue->xTxLock );
 8004ce0:	69bb      	ldr	r3, [r7, #24]
 8004ce2:	6c9b      	ldr	r3, [r3, #72]	; 0x48
 8004ce4:	1c5a      	adds	r2, r3, #1
 8004ce6:	69bb      	ldr	r3, [r7, #24]
 8004ce8:	649a      	str	r2, [r3, #72]	; 0x48
			}

			xReturn = pdPASS;
 8004cea:	2301      	movs	r3, #1
 8004cec:	61fb      	str	r3, [r7, #28]
 8004cee:	e001      	b.n	8004cf4 <xQueueGenericSendFromISR+0xc4>
		}
		else
		{
			traceQUEUE_SEND_FROM_ISR_FAILED( pxQueue );
			xReturn = errQUEUE_FULL;
 8004cf0:	2300      	movs	r3, #0
 8004cf2:	61fb      	str	r3, [r7, #28]
		}
	}
	portCLEAR_INTERRUPT_MASK_FROM_ISR( uxSavedInterruptStatus );
 8004cf4:	6978      	ldr	r0, [r7, #20]
 8004cf6:	f000 fbb5 	bl	8005464 <vPortClearInterruptMask>

	return xReturn;
 8004cfa:	69fb      	ldr	r3, [r7, #28]
}
 8004cfc:	4618      	mov	r0, r3
 8004cfe:	3720      	adds	r7, #32
 8004d00:	46bd      	mov	sp, r7
 8004d02:	bd80      	pop	{r7, pc}

08004d04 <xQueueGenericReceive>:
/*-----------------------------------------------------------*/

signed portBASE_TYPE xQueueGenericReceive( xQueueHandle xQueue, const void * const pvBuffer, portTickType xTicksToWait, portBASE_TYPE xJustPeeking )
{
 8004d04:	b580      	push	{r7, lr}
 8004d06:	b08a      	sub	sp, #40	; 0x28
 8004d08:	af00      	add	r7, sp, #0
 8004d0a:	60f8      	str	r0, [r7, #12]
 8004d0c:	60b9      	str	r1, [r7, #8]
 8004d0e:	607a      	str	r2, [r7, #4]
 8004d10:	603b      	str	r3, [r7, #0]
signed portBASE_TYPE xEntryTimeSet = pdFALSE;
 8004d12:	2300      	movs	r3, #0
 8004d14:	627b      	str	r3, [r7, #36]	; 0x24
xTimeOutType xTimeOut;
signed char *pcOriginalReadPosition;
xQUEUE * const pxQueue = ( xQUEUE * ) xQueue;
 8004d16:	68fb      	ldr	r3, [r7, #12]
 8004d18:	623b      	str	r3, [r7, #32]

	configASSERT( pxQueue );
 8004d1a:	6a3b      	ldr	r3, [r7, #32]
 8004d1c:	2b00      	cmp	r3, #0
 8004d1e:	d102      	bne.n	8004d26 <xQueueGenericReceive+0x22>
 8004d20:	f000 fb96 	bl	8005450 <ulPortSetInterruptMask>
 8004d24:	e7fe      	b.n	8004d24 <xQueueGenericReceive+0x20>
	configASSERT( !( ( pvBuffer == NULL ) && ( pxQueue->uxItemSize != ( unsigned portBASE_TYPE ) 0U ) ) );
 8004d26:	68bb      	ldr	r3, [r7, #8]
 8004d28:	2b00      	cmp	r3, #0
 8004d2a:	d103      	bne.n	8004d34 <xQueueGenericReceive+0x30>
 8004d2c:	6a3b      	ldr	r3, [r7, #32]
 8004d2e:	6c1b      	ldr	r3, [r3, #64]	; 0x40
 8004d30:	2b00      	cmp	r3, #0
 8004d32:	d101      	bne.n	8004d38 <xQueueGenericReceive+0x34>
 8004d34:	2301      	movs	r3, #1
 8004d36:	e000      	b.n	8004d3a <xQueueGenericReceive+0x36>
 8004d38:	2300      	movs	r3, #0
 8004d3a:	2b00      	cmp	r3, #0
 8004d3c:	d102      	bne.n	8004d44 <xQueueGenericReceive+0x40>
 8004d3e:	f000 fb87 	bl	8005450 <ulPortSetInterruptMask>
 8004d42:	e7fe      	b.n	8004d42 <xQueueGenericReceive+0x3e>
	statements within the function itself.  This is done in the interest
	of execution time efficiency. */

	for( ;; )
	{
		taskENTER_CRITICAL();
 8004d44:	f000 fb62 	bl	800540c <vPortEnterCritical>
		{
			/* Is there data in the queue now?  To be running we must be
			the highest priority task wanting to access the queue. */
			if( pxQueue->uxMessagesWaiting > ( unsigned portBASE_TYPE ) 0 )
 8004d48:	6a3b      	ldr	r3, [r7, #32]
 8004d4a:	6b9b      	ldr	r3, [r3, #56]	; 0x38
 8004d4c:	2b00      	cmp	r3, #0
 8004d4e:	d03b      	beq.n	8004dc8 <xQueueGenericReceive+0xc4>
			{
				/* Remember the read position in case the queue is only being
				peeked. */
				pcOriginalReadPosition = pxQueue->u.pcReadFrom;
 8004d50:	6a3b      	ldr	r3, [r7, #32]
 8004d52:	68db      	ldr	r3, [r3, #12]
 8004d54:	61fb      	str	r3, [r7, #28]

				prvCopyDataFromQueue( pxQueue, pvBuffer );
 8004d56:	6a38      	ldr	r0, [r7, #32]
 8004d58:	68b9      	ldr	r1, [r7, #8]
 8004d5a:	f000 f909 	bl	8004f70 <prvCopyDataFromQueue>

				if( xJustPeeking == pdFALSE )
 8004d5e:	683b      	ldr	r3, [r7, #0]
 8004d60:	2b00      	cmp	r3, #0
 8004d62:	d11c      	bne.n	8004d9e <xQueueGenericReceive+0x9a>
				{
					traceQUEUE_RECEIVE( pxQueue );

					/* Actually removing data, not just peeking. */
					--( pxQueue->uxMessagesWaiting );
 8004d64:	6a3b      	ldr	r3, [r7, #32]
 8004d66:	6b9b      	ldr	r3, [r3, #56]	; 0x38
 8004d68:	1e5a      	subs	r2, r3, #1
 8004d6a:	6a3b      	ldr	r3, [r7, #32]
 8004d6c:	639a      	str	r2, [r3, #56]	; 0x38

					#if ( configUSE_MUTEXES == 1 )
					{
						if( pxQueue->uxQueueType == queueQUEUE_IS_MUTEX )
 8004d6e:	6a3b      	ldr	r3, [r7, #32]
 8004d70:	681b      	ldr	r3, [r3, #0]
 8004d72:	2b00      	cmp	r3, #0
 8004d74:	d104      	bne.n	8004d80 <xQueueGenericReceive+0x7c>
						{
							/* Record the information required to implement
							priority inheritance should it become necessary. */
							pxQueue->pxMutexHolder = ( signed char * ) xTaskGetCurrentTaskHandle(); /*lint !e961 Cast is not redundant as xTaskHandle is a typedef. */
 8004d76:	f7ff fc8d 	bl	8004694 <xTaskGetCurrentTaskHandle>
 8004d7a:	4602      	mov	r2, r0
 8004d7c:	6a3b      	ldr	r3, [r7, #32]
 8004d7e:	605a      	str	r2, [r3, #4]
						}
					}
					#endif

					if( listLIST_IS_EMPTY( &( pxQueue->xTasksWaitingToSend ) ) == pdFALSE )
 8004d80:	6a3b      	ldr	r3, [r7, #32]
 8004d82:	691b      	ldr	r3, [r3, #16]
 8004d84:	2b00      	cmp	r3, #0
 8004d86:	d01b      	beq.n	8004dc0 <xQueueGenericReceive+0xbc>
					{
						if( xTaskRemoveFromEventList( &( pxQueue->xTasksWaitingToSend ) ) == pdTRUE )
 8004d88:	6a3b      	ldr	r3, [r7, #32]
 8004d8a:	3310      	adds	r3, #16
 8004d8c:	4618      	mov	r0, r3
 8004d8e:	f7ff f9cb 	bl	8004128 <xTaskRemoveFromEventList>
 8004d92:	4603      	mov	r3, r0
 8004d94:	2b01      	cmp	r3, #1
 8004d96:	d113      	bne.n	8004dc0 <xQueueGenericReceive+0xbc>
						{
							portYIELD_WITHIN_API();
 8004d98:	f000 fb28 	bl	80053ec <vPortYield>
 8004d9c:	e010      	b.n	8004dc0 <xQueueGenericReceive+0xbc>
				{
					traceQUEUE_PEEK( pxQueue );

					/* The data is not being removed, so reset the read
					pointer. */
					pxQueue->u.pcReadFrom = pcOriginalReadPosition;
 8004d9e:	6a3b      	ldr	r3, [r7, #32]
 8004da0:	69fa      	ldr	r2, [r7, #28]
 8004da2:	60da      	str	r2, [r3, #12]

					/* The data is being left in the queue, so see if there are
					any other tasks waiting for the data. */
					if( listLIST_IS_EMPTY( &( pxQueue->xTasksWaitingToReceive ) ) == pdFALSE )
 8004da4:	6a3b      	ldr	r3, [r7, #32]
 8004da6:	6a5b      	ldr	r3, [r3, #36]	; 0x24
 8004da8:	2b00      	cmp	r3, #0
 8004daa:	d009      	beq.n	8004dc0 <xQueueGenericReceive+0xbc>
					{
						/* Tasks that are removed from the event list will get added to
						the pending ready list as the scheduler is still suspended. */
						if( xTaskRemoveFromEventList( &( pxQueue->xTasksWaitingToReceive ) ) != pdFALSE )
 8004dac:	6a3b      	ldr	r3, [r7, #32]
 8004dae:	3324      	adds	r3, #36	; 0x24
 8004db0:	4618      	mov	r0, r3
 8004db2:	f7ff f9b9 	bl	8004128 <xTaskRemoveFromEventList>
 8004db6:	4603      	mov	r3, r0
 8004db8:	2b00      	cmp	r3, #0
 8004dba:	d001      	beq.n	8004dc0 <xQueueGenericReceive+0xbc>
						{
							/* The task waiting has a higher priority than this task. */
							portYIELD_WITHIN_API();
 8004dbc:	f000 fb16 	bl	80053ec <vPortYield>
						}
					}
				}

				taskEXIT_CRITICAL();
 8004dc0:	f000 fb34 	bl	800542c <vPortExitCritical>
				return pdPASS;
 8004dc4:	2301      	movs	r3, #1
 8004dc6:	e066      	b.n	8004e96 <xQueueGenericReceive+0x192>
			}
			else
			{
				if( xTicksToWait == ( portTickType ) 0 )
 8004dc8:	687b      	ldr	r3, [r7, #4]
 8004dca:	2b00      	cmp	r3, #0
 8004dcc:	d103      	bne.n	8004dd6 <xQueueGenericReceive+0xd2>
				{
					/* The queue was empty and no block time is specified (or
					the block time has expired) so leave now. */
					taskEXIT_CRITICAL();
 8004dce:	f000 fb2d 	bl	800542c <vPortExitCritical>
					traceQUEUE_RECEIVE_FAILED( pxQueue );
					return errQUEUE_EMPTY;
 8004dd2:	2300      	movs	r3, #0
 8004dd4:	e05f      	b.n	8004e96 <xQueueGenericReceive+0x192>
				}
				else if( xEntryTimeSet == pdFALSE )
 8004dd6:	6a7b      	ldr	r3, [r7, #36]	; 0x24
 8004dd8:	2b00      	cmp	r3, #0
 8004dda:	d106      	bne.n	8004dea <xQueueGenericReceive+0xe6>
				{
					/* The queue was empty and a block time was specified so
					configure the timeout structure. */
					vTaskSetTimeOutState( &xTimeOut );
 8004ddc:	f107 0314 	add.w	r3, r7, #20
 8004de0:	4618      	mov	r0, r3
 8004de2:	f7ff f9fd 	bl	80041e0 <vTaskSetTimeOutState>
					xEntryTimeSet = pdTRUE;
 8004de6:	2301      	movs	r3, #1
 8004de8:	627b      	str	r3, [r7, #36]	; 0x24
				{
					/* Entry time was already set. */
				}
			}
		}
		taskEXIT_CRITICAL();
 8004dea:	f000 fb1f 	bl	800542c <vPortExitCritical>

		/* Interrupts and other tasks can send to and receive from the queue
		now the critical section has been exited. */

		vTaskSuspendAll();
 8004dee:	f7fe fecb 	bl	8003b88 <vTaskSuspendAll>
		prvLockQueue( pxQueue );
 8004df2:	f000 fb0b 	bl	800540c <vPortEnterCritical>
 8004df6:	6a3b      	ldr	r3, [r7, #32]
 8004df8:	6c5b      	ldr	r3, [r3, #68]	; 0x44
 8004dfa:	f1b3 3fff 	cmp.w	r3, #4294967295	; 0xffffffff
 8004dfe:	d102      	bne.n	8004e06 <xQueueGenericReceive+0x102>
 8004e00:	6a3b      	ldr	r3, [r7, #32]
 8004e02:	2200      	movs	r2, #0
 8004e04:	645a      	str	r2, [r3, #68]	; 0x44
 8004e06:	6a3b      	ldr	r3, [r7, #32]
 8004e08:	6c9b      	ldr	r3, [r3, #72]	; 0x48
 8004e0a:	f1b3 3fff 	cmp.w	r3, #4294967295	; 0xffffffff
 8004e0e:	d102      	bne.n	8004e16 <xQueueGenericReceive+0x112>
 8004e10:	6a3b      	ldr	r3, [r7, #32]
 8004e12:	2200      	movs	r2, #0
 8004e14:	649a      	str	r2, [r3, #72]	; 0x48
 8004e16:	f000 fb09 	bl	800542c <vPortExitCritical>

		/* Update the timeout state to see if it has expired yet. */
		if( xTaskCheckForTimeOut( &xTimeOut, &xTicksToWait ) == pdFALSE )
 8004e1a:	f107 0214 	add.w	r2, r7, #20
 8004e1e:	1d3b      	adds	r3, r7, #4
 8004e20:	4610      	mov	r0, r2
 8004e22:	4619      	mov	r1, r3
 8004e24:	f7ff f9f6 	bl	8004214 <xTaskCheckForTimeOut>
 8004e28:	4603      	mov	r3, r0
 8004e2a:	2b00      	cmp	r3, #0
 8004e2c:	d12b      	bne.n	8004e86 <xQueueGenericReceive+0x182>
		{
			if( prvIsQueueEmpty( pxQueue ) != pdFALSE )
 8004e2e:	6a38      	ldr	r0, [r7, #32]
 8004e30:	f000 f910 	bl	8005054 <prvIsQueueEmpty>
 8004e34:	4603      	mov	r3, r0
 8004e36:	2b00      	cmp	r3, #0
 8004e38:	d01f      	beq.n	8004e7a <xQueueGenericReceive+0x176>
			{
				traceBLOCKING_ON_QUEUE_RECEIVE( pxQueue );

				#if ( configUSE_MUTEXES == 1 )
				{
					if( pxQueue->uxQueueType == queueQUEUE_IS_MUTEX )
 8004e3a:	6a3b      	ldr	r3, [r7, #32]
 8004e3c:	681b      	ldr	r3, [r3, #0]
 8004e3e:	2b00      	cmp	r3, #0
 8004e40:	d108      	bne.n	8004e54 <xQueueGenericReceive+0x150>
					{
						portENTER_CRITICAL();
 8004e42:	f000 fae3 	bl	800540c <vPortEnterCritical>
						{
							vTaskPriorityInherit( ( void * ) pxQueue->pxMutexHolder );
 8004e46:	6a3b      	ldr	r3, [r7, #32]
 8004e48:	685b      	ldr	r3, [r3, #4]
 8004e4a:	4618      	mov	r0, r3
 8004e4c:	f7ff fc50 	bl	80046f0 <vTaskPriorityInherit>
						}
						portEXIT_CRITICAL();
 8004e50:	f000 faec 	bl	800542c <vPortExitCritical>
					}
				}
				#endif

				vTaskPlaceOnEventList( &( pxQueue->xTasksWaitingToReceive ), xTicksToWait );
 8004e54:	6a3b      	ldr	r3, [r7, #32]
 8004e56:	f103 0224 	add.w	r2, r3, #36	; 0x24
 8004e5a:	687b      	ldr	r3, [r7, #4]
 8004e5c:	4610      	mov	r0, r2
 8004e5e:	4619      	mov	r1, r3
 8004e60:	f7ff f904 	bl	800406c <vTaskPlaceOnEventList>
				prvUnlockQueue( pxQueue );
 8004e64:	6a38      	ldr	r0, [r7, #32]
 8004e66:	f000 f8a9 	bl	8004fbc <prvUnlockQueue>
				if( xTaskResumeAll() == pdFALSE )
 8004e6a:	f7fe fe9b 	bl	8003ba4 <xTaskResumeAll>
 8004e6e:	4603      	mov	r3, r0
 8004e70:	2b00      	cmp	r3, #0
 8004e72:	d10f      	bne.n	8004e94 <xQueueGenericReceive+0x190>
				{
					portYIELD_WITHIN_API();
 8004e74:	f000 faba 	bl	80053ec <vPortYield>
 8004e78:	e00c      	b.n	8004e94 <xQueueGenericReceive+0x190>
				}
			}
			else
			{
				/* Try again. */
				prvUnlockQueue( pxQueue );
 8004e7a:	6a38      	ldr	r0, [r7, #32]
 8004e7c:	f000 f89e 	bl	8004fbc <prvUnlockQueue>
				( void ) xTaskResumeAll();
 8004e80:	f7fe fe90 	bl	8003ba4 <xTaskResumeAll>
			prvUnlockQueue( pxQueue );
			( void ) xTaskResumeAll();
			traceQUEUE_RECEIVE_FAILED( pxQueue );
			return errQUEUE_EMPTY;
		}
	}
 8004e84:	e75e      	b.n	8004d44 <xQueueGenericReceive+0x40>
				( void ) xTaskResumeAll();
			}
		}
		else
		{
			prvUnlockQueue( pxQueue );
 8004e86:	6a38      	ldr	r0, [r7, #32]
 8004e88:	f000 f898 	bl	8004fbc <prvUnlockQueue>
			( void ) xTaskResumeAll();
 8004e8c:	f7fe fe8a 	bl	8003ba4 <xTaskResumeAll>
			traceQUEUE_RECEIVE_FAILED( pxQueue );
			return errQUEUE_EMPTY;
 8004e90:	2300      	movs	r3, #0
 8004e92:	e000      	b.n	8004e96 <xQueueGenericReceive+0x192>
		}
	}
 8004e94:	e756      	b.n	8004d44 <xQueueGenericReceive+0x40>
}
 8004e96:	4618      	mov	r0, r3
 8004e98:	3728      	adds	r7, #40	; 0x28
 8004e9a:	46bd      	mov	sp, r7
 8004e9c:	bd80      	pop	{r7, pc}
 8004e9e:	bf00      	nop

08004ea0 <prvCopyDataToQueue>:

#endif /* configUSE_TRACE_FACILITY */
/*-----------------------------------------------------------*/

static void prvCopyDataToQueue( xQUEUE *pxQueue, const void *pvItemToQueue, portBASE_TYPE xPosition )
{
 8004ea0:	b580      	push	{r7, lr}
 8004ea2:	b084      	sub	sp, #16
 8004ea4:	af00      	add	r7, sp, #0
 8004ea6:	60f8      	str	r0, [r7, #12]
 8004ea8:	60b9      	str	r1, [r7, #8]
 8004eaa:	607a      	str	r2, [r7, #4]
	if( pxQueue->uxItemSize == ( unsigned portBASE_TYPE ) 0 )
 8004eac:	68fb      	ldr	r3, [r7, #12]
 8004eae:	6c1b      	ldr	r3, [r3, #64]	; 0x40
 8004eb0:	2b00      	cmp	r3, #0
 8004eb2:	d10c      	bne.n	8004ece <prvCopyDataToQueue+0x2e>
	{
		#if ( configUSE_MUTEXES == 1 )
		{
			if( pxQueue->uxQueueType == queueQUEUE_IS_MUTEX )
 8004eb4:	68fb      	ldr	r3, [r7, #12]
 8004eb6:	681b      	ldr	r3, [r3, #0]
 8004eb8:	2b00      	cmp	r3, #0
 8004eba:	d151      	bne.n	8004f60 <prvCopyDataToQueue+0xc0>
			{
				/* The mutex is no longer being held. */
				vTaskPriorityDisinherit( ( void * ) pxQueue->pxMutexHolder );
 8004ebc:	68fb      	ldr	r3, [r7, #12]
 8004ebe:	685b      	ldr	r3, [r3, #4]
 8004ec0:	4618      	mov	r0, r3
 8004ec2:	f7ff fc6f 	bl	80047a4 <vTaskPriorityDisinherit>
				pxQueue->pxMutexHolder = NULL;
 8004ec6:	68fb      	ldr	r3, [r7, #12]
 8004ec8:	2200      	movs	r2, #0
 8004eca:	605a      	str	r2, [r3, #4]
 8004ecc:	e048      	b.n	8004f60 <prvCopyDataToQueue+0xc0>
			}
		}
		#endif /* configUSE_MUTEXES */
	}
	else if( xPosition == queueSEND_TO_BACK )
 8004ece:	687b      	ldr	r3, [r7, #4]
 8004ed0:	2b00      	cmp	r3, #0
 8004ed2:	d11a      	bne.n	8004f0a <prvCopyDataToQueue+0x6a>
	{
		( void ) memcpy( ( void * ) pxQueue->pcWriteTo, pvItemToQueue, ( size_t ) pxQueue->uxItemSize ); /*lint !e961 !e418 MISRA exception as the casts are only redundant for some ports, plus previous logic ensures a null pointer can only be passed to memcpy() if the copy size is 0. */
 8004ed4:	68fb      	ldr	r3, [r7, #12]
 8004ed6:	689a      	ldr	r2, [r3, #8]
 8004ed8:	68fb      	ldr	r3, [r7, #12]
 8004eda:	6c1b      	ldr	r3, [r3, #64]	; 0x40
 8004edc:	4610      	mov	r0, r2
 8004ede:	68b9      	ldr	r1, [r7, #8]
 8004ee0:	461a      	mov	r2, r3
 8004ee2:	f7fb f97b 	bl	80001dc <memcpy>
		pxQueue->pcWriteTo += pxQueue->uxItemSize;
 8004ee6:	68fb      	ldr	r3, [r7, #12]
 8004ee8:	689a      	ldr	r2, [r3, #8]
 8004eea:	68fb      	ldr	r3, [r7, #12]
 8004eec:	6c1b      	ldr	r3, [r3, #64]	; 0x40
 8004eee:	441a      	add	r2, r3
 8004ef0:	68fb      	ldr	r3, [r7, #12]
 8004ef2:	609a      	str	r2, [r3, #8]
		if( pxQueue->pcWriteTo >= pxQueue->pcTail ) /*lint !e946 MISRA exception justified as comparison of pointers is the cleanest solution. */
 8004ef4:	68fb      	ldr	r3, [r7, #12]
 8004ef6:	689a      	ldr	r2, [r3, #8]
 8004ef8:	68fb      	ldr	r3, [r7, #12]
 8004efa:	685b      	ldr	r3, [r3, #4]
 8004efc:	429a      	cmp	r2, r3
 8004efe:	d32f      	bcc.n	8004f60 <prvCopyDataToQueue+0xc0>
		{
			pxQueue->pcWriteTo = pxQueue->pcHead;
 8004f00:	68fb      	ldr	r3, [r7, #12]
 8004f02:	681a      	ldr	r2, [r3, #0]
 8004f04:	68fb      	ldr	r3, [r7, #12]
 8004f06:	609a      	str	r2, [r3, #8]
 8004f08:	e02a      	b.n	8004f60 <prvCopyDataToQueue+0xc0>
		}
	}
	else
	{
		( void ) memcpy( ( void * ) pxQueue->u.pcReadFrom, pvItemToQueue, ( size_t ) pxQueue->uxItemSize ); /*lint !e961 MISRA exception as the casts are only redundant for some ports. */
 8004f0a:	68fb      	ldr	r3, [r7, #12]
 8004f0c:	68da      	ldr	r2, [r3, #12]
 8004f0e:	68fb      	ldr	r3, [r7, #12]
 8004f10:	6c1b      	ldr	r3, [r3, #64]	; 0x40
 8004f12:	4610      	mov	r0, r2
 8004f14:	68b9      	ldr	r1, [r7, #8]
 8004f16:	461a      	mov	r2, r3
 8004f18:	f7fb f960 	bl	80001dc <memcpy>
		pxQueue->u.pcReadFrom -= pxQueue->uxItemSize;
 8004f1c:	68fb      	ldr	r3, [r7, #12]
 8004f1e:	68da      	ldr	r2, [r3, #12]
 8004f20:	68fb      	ldr	r3, [r7, #12]
 8004f22:	6c1b      	ldr	r3, [r3, #64]	; 0x40
 8004f24:	425b      	negs	r3, r3
 8004f26:	441a      	add	r2, r3
 8004f28:	68fb      	ldr	r3, [r7, #12]
 8004f2a:	60da      	str	r2, [r3, #12]
		if( pxQueue->u.pcReadFrom < pxQueue->pcHead ) /*lint !e946 MISRA exception justified as comparison of pointers is the cleanest solution. */
 8004f2c:	68fb      	ldr	r3, [r7, #12]
 8004f2e:	68da      	ldr	r2, [r3, #12]
 8004f30:	68fb      	ldr	r3, [r7, #12]
 8004f32:	681b      	ldr	r3, [r3, #0]
 8004f34:	429a      	cmp	r2, r3
 8004f36:	d207      	bcs.n	8004f48 <prvCopyDataToQueue+0xa8>
		{
			pxQueue->u.pcReadFrom = ( pxQueue->pcTail - pxQueue->uxItemSize );
 8004f38:	68fb      	ldr	r3, [r7, #12]
 8004f3a:	685a      	ldr	r2, [r3, #4]
 8004f3c:	68fb      	ldr	r3, [r7, #12]
 8004f3e:	6c1b      	ldr	r3, [r3, #64]	; 0x40
 8004f40:	425b      	negs	r3, r3
 8004f42:	441a      	add	r2, r3
 8004f44:	68fb      	ldr	r3, [r7, #12]
 8004f46:	60da      	str	r2, [r3, #12]
		}

		if( xPosition == queueOVERWRITE )
 8004f48:	687b      	ldr	r3, [r7, #4]
 8004f4a:	2b02      	cmp	r3, #2
 8004f4c:	d108      	bne.n	8004f60 <prvCopyDataToQueue+0xc0>
		{
			if( pxQueue->uxMessagesWaiting > ( unsigned portBASE_TYPE ) 0 )
 8004f4e:	68fb      	ldr	r3, [r7, #12]
 8004f50:	6b9b      	ldr	r3, [r3, #56]	; 0x38
 8004f52:	2b00      	cmp	r3, #0
 8004f54:	d004      	beq.n	8004f60 <prvCopyDataToQueue+0xc0>
			{
				/* An item is not being added but overwritten, so subtract
				one from the recorded number of items in the queue so when
				one is added again below the number of recorded items remains
				correct. */
				--( pxQueue->uxMessagesWaiting );
 8004f56:	68fb      	ldr	r3, [r7, #12]
 8004f58:	6b9b      	ldr	r3, [r3, #56]	; 0x38
 8004f5a:	1e5a      	subs	r2, r3, #1
 8004f5c:	68fb      	ldr	r3, [r7, #12]
 8004f5e:	639a      	str	r2, [r3, #56]	; 0x38
			}
		}
	}

	++( pxQueue->uxMessagesWaiting );
 8004f60:	68fb      	ldr	r3, [r7, #12]
 8004f62:	6b9b      	ldr	r3, [r3, #56]	; 0x38
 8004f64:	1c5a      	adds	r2, r3, #1
 8004f66:	68fb      	ldr	r3, [r7, #12]
 8004f68:	639a      	str	r2, [r3, #56]	; 0x38
}
 8004f6a:	3710      	adds	r7, #16
 8004f6c:	46bd      	mov	sp, r7
 8004f6e:	bd80      	pop	{r7, pc}

08004f70 <prvCopyDataFromQueue>:
/*-----------------------------------------------------------*/

static void prvCopyDataFromQueue( xQUEUE * const pxQueue, const void * const pvBuffer )
{
 8004f70:	b580      	push	{r7, lr}
 8004f72:	b082      	sub	sp, #8
 8004f74:	af00      	add	r7, sp, #0
 8004f76:	6078      	str	r0, [r7, #4]
 8004f78:	6039      	str	r1, [r7, #0]
	if( pxQueue->uxQueueType != queueQUEUE_IS_MUTEX )
 8004f7a:	687b      	ldr	r3, [r7, #4]
 8004f7c:	681b      	ldr	r3, [r3, #0]
 8004f7e:	2b00      	cmp	r3, #0
 8004f80:	d019      	beq.n	8004fb6 <prvCopyDataFromQueue+0x46>
	{
		pxQueue->u.pcReadFrom += pxQueue->uxItemSize;
 8004f82:	687b      	ldr	r3, [r7, #4]
 8004f84:	68da      	ldr	r2, [r3, #12]
 8004f86:	687b      	ldr	r3, [r7, #4]
 8004f88:	6c1b      	ldr	r3, [r3, #64]	; 0x40
 8004f8a:	441a      	add	r2, r3
 8004f8c:	687b      	ldr	r3, [r7, #4]
 8004f8e:	60da      	str	r2, [r3, #12]
		if( pxQueue->u.pcReadFrom >= pxQueue->pcTail ) /*lint !e946 MISRA exception justified as use of the relational operator is the cleanest solutions. */
 8004f90:	687b      	ldr	r3, [r7, #4]
 8004f92:	68da      	ldr	r2, [r3, #12]
 8004f94:	687b      	ldr	r3, [r7, #4]
 8004f96:	685b      	ldr	r3, [r3, #4]
 8004f98:	429a      	cmp	r2, r3
 8004f9a:	d303      	bcc.n	8004fa4 <prvCopyDataFromQueue+0x34>
		{
			pxQueue->u.pcReadFrom = pxQueue->pcHead;
 8004f9c:	687b      	ldr	r3, [r7, #4]
 8004f9e:	681a      	ldr	r2, [r3, #0]
 8004fa0:	687b      	ldr	r3, [r7, #4]
 8004fa2:	60da      	str	r2, [r3, #12]
		}
		( void ) memcpy( ( void * ) pvBuffer, ( void * ) pxQueue->u.pcReadFrom, ( size_t ) pxQueue->uxItemSize ); /*lint !e961 !e418 MISRA exception as the casts are only redundant for some ports.  Also previous logic ensures a null pointer can only be passed to memcpy() when the count is 0. */
 8004fa4:	687b      	ldr	r3, [r7, #4]
 8004fa6:	68da      	ldr	r2, [r3, #12]
 8004fa8:	687b      	ldr	r3, [r7, #4]
 8004faa:	6c1b      	ldr	r3, [r3, #64]	; 0x40
 8004fac:	6838      	ldr	r0, [r7, #0]
 8004fae:	4611      	mov	r1, r2
 8004fb0:	461a      	mov	r2, r3
 8004fb2:	f7fb f913 	bl	80001dc <memcpy>
	}
}
 8004fb6:	3708      	adds	r7, #8
 8004fb8:	46bd      	mov	sp, r7
 8004fba:	bd80      	pop	{r7, pc}

08004fbc <prvUnlockQueue>:
/*-----------------------------------------------------------*/

static void prvUnlockQueue( xQUEUE *pxQueue )
{
 8004fbc:	b580      	push	{r7, lr}
 8004fbe:	b082      	sub	sp, #8
 8004fc0:	af00      	add	r7, sp, #0
 8004fc2:	6078      	str	r0, [r7, #4]

	/* The lock counts contains the number of extra data items placed or
	removed from the queue while the queue was locked.  When a queue is
	locked items can be added or removed, but the event lists cannot be
	updated. */
	taskENTER_CRITICAL();
 8004fc4:	f000 fa22 	bl	800540c <vPortEnterCritical>
	{
		/* See if data was added to the queue while it was locked. */
		while( pxQueue->xTxLock > queueLOCKED_UNMODIFIED )
 8004fc8:	e014      	b.n	8004ff4 <prvUnlockQueue+0x38>
			}
			#else /* configUSE_QUEUE_SETS */
			{
				/* Tasks that are removed from the event list will get added to
				the pending ready list as the scheduler is still suspended. */
				if( listLIST_IS_EMPTY( &( pxQueue->xTasksWaitingToReceive ) ) == pdFALSE )
 8004fca:	687b      	ldr	r3, [r7, #4]
 8004fcc:	6a5b      	ldr	r3, [r3, #36]	; 0x24
 8004fce:	2b00      	cmp	r3, #0
 8004fd0:	d00a      	beq.n	8004fe8 <prvUnlockQueue+0x2c>
				{
					if( xTaskRemoveFromEventList( &( pxQueue->xTasksWaitingToReceive ) ) != pdFALSE )
 8004fd2:	687b      	ldr	r3, [r7, #4]
 8004fd4:	3324      	adds	r3, #36	; 0x24
 8004fd6:	4618      	mov	r0, r3
 8004fd8:	f7ff f8a6 	bl	8004128 <xTaskRemoveFromEventList>
 8004fdc:	4603      	mov	r3, r0
 8004fde:	2b00      	cmp	r3, #0
 8004fe0:	d003      	beq.n	8004fea <prvUnlockQueue+0x2e>
					{
						/* The task waiting has a higher priority so record that a
						context	switch is required. */
						vTaskMissedYield();
 8004fe2:	f7ff f967 	bl	80042b4 <vTaskMissedYield>
 8004fe6:	e000      	b.n	8004fea <prvUnlockQueue+0x2e>
					}
				}
				else
				{
					break;
 8004fe8:	e008      	b.n	8004ffc <prvUnlockQueue+0x40>
				}
			}
			#endif /* configUSE_QUEUE_SETS */

			--( pxQueue->xTxLock );
 8004fea:	687b      	ldr	r3, [r7, #4]
 8004fec:	6c9b      	ldr	r3, [r3, #72]	; 0x48
 8004fee:	1e5a      	subs	r2, r3, #1
 8004ff0:	687b      	ldr	r3, [r7, #4]
 8004ff2:	649a      	str	r2, [r3, #72]	; 0x48
	locked items can be added or removed, but the event lists cannot be
	updated. */
	taskENTER_CRITICAL();
	{
		/* See if data was added to the queue while it was locked. */
		while( pxQueue->xTxLock > queueLOCKED_UNMODIFIED )
 8004ff4:	687b      	ldr	r3, [r7, #4]
 8004ff6:	6c9b      	ldr	r3, [r3, #72]	; 0x48
 8004ff8:	2b00      	cmp	r3, #0
 8004ffa:	dce6      	bgt.n	8004fca <prvUnlockQueue+0xe>
			#endif /* configUSE_QUEUE_SETS */

			--( pxQueue->xTxLock );
		}

		pxQueue->xTxLock = queueUNLOCKED;
 8004ffc:	687b      	ldr	r3, [r7, #4]
 8004ffe:	f04f 32ff 	mov.w	r2, #4294967295	; 0xffffffff
 8005002:	649a      	str	r2, [r3, #72]	; 0x48
	}
	taskEXIT_CRITICAL();
 8005004:	f000 fa12 	bl	800542c <vPortExitCritical>

	/* Do the same for the Rx lock. */
	taskENTER_CRITICAL();
 8005008:	f000 fa00 	bl	800540c <vPortEnterCritical>
	{
		while( pxQueue->xRxLock > queueLOCKED_UNMODIFIED )
 800500c:	e014      	b.n	8005038 <prvUnlockQueue+0x7c>
		{
			if( listLIST_IS_EMPTY( &( pxQueue->xTasksWaitingToSend ) ) == pdFALSE )
 800500e:	687b      	ldr	r3, [r7, #4]
 8005010:	691b      	ldr	r3, [r3, #16]
 8005012:	2b00      	cmp	r3, #0
 8005014:	d00f      	beq.n	8005036 <prvUnlockQueue+0x7a>
			{
				if( xTaskRemoveFromEventList( &( pxQueue->xTasksWaitingToSend ) ) != pdFALSE )
 8005016:	687b      	ldr	r3, [r7, #4]
 8005018:	3310      	adds	r3, #16
 800501a:	4618      	mov	r0, r3
 800501c:	f7ff f884 	bl	8004128 <xTaskRemoveFromEventList>
 8005020:	4603      	mov	r3, r0
 8005022:	2b00      	cmp	r3, #0
 8005024:	d001      	beq.n	800502a <prvUnlockQueue+0x6e>
				{
					vTaskMissedYield();
 8005026:	f7ff f945 	bl	80042b4 <vTaskMissedYield>
				}

				--( pxQueue->xRxLock );
 800502a:	687b      	ldr	r3, [r7, #4]
 800502c:	6c5b      	ldr	r3, [r3, #68]	; 0x44
 800502e:	1e5a      	subs	r2, r3, #1
 8005030:	687b      	ldr	r3, [r7, #4]
 8005032:	645a      	str	r2, [r3, #68]	; 0x44
 8005034:	e000      	b.n	8005038 <prvUnlockQueue+0x7c>
			}
			else
			{
				break;
 8005036:	e003      	b.n	8005040 <prvUnlockQueue+0x84>
	taskEXIT_CRITICAL();

	/* Do the same for the Rx lock. */
	taskENTER_CRITICAL();
	{
		while( pxQueue->xRxLock > queueLOCKED_UNMODIFIED )
 8005038:	687b      	ldr	r3, [r7, #4]
 800503a:	6c5b      	ldr	r3, [r3, #68]	; 0x44
 800503c:	2b00      	cmp	r3, #0
 800503e:	dce6      	bgt.n	800500e <prvUnlockQueue+0x52>
			{
				break;
			}
		}

		pxQueue->xRxLock = queueUNLOCKED;
 8005040:	687b      	ldr	r3, [r7, #4]
 8005042:	f04f 32ff 	mov.w	r2, #4294967295	; 0xffffffff
 8005046:	645a      	str	r2, [r3, #68]	; 0x44
	}
	taskEXIT_CRITICAL();
 8005048:	f000 f9f0 	bl	800542c <vPortExitCritical>
}
 800504c:	3708      	adds	r7, #8
 800504e:	46bd      	mov	sp, r7
 8005050:	bd80      	pop	{r7, pc}
 8005052:	bf00      	nop

08005054 <prvIsQueueEmpty>:
/*-----------------------------------------------------------*/

static signed portBASE_TYPE prvIsQueueEmpty( const xQUEUE *pxQueue )
{
 8005054:	b580      	push	{r7, lr}
 8005056:	b084      	sub	sp, #16
 8005058:	af00      	add	r7, sp, #0
 800505a:	6078      	str	r0, [r7, #4]
signed portBASE_TYPE xReturn;

	taskENTER_CRITICAL();
 800505c:	f000 f9d6 	bl	800540c <vPortEnterCritical>
	{
		if( pxQueue->uxMessagesWaiting == ( unsigned portBASE_TYPE )  0 )
 8005060:	687b      	ldr	r3, [r7, #4]
 8005062:	6b9b      	ldr	r3, [r3, #56]	; 0x38
 8005064:	2b00      	cmp	r3, #0
 8005066:	d102      	bne.n	800506e <prvIsQueueEmpty+0x1a>
		{
			xReturn = pdTRUE;
 8005068:	2301      	movs	r3, #1
 800506a:	60fb      	str	r3, [r7, #12]
 800506c:	e001      	b.n	8005072 <prvIsQueueEmpty+0x1e>
		}
		else
		{
			xReturn = pdFALSE;
 800506e:	2300      	movs	r3, #0
 8005070:	60fb      	str	r3, [r7, #12]
		}
	}
	taskEXIT_CRITICAL();
 8005072:	f000 f9db 	bl	800542c <vPortExitCritical>

	return xReturn;
 8005076:	68fb      	ldr	r3, [r7, #12]
}
 8005078:	4618      	mov	r0, r3
 800507a:	3710      	adds	r7, #16
 800507c:	46bd      	mov	sp, r7
 800507e:	bd80      	pop	{r7, pc}

08005080 <prvIsQueueFull>:
	return xReturn;
} /*lint !e818 xQueue could not be pointer to const because it is a typedef. */
/*-----------------------------------------------------------*/

static signed portBASE_TYPE prvIsQueueFull( const xQUEUE *pxQueue )
{
 8005080:	b580      	push	{r7, lr}
 8005082:	b084      	sub	sp, #16
 8005084:	af00      	add	r7, sp, #0
 8005086:	6078      	str	r0, [r7, #4]
signed portBASE_TYPE xReturn;

	taskENTER_CRITICAL();
 8005088:	f000 f9c0 	bl	800540c <vPortEnterCritical>
	{
		if( pxQueue->uxMessagesWaiting == pxQueue->uxLength )
 800508c:	687b      	ldr	r3, [r7, #4]
 800508e:	6b9a      	ldr	r2, [r3, #56]	; 0x38
 8005090:	687b      	ldr	r3, [r7, #4]
 8005092:	6bdb      	ldr	r3, [r3, #60]	; 0x3c
 8005094:	429a      	cmp	r2, r3
 8005096:	d102      	bne.n	800509e <prvIsQueueFull+0x1e>
		{
			xReturn = pdTRUE;
 8005098:	2301      	movs	r3, #1
 800509a:	60fb      	str	r3, [r7, #12]
 800509c:	e001      	b.n	80050a2 <prvIsQueueFull+0x22>
		}
		else
		{
			xReturn = pdFALSE;
 800509e:	2300      	movs	r3, #0
 80050a0:	60fb      	str	r3, [r7, #12]
		}
	}
	taskEXIT_CRITICAL();
 80050a2:	f000 f9c3 	bl	800542c <vPortExitCritical>

	return xReturn;
 80050a6:	68fb      	ldr	r3, [r7, #12]
}
 80050a8:	4618      	mov	r0, r3
 80050aa:	3710      	adds	r7, #16
 80050ac:	46bd      	mov	sp, r7
 80050ae:	bd80      	pop	{r7, pc}

080050b0 <vQueueWaitForMessageRestricted>:
/*-----------------------------------------------------------*/

#if ( configUSE_TIMERS == 1 )

	void vQueueWaitForMessageRestricted( xQueueHandle xQueue, portTickType xTicksToWait )
	{
 80050b0:	b580      	push	{r7, lr}
 80050b2:	b084      	sub	sp, #16
 80050b4:	af00      	add	r7, sp, #0
 80050b6:	6078      	str	r0, [r7, #4]
 80050b8:	6039      	str	r1, [r7, #0]
	xQUEUE * const pxQueue = ( xQUEUE * ) xQueue;
 80050ba:	687b      	ldr	r3, [r7, #4]
 80050bc:	60fb      	str	r3, [r7, #12]
		will not actually cause the task to block, just place it on a blocked
		list.  It will not block until the scheduler is unlocked - at which
		time a yield will be performed.  If an item is added to the queue while
		the queue is locked, and the calling task blocks on the queue, then the
		calling task will be immediately unblocked when the queue is unlocked. */
		prvLockQueue( pxQueue );
 80050be:	f000 f9a5 	bl	800540c <vPortEnterCritical>
 80050c2:	68fb      	ldr	r3, [r7, #12]
 80050c4:	6c5b      	ldr	r3, [r3, #68]	; 0x44
 80050c6:	f1b3 3fff 	cmp.w	r3, #4294967295	; 0xffffffff
 80050ca:	d102      	bne.n	80050d2 <vQueueWaitForMessageRestricted+0x22>
 80050cc:	68fb      	ldr	r3, [r7, #12]
 80050ce:	2200      	movs	r2, #0
 80050d0:	645a      	str	r2, [r3, #68]	; 0x44
 80050d2:	68fb      	ldr	r3, [r7, #12]
 80050d4:	6c9b      	ldr	r3, [r3, #72]	; 0x48
 80050d6:	f1b3 3fff 	cmp.w	r3, #4294967295	; 0xffffffff
 80050da:	d102      	bne.n	80050e2 <vQueueWaitForMessageRestricted+0x32>
 80050dc:	68fb      	ldr	r3, [r7, #12]
 80050de:	2200      	movs	r2, #0
 80050e0:	649a      	str	r2, [r3, #72]	; 0x48
 80050e2:	f000 f9a3 	bl	800542c <vPortExitCritical>
		if( pxQueue->uxMessagesWaiting == ( unsigned portBASE_TYPE ) 0U )
 80050e6:	68fb      	ldr	r3, [r7, #12]
 80050e8:	6b9b      	ldr	r3, [r3, #56]	; 0x38
 80050ea:	2b00      	cmp	r3, #0
 80050ec:	d105      	bne.n	80050fa <vQueueWaitForMessageRestricted+0x4a>
		{
			/* There is nothing in the queue, block for the specified period. */
			vTaskPlaceOnEventListRestricted( &( pxQueue->xTasksWaitingToReceive ), xTicksToWait );
 80050ee:	68fb      	ldr	r3, [r7, #12]
 80050f0:	3324      	adds	r3, #36	; 0x24
 80050f2:	4618      	mov	r0, r3
 80050f4:	6839      	ldr	r1, [r7, #0]
 80050f6:	f7fe ffef 	bl	80040d8 <vTaskPlaceOnEventListRestricted>
		}
		prvUnlockQueue( pxQueue );
 80050fa:	68f8      	ldr	r0, [r7, #12]
 80050fc:	f7ff ff5e 	bl	8004fbc <prvUnlockQueue>
	}
 8005100:	3710      	adds	r7, #16
 8005102:	46bd      	mov	sp, r7
 8005104:	bd80      	pop	{r7, pc}
 8005106:	bf00      	nop

08005108 <vListInitialise>:
/*-----------------------------------------------------------
 * PUBLIC LIST API documented in list.h
 *----------------------------------------------------------*/

void vListInitialise( xList * const pxList )
{
 8005108:	b480      	push	{r7}
 800510a:	b083      	sub	sp, #12
 800510c:	af00      	add	r7, sp, #0
 800510e:	6078      	str	r0, [r7, #4]
	/* The list structure contains a list item which is used to mark the
	end of the list.  To initialise the list the list end is inserted
	as the only list entry. */
	pxList->pxIndex = ( xListItem * ) &( pxList->xListEnd );			/*lint !e826 !e740 The mini list structure is used as the list end to save RAM.  This is checked and valid. */
 8005110:	687b      	ldr	r3, [r7, #4]
 8005112:	f103 0208 	add.w	r2, r3, #8
 8005116:	687b      	ldr	r3, [r7, #4]
 8005118:	605a      	str	r2, [r3, #4]

	/* The list end value is the highest possible value in the list to
	ensure it remains at the end of the list. */
	pxList->xListEnd.xItemValue = portMAX_DELAY;
 800511a:	687b      	ldr	r3, [r7, #4]
 800511c:	f04f 32ff 	mov.w	r2, #4294967295	; 0xffffffff
 8005120:	609a      	str	r2, [r3, #8]

	/* The list end next and previous pointers point to itself so we know
	when the list is empty. */
	pxList->xListEnd.pxNext = ( xListItem * ) &( pxList->xListEnd );	/*lint !e826 !e740 The mini list structure is used as the list end to save RAM.  This is checked and valid. */
 8005122:	687b      	ldr	r3, [r7, #4]
 8005124:	f103 0208 	add.w	r2, r3, #8
 8005128:	687b      	ldr	r3, [r7, #4]
 800512a:	60da      	str	r2, [r3, #12]
	pxList->xListEnd.pxPrevious = ( xListItem * ) &( pxList->xListEnd );/*lint !e826 !e740 The mini list structure is used as the list end to save RAM.  This is checked and valid. */
 800512c:	687b      	ldr	r3, [r7, #4]
 800512e:	f103 0208 	add.w	r2, r3, #8
 8005132:	687b      	ldr	r3, [r7, #4]
 8005134:	611a      	str	r2, [r3, #16]

	pxList->uxNumberOfItems = ( unsigned portBASE_TYPE ) 0U;
 8005136:	687b      	ldr	r3, [r7, #4]
 8005138:	2200      	movs	r2, #0
 800513a:	601a      	str	r2, [r3, #0]
}
 800513c:	370c      	adds	r7, #12
 800513e:	46bd      	mov	sp, r7
 8005140:	f85d 7b04 	ldr.w	r7, [sp], #4
 8005144:	4770      	bx	lr
 8005146:	bf00      	nop

08005148 <vListInitialiseItem>:
/*-----------------------------------------------------------*/

void vListInitialiseItem( xListItem * const pxItem )
{
 8005148:	b480      	push	{r7}
 800514a:	b083      	sub	sp, #12
 800514c:	af00      	add	r7, sp, #0
 800514e:	6078      	str	r0, [r7, #4]
	/* Make sure the list item is not recorded as being on a list. */
	pxItem->pvContainer = NULL;
 8005150:	687b      	ldr	r3, [r7, #4]
 8005152:	2200      	movs	r2, #0
 8005154:	611a      	str	r2, [r3, #16]
}
 8005156:	370c      	adds	r7, #12
 8005158:	46bd      	mov	sp, r7
 800515a:	f85d 7b04 	ldr.w	r7, [sp], #4
 800515e:	4770      	bx	lr

08005160 <vListInsertEnd>:
/*-----------------------------------------------------------*/

void vListInsertEnd( xList * const pxList, xListItem * const pxNewListItem )
{
 8005160:	b480      	push	{r7}
 8005162:	b085      	sub	sp, #20
 8005164:	af00      	add	r7, sp, #0
 8005166:	6078      	str	r0, [r7, #4]
 8005168:	6039      	str	r1, [r7, #0]
xListItem * pxIndex;

	/* Insert a new list item into pxList, but rather than sort the list,
	makes the new list item the last item to be removed by a call to
	pvListGetOwnerOfNextEntry. */
	pxIndex = pxList->pxIndex;
 800516a:	687b      	ldr	r3, [r7, #4]
 800516c:	685b      	ldr	r3, [r3, #4]
 800516e:	60fb      	str	r3, [r7, #12]

	pxNewListItem->pxNext = pxIndex;
 8005170:	683b      	ldr	r3, [r7, #0]
 8005172:	68fa      	ldr	r2, [r7, #12]
 8005174:	605a      	str	r2, [r3, #4]
	pxNewListItem->pxPrevious = pxIndex->pxPrevious;
 8005176:	68fb      	ldr	r3, [r7, #12]
 8005178:	689a      	ldr	r2, [r3, #8]
 800517a:	683b      	ldr	r3, [r7, #0]
 800517c:	609a      	str	r2, [r3, #8]
	pxIndex->pxPrevious->pxNext = pxNewListItem;
 800517e:	68fb      	ldr	r3, [r7, #12]
 8005180:	689b      	ldr	r3, [r3, #8]
 8005182:	683a      	ldr	r2, [r7, #0]
 8005184:	605a      	str	r2, [r3, #4]
	pxIndex->pxPrevious = pxNewListItem;
 8005186:	68fb      	ldr	r3, [r7, #12]
 8005188:	683a      	ldr	r2, [r7, #0]
 800518a:	609a      	str	r2, [r3, #8]

	/* Remember which list the item is in. */
	pxNewListItem->pvContainer = ( void * ) pxList;
 800518c:	683b      	ldr	r3, [r7, #0]
 800518e:	687a      	ldr	r2, [r7, #4]
 8005190:	611a      	str	r2, [r3, #16]

	( pxList->uxNumberOfItems )++;
 8005192:	687b      	ldr	r3, [r7, #4]
 8005194:	681b      	ldr	r3, [r3, #0]
 8005196:	1c5a      	adds	r2, r3, #1
 8005198:	687b      	ldr	r3, [r7, #4]
 800519a:	601a      	str	r2, [r3, #0]
}
 800519c:	3714      	adds	r7, #20
 800519e:	46bd      	mov	sp, r7
 80051a0:	f85d 7b04 	ldr.w	r7, [sp], #4
 80051a4:	4770      	bx	lr
 80051a6:	bf00      	nop

080051a8 <vListInsert>:
/*-----------------------------------------------------------*/

void vListInsert( xList * const pxList, xListItem * const pxNewListItem )
{
 80051a8:	b480      	push	{r7}
 80051aa:	b085      	sub	sp, #20
 80051ac:	af00      	add	r7, sp, #0
 80051ae:	6078      	str	r0, [r7, #4]
 80051b0:	6039      	str	r1, [r7, #0]
xListItem *pxIterator;
portTickType xValueOfInsertion;

	/* Insert the new list item into the list, sorted in ulListItem order. */
	xValueOfInsertion = pxNewListItem->xItemValue;
 80051b2:	683b      	ldr	r3, [r7, #0]
 80051b4:	681b      	ldr	r3, [r3, #0]
 80051b6:	60bb      	str	r3, [r7, #8]
	are stored in ready lists (all of which have the same ulListItem value)
	get an equal share of the CPU.  However, if the xItemValue is the same as
	the back marker the iteration loop below will not end.  This means we need
	to guard against this by checking the value first and modifying the
	algorithm slightly if necessary. */
	if( xValueOfInsertion == portMAX_DELAY )
 80051b8:	68bb      	ldr	r3, [r7, #8]
 80051ba:	f1b3 3fff 	cmp.w	r3, #4294967295	; 0xffffffff
 80051be:	d103      	bne.n	80051c8 <vListInsert+0x20>
	{
		pxIterator = pxList->xListEnd.pxPrevious;
 80051c0:	687b      	ldr	r3, [r7, #4]
 80051c2:	691b      	ldr	r3, [r3, #16]
 80051c4:	60fb      	str	r3, [r7, #12]
 80051c6:	e00c      	b.n	80051e2 <vListInsert+0x3a>
			   before the scheduler has been started (are interrupts firing
			   before vTaskStartScheduler() has been called?).
		See http://www.freertos.org/FAQHelp.html for more tips.
		**********************************************************************/

		for( pxIterator = ( xListItem * ) &( pxList->xListEnd ); pxIterator->pxNext->xItemValue <= xValueOfInsertion; pxIterator = pxIterator->pxNext ) /*lint !e826 !e740 The mini list structure is used as the list end to save RAM.  This is checked and valid. */
 80051c8:	687b      	ldr	r3, [r7, #4]
 80051ca:	3308      	adds	r3, #8
 80051cc:	60fb      	str	r3, [r7, #12]
 80051ce:	e002      	b.n	80051d6 <vListInsert+0x2e>
 80051d0:	68fb      	ldr	r3, [r7, #12]
 80051d2:	685b      	ldr	r3, [r3, #4]
 80051d4:	60fb      	str	r3, [r7, #12]
 80051d6:	68fb      	ldr	r3, [r7, #12]
 80051d8:	685b      	ldr	r3, [r3, #4]
 80051da:	681a      	ldr	r2, [r3, #0]
 80051dc:	68bb      	ldr	r3, [r7, #8]
 80051de:	429a      	cmp	r2, r3
 80051e0:	d9f6      	bls.n	80051d0 <vListInsert+0x28>
			/* There is nothing to do here, we are just iterating to the
			wanted insertion position. */
		}
	}

	pxNewListItem->pxNext = pxIterator->pxNext;
 80051e2:	68fb      	ldr	r3, [r7, #12]
 80051e4:	685a      	ldr	r2, [r3, #4]
 80051e6:	683b      	ldr	r3, [r7, #0]
 80051e8:	605a      	str	r2, [r3, #4]
	pxNewListItem->pxNext->pxPrevious = pxNewListItem;
 80051ea:	683b      	ldr	r3, [r7, #0]
 80051ec:	685b      	ldr	r3, [r3, #4]
 80051ee:	683a      	ldr	r2, [r7, #0]
 80051f0:	609a      	str	r2, [r3, #8]
	pxNewListItem->pxPrevious = pxIterator;
 80051f2:	683b      	ldr	r3, [r7, #0]
 80051f4:	68fa      	ldr	r2, [r7, #12]
 80051f6:	609a      	str	r2, [r3, #8]
	pxIterator->pxNext = pxNewListItem;
 80051f8:	68fb      	ldr	r3, [r7, #12]
 80051fa:	683a      	ldr	r2, [r7, #0]
 80051fc:	605a      	str	r2, [r3, #4]

	/* Remember which list the item is in.  This allows fast removal of the
	item later. */
	pxNewListItem->pvContainer = ( void * ) pxList;
 80051fe:	683b      	ldr	r3, [r7, #0]
 8005200:	687a      	ldr	r2, [r7, #4]
 8005202:	611a      	str	r2, [r3, #16]

	( pxList->uxNumberOfItems )++;
 8005204:	687b      	ldr	r3, [r7, #4]
 8005206:	681b      	ldr	r3, [r3, #0]
 8005208:	1c5a      	adds	r2, r3, #1
 800520a:	687b      	ldr	r3, [r7, #4]
 800520c:	601a      	str	r2, [r3, #0]
}
 800520e:	3714      	adds	r7, #20
 8005210:	46bd      	mov	sp, r7
 8005212:	f85d 7b04 	ldr.w	r7, [sp], #4
 8005216:	4770      	bx	lr

08005218 <uxListRemove>:
/*-----------------------------------------------------------*/

unsigned portBASE_TYPE uxListRemove( xListItem * const pxItemToRemove )
{
 8005218:	b480      	push	{r7}
 800521a:	b085      	sub	sp, #20
 800521c:	af00      	add	r7, sp, #0
 800521e:	6078      	str	r0, [r7, #4]
xList * pxList;

	pxItemToRemove->pxNext->pxPrevious = pxItemToRemove->pxPrevious;
 8005220:	687b      	ldr	r3, [r7, #4]
 8005222:	685b      	ldr	r3, [r3, #4]
 8005224:	687a      	ldr	r2, [r7, #4]
 8005226:	6892      	ldr	r2, [r2, #8]
 8005228:	609a      	str	r2, [r3, #8]
	pxItemToRemove->pxPrevious->pxNext = pxItemToRemove->pxNext;
 800522a:	687b      	ldr	r3, [r7, #4]
 800522c:	689b      	ldr	r3, [r3, #8]
 800522e:	687a      	ldr	r2, [r7, #4]
 8005230:	6852      	ldr	r2, [r2, #4]
 8005232:	605a      	str	r2, [r3, #4]

	/* The list item knows which list it is in.  Obtain the list from the list
	item. */
	pxList = ( xList * ) pxItemToRemove->pvContainer;
 8005234:	687b      	ldr	r3, [r7, #4]
 8005236:	691b      	ldr	r3, [r3, #16]
 8005238:	60fb      	str	r3, [r7, #12]

	/* Make sure the index is left pointing to a valid item. */
	if( pxList->pxIndex == pxItemToRemove )
 800523a:	68fb      	ldr	r3, [r7, #12]
 800523c:	685a      	ldr	r2, [r3, #4]
 800523e:	687b      	ldr	r3, [r7, #4]
 8005240:	429a      	cmp	r2, r3
 8005242:	d103      	bne.n	800524c <uxListRemove+0x34>
	{
		pxList->pxIndex = pxItemToRemove->pxPrevious;
 8005244:	687b      	ldr	r3, [r7, #4]
 8005246:	689a      	ldr	r2, [r3, #8]
 8005248:	68fb      	ldr	r3, [r7, #12]
 800524a:	605a      	str	r2, [r3, #4]
	}

	pxItemToRemove->pvContainer = NULL;
 800524c:	687b      	ldr	r3, [r7, #4]
 800524e:	2200      	movs	r2, #0
 8005250:	611a      	str	r2, [r3, #16]
	( pxList->uxNumberOfItems )--;
 8005252:	68fb      	ldr	r3, [r7, #12]
 8005254:	681b      	ldr	r3, [r3, #0]
 8005256:	1e5a      	subs	r2, r3, #1
 8005258:	68fb      	ldr	r3, [r7, #12]
 800525a:	601a      	str	r2, [r3, #0]

	return pxList->uxNumberOfItems;
 800525c:	68fb      	ldr	r3, [r7, #12]
 800525e:	681b      	ldr	r3, [r3, #0]
}
 8005260:	4618      	mov	r0, r3
 8005262:	3714      	adds	r7, #20
 8005264:	46bd      	mov	sp, r7
 8005266:	f85d 7b04 	ldr.w	r7, [sp], #4
 800526a:	4770      	bx	lr

0800526c <pxPortInitialiseStack>:

/*
 * See header file for description.
 */
portSTACK_TYPE *pxPortInitialiseStack( portSTACK_TYPE *pxTopOfStack, pdTASK_CODE pxCode, void *pvParameters )
{
 800526c:	b480      	push	{r7}
 800526e:	b085      	sub	sp, #20
 8005270:	af00      	add	r7, sp, #0
 8005272:	60f8      	str	r0, [r7, #12]
 8005274:	60b9      	str	r1, [r7, #8]
 8005276:	607a      	str	r2, [r7, #4]
	/* Simulate the stack frame as it would be created by a context switch
	interrupt. */

	/* Offset added to account for the way the MCU uses the stack on entry/exit
	of interrupts, and to ensure alignment. */
	pxTopOfStack--;
 8005278:	68fb      	ldr	r3, [r7, #12]
 800527a:	3b04      	subs	r3, #4
 800527c:	60fb      	str	r3, [r7, #12]

	*pxTopOfStack = portINITIAL_XPSR;	/* xPSR */
 800527e:	68fb      	ldr	r3, [r7, #12]
 8005280:	f04f 7280 	mov.w	r2, #16777216	; 0x1000000
 8005284:	601a      	str	r2, [r3, #0]
	pxTopOfStack--;
 8005286:	68fb      	ldr	r3, [r7, #12]
 8005288:	3b04      	subs	r3, #4
 800528a:	60fb      	str	r3, [r7, #12]
	*pxTopOfStack = ( portSTACK_TYPE ) pxCode;	/* PC */
 800528c:	68ba      	ldr	r2, [r7, #8]
 800528e:	68fb      	ldr	r3, [r7, #12]
 8005290:	601a      	str	r2, [r3, #0]
	pxTopOfStack--;
 8005292:	68fb      	ldr	r3, [r7, #12]
 8005294:	3b04      	subs	r3, #4
 8005296:	60fb      	str	r3, [r7, #12]
	*pxTopOfStack = ( portSTACK_TYPE ) portTASK_RETURN_ADDRESS;	/* LR */
 8005298:	4a0c      	ldr	r2, [pc, #48]	; (80052cc <pxPortInitialiseStack+0x60>)
 800529a:	68fb      	ldr	r3, [r7, #12]
 800529c:	601a      	str	r2, [r3, #0]

	/* Save code space by skipping register initialisation. */
	pxTopOfStack -= 5;	/* R12, R3, R2 and R1. */
 800529e:	68fb      	ldr	r3, [r7, #12]
 80052a0:	3b14      	subs	r3, #20
 80052a2:	60fb      	str	r3, [r7, #12]
	*pxTopOfStack = ( portSTACK_TYPE ) pvParameters;	/* R0 */
 80052a4:	687a      	ldr	r2, [r7, #4]
 80052a6:	68fb      	ldr	r3, [r7, #12]
 80052a8:	601a      	str	r2, [r3, #0]

	/* A save method is being used that requires each task to maintain its
	own exec return value. */
	pxTopOfStack--;
 80052aa:	68fb      	ldr	r3, [r7, #12]
 80052ac:	3b04      	subs	r3, #4
 80052ae:	60fb      	str	r3, [r7, #12]
	*pxTopOfStack = portINITIAL_EXEC_RETURN;
 80052b0:	68fb      	ldr	r3, [r7, #12]
 80052b2:	f06f 0202 	mvn.w	r2, #2
 80052b6:	601a      	str	r2, [r3, #0]

	pxTopOfStack -= 8;	/* R11, R10, R9, R8, R7, R6, R5 and R4. */
 80052b8:	68fb      	ldr	r3, [r7, #12]
 80052ba:	3b20      	subs	r3, #32
 80052bc:	60fb      	str	r3, [r7, #12]

	return pxTopOfStack;
 80052be:	68fb      	ldr	r3, [r7, #12]
}
 80052c0:	4618      	mov	r0, r3
 80052c2:	3714      	adds	r7, #20
 80052c4:	46bd      	mov	sp, r7
 80052c6:	f85d 7b04 	ldr.w	r7, [sp], #4
 80052ca:	4770      	bx	lr
 80052cc:	080052d1 	.word	0x080052d1

080052d0 <prvTaskExitError>:
/*-----------------------------------------------------------*/

static void prvTaskExitError( void )
{
 80052d0:	b580      	push	{r7, lr}
 80052d2:	af00      	add	r7, sp, #0
	its caller as there is nothing to return to.  If a task wants to exit it
	should instead call vTaskDelete( NULL ).

	Artificially force an assert() to be triggered if configASSERT() is
	defined, then stop here so application writers can catch the error. */
	configASSERT( uxCriticalNesting == ~0UL );
 80052d4:	4b05      	ldr	r3, [pc, #20]	; (80052ec <prvTaskExitError+0x1c>)
 80052d6:	681b      	ldr	r3, [r3, #0]
 80052d8:	f1b3 3fff 	cmp.w	r3, #4294967295	; 0xffffffff
 80052dc:	d002      	beq.n	80052e4 <prvTaskExitError+0x14>
 80052de:	f000 f8b7 	bl	8005450 <ulPortSetInterruptMask>
 80052e2:	e7fe      	b.n	80052e2 <prvTaskExitError+0x12>
	portDISABLE_INTERRUPTS();
 80052e4:	f000 f8b4 	bl	8005450 <ulPortSetInterruptMask>
	for( ;; );
 80052e8:	e7fe      	b.n	80052e8 <prvTaskExitError+0x18>
 80052ea:	bf00      	nop
 80052ec:	2000001c 	.word	0x2000001c

080052f0 <SVC_Handler>:
}
/*-----------------------------------------------------------*/

void vPortSVCHandler( void )
{
	__asm volatile (
 80052f0:	4b05      	ldr	r3, [pc, #20]	; (8005308 <pxCurrentTCBConst2>)
 80052f2:	6819      	ldr	r1, [r3, #0]
 80052f4:	6808      	ldr	r0, [r1, #0]
 80052f6:	e8b0 4ff0 	ldmia.w	r0!, {r4, r5, r6, r7, r8, r9, sl, fp, lr}
 80052fa:	f380 8809 	msr	PSP, r0
 80052fe:	f04f 0000 	mov.w	r0, #0
 8005302:	f380 8811 	msr	BASEPRI, r0
 8005306:	4770      	bx	lr

08005308 <pxCurrentTCBConst2>:
 8005308:	200004f4 	.word	0x200004f4

0800530c <prvPortStartFirstTask>:
}
/*-----------------------------------------------------------*/

static void prvPortStartFirstTask( void )
{
	__asm volatile(
 800530c:	4803      	ldr	r0, [pc, #12]	; (800531c <prvPortStartFirstTask+0x10>)
 800530e:	6800      	ldr	r0, [r0, #0]
 8005310:	6800      	ldr	r0, [r0, #0]
 8005312:	f380 8808 	msr	MSP, r0
 8005316:	b662      	cpsie	i
 8005318:	df00      	svc	0
 800531a:	bf00      	nop
 800531c:	e000ed08 	.word	0xe000ed08

08005320 <xPortStartScheduler>:

/*
 * See header file for description.
 */
portBASE_TYPE xPortStartScheduler( void )
{
 8005320:	b580      	push	{r7, lr}
 8005322:	b084      	sub	sp, #16
 8005324:	af00      	add	r7, sp, #0
	configASSERT( configMAX_SYSCALL_INTERRUPT_PRIORITY );

	#if( configASSERT_DEFINED == 1 )
	{
		volatile unsigned long ulOriginalPriority;
		volatile char * const pcFirstUserPriorityRegister = ( volatile char * const ) ( portNVIC_IP_REGISTERS_OFFSET_16 + portFIRST_USER_INTERRUPT_NUMBER );
 8005326:	4b2b      	ldr	r3, [pc, #172]	; (80053d4 <xPortStartScheduler+0xb4>)
 8005328:	60fb      	str	r3, [r7, #12]
		functions can be called.  ISR safe functions are those that end in
		"FromISR".  FreeRTOS maintains separate thread and ISR API functions to
		ensure interrupt entry is as fast and simple as possible.

		Save the interrupt priority value that is about to be clobbered. */
		ulOriginalPriority = *pcFirstUserPriorityRegister;
 800532a:	68fb      	ldr	r3, [r7, #12]
 800532c:	781b      	ldrb	r3, [r3, #0]
 800532e:	b2db      	uxtb	r3, r3
 8005330:	60bb      	str	r3, [r7, #8]

		/* Determine the number of priority bits available.  First write to all
		possible bits. */
		*pcFirstUserPriorityRegister = portMAX_8_BIT_VALUE;
 8005332:	68fb      	ldr	r3, [r7, #12]
 8005334:	22ff      	movs	r2, #255	; 0xff
 8005336:	701a      	strb	r2, [r3, #0]

		/* Read the value back to see how many bits stuck. */
		ucMaxPriorityValue = *pcFirstUserPriorityRegister;
 8005338:	68fb      	ldr	r3, [r7, #12]
 800533a:	781b      	ldrb	r3, [r3, #0]
 800533c:	b2db      	uxtb	r3, r3
 800533e:	71fb      	strb	r3, [r7, #7]

		/* Use the same mask on the maximum system call priority. */
		ucMaxSysCallPriority = configMAX_SYSCALL_INTERRUPT_PRIORITY & ucMaxPriorityValue;
 8005340:	79fb      	ldrb	r3, [r7, #7]
 8005342:	b2db      	uxtb	r3, r3
 8005344:	f003 0350 	and.w	r3, r3, #80	; 0x50
 8005348:	b2da      	uxtb	r2, r3
 800534a:	4b23      	ldr	r3, [pc, #140]	; (80053d8 <xPortStartScheduler+0xb8>)
 800534c:	701a      	strb	r2, [r3, #0]

		/* Calculate the maximum acceptable priority group value for the number
		of bits read back. */
		ulMaxPRIGROUPValue = portMAX_PRIGROUP_BITS;
 800534e:	4b23      	ldr	r3, [pc, #140]	; (80053dc <xPortStartScheduler+0xbc>)
 8005350:	2207      	movs	r2, #7
 8005352:	601a      	str	r2, [r3, #0]
		while( ( ucMaxPriorityValue & portTOP_BIT_OF_BYTE ) == portTOP_BIT_OF_BYTE )
 8005354:	e009      	b.n	800536a <xPortStartScheduler+0x4a>
		{
			ulMaxPRIGROUPValue--;
 8005356:	4b21      	ldr	r3, [pc, #132]	; (80053dc <xPortStartScheduler+0xbc>)
 8005358:	681b      	ldr	r3, [r3, #0]
 800535a:	1e5a      	subs	r2, r3, #1
 800535c:	4b1f      	ldr	r3, [pc, #124]	; (80053dc <xPortStartScheduler+0xbc>)
 800535e:	601a      	str	r2, [r3, #0]
			ucMaxPriorityValue <<= ( unsigned char ) 0x01;
 8005360:	79fb      	ldrb	r3, [r7, #7]
 8005362:	b2db      	uxtb	r3, r3
 8005364:	005b      	lsls	r3, r3, #1
 8005366:	b2db      	uxtb	r3, r3
 8005368:	71fb      	strb	r3, [r7, #7]
		ucMaxSysCallPriority = configMAX_SYSCALL_INTERRUPT_PRIORITY & ucMaxPriorityValue;

		/* Calculate the maximum acceptable priority group value for the number
		of bits read back. */
		ulMaxPRIGROUPValue = portMAX_PRIGROUP_BITS;
		while( ( ucMaxPriorityValue & portTOP_BIT_OF_BYTE ) == portTOP_BIT_OF_BYTE )
 800536a:	79fb      	ldrb	r3, [r7, #7]
 800536c:	b2db      	uxtb	r3, r3
 800536e:	b2db      	uxtb	r3, r3
 8005370:	b25b      	sxtb	r3, r3
 8005372:	2b00      	cmp	r3, #0
 8005374:	dbef      	blt.n	8005356 <xPortStartScheduler+0x36>
			ucMaxPriorityValue <<= ( unsigned char ) 0x01;
		}

		/* Shift the priority group value back to its position within the AIRCR
		register. */
		ulMaxPRIGROUPValue <<= portPRIGROUP_SHIFT;
 8005376:	4b19      	ldr	r3, [pc, #100]	; (80053dc <xPortStartScheduler+0xbc>)
 8005378:	681b      	ldr	r3, [r3, #0]
 800537a:	021a      	lsls	r2, r3, #8
 800537c:	4b17      	ldr	r3, [pc, #92]	; (80053dc <xPortStartScheduler+0xbc>)
 800537e:	601a      	str	r2, [r3, #0]
		ulMaxPRIGROUPValue &= portPRIORITY_GROUP_MASK;
 8005380:	4b16      	ldr	r3, [pc, #88]	; (80053dc <xPortStartScheduler+0xbc>)
 8005382:	681b      	ldr	r3, [r3, #0]
 8005384:	f403 62e0 	and.w	r2, r3, #1792	; 0x700
 8005388:	4b14      	ldr	r3, [pc, #80]	; (80053dc <xPortStartScheduler+0xbc>)
 800538a:	601a      	str	r2, [r3, #0]

		/* Restore the clobbered interrupt priority register to its original
		value. */
		*pcFirstUserPriorityRegister = ulOriginalPriority;
 800538c:	68bb      	ldr	r3, [r7, #8]
 800538e:	b2da      	uxtb	r2, r3
 8005390:	68fb      	ldr	r3, [r7, #12]
 8005392:	701a      	strb	r2, [r3, #0]
	}
	#endif /* conifgASSERT_DEFINED */

	/* Make PendSV and SysTick the lowest priority interrupts. */
	portNVIC_SYSPRI2_REG |= portNVIC_PENDSV_PRI;
 8005394:	4b12      	ldr	r3, [pc, #72]	; (80053e0 <xPortStartScheduler+0xc0>)
 8005396:	4a12      	ldr	r2, [pc, #72]	; (80053e0 <xPortStartScheduler+0xc0>)
 8005398:	6812      	ldr	r2, [r2, #0]
 800539a:	f442 0270 	orr.w	r2, r2, #15728640	; 0xf00000
 800539e:	601a      	str	r2, [r3, #0]
	portNVIC_SYSPRI2_REG |= portNVIC_SYSTICK_PRI;
 80053a0:	4b0f      	ldr	r3, [pc, #60]	; (80053e0 <xPortStartScheduler+0xc0>)
 80053a2:	4a0f      	ldr	r2, [pc, #60]	; (80053e0 <xPortStartScheduler+0xc0>)
 80053a4:	6812      	ldr	r2, [r2, #0]
 80053a6:	f042 4270 	orr.w	r2, r2, #4026531840	; 0xf0000000
 80053aa:	601a      	str	r2, [r3, #0]

	/* Start the timer that generates the tick ISR.  Interrupts are disabled
	here already. */
	vPortSetupTimerInterrupt();
 80053ac:	f000 f89a 	bl	80054e4 <vPortSetupTimerInterrupt>

	/* Initialise the critical nesting count ready for the first task. */
	uxCriticalNesting = 0;
 80053b0:	4b0c      	ldr	r3, [pc, #48]	; (80053e4 <xPortStartScheduler+0xc4>)
 80053b2:	2200      	movs	r2, #0
 80053b4:	601a      	str	r2, [r3, #0]

	/* Ensure the VFP is enabled - it should be anyway. */
	vPortEnableVFP();
 80053b6:	f000 f8af 	bl	8005518 <vPortEnableVFP>

	/* Lazy save always. */
	*( portFPCCR ) |= portASPEN_AND_LSPEN_BITS;
 80053ba:	4b0b      	ldr	r3, [pc, #44]	; (80053e8 <xPortStartScheduler+0xc8>)
 80053bc:	4a0a      	ldr	r2, [pc, #40]	; (80053e8 <xPortStartScheduler+0xc8>)
 80053be:	6812      	ldr	r2, [r2, #0]
 80053c0:	f042 4240 	orr.w	r2, r2, #3221225472	; 0xc0000000
 80053c4:	601a      	str	r2, [r3, #0]

	/* Start the first task. */
	prvPortStartFirstTask();
 80053c6:	f7ff ffa1 	bl	800530c <prvPortStartFirstTask>

	/* Should not get here! */
	return 0;
 80053ca:	2300      	movs	r3, #0
}
 80053cc:	4618      	mov	r0, r3
 80053ce:	3710      	adds	r7, #16
 80053d0:	46bd      	mov	sp, r7
 80053d2:	bd80      	pop	{r7, pc}
 80053d4:	e000e400 	.word	0xe000e400
 80053d8:	200005f0 	.word	0x200005f0
 80053dc:	200005f4 	.word	0x200005f4
 80053e0:	e000ed20 	.word	0xe000ed20
 80053e4:	2000001c 	.word	0x2000001c
 80053e8:	e000ef34 	.word	0xe000ef34

080053ec <vPortYield>:
	is nothing to return to.  */
}
/*-----------------------------------------------------------*/

void vPortYield( void )
{
 80053ec:	b480      	push	{r7}
 80053ee:	af00      	add	r7, sp, #0
	/* Set a PendSV to request a context switch. */
	portNVIC_INT_CTRL_REG = portNVIC_PENDSVSET_BIT;
 80053f0:	4b05      	ldr	r3, [pc, #20]	; (8005408 <vPortYield+0x1c>)
 80053f2:	f04f 5280 	mov.w	r2, #268435456	; 0x10000000
 80053f6:	601a      	str	r2, [r3, #0]

	/* Barriers are normally not required but do ensure the code is completely
	within the specified behaviour for the architecture. */
	__asm volatile( "dsb" );
 80053f8:	f3bf 8f4f 	dsb	sy
	__asm volatile( "isb" );
 80053fc:	f3bf 8f6f 	isb	sy
}
 8005400:	46bd      	mov	sp, r7
 8005402:	f85d 7b04 	ldr.w	r7, [sp], #4
 8005406:	4770      	bx	lr
 8005408:	e000ed04 	.word	0xe000ed04

0800540c <vPortEnterCritical>:
/*-----------------------------------------------------------*/

void vPortEnterCritical( void )
{
 800540c:	b580      	push	{r7, lr}
 800540e:	af00      	add	r7, sp, #0
	portDISABLE_INTERRUPTS();
 8005410:	f000 f81e 	bl	8005450 <ulPortSetInterruptMask>
	uxCriticalNesting++;
 8005414:	4b04      	ldr	r3, [pc, #16]	; (8005428 <vPortEnterCritical+0x1c>)
 8005416:	681b      	ldr	r3, [r3, #0]
 8005418:	1c5a      	adds	r2, r3, #1
 800541a:	4b03      	ldr	r3, [pc, #12]	; (8005428 <vPortEnterCritical+0x1c>)
 800541c:	601a      	str	r2, [r3, #0]
	__asm volatile( "dsb" );
 800541e:	f3bf 8f4f 	dsb	sy
	__asm volatile( "isb" );
 8005422:	f3bf 8f6f 	isb	sy
}
 8005426:	bd80      	pop	{r7, pc}
 8005428:	2000001c 	.word	0x2000001c

0800542c <vPortExitCritical>:
/*-----------------------------------------------------------*/

void vPortExitCritical( void )
{
 800542c:	b580      	push	{r7, lr}
 800542e:	af00      	add	r7, sp, #0
	uxCriticalNesting--;
 8005430:	4b06      	ldr	r3, [pc, #24]	; (800544c <vPortExitCritical+0x20>)
 8005432:	681b      	ldr	r3, [r3, #0]
 8005434:	1e5a      	subs	r2, r3, #1
 8005436:	4b05      	ldr	r3, [pc, #20]	; (800544c <vPortExitCritical+0x20>)
 8005438:	601a      	str	r2, [r3, #0]
	if( uxCriticalNesting == 0 )
 800543a:	4b04      	ldr	r3, [pc, #16]	; (800544c <vPortExitCritical+0x20>)
 800543c:	681b      	ldr	r3, [r3, #0]
 800543e:	2b00      	cmp	r3, #0
 8005440:	d102      	bne.n	8005448 <vPortExitCritical+0x1c>
	{
		portENABLE_INTERRUPTS();
 8005442:	2000      	movs	r0, #0
 8005444:	f000 f80e 	bl	8005464 <vPortClearInterruptMask>
	}
}
 8005448:	bd80      	pop	{r7, pc}
 800544a:	bf00      	nop
 800544c:	2000001c 	.word	0x2000001c

08005450 <ulPortSetInterruptMask>:
/*-----------------------------------------------------------*/

__attribute__(( naked )) unsigned long ulPortSetInterruptMask( void )
{
	__asm volatile														\
 8005450:	f3ef 8011 	mrs	r0, BASEPRI
 8005454:	f04f 0150 	mov.w	r1, #80	; 0x50
 8005458:	f381 8811 	msr	BASEPRI, r1
 800545c:	4770      	bx	lr
		:: "i" ( configMAX_SYSCALL_INTERRUPT_PRIORITY ) : "r0", "r1"	\
	);

	/* This return will not be reached but is necessary to prevent compiler
	warnings. */
	return 0;
 800545e:	2300      	movs	r3, #0
}
 8005460:	4618      	mov	r0, r3
 8005462:	bf00      	nop

08005464 <vPortClearInterruptMask>:
/*-----------------------------------------------------------*/

__attribute__(( naked )) void vPortClearInterruptMask( unsigned long ulNewMaskValue )
{
	__asm volatile													\
 8005464:	f380 8811 	msr	BASEPRI, r0
 8005468:	4770      	bx	lr
 800546a:	bf00      	nop

0800546c <PendSV_Handler>:

void xPortPendSVHandler( void )
{
	/* This is a naked function. */

	__asm volatile
 800546c:	f3ef 8009 	mrs	r0, PSP
 8005470:	4b11      	ldr	r3, [pc, #68]	; (80054b8 <pxCurrentTCBConst>)
 8005472:	681a      	ldr	r2, [r3, #0]
 8005474:	f01e 0f10 	tst.w	lr, #16
 8005478:	bf08      	it	eq
 800547a:	ed20 8a10 	vstmdbeq	r0!, {s16-s31}
 800547e:	e920 4ff0 	stmdb	r0!, {r4, r5, r6, r7, r8, r9, sl, fp, lr}
 8005482:	6010      	str	r0, [r2, #0]
 8005484:	e92d 4008 	stmdb	sp!, {r3, lr}
 8005488:	f04f 0050 	mov.w	r0, #80	; 0x50
 800548c:	f380 8811 	msr	BASEPRI, r0
 8005490:	f7fe fd72 	bl	8003f78 <vTaskSwitchContext>
 8005494:	f04f 0000 	mov.w	r0, #0
 8005498:	f380 8811 	msr	BASEPRI, r0
 800549c:	e8bd 4008 	ldmia.w	sp!, {r3, lr}
 80054a0:	6819      	ldr	r1, [r3, #0]
 80054a2:	6808      	ldr	r0, [r1, #0]
 80054a4:	e8b0 4ff0 	ldmia.w	r0!, {r4, r5, r6, r7, r8, r9, sl, fp, lr}
 80054a8:	f01e 0f10 	tst.w	lr, #16
 80054ac:	bf08      	it	eq
 80054ae:	ecb0 8a10 	vldmiaeq	r0!, {s16-s31}
 80054b2:	f380 8809 	msr	PSP, r0
 80054b6:	4770      	bx	lr

080054b8 <pxCurrentTCBConst>:
 80054b8:	200004f4 	.word	0x200004f4

080054bc <SysTick_Handler>:
	);
}
/*-----------------------------------------------------------*/

void xPortSysTickHandler( void )
{
 80054bc:	b580      	push	{r7, lr}
 80054be:	af00      	add	r7, sp, #0
	/* The SysTick runs at the lowest interrupt priority, so when this interrupt
	executes all interrupts must be unmasked.  There is therefore no need to
	save and then restore the interrupt mask value as its value is already
	known. */
	( void ) portSET_INTERRUPT_MASK_FROM_ISR();
 80054c0:	f7ff ffc6 	bl	8005450 <ulPortSetInterruptMask>
	{
		/* Increment the RTOS tick. */
		if( xTaskIncrementTick() != pdFALSE )
 80054c4:	f7fe fc82 	bl	8003dcc <xTaskIncrementTick>
 80054c8:	4603      	mov	r3, r0
 80054ca:	2b00      	cmp	r3, #0
 80054cc:	d003      	beq.n	80054d6 <SysTick_Handler+0x1a>
		{
			/* A context switch is required.  Context switching is performed in
			the PendSV interrupt.  Pend the PendSV interrupt. */
			portNVIC_INT_CTRL_REG = portNVIC_PENDSVSET_BIT;
 80054ce:	4b04      	ldr	r3, [pc, #16]	; (80054e0 <SysTick_Handler+0x24>)
 80054d0:	f04f 5280 	mov.w	r2, #268435456	; 0x10000000
 80054d4:	601a      	str	r2, [r3, #0]
		}
	}
	portCLEAR_INTERRUPT_MASK_FROM_ISR( 0 );
 80054d6:	2000      	movs	r0, #0
 80054d8:	f7ff ffc4 	bl	8005464 <vPortClearInterruptMask>
}
 80054dc:	bd80      	pop	{r7, pc}
 80054de:	bf00      	nop
 80054e0:	e000ed04 	.word	0xe000ed04

080054e4 <vPortSetupTimerInterrupt>:
/*
 * Setup the systick timer to generate the tick interrupts at the required
 * frequency.
 */
__attribute__(( weak )) void vPortSetupTimerInterrupt( void )
{
 80054e4:	b480      	push	{r7}
 80054e6:	af00      	add	r7, sp, #0
		ulStoppedTimerCompensation = portMISSED_COUNTS_FACTOR / ( configCPU_CLOCK_HZ / configSYSTICK_CLOCK_HZ );
	}
	#endif /* configUSE_TICKLESS_IDLE */

	/* Configure SysTick to interrupt at the requested rate. */
	portNVIC_SYSTICK_LOAD_REG = ( configSYSTICK_CLOCK_HZ / configTICK_RATE_HZ ) - 1UL;;
 80054e8:	4b07      	ldr	r3, [pc, #28]	; (8005508 <vPortSetupTimerInterrupt+0x24>)
 80054ea:	4a08      	ldr	r2, [pc, #32]	; (800550c <vPortSetupTimerInterrupt+0x28>)
 80054ec:	6811      	ldr	r1, [r2, #0]
 80054ee:	4a08      	ldr	r2, [pc, #32]	; (8005510 <vPortSetupTimerInterrupt+0x2c>)
 80054f0:	fba2 0201 	umull	r0, r2, r2, r1
 80054f4:	0992      	lsrs	r2, r2, #6
 80054f6:	3a01      	subs	r2, #1
 80054f8:	601a      	str	r2, [r3, #0]
	portNVIC_SYSTICK_CTRL_REG = portNVIC_SYSTICK_CLK_BIT | portNVIC_SYSTICK_INT_BIT | portNVIC_SYSTICK_ENABLE_BIT;
 80054fa:	4b06      	ldr	r3, [pc, #24]	; (8005514 <vPortSetupTimerInterrupt+0x30>)
 80054fc:	2207      	movs	r2, #7
 80054fe:	601a      	str	r2, [r3, #0]
}
 8005500:	46bd      	mov	sp, r7
 8005502:	f85d 7b04 	ldr.w	r7, [sp], #4
 8005506:	4770      	bx	lr
 8005508:	e000e014 	.word	0xe000e014
 800550c:	20000004 	.word	0x20000004
 8005510:	10624dd3 	.word	0x10624dd3
 8005514:	e000e010 	.word	0xe000e010

08005518 <vPortEnableVFP>:
/*-----------------------------------------------------------*/

/* This is a naked function. */
static void vPortEnableVFP( void )
{
	__asm volatile
 8005518:	f8df 000c 	ldr.w	r0, [pc, #12]	; 8005528 <vPortEnableVFP+0x10>
 800551c:	6801      	ldr	r1, [r0, #0]
 800551e:	f441 0170 	orr.w	r1, r1, #15728640	; 0xf00000
 8005522:	6001      	str	r1, [r0, #0]
 8005524:	4770      	bx	lr
 8005526:	0000      	.short	0x0000
 8005528:	e000ed88 	.word	0xe000ed88

0800552c <vPortValidateInterruptPriority>:
/*-----------------------------------------------------------*/

#if( configASSERT_DEFINED == 1 )

	void vPortValidateInterruptPriority( void )
	{
 800552c:	b580      	push	{r7, lr}
 800552e:	b082      	sub	sp, #8
 8005530:	af00      	add	r7, sp, #0
	unsigned long ulCurrentInterrupt;
	unsigned char ucCurrentPriority;

		/* Obtain the number of the currently executing interrupt. */
		__asm volatile( "mrs %0, ipsr" : "=r"( ulCurrentInterrupt ) );
 8005532:	f3ef 8305 	mrs	r3, IPSR
 8005536:	607b      	str	r3, [r7, #4]

		/* Is the interrupt number a user defined interrupt? */
		if( ulCurrentInterrupt >= portFIRST_USER_INTERRUPT_NUMBER )
 8005538:	687b      	ldr	r3, [r7, #4]
 800553a:	2b0f      	cmp	r3, #15
 800553c:	d90c      	bls.n	8005558 <vPortValidateInterruptPriority+0x2c>
		{
			/* Look up the interrupt's priority. */
			ucCurrentPriority = pcInterruptPriorityRegisters[ ulCurrentInterrupt ];
 800553e:	4a0d      	ldr	r2, [pc, #52]	; (8005574 <vPortValidateInterruptPriority+0x48>)
 8005540:	687b      	ldr	r3, [r7, #4]
 8005542:	4413      	add	r3, r2
 8005544:	781b      	ldrb	r3, [r3, #0]
 8005546:	70fb      	strb	r3, [r7, #3]
			interrupt entry is as fast and simple as possible.

			The following links provide detailed information:
			http://www.freertos.org/RTOS-Cortex-M3-M4.html
			http://www.freertos.org/FAQHelp.html */
			configASSERT( ucCurrentPriority >= ucMaxSysCallPriority );
 8005548:	4b0b      	ldr	r3, [pc, #44]	; (8005578 <vPortValidateInterruptPriority+0x4c>)
 800554a:	781b      	ldrb	r3, [r3, #0]
 800554c:	78fa      	ldrb	r2, [r7, #3]
 800554e:	429a      	cmp	r2, r3
 8005550:	d202      	bcs.n	8005558 <vPortValidateInterruptPriority+0x2c>
 8005552:	f7ff ff7d 	bl	8005450 <ulPortSetInterruptMask>
 8005556:	e7fe      	b.n	8005556 <vPortValidateInterruptPriority+0x2a>
		configuration then the correct setting can be achieved on all Cortex-M
		devices by calling NVIC_SetPriorityGrouping( 0 ); before starting the
		scheduler.  Note however that some vendor specific peripheral libraries
		assume a non-zero priority group setting, in which cases using a value
		of zero will result in unpredicable behaviour. */
		configASSERT( ( portAIRCR_REG & portPRIORITY_GROUP_MASK ) <= ulMaxPRIGROUPValue );
 8005558:	4b08      	ldr	r3, [pc, #32]	; (800557c <vPortValidateInterruptPriority+0x50>)
 800555a:	681b      	ldr	r3, [r3, #0]
 800555c:	f403 62e0 	and.w	r2, r3, #1792	; 0x700
 8005560:	4b07      	ldr	r3, [pc, #28]	; (8005580 <vPortValidateInterruptPriority+0x54>)
 8005562:	681b      	ldr	r3, [r3, #0]
 8005564:	429a      	cmp	r2, r3
 8005566:	d902      	bls.n	800556e <vPortValidateInterruptPriority+0x42>
 8005568:	f7ff ff72 	bl	8005450 <ulPortSetInterruptMask>
 800556c:	e7fe      	b.n	800556c <vPortValidateInterruptPriority+0x40>
	}
 800556e:	3708      	adds	r7, #8
 8005570:	46bd      	mov	sp, r7
 8005572:	bd80      	pop	{r7, pc}
 8005574:	e000e3f0 	.word	0xe000e3f0
 8005578:	200005f0 	.word	0x200005f0
 800557c:	e000ed0c 	.word	0xe000ed0c
 8005580:	200005f4 	.word	0x200005f4

08005584 <xTimerCreateTimerTask>:
static void prvProcessTimerOrBlockTask( portTickType xNextExpireTime, portBASE_TYPE xListWasEmpty ) PRIVILEGED_FUNCTION;

/*-----------------------------------------------------------*/

portBASE_TYPE xTimerCreateTimerTask( void )
{
 8005584:	b580      	push	{r7, lr}
 8005586:	b086      	sub	sp, #24
 8005588:	af04      	add	r7, sp, #16
portBASE_TYPE xReturn = pdFAIL;
 800558a:	2300      	movs	r3, #0
 800558c:	607b      	str	r3, [r7, #4]

	/* This function is called when the scheduler is started if
	configUSE_TIMERS is set to 1.  Check that the infrastructure used by the
	timer service task has been created/initialised.  If timers have already
	been created then the initialisation will already have been performed. */
	prvCheckForValidListAndQueue();
 800558e:	f000 fa45 	bl	8005a1c <prvCheckForValidListAndQueue>

	if( xTimerQueue != NULL )
 8005592:	4b0f      	ldr	r3, [pc, #60]	; (80055d0 <xTimerCreateTimerTask+0x4c>)
 8005594:	681b      	ldr	r3, [r3, #0]
 8005596:	2b00      	cmp	r3, #0
 8005598:	d00f      	beq.n	80055ba <xTimerCreateTimerTask+0x36>
			xReturn = xTaskCreate( prvTimerTask, ( const signed char * ) "Tmr Svc", ( unsigned short ) configTIMER_TASK_STACK_DEPTH, NULL, ( ( unsigned portBASE_TYPE ) configTIMER_TASK_PRIORITY ) | portPRIVILEGE_BIT, &xTimerTaskHandle );
		}
		#else
		{
			/* Create the timer task without storing its handle. */
			xReturn = xTaskCreate( prvTimerTask, ( const signed char * ) "Tmr Svc", ( unsigned short ) configTIMER_TASK_STACK_DEPTH, NULL, ( ( unsigned portBASE_TYPE ) configTIMER_TASK_PRIORITY ) | portPRIVILEGE_BIT, NULL);
 800559a:	2302      	movs	r3, #2
 800559c:	9300      	str	r3, [sp, #0]
 800559e:	2300      	movs	r3, #0
 80055a0:	9301      	str	r3, [sp, #4]
 80055a2:	2300      	movs	r3, #0
 80055a4:	9302      	str	r3, [sp, #8]
 80055a6:	2300      	movs	r3, #0
 80055a8:	9303      	str	r3, [sp, #12]
 80055aa:	480a      	ldr	r0, [pc, #40]	; (80055d4 <xTimerCreateTimerTask+0x50>)
 80055ac:	490a      	ldr	r1, [pc, #40]	; (80055d8 <xTimerCreateTimerTask+0x54>)
 80055ae:	f44f 7200 	mov.w	r2, #512	; 0x200
 80055b2:	2300      	movs	r3, #0
 80055b4:	f7fe f936 	bl	8003824 <xTaskGenericCreate>
 80055b8:	6078      	str	r0, [r7, #4]
		}
		#endif
	}

	configASSERT( xReturn );
 80055ba:	687b      	ldr	r3, [r7, #4]
 80055bc:	2b00      	cmp	r3, #0
 80055be:	d102      	bne.n	80055c6 <xTimerCreateTimerTask+0x42>
 80055c0:	f7ff ff46 	bl	8005450 <ulPortSetInterruptMask>
 80055c4:	e7fe      	b.n	80055c4 <xTimerCreateTimerTask+0x40>
	return xReturn;
 80055c6:	687b      	ldr	r3, [r7, #4]
}
 80055c8:	4618      	mov	r0, r3
 80055ca:	3708      	adds	r7, #8
 80055cc:	46bd      	mov	sp, r7
 80055ce:	bd80      	pop	{r7, pc}
 80055d0:	20000628 	.word	0x20000628
 80055d4:	080056d9 	.word	0x080056d9
 80055d8:	080096c0 	.word	0x080096c0

080055dc <xTimerGenericCommand>:
	return ( xTimerHandle ) pxNewTimer;
}
/*-----------------------------------------------------------*/

portBASE_TYPE xTimerGenericCommand( xTimerHandle xTimer, portBASE_TYPE xCommandID, portTickType xOptionalValue, signed portBASE_TYPE *pxHigherPriorityTaskWoken, portTickType xBlockTime )
{
 80055dc:	b580      	push	{r7, lr}
 80055de:	b088      	sub	sp, #32
 80055e0:	af00      	add	r7, sp, #0
 80055e2:	60f8      	str	r0, [r7, #12]
 80055e4:	60b9      	str	r1, [r7, #8]
 80055e6:	607a      	str	r2, [r7, #4]
 80055e8:	603b      	str	r3, [r7, #0]
portBASE_TYPE xReturn = pdFAIL;
 80055ea:	2300      	movs	r3, #0
 80055ec:	61fb      	str	r3, [r7, #28]
xTIMER_MESSAGE xMessage;

	/* Send a message to the timer service task to perform a particular action
	on a particular timer definition. */
	if( xTimerQueue != NULL )
 80055ee:	4b1d      	ldr	r3, [pc, #116]	; (8005664 <xTimerGenericCommand+0x88>)
 80055f0:	681b      	ldr	r3, [r3, #0]
 80055f2:	2b00      	cmp	r3, #0
 80055f4:	d030      	beq.n	8005658 <xTimerGenericCommand+0x7c>
	{
		/* Send a command to the timer service task to start the xTimer timer. */
		xMessage.xMessageID = xCommandID;
 80055f6:	68bb      	ldr	r3, [r7, #8]
 80055f8:	613b      	str	r3, [r7, #16]
		xMessage.xMessageValue = xOptionalValue;
 80055fa:	687b      	ldr	r3, [r7, #4]
 80055fc:	617b      	str	r3, [r7, #20]
		xMessage.pxTimer = ( xTIMER * ) xTimer;
 80055fe:	68fb      	ldr	r3, [r7, #12]
 8005600:	61bb      	str	r3, [r7, #24]

		if( pxHigherPriorityTaskWoken == NULL )
 8005602:	683b      	ldr	r3, [r7, #0]
 8005604:	2b00      	cmp	r3, #0
 8005606:	d11c      	bne.n	8005642 <xTimerGenericCommand+0x66>
		{
			if( xTaskGetSchedulerState() == taskSCHEDULER_RUNNING )
 8005608:	f7ff f854 	bl	80046b4 <xTaskGetSchedulerState>
 800560c:	4603      	mov	r3, r0
 800560e:	2b01      	cmp	r3, #1
 8005610:	d10b      	bne.n	800562a <xTimerGenericCommand+0x4e>
			{
				xReturn = xQueueSendToBack( xTimerQueue, &xMessage, xBlockTime );
 8005612:	4b14      	ldr	r3, [pc, #80]	; (8005664 <xTimerGenericCommand+0x88>)
 8005614:	681a      	ldr	r2, [r3, #0]
 8005616:	f107 0310 	add.w	r3, r7, #16
 800561a:	4610      	mov	r0, r2
 800561c:	4619      	mov	r1, r3
 800561e:	6aba      	ldr	r2, [r7, #40]	; 0x28
 8005620:	2300      	movs	r3, #0
 8005622:	f7ff fa55 	bl	8004ad0 <xQueueGenericSend>
 8005626:	61f8      	str	r0, [r7, #28]
 8005628:	e016      	b.n	8005658 <xTimerGenericCommand+0x7c>
			}
			else
			{
				xReturn = xQueueSendToBack( xTimerQueue, &xMessage, tmrNO_DELAY );
 800562a:	4b0e      	ldr	r3, [pc, #56]	; (8005664 <xTimerGenericCommand+0x88>)
 800562c:	681a      	ldr	r2, [r3, #0]
 800562e:	f107 0310 	add.w	r3, r7, #16
 8005632:	4610      	mov	r0, r2
 8005634:	4619      	mov	r1, r3
 8005636:	2200      	movs	r2, #0
 8005638:	2300      	movs	r3, #0
 800563a:	f7ff fa49 	bl	8004ad0 <xQueueGenericSend>
 800563e:	61f8      	str	r0, [r7, #28]
 8005640:	e00a      	b.n	8005658 <xTimerGenericCommand+0x7c>
			}
		}
		else
		{
			xReturn = xQueueSendToBackFromISR( xTimerQueue, &xMessage, pxHigherPriorityTaskWoken );
 8005642:	4b08      	ldr	r3, [pc, #32]	; (8005664 <xTimerGenericCommand+0x88>)
 8005644:	681a      	ldr	r2, [r3, #0]
 8005646:	f107 0310 	add.w	r3, r7, #16
 800564a:	4610      	mov	r0, r2
 800564c:	4619      	mov	r1, r3
 800564e:	683a      	ldr	r2, [r7, #0]
 8005650:	2300      	movs	r3, #0
 8005652:	f7ff faed 	bl	8004c30 <xQueueGenericSendFromISR>
 8005656:	61f8      	str	r0, [r7, #28]
		}

		traceTIMER_COMMAND_SEND( xTimer, xCommandID, xOptionalValue, xReturn );
	}

	return xReturn;
 8005658:	69fb      	ldr	r3, [r7, #28]
}
 800565a:	4618      	mov	r0, r3
 800565c:	3720      	adds	r7, #32
 800565e:	46bd      	mov	sp, r7
 8005660:	bd80      	pop	{r7, pc}
 8005662:	bf00      	nop
 8005664:	20000628 	.word	0x20000628

08005668 <prvProcessExpiredTimer>:

#endif
/*-----------------------------------------------------------*/

static void prvProcessExpiredTimer( portTickType xNextExpireTime, portTickType xTimeNow )
{
 8005668:	b580      	push	{r7, lr}
 800566a:	b086      	sub	sp, #24
 800566c:	af02      	add	r7, sp, #8
 800566e:	6078      	str	r0, [r7, #4]
 8005670:	6039      	str	r1, [r7, #0]
xTIMER *pxTimer;
portBASE_TYPE xResult;

	/* Remove the timer from the list of active timers.  A check has already
	been performed to ensure the list is not empty. */
	pxTimer = ( xTIMER * ) listGET_OWNER_OF_HEAD_ENTRY( pxCurrentTimerList );
 8005672:	4b18      	ldr	r3, [pc, #96]	; (80056d4 <prvProcessExpiredTimer+0x6c>)
 8005674:	681b      	ldr	r3, [r3, #0]
 8005676:	68db      	ldr	r3, [r3, #12]
 8005678:	68db      	ldr	r3, [r3, #12]
 800567a:	60fb      	str	r3, [r7, #12]
	( void ) uxListRemove( &( pxTimer->xTimerListItem ) );
 800567c:	68fb      	ldr	r3, [r7, #12]
 800567e:	3304      	adds	r3, #4
 8005680:	4618      	mov	r0, r3
 8005682:	f7ff fdc9 	bl	8005218 <uxListRemove>
	traceTIMER_EXPIRED( pxTimer );

	/* If the timer is an auto reload timer then calculate the next
	expiry time and re-insert the timer in the list of active timers. */
	if( pxTimer->uxAutoReload == ( unsigned portBASE_TYPE ) pdTRUE )
 8005686:	68fb      	ldr	r3, [r7, #12]
 8005688:	69db      	ldr	r3, [r3, #28]
 800568a:	2b01      	cmp	r3, #1
 800568c:	d11b      	bne.n	80056c6 <prvProcessExpiredTimer+0x5e>
		a time relative to anything other than the current time.  It
		will therefore be inserted into the correct list relative to
		the time this task thinks it is now, even if a command to
		switch lists due to a tick count overflow is already waiting in
		the timer queue. */
		if( prvInsertTimerInActiveList( pxTimer, ( xNextExpireTime + pxTimer->xTimerPeriodInTicks ), xTimeNow, xNextExpireTime ) == pdTRUE )
 800568e:	68fb      	ldr	r3, [r7, #12]
 8005690:	699a      	ldr	r2, [r3, #24]
 8005692:	687b      	ldr	r3, [r7, #4]
 8005694:	4413      	add	r3, r2
 8005696:	68f8      	ldr	r0, [r7, #12]
 8005698:	4619      	mov	r1, r3
 800569a:	683a      	ldr	r2, [r7, #0]
 800569c:	687b      	ldr	r3, [r7, #4]
 800569e:	f000 f8a9 	bl	80057f4 <prvInsertTimerInActiveList>
 80056a2:	4603      	mov	r3, r0
 80056a4:	2b01      	cmp	r3, #1
 80056a6:	d10e      	bne.n	80056c6 <prvProcessExpiredTimer+0x5e>
		{
			/* The timer expired before it was added to the active timer
			list.  Reload it now.  */
			xResult = xTimerGenericCommand( pxTimer, tmrCOMMAND_START, xNextExpireTime, NULL, tmrNO_DELAY );
 80056a8:	2300      	movs	r3, #0
 80056aa:	9300      	str	r3, [sp, #0]
 80056ac:	68f8      	ldr	r0, [r7, #12]
 80056ae:	2100      	movs	r1, #0
 80056b0:	687a      	ldr	r2, [r7, #4]
 80056b2:	2300      	movs	r3, #0
 80056b4:	f7ff ff92 	bl	80055dc <xTimerGenericCommand>
 80056b8:	60b8      	str	r0, [r7, #8]
			configASSERT( xResult );
 80056ba:	68bb      	ldr	r3, [r7, #8]
 80056bc:	2b00      	cmp	r3, #0
 80056be:	d102      	bne.n	80056c6 <prvProcessExpiredTimer+0x5e>
 80056c0:	f7ff fec6 	bl	8005450 <ulPortSetInterruptMask>
 80056c4:	e7fe      	b.n	80056c4 <prvProcessExpiredTimer+0x5c>
			( void ) xResult;
		}
	}

	/* Call the timer callback. */
	pxTimer->pxCallbackFunction( ( xTimerHandle ) pxTimer );
 80056c6:	68fb      	ldr	r3, [r7, #12]
 80056c8:	6a5b      	ldr	r3, [r3, #36]	; 0x24
 80056ca:	68f8      	ldr	r0, [r7, #12]
 80056cc:	4798      	blx	r3
}
 80056ce:	3710      	adds	r7, #16
 80056d0:	46bd      	mov	sp, r7
 80056d2:	bd80      	pop	{r7, pc}
 80056d4:	20000620 	.word	0x20000620

080056d8 <prvTimerTask>:
/*-----------------------------------------------------------*/

static void prvTimerTask( void *pvParameters )
{
 80056d8:	b580      	push	{r7, lr}
 80056da:	b084      	sub	sp, #16
 80056dc:	af00      	add	r7, sp, #0
 80056de:	6078      	str	r0, [r7, #4]

	for( ;; )
	{
		/* Query the timers list to see if it contains any timers, and if so,
		obtain the time at which the next timer will expire. */
		xNextExpireTime = prvGetNextExpireTime( &xListWasEmpty );
 80056e0:	f107 0308 	add.w	r3, r7, #8
 80056e4:	4618      	mov	r0, r3
 80056e6:	f000 f83f 	bl	8005768 <prvGetNextExpireTime>
 80056ea:	60f8      	str	r0, [r7, #12]

		/* If a timer has expired, process it.  Otherwise, block this task
		until either a timer does expire, or a command is received. */
		prvProcessTimerOrBlockTask( xNextExpireTime, xListWasEmpty );
 80056ec:	68bb      	ldr	r3, [r7, #8]
 80056ee:	68f8      	ldr	r0, [r7, #12]
 80056f0:	4619      	mov	r1, r3
 80056f2:	f000 f803 	bl	80056fc <prvProcessTimerOrBlockTask>

		/* Empty the command queue. */
		prvProcessReceivedCommands();
 80056f6:	f000 f8bf 	bl	8005878 <prvProcessReceivedCommands>
	}
 80056fa:	e7f1      	b.n	80056e0 <prvTimerTask+0x8>

080056fc <prvProcessTimerOrBlockTask>:
}
/*-----------------------------------------------------------*/

static void prvProcessTimerOrBlockTask( portTickType xNextExpireTime, portBASE_TYPE xListWasEmpty )
{
 80056fc:	b580      	push	{r7, lr}
 80056fe:	b084      	sub	sp, #16
 8005700:	af00      	add	r7, sp, #0
 8005702:	6078      	str	r0, [r7, #4]
 8005704:	6039      	str	r1, [r7, #0]
portTickType xTimeNow;
portBASE_TYPE xTimerListsWereSwitched;

	vTaskSuspendAll();
 8005706:	f7fe fa3f 	bl	8003b88 <vTaskSuspendAll>
		/* Obtain the time now to make an assessment as to whether the timer
		has expired or not.  If obtaining the time causes the lists to switch
		then don't process this timer as any timers that remained in the list
		when the lists were switched will have been processed within the
		prvSampelTimeNow() function. */
		xTimeNow = prvSampleTimeNow( &xTimerListsWereSwitched );
 800570a:	f107 0308 	add.w	r3, r7, #8
 800570e:	4618      	mov	r0, r3
 8005710:	f000 f84e 	bl	80057b0 <prvSampleTimeNow>
 8005714:	60f8      	str	r0, [r7, #12]
		if( xTimerListsWereSwitched == pdFALSE )
 8005716:	68bb      	ldr	r3, [r7, #8]
 8005718:	2b00      	cmp	r3, #0
 800571a:	d11e      	bne.n	800575a <prvProcessTimerOrBlockTask+0x5e>
		{
			/* The tick count has not overflowed, has the timer expired? */
			if( ( xListWasEmpty == pdFALSE ) && ( xNextExpireTime <= xTimeNow ) )
 800571c:	683b      	ldr	r3, [r7, #0]
 800571e:	2b00      	cmp	r3, #0
 8005720:	d10a      	bne.n	8005738 <prvProcessTimerOrBlockTask+0x3c>
 8005722:	687a      	ldr	r2, [r7, #4]
 8005724:	68fb      	ldr	r3, [r7, #12]
 8005726:	429a      	cmp	r2, r3
 8005728:	d806      	bhi.n	8005738 <prvProcessTimerOrBlockTask+0x3c>
			{
				( void ) xTaskResumeAll();
 800572a:	f7fe fa3b 	bl	8003ba4 <xTaskResumeAll>
				prvProcessExpiredTimer( xNextExpireTime, xTimeNow );
 800572e:	6878      	ldr	r0, [r7, #4]
 8005730:	68f9      	ldr	r1, [r7, #12]
 8005732:	f7ff ff99 	bl	8005668 <prvProcessExpiredTimer>
 8005736:	e012      	b.n	800575e <prvProcessTimerOrBlockTask+0x62>
				time has not been reached yet.  This task should therefore
				block to wait for the next expire time or a command to be
				received - whichever comes first.  The following line cannot
				be reached unless xNextExpireTime > xTimeNow, except in the
				case when the current timer list is empty. */
				vQueueWaitForMessageRestricted( xTimerQueue, ( xNextExpireTime - xTimeNow ) );
 8005738:	4b0a      	ldr	r3, [pc, #40]	; (8005764 <prvProcessTimerOrBlockTask+0x68>)
 800573a:	681a      	ldr	r2, [r3, #0]
 800573c:	6879      	ldr	r1, [r7, #4]
 800573e:	68fb      	ldr	r3, [r7, #12]
 8005740:	1acb      	subs	r3, r1, r3
 8005742:	4610      	mov	r0, r2
 8005744:	4619      	mov	r1, r3
 8005746:	f7ff fcb3 	bl	80050b0 <vQueueWaitForMessageRestricted>

				if( xTaskResumeAll() == pdFALSE )
 800574a:	f7fe fa2b 	bl	8003ba4 <xTaskResumeAll>
 800574e:	4603      	mov	r3, r0
 8005750:	2b00      	cmp	r3, #0
 8005752:	d104      	bne.n	800575e <prvProcessTimerOrBlockTask+0x62>
				{
					/* Yield to wait for either a command to arrive, or the block time
					to expire.  If a command arrived between the critical section being
					exited and this yield then the yield will not cause the task
					to block. */
					portYIELD_WITHIN_API();
 8005754:	f7ff fe4a 	bl	80053ec <vPortYield>
 8005758:	e001      	b.n	800575e <prvProcessTimerOrBlockTask+0x62>
				}
			}
		}
		else
		{
			( void ) xTaskResumeAll();
 800575a:	f7fe fa23 	bl	8003ba4 <xTaskResumeAll>
		}
	}
}
 800575e:	3710      	adds	r7, #16
 8005760:	46bd      	mov	sp, r7
 8005762:	bd80      	pop	{r7, pc}
 8005764:	20000628 	.word	0x20000628

08005768 <prvGetNextExpireTime>:
/*-----------------------------------------------------------*/

static portTickType prvGetNextExpireTime( portBASE_TYPE *pxListWasEmpty )
{
 8005768:	b480      	push	{r7}
 800576a:	b085      	sub	sp, #20
 800576c:	af00      	add	r7, sp, #0
 800576e:	6078      	str	r0, [r7, #4]
	the timer with the nearest expiry time will expire.  If there are no
	active timers then just set the next expire time to 0.  That will cause
	this task to unblock when the tick count overflows, at which point the
	timer lists will be switched and the next expiry time can be
	re-assessed.  */
	*pxListWasEmpty = listLIST_IS_EMPTY( pxCurrentTimerList );
 8005770:	4b0e      	ldr	r3, [pc, #56]	; (80057ac <prvGetNextExpireTime+0x44>)
 8005772:	681b      	ldr	r3, [r3, #0]
 8005774:	681b      	ldr	r3, [r3, #0]
 8005776:	2b00      	cmp	r3, #0
 8005778:	bf14      	ite	ne
 800577a:	2300      	movne	r3, #0
 800577c:	2301      	moveq	r3, #1
 800577e:	b2db      	uxtb	r3, r3
 8005780:	461a      	mov	r2, r3
 8005782:	687b      	ldr	r3, [r7, #4]
 8005784:	601a      	str	r2, [r3, #0]
	if( *pxListWasEmpty == pdFALSE )
 8005786:	687b      	ldr	r3, [r7, #4]
 8005788:	681b      	ldr	r3, [r3, #0]
 800578a:	2b00      	cmp	r3, #0
 800578c:	d105      	bne.n	800579a <prvGetNextExpireTime+0x32>
	{
		xNextExpireTime = listGET_ITEM_VALUE_OF_HEAD_ENTRY( pxCurrentTimerList );
 800578e:	4b07      	ldr	r3, [pc, #28]	; (80057ac <prvGetNextExpireTime+0x44>)
 8005790:	681b      	ldr	r3, [r3, #0]
 8005792:	68db      	ldr	r3, [r3, #12]
 8005794:	681b      	ldr	r3, [r3, #0]
 8005796:	60fb      	str	r3, [r7, #12]
 8005798:	e001      	b.n	800579e <prvGetNextExpireTime+0x36>
	}
	else
	{
		/* Ensure the task unblocks when the tick count rolls over. */
		xNextExpireTime = ( portTickType ) 0U;
 800579a:	2300      	movs	r3, #0
 800579c:	60fb      	str	r3, [r7, #12]
	}

	return xNextExpireTime;
 800579e:	68fb      	ldr	r3, [r7, #12]
}
 80057a0:	4618      	mov	r0, r3
 80057a2:	3714      	adds	r7, #20
 80057a4:	46bd      	mov	sp, r7
 80057a6:	f85d 7b04 	ldr.w	r7, [sp], #4
 80057aa:	4770      	bx	lr
 80057ac:	20000620 	.word	0x20000620

080057b0 <prvSampleTimeNow>:
/*-----------------------------------------------------------*/

static portTickType prvSampleTimeNow( portBASE_TYPE *pxTimerListsWereSwitched )
{
 80057b0:	b580      	push	{r7, lr}
 80057b2:	b084      	sub	sp, #16
 80057b4:	af00      	add	r7, sp, #0
 80057b6:	6078      	str	r0, [r7, #4]
portTickType xTimeNow;
PRIVILEGED_DATA static portTickType xLastTime = ( portTickType ) 0U; /*lint !e956 Variable is only accessible to one task. */

	xTimeNow = xTaskGetTickCount();
 80057b8:	f7fe fa7a 	bl	8003cb0 <xTaskGetTickCount>
 80057bc:	60f8      	str	r0, [r7, #12]

	if( xTimeNow < xLastTime )
 80057be:	4b0c      	ldr	r3, [pc, #48]	; (80057f0 <prvSampleTimeNow+0x40>)
 80057c0:	681b      	ldr	r3, [r3, #0]
 80057c2:	68fa      	ldr	r2, [r7, #12]
 80057c4:	429a      	cmp	r2, r3
 80057c6:	d208      	bcs.n	80057da <prvSampleTimeNow+0x2a>
	{
		prvSwitchTimerLists( xLastTime );
 80057c8:	4b09      	ldr	r3, [pc, #36]	; (80057f0 <prvSampleTimeNow+0x40>)
 80057ca:	681b      	ldr	r3, [r3, #0]
 80057cc:	4618      	mov	r0, r3
 80057ce:	f000 f8cb 	bl	8005968 <prvSwitchTimerLists>
		*pxTimerListsWereSwitched = pdTRUE;
 80057d2:	687b      	ldr	r3, [r7, #4]
 80057d4:	2201      	movs	r2, #1
 80057d6:	601a      	str	r2, [r3, #0]
 80057d8:	e002      	b.n	80057e0 <prvSampleTimeNow+0x30>
	}
	else
	{
		*pxTimerListsWereSwitched = pdFALSE;
 80057da:	687b      	ldr	r3, [r7, #4]
 80057dc:	2200      	movs	r2, #0
 80057de:	601a      	str	r2, [r3, #0]
	}

	xLastTime = xTimeNow;
 80057e0:	4b03      	ldr	r3, [pc, #12]	; (80057f0 <prvSampleTimeNow+0x40>)
 80057e2:	68fa      	ldr	r2, [r7, #12]
 80057e4:	601a      	str	r2, [r3, #0]

	return xTimeNow;
 80057e6:	68fb      	ldr	r3, [r7, #12]
}
 80057e8:	4618      	mov	r0, r3
 80057ea:	3710      	adds	r7, #16
 80057ec:	46bd      	mov	sp, r7
 80057ee:	bd80      	pop	{r7, pc}
 80057f0:	2000062c 	.word	0x2000062c

080057f4 <prvInsertTimerInActiveList>:
/*-----------------------------------------------------------*/

static portBASE_TYPE prvInsertTimerInActiveList( xTIMER *pxTimer, portTickType xNextExpiryTime, portTickType xTimeNow, portTickType xCommandTime )
{
 80057f4:	b580      	push	{r7, lr}
 80057f6:	b086      	sub	sp, #24
 80057f8:	af00      	add	r7, sp, #0
 80057fa:	60f8      	str	r0, [r7, #12]
 80057fc:	60b9      	str	r1, [r7, #8]
 80057fe:	607a      	str	r2, [r7, #4]
 8005800:	603b      	str	r3, [r7, #0]
portBASE_TYPE xProcessTimerNow = pdFALSE;
 8005802:	2300      	movs	r3, #0
 8005804:	617b      	str	r3, [r7, #20]

	listSET_LIST_ITEM_VALUE( &( pxTimer->xTimerListItem ), xNextExpiryTime );
 8005806:	68fb      	ldr	r3, [r7, #12]
 8005808:	68ba      	ldr	r2, [r7, #8]
 800580a:	605a      	str	r2, [r3, #4]
	listSET_LIST_ITEM_OWNER( &( pxTimer->xTimerListItem ), pxTimer );
 800580c:	68fb      	ldr	r3, [r7, #12]
 800580e:	68fa      	ldr	r2, [r7, #12]
 8005810:	611a      	str	r2, [r3, #16]

	if( xNextExpiryTime <= xTimeNow )
 8005812:	68ba      	ldr	r2, [r7, #8]
 8005814:	687b      	ldr	r3, [r7, #4]
 8005816:	429a      	cmp	r2, r3
 8005818:	d812      	bhi.n	8005840 <prvInsertTimerInActiveList+0x4c>
	{
		/* Has the expiry time elapsed between the command to start/reset a
		timer was issued, and the time the command was processed? */
		if( ( xTimeNow - xCommandTime ) >= pxTimer->xTimerPeriodInTicks )
 800581a:	687a      	ldr	r2, [r7, #4]
 800581c:	683b      	ldr	r3, [r7, #0]
 800581e:	1ad2      	subs	r2, r2, r3
 8005820:	68fb      	ldr	r3, [r7, #12]
 8005822:	699b      	ldr	r3, [r3, #24]
 8005824:	429a      	cmp	r2, r3
 8005826:	d302      	bcc.n	800582e <prvInsertTimerInActiveList+0x3a>
		{
			/* The time between a command being issued and the command being
			processed actually exceeds the timers period.  */
			xProcessTimerNow = pdTRUE;
 8005828:	2301      	movs	r3, #1
 800582a:	617b      	str	r3, [r7, #20]
 800582c:	e01b      	b.n	8005866 <prvInsertTimerInActiveList+0x72>
		}
		else
		{
			vListInsert( pxOverflowTimerList, &( pxTimer->xTimerListItem ) );
 800582e:	4b10      	ldr	r3, [pc, #64]	; (8005870 <prvInsertTimerInActiveList+0x7c>)
 8005830:	681a      	ldr	r2, [r3, #0]
 8005832:	68fb      	ldr	r3, [r7, #12]
 8005834:	3304      	adds	r3, #4
 8005836:	4610      	mov	r0, r2
 8005838:	4619      	mov	r1, r3
 800583a:	f7ff fcb5 	bl	80051a8 <vListInsert>
 800583e:	e012      	b.n	8005866 <prvInsertTimerInActiveList+0x72>
		}
	}
	else
	{
		if( ( xTimeNow < xCommandTime ) && ( xNextExpiryTime >= xCommandTime ) )
 8005840:	687a      	ldr	r2, [r7, #4]
 8005842:	683b      	ldr	r3, [r7, #0]
 8005844:	429a      	cmp	r2, r3
 8005846:	d206      	bcs.n	8005856 <prvInsertTimerInActiveList+0x62>
 8005848:	68ba      	ldr	r2, [r7, #8]
 800584a:	683b      	ldr	r3, [r7, #0]
 800584c:	429a      	cmp	r2, r3
 800584e:	d302      	bcc.n	8005856 <prvInsertTimerInActiveList+0x62>
		{
			/* If, since the command was issued, the tick count has overflowed
			but the expiry time has not, then the timer must have already passed
			its expiry time and should be processed immediately. */
			xProcessTimerNow = pdTRUE;
 8005850:	2301      	movs	r3, #1
 8005852:	617b      	str	r3, [r7, #20]
 8005854:	e007      	b.n	8005866 <prvInsertTimerInActiveList+0x72>
		}
		else
		{
			vListInsert( pxCurrentTimerList, &( pxTimer->xTimerListItem ) );
 8005856:	4b07      	ldr	r3, [pc, #28]	; (8005874 <prvInsertTimerInActiveList+0x80>)
 8005858:	681a      	ldr	r2, [r3, #0]
 800585a:	68fb      	ldr	r3, [r7, #12]
 800585c:	3304      	adds	r3, #4
 800585e:	4610      	mov	r0, r2
 8005860:	4619      	mov	r1, r3
 8005862:	f7ff fca1 	bl	80051a8 <vListInsert>
		}
	}

	return xProcessTimerNow;
 8005866:	697b      	ldr	r3, [r7, #20]
}
 8005868:	4618      	mov	r0, r3
 800586a:	3718      	adds	r7, #24
 800586c:	46bd      	mov	sp, r7
 800586e:	bd80      	pop	{r7, pc}
 8005870:	20000624 	.word	0x20000624
 8005874:	20000620 	.word	0x20000620

08005878 <prvProcessReceivedCommands>:
/*-----------------------------------------------------------*/

static void	prvProcessReceivedCommands( void )
{
 8005878:	b580      	push	{r7, lr}
 800587a:	b08a      	sub	sp, #40	; 0x28
 800587c:	af02      	add	r7, sp, #8
xTIMER_MESSAGE xMessage;
xTIMER *pxTimer;
portBASE_TYPE xTimerListsWereSwitched, xResult;
portTickType xTimeNow;

	while( xQueueReceive( xTimerQueue, &xMessage, tmrNO_DELAY ) != pdFAIL ) /*lint !e603 xMessage does not have to be initialised as it is passed out, not in, and it is not used unless xQueueReceive() returns pdTRUE. */
 800587e:	e060      	b.n	8005942 <prvProcessReceivedCommands+0xca>
	{
		pxTimer = xMessage.pxTimer;
 8005880:	693b      	ldr	r3, [r7, #16]
 8005882:	61fb      	str	r3, [r7, #28]

		if( listIS_CONTAINED_WITHIN( NULL, &( pxTimer->xTimerListItem ) ) == pdFALSE )
 8005884:	69fb      	ldr	r3, [r7, #28]
 8005886:	695b      	ldr	r3, [r3, #20]
 8005888:	2b00      	cmp	r3, #0
 800588a:	d004      	beq.n	8005896 <prvProcessReceivedCommands+0x1e>
		{
			/* The timer is in a list, remove it. */
			( void ) uxListRemove( &( pxTimer->xTimerListItem ) );
 800588c:	69fb      	ldr	r3, [r7, #28]
 800588e:	3304      	adds	r3, #4
 8005890:	4618      	mov	r0, r3
 8005892:	f7ff fcc1 	bl	8005218 <uxListRemove>
		it must be present in the function call.  prvSampleTimeNow() must be 
		called after the message is received from xTimerQueue so there is no 
		possibility of a higher priority task adding a message to the message
		queue with a time that is ahead of the timer daemon task (because it
		pre-empted the timer daemon task after the xTimeNow value was set). */
		xTimeNow = prvSampleTimeNow( &xTimerListsWereSwitched );
 8005896:	1d3b      	adds	r3, r7, #4
 8005898:	4618      	mov	r0, r3
 800589a:	f7ff ff89 	bl	80057b0 <prvSampleTimeNow>
 800589e:	61b8      	str	r0, [r7, #24]

		switch( xMessage.xMessageID )
 80058a0:	68bb      	ldr	r3, [r7, #8]
 80058a2:	2b03      	cmp	r3, #3
 80058a4:	d84c      	bhi.n	8005940 <prvProcessReceivedCommands+0xc8>
 80058a6:	a201      	add	r2, pc, #4	; (adr r2, 80058ac <prvProcessReceivedCommands+0x34>)
 80058a8:	f852 f023 	ldr.w	pc, [r2, r3, lsl #2]
 80058ac:	080058bd 	.word	0x080058bd
 80058b0:	08005941 	.word	0x08005941
 80058b4:	0800590f 	.word	0x0800590f
 80058b8:	08005939 	.word	0x08005939
		{
			case tmrCOMMAND_START :
				/* Start or restart a timer. */
				if( prvInsertTimerInActiveList( pxTimer,  xMessage.xMessageValue + pxTimer->xTimerPeriodInTicks, xTimeNow, xMessage.xMessageValue ) == pdTRUE )
 80058bc:	68fa      	ldr	r2, [r7, #12]
 80058be:	69fb      	ldr	r3, [r7, #28]
 80058c0:	699b      	ldr	r3, [r3, #24]
 80058c2:	441a      	add	r2, r3
 80058c4:	68fb      	ldr	r3, [r7, #12]
 80058c6:	69f8      	ldr	r0, [r7, #28]
 80058c8:	4611      	mov	r1, r2
 80058ca:	69ba      	ldr	r2, [r7, #24]
 80058cc:	f7ff ff92 	bl	80057f4 <prvInsertTimerInActiveList>
 80058d0:	4603      	mov	r3, r0
 80058d2:	2b01      	cmp	r3, #1
 80058d4:	d11a      	bne.n	800590c <prvProcessReceivedCommands+0x94>
				{
					/* The timer expired before it was added to the active timer
					list.  Process it now. */
					pxTimer->pxCallbackFunction( ( xTimerHandle ) pxTimer );
 80058d6:	69fb      	ldr	r3, [r7, #28]
 80058d8:	6a5b      	ldr	r3, [r3, #36]	; 0x24
 80058da:	69f8      	ldr	r0, [r7, #28]
 80058dc:	4798      	blx	r3

					if( pxTimer->uxAutoReload == ( unsigned portBASE_TYPE ) pdTRUE )
 80058de:	69fb      	ldr	r3, [r7, #28]
 80058e0:	69db      	ldr	r3, [r3, #28]
 80058e2:	2b01      	cmp	r3, #1
 80058e4:	d112      	bne.n	800590c <prvProcessReceivedCommands+0x94>
					{
						xResult = xTimerGenericCommand( pxTimer, tmrCOMMAND_START, xMessage.xMessageValue + pxTimer->xTimerPeriodInTicks, NULL, tmrNO_DELAY );
 80058e6:	68fa      	ldr	r2, [r7, #12]
 80058e8:	69fb      	ldr	r3, [r7, #28]
 80058ea:	699b      	ldr	r3, [r3, #24]
 80058ec:	4413      	add	r3, r2
 80058ee:	2200      	movs	r2, #0
 80058f0:	9200      	str	r2, [sp, #0]
 80058f2:	69f8      	ldr	r0, [r7, #28]
 80058f4:	2100      	movs	r1, #0
 80058f6:	461a      	mov	r2, r3
 80058f8:	2300      	movs	r3, #0
 80058fa:	f7ff fe6f 	bl	80055dc <xTimerGenericCommand>
 80058fe:	6178      	str	r0, [r7, #20]
						configASSERT( xResult );
 8005900:	697b      	ldr	r3, [r7, #20]
 8005902:	2b00      	cmp	r3, #0
 8005904:	d102      	bne.n	800590c <prvProcessReceivedCommands+0x94>
 8005906:	f7ff fda3 	bl	8005450 <ulPortSetInterruptMask>
 800590a:	e7fe      	b.n	800590a <prvProcessReceivedCommands+0x92>
						( void ) xResult;
					}
				}
				break;
 800590c:	e019      	b.n	8005942 <prvProcessReceivedCommands+0xca>
				/* The timer has already been removed from the active list.
				There is nothing to do here. */
				break;

			case tmrCOMMAND_CHANGE_PERIOD :
				pxTimer->xTimerPeriodInTicks = xMessage.xMessageValue;
 800590e:	68fa      	ldr	r2, [r7, #12]
 8005910:	69fb      	ldr	r3, [r7, #28]
 8005912:	619a      	str	r2, [r3, #24]
				configASSERT( ( pxTimer->xTimerPeriodInTicks > 0 ) );
 8005914:	69fb      	ldr	r3, [r7, #28]
 8005916:	699b      	ldr	r3, [r3, #24]
 8005918:	2b00      	cmp	r3, #0
 800591a:	d102      	bne.n	8005922 <prvProcessReceivedCommands+0xaa>
 800591c:	f7ff fd98 	bl	8005450 <ulPortSetInterruptMask>
 8005920:	e7fe      	b.n	8005920 <prvProcessReceivedCommands+0xa8>
				longer or shorter than the old one.  The command time is 
				therefore set to the current time, and as the period cannot be
				zero the next expiry time can only be in the future, meaning
				(unlike for the xTimerStart() case above) there is no fail case
				that needs to be handled here. */
				( void ) prvInsertTimerInActiveList( pxTimer, ( xTimeNow + pxTimer->xTimerPeriodInTicks ), xTimeNow, xTimeNow );
 8005922:	69fb      	ldr	r3, [r7, #28]
 8005924:	699a      	ldr	r2, [r3, #24]
 8005926:	69bb      	ldr	r3, [r7, #24]
 8005928:	4413      	add	r3, r2
 800592a:	69f8      	ldr	r0, [r7, #28]
 800592c:	4619      	mov	r1, r3
 800592e:	69ba      	ldr	r2, [r7, #24]
 8005930:	69bb      	ldr	r3, [r7, #24]
 8005932:	f7ff ff5f 	bl	80057f4 <prvInsertTimerInActiveList>
				break;
 8005936:	e004      	b.n	8005942 <prvProcessReceivedCommands+0xca>

			case tmrCOMMAND_DELETE :
				/* The timer has already been removed from the active list,
				just free up the memory. */
				vPortFree( pxTimer );
 8005938:	69f8      	ldr	r0, [r7, #28]
 800593a:	f000 fc65 	bl	8006208 <vPortFree>
				break;
 800593e:	e000      	b.n	8005942 <prvProcessReceivedCommands+0xca>

			default	:
				/* Don't expect to get here. */
				break;
 8005940:	bf00      	nop
xTIMER_MESSAGE xMessage;
xTIMER *pxTimer;
portBASE_TYPE xTimerListsWereSwitched, xResult;
portTickType xTimeNow;

	while( xQueueReceive( xTimerQueue, &xMessage, tmrNO_DELAY ) != pdFAIL ) /*lint !e603 xMessage does not have to be initialised as it is passed out, not in, and it is not used unless xQueueReceive() returns pdTRUE. */
 8005942:	4b08      	ldr	r3, [pc, #32]	; (8005964 <prvProcessReceivedCommands+0xec>)
 8005944:	681a      	ldr	r2, [r3, #0]
 8005946:	f107 0308 	add.w	r3, r7, #8
 800594a:	4610      	mov	r0, r2
 800594c:	4619      	mov	r1, r3
 800594e:	2200      	movs	r2, #0
 8005950:	2300      	movs	r3, #0
 8005952:	f7ff f9d7 	bl	8004d04 <xQueueGenericReceive>
 8005956:	4603      	mov	r3, r0
 8005958:	2b00      	cmp	r3, #0
 800595a:	d191      	bne.n	8005880 <prvProcessReceivedCommands+0x8>
			default	:
				/* Don't expect to get here. */
				break;
		}
	}
}
 800595c:	3720      	adds	r7, #32
 800595e:	46bd      	mov	sp, r7
 8005960:	bd80      	pop	{r7, pc}
 8005962:	bf00      	nop
 8005964:	20000628 	.word	0x20000628

08005968 <prvSwitchTimerLists>:
/*-----------------------------------------------------------*/

static void prvSwitchTimerLists( portTickType xLastTime )
{
 8005968:	b580      	push	{r7, lr}
 800596a:	b08a      	sub	sp, #40	; 0x28
 800596c:	af02      	add	r7, sp, #8
 800596e:	6078      	str	r0, [r7, #4]

	/* The tick count has overflowed.  The timer lists must be switched.
	If there are any timers still referenced from the current timer list
	then they must have expired and should be processed before the lists
	are switched. */
	while( listLIST_IS_EMPTY( pxCurrentTimerList ) == pdFALSE )
 8005970:	e03d      	b.n	80059ee <prvSwitchTimerLists+0x86>
	{
		xNextExpireTime = listGET_ITEM_VALUE_OF_HEAD_ENTRY( pxCurrentTimerList );
 8005972:	4b28      	ldr	r3, [pc, #160]	; (8005a14 <prvSwitchTimerLists+0xac>)
 8005974:	681b      	ldr	r3, [r3, #0]
 8005976:	68db      	ldr	r3, [r3, #12]
 8005978:	681b      	ldr	r3, [r3, #0]
 800597a:	61fb      	str	r3, [r7, #28]

		/* Remove the timer from the list. */
		pxTimer = ( xTIMER * ) listGET_OWNER_OF_HEAD_ENTRY( pxCurrentTimerList );
 800597c:	4b25      	ldr	r3, [pc, #148]	; (8005a14 <prvSwitchTimerLists+0xac>)
 800597e:	681b      	ldr	r3, [r3, #0]
 8005980:	68db      	ldr	r3, [r3, #12]
 8005982:	68db      	ldr	r3, [r3, #12]
 8005984:	61bb      	str	r3, [r7, #24]
		( void ) uxListRemove( &( pxTimer->xTimerListItem ) );
 8005986:	69bb      	ldr	r3, [r7, #24]
 8005988:	3304      	adds	r3, #4
 800598a:	4618      	mov	r0, r3
 800598c:	f7ff fc44 	bl	8005218 <uxListRemove>

		/* Execute its callback, then send a command to restart the timer if
		it is an auto-reload timer.  It cannot be restarted here as the lists
		have not yet been switched. */
		pxTimer->pxCallbackFunction( ( xTimerHandle ) pxTimer );
 8005990:	69bb      	ldr	r3, [r7, #24]
 8005992:	6a5b      	ldr	r3, [r3, #36]	; 0x24
 8005994:	69b8      	ldr	r0, [r7, #24]
 8005996:	4798      	blx	r3

		if( pxTimer->uxAutoReload == ( unsigned portBASE_TYPE ) pdTRUE )
 8005998:	69bb      	ldr	r3, [r7, #24]
 800599a:	69db      	ldr	r3, [r3, #28]
 800599c:	2b01      	cmp	r3, #1
 800599e:	d126      	bne.n	80059ee <prvSwitchTimerLists+0x86>
			the timer going into the same timer list then it has already expired
			and the timer should be re-inserted into the current list so it is
			processed again within this loop.  Otherwise a command should be sent
			to restart the timer to ensure it is only inserted into a list after
			the lists have been swapped. */
			xReloadTime = ( xNextExpireTime + pxTimer->xTimerPeriodInTicks );
 80059a0:	69bb      	ldr	r3, [r7, #24]
 80059a2:	699a      	ldr	r2, [r3, #24]
 80059a4:	69fb      	ldr	r3, [r7, #28]
 80059a6:	4413      	add	r3, r2
 80059a8:	617b      	str	r3, [r7, #20]
			if( xReloadTime > xNextExpireTime )
 80059aa:	697a      	ldr	r2, [r7, #20]
 80059ac:	69fb      	ldr	r3, [r7, #28]
 80059ae:	429a      	cmp	r2, r3
 80059b0:	d90e      	bls.n	80059d0 <prvSwitchTimerLists+0x68>
			{
				listSET_LIST_ITEM_VALUE( &( pxTimer->xTimerListItem ), xReloadTime );
 80059b2:	69bb      	ldr	r3, [r7, #24]
 80059b4:	697a      	ldr	r2, [r7, #20]
 80059b6:	605a      	str	r2, [r3, #4]
				listSET_LIST_ITEM_OWNER( &( pxTimer->xTimerListItem ), pxTimer );
 80059b8:	69bb      	ldr	r3, [r7, #24]
 80059ba:	69ba      	ldr	r2, [r7, #24]
 80059bc:	611a      	str	r2, [r3, #16]
				vListInsert( pxCurrentTimerList, &( pxTimer->xTimerListItem ) );
 80059be:	4b15      	ldr	r3, [pc, #84]	; (8005a14 <prvSwitchTimerLists+0xac>)
 80059c0:	681a      	ldr	r2, [r3, #0]
 80059c2:	69bb      	ldr	r3, [r7, #24]
 80059c4:	3304      	adds	r3, #4
 80059c6:	4610      	mov	r0, r2
 80059c8:	4619      	mov	r1, r3
 80059ca:	f7ff fbed 	bl	80051a8 <vListInsert>
 80059ce:	e00e      	b.n	80059ee <prvSwitchTimerLists+0x86>
			}
			else
			{
				xResult = xTimerGenericCommand( pxTimer, tmrCOMMAND_START, xNextExpireTime, NULL, tmrNO_DELAY );
 80059d0:	2300      	movs	r3, #0
 80059d2:	9300      	str	r3, [sp, #0]
 80059d4:	69b8      	ldr	r0, [r7, #24]
 80059d6:	2100      	movs	r1, #0
 80059d8:	69fa      	ldr	r2, [r7, #28]
 80059da:	2300      	movs	r3, #0
 80059dc:	f7ff fdfe 	bl	80055dc <xTimerGenericCommand>
 80059e0:	6138      	str	r0, [r7, #16]
				configASSERT( xResult );
 80059e2:	693b      	ldr	r3, [r7, #16]
 80059e4:	2b00      	cmp	r3, #0
 80059e6:	d102      	bne.n	80059ee <prvSwitchTimerLists+0x86>
 80059e8:	f7ff fd32 	bl	8005450 <ulPortSetInterruptMask>
 80059ec:	e7fe      	b.n	80059ec <prvSwitchTimerLists+0x84>

	/* The tick count has overflowed.  The timer lists must be switched.
	If there are any timers still referenced from the current timer list
	then they must have expired and should be processed before the lists
	are switched. */
	while( listLIST_IS_EMPTY( pxCurrentTimerList ) == pdFALSE )
 80059ee:	4b09      	ldr	r3, [pc, #36]	; (8005a14 <prvSwitchTimerLists+0xac>)
 80059f0:	681b      	ldr	r3, [r3, #0]
 80059f2:	681b      	ldr	r3, [r3, #0]
 80059f4:	2b00      	cmp	r3, #0
 80059f6:	d1bc      	bne.n	8005972 <prvSwitchTimerLists+0xa>
				( void ) xResult;
			}
		}
	}

	pxTemp = pxCurrentTimerList;
 80059f8:	4b06      	ldr	r3, [pc, #24]	; (8005a14 <prvSwitchTimerLists+0xac>)
 80059fa:	681b      	ldr	r3, [r3, #0]
 80059fc:	60fb      	str	r3, [r7, #12]
	pxCurrentTimerList = pxOverflowTimerList;
 80059fe:	4b06      	ldr	r3, [pc, #24]	; (8005a18 <prvSwitchTimerLists+0xb0>)
 8005a00:	681a      	ldr	r2, [r3, #0]
 8005a02:	4b04      	ldr	r3, [pc, #16]	; (8005a14 <prvSwitchTimerLists+0xac>)
 8005a04:	601a      	str	r2, [r3, #0]
	pxOverflowTimerList = pxTemp;
 8005a06:	4b04      	ldr	r3, [pc, #16]	; (8005a18 <prvSwitchTimerLists+0xb0>)
 8005a08:	68fa      	ldr	r2, [r7, #12]
 8005a0a:	601a      	str	r2, [r3, #0]
}
 8005a0c:	3720      	adds	r7, #32
 8005a0e:	46bd      	mov	sp, r7
 8005a10:	bd80      	pop	{r7, pc}
 8005a12:	bf00      	nop
 8005a14:	20000620 	.word	0x20000620
 8005a18:	20000624 	.word	0x20000624

08005a1c <prvCheckForValidListAndQueue>:
/*-----------------------------------------------------------*/

static void prvCheckForValidListAndQueue( void )
{
 8005a1c:	b580      	push	{r7, lr}
 8005a1e:	af00      	add	r7, sp, #0
	/* Check that the list from which active timers are referenced, and the
	queue used to communicate with the timer service, have been
	initialised. */
	taskENTER_CRITICAL();
 8005a20:	f7ff fcf4 	bl	800540c <vPortEnterCritical>
	{
		if( xTimerQueue == NULL )
 8005a24:	4b0d      	ldr	r3, [pc, #52]	; (8005a5c <prvCheckForValidListAndQueue+0x40>)
 8005a26:	681b      	ldr	r3, [r3, #0]
 8005a28:	2b00      	cmp	r3, #0
 8005a2a:	d113      	bne.n	8005a54 <prvCheckForValidListAndQueue+0x38>
		{
			vListInitialise( &xActiveTimerList1 );
 8005a2c:	480c      	ldr	r0, [pc, #48]	; (8005a60 <prvCheckForValidListAndQueue+0x44>)
 8005a2e:	f7ff fb6b 	bl	8005108 <vListInitialise>
			vListInitialise( &xActiveTimerList2 );
 8005a32:	480c      	ldr	r0, [pc, #48]	; (8005a64 <prvCheckForValidListAndQueue+0x48>)
 8005a34:	f7ff fb68 	bl	8005108 <vListInitialise>
			pxCurrentTimerList = &xActiveTimerList1;
 8005a38:	4b0b      	ldr	r3, [pc, #44]	; (8005a68 <prvCheckForValidListAndQueue+0x4c>)
 8005a3a:	4a09      	ldr	r2, [pc, #36]	; (8005a60 <prvCheckForValidListAndQueue+0x44>)
 8005a3c:	601a      	str	r2, [r3, #0]
			pxOverflowTimerList = &xActiveTimerList2;
 8005a3e:	4b0b      	ldr	r3, [pc, #44]	; (8005a6c <prvCheckForValidListAndQueue+0x50>)
 8005a40:	4a08      	ldr	r2, [pc, #32]	; (8005a64 <prvCheckForValidListAndQueue+0x48>)
 8005a42:	601a      	str	r2, [r3, #0]
			xTimerQueue = xQueueCreate( ( unsigned portBASE_TYPE ) configTIMER_QUEUE_LENGTH, sizeof( xTIMER_MESSAGE ) );
 8005a44:	200a      	movs	r0, #10
 8005a46:	210c      	movs	r1, #12
 8005a48:	2200      	movs	r2, #0
 8005a4a:	f7fe ffb7 	bl	80049bc <xQueueGenericCreate>
 8005a4e:	4602      	mov	r2, r0
 8005a50:	4b02      	ldr	r3, [pc, #8]	; (8005a5c <prvCheckForValidListAndQueue+0x40>)
 8005a52:	601a      	str	r2, [r3, #0]
		}
	}
	taskEXIT_CRITICAL();
 8005a54:	f7ff fcea 	bl	800542c <vPortExitCritical>
}
 8005a58:	bd80      	pop	{r7, pc}
 8005a5a:	bf00      	nop
 8005a5c:	20000628 	.word	0x20000628
 8005a60:	200005f8 	.word	0x200005f8
 8005a64:	2000060c 	.word	0x2000060c
 8005a68:	20000620 	.word	0x20000620
 8005a6c:	20000624 	.word	0x20000624

08005a70 <ITM_SendChar>:

    \param [in]     ch  Character to transmit
    \return             Character to transmit
 */
static __INLINE uint32_t ITM_SendChar (uint32_t ch)
{
 8005a70:	b480      	push	{r7}
 8005a72:	b083      	sub	sp, #12
 8005a74:	af00      	add	r7, sp, #0
 8005a76:	6078      	str	r0, [r7, #4]
  if ((CoreDebug->DEMCR & CoreDebug_DEMCR_TRCENA_Msk)  &&      /* Trace enabled */
 8005a78:	4b13      	ldr	r3, [pc, #76]	; (8005ac8 <ITM_SendChar+0x58>)
 8005a7a:	68db      	ldr	r3, [r3, #12]
 8005a7c:	f003 7380 	and.w	r3, r3, #16777216	; 0x1000000
 8005a80:	2b00      	cmp	r3, #0
 8005a82:	d01a      	beq.n	8005aba <ITM_SendChar+0x4a>
      (ITM->TCR & ITM_TCR_ITMENA_Msk)                  &&      /* ITM enabled */
 8005a84:	f04f 4360 	mov.w	r3, #3758096384	; 0xe0000000
 8005a88:	f8d3 3e80 	ldr.w	r3, [r3, #3712]	; 0xe80
 8005a8c:	f003 0301 	and.w	r3, r3, #1
    \param [in]     ch  Character to transmit
    \return             Character to transmit
 */
static __INLINE uint32_t ITM_SendChar (uint32_t ch)
{
  if ((CoreDebug->DEMCR & CoreDebug_DEMCR_TRCENA_Msk)  &&      /* Trace enabled */
 8005a90:	2b00      	cmp	r3, #0
 8005a92:	d012      	beq.n	8005aba <ITM_SendChar+0x4a>
      (ITM->TCR & ITM_TCR_ITMENA_Msk)                  &&      /* ITM enabled */
      (ITM->TER & (1UL << 0)        )                    )     /* ITM Port #0 enabled */
 8005a94:	f04f 4360 	mov.w	r3, #3758096384	; 0xe0000000
 8005a98:	f8d3 3e00 	ldr.w	r3, [r3, #3584]	; 0xe00
 8005a9c:	f003 0301 	and.w	r3, r3, #1
    \return             Character to transmit
 */
static __INLINE uint32_t ITM_SendChar (uint32_t ch)
{
  if ((CoreDebug->DEMCR & CoreDebug_DEMCR_TRCENA_Msk)  &&      /* Trace enabled */
      (ITM->TCR & ITM_TCR_ITMENA_Msk)                  &&      /* ITM enabled */
 8005aa0:	2b00      	cmp	r3, #0
 8005aa2:	d00a      	beq.n	8005aba <ITM_SendChar+0x4a>
      (ITM->TER & (1UL << 0)        )                    )     /* ITM Port #0 enabled */
  {
    while (ITM->PORT[0].u32 == 0);
 8005aa4:	bf00      	nop
 8005aa6:	f04f 4360 	mov.w	r3, #3758096384	; 0xe0000000
 8005aaa:	681b      	ldr	r3, [r3, #0]
 8005aac:	2b00      	cmp	r3, #0
 8005aae:	d0fa      	beq.n	8005aa6 <ITM_SendChar+0x36>
    ITM->PORT[0].u8 = (uint8_t) ch;
 8005ab0:	f04f 4360 	mov.w	r3, #3758096384	; 0xe0000000
 8005ab4:	687a      	ldr	r2, [r7, #4]
 8005ab6:	b2d2      	uxtb	r2, r2
 8005ab8:	701a      	strb	r2, [r3, #0]
  }
  return (ch);
 8005aba:	687b      	ldr	r3, [r7, #4]
}
 8005abc:	4618      	mov	r0, r3
 8005abe:	370c      	adds	r7, #12
 8005ac0:	46bd      	mov	sp, r7
 8005ac2:	f85d 7b04 	ldr.w	r7, [sp], #4
 8005ac6:	4770      	bx	lr
 8005ac8:	e000edf0 	.word	0xe000edf0

08005acc <out>:
static char buf[12];
static unsigned int num;
static char uc;
static char zs;

static void out(char c) {
 8005acc:	b480      	push	{r7}
 8005ace:	b083      	sub	sp, #12
 8005ad0:	af00      	add	r7, sp, #0
 8005ad2:	4603      	mov	r3, r0
 8005ad4:	71fb      	strb	r3, [r7, #7]
  *bf++ = c;
 8005ad6:	4b06      	ldr	r3, [pc, #24]	; (8005af0 <out+0x24>)
 8005ad8:	681b      	ldr	r3, [r3, #0]
 8005ada:	1c59      	adds	r1, r3, #1
 8005adc:	4a04      	ldr	r2, [pc, #16]	; (8005af0 <out+0x24>)
 8005ade:	6011      	str	r1, [r2, #0]
 8005ae0:	79fa      	ldrb	r2, [r7, #7]
 8005ae2:	701a      	strb	r2, [r3, #0]
}
 8005ae4:	370c      	adds	r7, #12
 8005ae6:	46bd      	mov	sp, r7
 8005ae8:	f85d 7b04 	ldr.w	r7, [sp], #4
 8005aec:	4770      	bx	lr
 8005aee:	bf00      	nop
 8005af0:	20000630 	.word	0x20000630

08005af4 <outDgt>:

static void outDgt(char dgt) {
 8005af4:	b580      	push	{r7, lr}
 8005af6:	b082      	sub	sp, #8
 8005af8:	af00      	add	r7, sp, #0
 8005afa:	4603      	mov	r3, r0
 8005afc:	71fb      	strb	r3, [r7, #7]
  out(dgt+(dgt<10 ? '0' : (uc ? 'A' : 'a')-10));
 8005afe:	79fb      	ldrb	r3, [r7, #7]
 8005b00:	2b09      	cmp	r3, #9
 8005b02:	d907      	bls.n	8005b14 <outDgt+0x20>
 8005b04:	4b0a      	ldr	r3, [pc, #40]	; (8005b30 <outDgt+0x3c>)
 8005b06:	781b      	ldrb	r3, [r3, #0]
 8005b08:	2b00      	cmp	r3, #0
 8005b0a:	d001      	beq.n	8005b10 <outDgt+0x1c>
 8005b0c:	2337      	movs	r3, #55	; 0x37
 8005b0e:	e002      	b.n	8005b16 <outDgt+0x22>
 8005b10:	2357      	movs	r3, #87	; 0x57
 8005b12:	e000      	b.n	8005b16 <outDgt+0x22>
 8005b14:	2330      	movs	r3, #48	; 0x30
 8005b16:	79fa      	ldrb	r2, [r7, #7]
 8005b18:	4413      	add	r3, r2
 8005b1a:	b2db      	uxtb	r3, r3
 8005b1c:	4618      	mov	r0, r3
 8005b1e:	f7ff ffd5 	bl	8005acc <out>
  zs=1;
 8005b22:	4b04      	ldr	r3, [pc, #16]	; (8005b34 <outDgt+0x40>)
 8005b24:	2201      	movs	r2, #1
 8005b26:	701a      	strb	r2, [r3, #0]
}
 8005b28:	3708      	adds	r7, #8
 8005b2a:	46bd      	mov	sp, r7
 8005b2c:	bd80      	pop	{r7, pc}
 8005b2e:	bf00      	nop
 8005b30:	20000644 	.word	0x20000644
 8005b34:	20000645 	.word	0x20000645

08005b38 <divOut>:

static void divOut(unsigned int div) {
 8005b38:	b580      	push	{r7, lr}
 8005b3a:	b084      	sub	sp, #16
 8005b3c:	af00      	add	r7, sp, #0
 8005b3e:	6078      	str	r0, [r7, #4]
  unsigned char dgt=0;
 8005b40:	2300      	movs	r3, #0
 8005b42:	73fb      	strb	r3, [r7, #15]
  num &= 0xffffffff;
 8005b44:	4b10      	ldr	r3, [pc, #64]	; (8005b88 <divOut+0x50>)
 8005b46:	681a      	ldr	r2, [r3, #0]
 8005b48:	4b0f      	ldr	r3, [pc, #60]	; (8005b88 <divOut+0x50>)
 8005b4a:	601a      	str	r2, [r3, #0]
  while (num>=div) {
 8005b4c:	e008      	b.n	8005b60 <divOut+0x28>
    num -= div;
 8005b4e:	4b0e      	ldr	r3, [pc, #56]	; (8005b88 <divOut+0x50>)
 8005b50:	681a      	ldr	r2, [r3, #0]
 8005b52:	687b      	ldr	r3, [r7, #4]
 8005b54:	1ad2      	subs	r2, r2, r3
 8005b56:	4b0c      	ldr	r3, [pc, #48]	; (8005b88 <divOut+0x50>)
 8005b58:	601a      	str	r2, [r3, #0]
    dgt++;
 8005b5a:	7bfb      	ldrb	r3, [r7, #15]
 8005b5c:	3301      	adds	r3, #1
 8005b5e:	73fb      	strb	r3, [r7, #15]
}

static void divOut(unsigned int div) {
  unsigned char dgt=0;
  num &= 0xffffffff;
  while (num>=div) {
 8005b60:	4b09      	ldr	r3, [pc, #36]	; (8005b88 <divOut+0x50>)
 8005b62:	681a      	ldr	r2, [r3, #0]
 8005b64:	687b      	ldr	r3, [r7, #4]
 8005b66:	429a      	cmp	r2, r3
 8005b68:	d2f1      	bcs.n	8005b4e <divOut+0x16>
    num -= div;
    dgt++;
  }
  if (zs || dgt>0)
 8005b6a:	4b08      	ldr	r3, [pc, #32]	; (8005b8c <divOut+0x54>)
 8005b6c:	781b      	ldrb	r3, [r3, #0]
 8005b6e:	2b00      	cmp	r3, #0
 8005b70:	d102      	bne.n	8005b78 <divOut+0x40>
 8005b72:	7bfb      	ldrb	r3, [r7, #15]
 8005b74:	2b00      	cmp	r3, #0
 8005b76:	d003      	beq.n	8005b80 <divOut+0x48>
    outDgt(dgt);
 8005b78:	7bfb      	ldrb	r3, [r7, #15]
 8005b7a:	4618      	mov	r0, r3
 8005b7c:	f7ff ffba 	bl	8005af4 <outDgt>
}
 8005b80:	3710      	adds	r7, #16
 8005b82:	46bd      	mov	sp, r7
 8005b84:	bd80      	pop	{r7, pc}
 8005b86:	bf00      	nop
 8005b88:	20000640 	.word	0x20000640
 8005b8c:	20000645 	.word	0x20000645

08005b90 <t_printf>:
#endif
  return 1;
}

void t_printf(const char *fmt, ...)
{
 8005b90:	b40f      	push	{r0, r1, r2, r3}
 8005b92:	b580      	push	{r7, lr}
 8005b94:	b084      	sub	sp, #16
 8005b96:	af00      	add	r7, sp, #0
  va_list va;
  char ch;
  char* p;

  va_start(va,fmt);
 8005b98:	f107 031c 	add.w	r3, r7, #28
 8005b9c:	603b      	str	r3, [r7, #0]

  while ((ch=*(fmt++))) {
 8005b9e:	e10f      	b.n	8005dc0 <t_printf+0x230>
    if (ch!='%') {
 8005ba0:	7bfb      	ldrb	r3, [r7, #15]
 8005ba2:	2b25      	cmp	r3, #37	; 0x25
 8005ba4:	d004      	beq.n	8005bb0 <t_printf+0x20>
#ifdef ITM_TRACE
      ITM_SendChar ((uint32_t) ch);
 8005ba6:	7bfb      	ldrb	r3, [r7, #15]
 8005ba8:	4618      	mov	r0, r3
 8005baa:	f7ff ff61 	bl	8005a70 <ITM_SendChar>
 8005bae:	e107      	b.n	8005dc0 <t_printf+0x230>
#else
      putchar(ch);
#endif
    }
    else {
      char lz=0;
 8005bb0:	2300      	movs	r3, #0
 8005bb2:	71fb      	strb	r3, [r7, #7]
      char w=0;
 8005bb4:	2300      	movs	r3, #0
 8005bb6:	71bb      	strb	r3, [r7, #6]
      ch=*(fmt++);
 8005bb8:	69bb      	ldr	r3, [r7, #24]
 8005bba:	1c5a      	adds	r2, r3, #1
 8005bbc:	61ba      	str	r2, [r7, #24]
 8005bbe:	781b      	ldrb	r3, [r3, #0]
 8005bc0:	73fb      	strb	r3, [r7, #15]
      if (ch=='0') {
 8005bc2:	7bfb      	ldrb	r3, [r7, #15]
 8005bc4:	2b30      	cmp	r3, #48	; 0x30
 8005bc6:	d106      	bne.n	8005bd6 <t_printf+0x46>
	ch=*(fmt++);
 8005bc8:	69bb      	ldr	r3, [r7, #24]
 8005bca:	1c5a      	adds	r2, r3, #1
 8005bcc:	61ba      	str	r2, [r7, #24]
 8005bce:	781b      	ldrb	r3, [r3, #0]
 8005bd0:	73fb      	strb	r3, [r7, #15]
	lz=1;
 8005bd2:	2301      	movs	r3, #1
 8005bd4:	71fb      	strb	r3, [r7, #7]
      }
      if (ch>='0' && ch<='9') {
 8005bd6:	7bfb      	ldrb	r3, [r7, #15]
 8005bd8:	2b2f      	cmp	r3, #47	; 0x2f
 8005bda:	d91d      	bls.n	8005c18 <t_printf+0x88>
 8005bdc:	7bfb      	ldrb	r3, [r7, #15]
 8005bde:	2b39      	cmp	r3, #57	; 0x39
 8005be0:	d81a      	bhi.n	8005c18 <t_printf+0x88>
	w=0;
 8005be2:	2300      	movs	r3, #0
 8005be4:	71bb      	strb	r3, [r7, #6]
	while (ch>='0' && ch<='9') {
 8005be6:	e011      	b.n	8005c0c <t_printf+0x7c>
	  w=(((w<<2)+w)<<1)+ch-'0';
 8005be8:	79bb      	ldrb	r3, [r7, #6]
 8005bea:	009b      	lsls	r3, r3, #2
 8005bec:	b2da      	uxtb	r2, r3
 8005bee:	79bb      	ldrb	r3, [r7, #6]
 8005bf0:	4413      	add	r3, r2
 8005bf2:	b2db      	uxtb	r3, r3
 8005bf4:	005b      	lsls	r3, r3, #1
 8005bf6:	b2da      	uxtb	r2, r3
 8005bf8:	7bfb      	ldrb	r3, [r7, #15]
 8005bfa:	4413      	add	r3, r2
 8005bfc:	b2db      	uxtb	r3, r3
 8005bfe:	3b30      	subs	r3, #48	; 0x30
 8005c00:	71bb      	strb	r3, [r7, #6]
	  ch=*fmt++;
 8005c02:	69bb      	ldr	r3, [r7, #24]
 8005c04:	1c5a      	adds	r2, r3, #1
 8005c06:	61ba      	str	r2, [r7, #24]
 8005c08:	781b      	ldrb	r3, [r3, #0]
 8005c0a:	73fb      	strb	r3, [r7, #15]
	ch=*(fmt++);
	lz=1;
      }
      if (ch>='0' && ch<='9') {
	w=0;
	while (ch>='0' && ch<='9') {
 8005c0c:	7bfb      	ldrb	r3, [r7, #15]
 8005c0e:	2b2f      	cmp	r3, #47	; 0x2f
 8005c10:	d902      	bls.n	8005c18 <t_printf+0x88>
 8005c12:	7bfb      	ldrb	r3, [r7, #15]
 8005c14:	2b39      	cmp	r3, #57	; 0x39
 8005c16:	d9e7      	bls.n	8005be8 <t_printf+0x58>
	  w=(((w<<2)+w)<<1)+ch-'0';
	  ch=*fmt++;
	}
      }
      bf=buf;
 8005c18:	4b72      	ldr	r3, [pc, #456]	; (8005de4 <t_printf+0x254>)
 8005c1a:	4a73      	ldr	r2, [pc, #460]	; (8005de8 <t_printf+0x258>)
 8005c1c:	601a      	str	r2, [r3, #0]
      p=bf;
 8005c1e:	4b71      	ldr	r3, [pc, #452]	; (8005de4 <t_printf+0x254>)
 8005c20:	681b      	ldr	r3, [r3, #0]
 8005c22:	60bb      	str	r3, [r7, #8]
      zs=0;
 8005c24:	4b71      	ldr	r3, [pc, #452]	; (8005dec <t_printf+0x25c>)
 8005c26:	2200      	movs	r2, #0
 8005c28:	701a      	strb	r2, [r3, #0]
      switch (ch) {
 8005c2a:	7bfb      	ldrb	r3, [r7, #15]
 8005c2c:	2b63      	cmp	r3, #99	; 0x63
 8005c2e:	f000 8082 	beq.w	8005d36 <t_printf+0x1a6>
 8005c32:	2b63      	cmp	r3, #99	; 0x63
 8005c34:	dc08      	bgt.n	8005c48 <t_printf+0xb8>
 8005c36:	2b25      	cmp	r3, #37	; 0x25
 8005c38:	f000 808c 	beq.w	8005d54 <t_printf+0x1c4>
 8005c3c:	2b58      	cmp	r3, #88	; 0x58
 8005c3e:	d049      	beq.n	8005cd4 <t_printf+0x144>
 8005c40:	2b00      	cmp	r3, #0
 8005c42:	f000 80c7 	beq.w	8005dd4 <t_printf+0x244>
	p=va_arg(va, char*);
	break;
      case '%' :
	out('%');
      default:
	break;
 8005c46:	e088      	b.n	8005d5a <t_printf+0x1ca>
	}
      }
      bf=buf;
      p=bf;
      zs=0;
      switch (ch) {
 8005c48:	2b73      	cmp	r3, #115	; 0x73
 8005c4a:	d07d      	beq.n	8005d48 <t_printf+0x1b8>
 8005c4c:	2b73      	cmp	r3, #115	; 0x73
 8005c4e:	dc02      	bgt.n	8005c56 <t_printf+0xc6>
 8005c50:	2b64      	cmp	r3, #100	; 0x64
 8005c52:	d005      	beq.n	8005c60 <t_printf+0xd0>
	p=va_arg(va, char*);
	break;
      case '%' :
	out('%');
      default:
	break;
 8005c54:	e081      	b.n	8005d5a <t_printf+0x1ca>
	}
      }
      bf=buf;
      p=bf;
      zs=0;
      switch (ch) {
 8005c56:	2b75      	cmp	r3, #117	; 0x75
 8005c58:	d002      	beq.n	8005c60 <t_printf+0xd0>
 8005c5a:	2b78      	cmp	r3, #120	; 0x78
 8005c5c:	d03a      	beq.n	8005cd4 <t_printf+0x144>
	p=va_arg(va, char*);
	break;
      case '%' :
	out('%');
      default:
	break;
 8005c5e:	e07c      	b.n	8005d5a <t_printf+0x1ca>
      switch (ch) {
      case 0:
	goto abort;
      case 'u':
      case 'd' :
	num=va_arg(va, unsigned int);
 8005c60:	683b      	ldr	r3, [r7, #0]
 8005c62:	1d1a      	adds	r2, r3, #4
 8005c64:	603a      	str	r2, [r7, #0]
 8005c66:	681a      	ldr	r2, [r3, #0]
 8005c68:	4b61      	ldr	r3, [pc, #388]	; (8005df0 <t_printf+0x260>)
 8005c6a:	601a      	str	r2, [r3, #0]
	if (ch=='d' && (int)num<0) {
 8005c6c:	7bfb      	ldrb	r3, [r7, #15]
 8005c6e:	2b64      	cmp	r3, #100	; 0x64
 8005c70:	d10c      	bne.n	8005c8c <t_printf+0xfc>
 8005c72:	4b5f      	ldr	r3, [pc, #380]	; (8005df0 <t_printf+0x260>)
 8005c74:	681b      	ldr	r3, [r3, #0]
 8005c76:	2b00      	cmp	r3, #0
 8005c78:	da08      	bge.n	8005c8c <t_printf+0xfc>
	  num = -(int)num;
 8005c7a:	4b5d      	ldr	r3, [pc, #372]	; (8005df0 <t_printf+0x260>)
 8005c7c:	681b      	ldr	r3, [r3, #0]
 8005c7e:	425b      	negs	r3, r3
 8005c80:	461a      	mov	r2, r3
 8005c82:	4b5b      	ldr	r3, [pc, #364]	; (8005df0 <t_printf+0x260>)
 8005c84:	601a      	str	r2, [r3, #0]
	  out('-');
 8005c86:	202d      	movs	r0, #45	; 0x2d
 8005c88:	f7ff ff20 	bl	8005acc <out>
	}
	divOut(1000000000);
 8005c8c:	4859      	ldr	r0, [pc, #356]	; (8005df4 <t_printf+0x264>)
 8005c8e:	f7ff ff53 	bl	8005b38 <divOut>
	divOut(100000000);
 8005c92:	4859      	ldr	r0, [pc, #356]	; (8005df8 <t_printf+0x268>)
 8005c94:	f7ff ff50 	bl	8005b38 <divOut>
	divOut(10000000);
 8005c98:	4858      	ldr	r0, [pc, #352]	; (8005dfc <t_printf+0x26c>)
 8005c9a:	f7ff ff4d 	bl	8005b38 <divOut>
	divOut(1000000);
 8005c9e:	4858      	ldr	r0, [pc, #352]	; (8005e00 <t_printf+0x270>)
 8005ca0:	f7ff ff4a 	bl	8005b38 <divOut>
	divOut(100000);
 8005ca4:	4857      	ldr	r0, [pc, #348]	; (8005e04 <t_printf+0x274>)
 8005ca6:	f7ff ff47 	bl	8005b38 <divOut>
	divOut(10000);
 8005caa:	f242 7010 	movw	r0, #10000	; 0x2710
 8005cae:	f7ff ff43 	bl	8005b38 <divOut>
	divOut(1000);
 8005cb2:	f44f 707a 	mov.w	r0, #1000	; 0x3e8
 8005cb6:	f7ff ff3f 	bl	8005b38 <divOut>
	divOut(100);
 8005cba:	2064      	movs	r0, #100	; 0x64
 8005cbc:	f7ff ff3c 	bl	8005b38 <divOut>
	divOut(10);
 8005cc0:	200a      	movs	r0, #10
 8005cc2:	f7ff ff39 	bl	8005b38 <divOut>
	outDgt(num);
 8005cc6:	4b4a      	ldr	r3, [pc, #296]	; (8005df0 <t_printf+0x260>)
 8005cc8:	681b      	ldr	r3, [r3, #0]
 8005cca:	b2db      	uxtb	r3, r3
 8005ccc:	4618      	mov	r0, r3
 8005cce:	f7ff ff11 	bl	8005af4 <outDgt>
	break;
 8005cd2:	e043      	b.n	8005d5c <t_printf+0x1cc>
      case 'x':
      case 'X' :
	uc= ch=='X';
 8005cd4:	7bfb      	ldrb	r3, [r7, #15]
 8005cd6:	2b58      	cmp	r3, #88	; 0x58
 8005cd8:	bf14      	ite	ne
 8005cda:	2300      	movne	r3, #0
 8005cdc:	2301      	moveq	r3, #1
 8005cde:	b2db      	uxtb	r3, r3
 8005ce0:	461a      	mov	r2, r3
 8005ce2:	4b49      	ldr	r3, [pc, #292]	; (8005e08 <t_printf+0x278>)
 8005ce4:	701a      	strb	r2, [r3, #0]
	num=va_arg(va, unsigned int);
 8005ce6:	683b      	ldr	r3, [r7, #0]
 8005ce8:	1d1a      	adds	r2, r3, #4
 8005cea:	603a      	str	r2, [r7, #0]
 8005cec:	681a      	ldr	r2, [r3, #0]
 8005cee:	4b40      	ldr	r3, [pc, #256]	; (8005df0 <t_printf+0x260>)
 8005cf0:	601a      	str	r2, [r3, #0]
	divOut(0x10000000);
 8005cf2:	f04f 5080 	mov.w	r0, #268435456	; 0x10000000
 8005cf6:	f7ff ff1f 	bl	8005b38 <divOut>
	divOut(0x1000000);
 8005cfa:	f04f 7080 	mov.w	r0, #16777216	; 0x1000000
 8005cfe:	f7ff ff1b 	bl	8005b38 <divOut>
	divOut(0x100000);
 8005d02:	f44f 1080 	mov.w	r0, #1048576	; 0x100000
 8005d06:	f7ff ff17 	bl	8005b38 <divOut>
	divOut(0x10000);
 8005d0a:	f44f 3080 	mov.w	r0, #65536	; 0x10000
 8005d0e:	f7ff ff13 	bl	8005b38 <divOut>
	divOut(0x1000);
 8005d12:	f44f 5080 	mov.w	r0, #4096	; 0x1000
 8005d16:	f7ff ff0f 	bl	8005b38 <divOut>
	divOut(0x100);
 8005d1a:	f44f 7080 	mov.w	r0, #256	; 0x100
 8005d1e:	f7ff ff0b 	bl	8005b38 <divOut>
	divOut(0x10);
 8005d22:	2010      	movs	r0, #16
 8005d24:	f7ff ff08 	bl	8005b38 <divOut>
	outDgt(num);
 8005d28:	4b31      	ldr	r3, [pc, #196]	; (8005df0 <t_printf+0x260>)
 8005d2a:	681b      	ldr	r3, [r3, #0]
 8005d2c:	b2db      	uxtb	r3, r3
 8005d2e:	4618      	mov	r0, r3
 8005d30:	f7ff fee0 	bl	8005af4 <outDgt>
	break;
 8005d34:	e012      	b.n	8005d5c <t_printf+0x1cc>
      case 'c' :
	out((char)(va_arg(va, int)));
 8005d36:	683b      	ldr	r3, [r7, #0]
 8005d38:	1d1a      	adds	r2, r3, #4
 8005d3a:	603a      	str	r2, [r7, #0]
 8005d3c:	681b      	ldr	r3, [r3, #0]
 8005d3e:	b2db      	uxtb	r3, r3
 8005d40:	4618      	mov	r0, r3
 8005d42:	f7ff fec3 	bl	8005acc <out>
	break;
 8005d46:	e009      	b.n	8005d5c <t_printf+0x1cc>
      case 's' :
	p=va_arg(va, char*);
 8005d48:	683b      	ldr	r3, [r7, #0]
 8005d4a:	1d1a      	adds	r2, r3, #4
 8005d4c:	603a      	str	r2, [r7, #0]
 8005d4e:	681b      	ldr	r3, [r3, #0]
 8005d50:	60bb      	str	r3, [r7, #8]
	break;
 8005d52:	e003      	b.n	8005d5c <t_printf+0x1cc>
      case '%' :
	out('%');
 8005d54:	2025      	movs	r0, #37	; 0x25
 8005d56:	f7ff feb9 	bl	8005acc <out>
      default:
	break;
 8005d5a:	bf00      	nop
      }
      *bf=0;
 8005d5c:	4b21      	ldr	r3, [pc, #132]	; (8005de4 <t_printf+0x254>)
 8005d5e:	681b      	ldr	r3, [r3, #0]
 8005d60:	2200      	movs	r2, #0
 8005d62:	701a      	strb	r2, [r3, #0]
      bf=p;
 8005d64:	4b1f      	ldr	r3, [pc, #124]	; (8005de4 <t_printf+0x254>)
 8005d66:	68ba      	ldr	r2, [r7, #8]
 8005d68:	601a      	str	r2, [r3, #0]
      while (*bf++ && w > 0)
 8005d6a:	e002      	b.n	8005d72 <t_printf+0x1e2>
	w--;
 8005d6c:	79bb      	ldrb	r3, [r7, #6]
 8005d6e:	3b01      	subs	r3, #1
 8005d70:	71bb      	strb	r3, [r7, #6]
      default:
	break;
      }
      *bf=0;
      bf=p;
      while (*bf++ && w > 0)
 8005d72:	4b1c      	ldr	r3, [pc, #112]	; (8005de4 <t_printf+0x254>)
 8005d74:	681b      	ldr	r3, [r3, #0]
 8005d76:	1c59      	adds	r1, r3, #1
 8005d78:	4a1a      	ldr	r2, [pc, #104]	; (8005de4 <t_printf+0x254>)
 8005d7a:	6011      	str	r1, [r2, #0]
 8005d7c:	781b      	ldrb	r3, [r3, #0]
 8005d7e:	2b00      	cmp	r3, #0
 8005d80:	d002      	beq.n	8005d88 <t_printf+0x1f8>
 8005d82:	79bb      	ldrb	r3, [r7, #6]
 8005d84:	2b00      	cmp	r3, #0
 8005d86:	d1f1      	bne.n	8005d6c <t_printf+0x1dc>
	w--;
      while (w-- > 0)
 8005d88:	e008      	b.n	8005d9c <t_printf+0x20c>
	{
#ifdef ITM_TRACE
	  ITM_SendChar ((uint32_t) (lz ? '0' : ' '));
 8005d8a:	79fb      	ldrb	r3, [r7, #7]
 8005d8c:	2b00      	cmp	r3, #0
 8005d8e:	d001      	beq.n	8005d94 <t_printf+0x204>
 8005d90:	2330      	movs	r3, #48	; 0x30
 8005d92:	e000      	b.n	8005d96 <t_printf+0x206>
 8005d94:	2320      	movs	r3, #32
 8005d96:	4618      	mov	r0, r3
 8005d98:	f7ff fe6a 	bl	8005a70 <ITM_SendChar>
      }
      *bf=0;
      bf=p;
      while (*bf++ && w > 0)
	w--;
      while (w-- > 0)
 8005d9c:	79bb      	ldrb	r3, [r7, #6]
 8005d9e:	1e5a      	subs	r2, r3, #1
 8005da0:	71ba      	strb	r2, [r7, #6]
 8005da2:	2b00      	cmp	r3, #0
 8005da4:	d1f1      	bne.n	8005d8a <t_printf+0x1fa>
#else
	  putchar(lz ? '0' : ' ');
#endif
	}

      while ((ch= *p++))
 8005da6:	e003      	b.n	8005db0 <t_printf+0x220>
	{
#ifdef ITM_TRACE
	  ITM_SendChar ((uint32_t) ch);
 8005da8:	7bfb      	ldrb	r3, [r7, #15]
 8005daa:	4618      	mov	r0, r3
 8005dac:	f7ff fe60 	bl	8005a70 <ITM_SendChar>
#else
	  putchar(lz ? '0' : ' ');
#endif
	}

      while ((ch= *p++))
 8005db0:	68bb      	ldr	r3, [r7, #8]
 8005db2:	1c5a      	adds	r2, r3, #1
 8005db4:	60ba      	str	r2, [r7, #8]
 8005db6:	781b      	ldrb	r3, [r3, #0]
 8005db8:	73fb      	strb	r3, [r7, #15]
 8005dba:	7bfb      	ldrb	r3, [r7, #15]
 8005dbc:	2b00      	cmp	r3, #0
 8005dbe:	d1f3      	bne.n	8005da8 <t_printf+0x218>
  char ch;
  char* p;

  va_start(va,fmt);

  while ((ch=*(fmt++))) {
 8005dc0:	69bb      	ldr	r3, [r7, #24]
 8005dc2:	1c5a      	adds	r2, r3, #1
 8005dc4:	61ba      	str	r2, [r7, #24]
 8005dc6:	781b      	ldrb	r3, [r3, #0]
 8005dc8:	73fb      	strb	r3, [r7, #15]
 8005dca:	7bfb      	ldrb	r3, [r7, #15]
 8005dcc:	2b00      	cmp	r3, #0
 8005dce:	f47f aee7 	bne.w	8005ba0 <t_printf+0x10>
 8005dd2:	e000      	b.n	8005dd6 <t_printf+0x246>
      bf=buf;
      p=bf;
      zs=0;
      switch (ch) {
      case 0:
	goto abort;
 8005dd4:	bf00      	nop
	}
    }
  }
 abort:;
  va_end(va);
}
 8005dd6:	3710      	adds	r7, #16
 8005dd8:	46bd      	mov	sp, r7
 8005dda:	e8bd 4080 	ldmia.w	sp!, {r7, lr}
 8005dde:	b004      	add	sp, #16
 8005de0:	4770      	bx	lr
 8005de2:	bf00      	nop
 8005de4:	20000630 	.word	0x20000630
 8005de8:	20000634 	.word	0x20000634
 8005dec:	20000645 	.word	0x20000645
 8005df0:	20000640 	.word	0x20000640
 8005df4:	3b9aca00 	.word	0x3b9aca00
 8005df8:	05f5e100 	.word	0x05f5e100
 8005dfc:	00989680 	.word	0x00989680
 8005e00:	000f4240 	.word	0x000f4240
 8005e04:	000186a0 	.word	0x000186a0
 8005e08:	20000644 	.word	0x20000644

08005e0c <FreeRTOS_CLIRegisterCommand>:
static int8_t cOutputBuffer[ configCOMMAND_INT_MAX_OUTPUT_SIZE ];

/*-----------------------------------------------------------*/

portBASE_TYPE FreeRTOS_CLIRegisterCommand( const CLI_Command_Definition_t * const pxCommandToRegister )
{
 8005e0c:	b580      	push	{r7, lr}
 8005e0e:	b084      	sub	sp, #16
 8005e10:	af00      	add	r7, sp, #0
 8005e12:	6078      	str	r0, [r7, #4]
static CLI_Definition_List_Item_t *pxLastCommandInList = &xRegisteredCommands;
CLI_Definition_List_Item_t *pxNewListItem;
portBASE_TYPE xReturn = pdFAIL;
 8005e14:	2300      	movs	r3, #0
 8005e16:	60fb      	str	r3, [r7, #12]

	/* Check the parameter is not NULL. */
	configASSERT( pxCommandToRegister );
 8005e18:	687b      	ldr	r3, [r7, #4]
 8005e1a:	2b00      	cmp	r3, #0
 8005e1c:	d102      	bne.n	8005e24 <FreeRTOS_CLIRegisterCommand+0x18>
 8005e1e:	f7ff fb17 	bl	8005450 <ulPortSetInterruptMask>
 8005e22:	e7fe      	b.n	8005e22 <FreeRTOS_CLIRegisterCommand+0x16>

	/* Create a new list item that will reference the command being registered. */
	pxNewListItem = ( CLI_Definition_List_Item_t * ) pvPortMalloc( sizeof( CLI_Definition_List_Item_t ) );
 8005e24:	2008      	movs	r0, #8
 8005e26:	f000 f963 	bl	80060f0 <pvPortMalloc>
 8005e2a:	60b8      	str	r0, [r7, #8]
	configASSERT( pxNewListItem );
 8005e2c:	68bb      	ldr	r3, [r7, #8]
 8005e2e:	2b00      	cmp	r3, #0
 8005e30:	d102      	bne.n	8005e38 <FreeRTOS_CLIRegisterCommand+0x2c>
 8005e32:	f7ff fb0d 	bl	8005450 <ulPortSetInterruptMask>
 8005e36:	e7fe      	b.n	8005e36 <FreeRTOS_CLIRegisterCommand+0x2a>

	if( pxNewListItem != NULL )
 8005e38:	68bb      	ldr	r3, [r7, #8]
 8005e3a:	2b00      	cmp	r3, #0
 8005e3c:	d012      	beq.n	8005e64 <FreeRTOS_CLIRegisterCommand+0x58>
	{
		taskENTER_CRITICAL();
 8005e3e:	f7ff fae5 	bl	800540c <vPortEnterCritical>
		{
			/* Reference the command being registered from the newly created
			list item. */
			pxNewListItem->pxCommandLineDefinition = pxCommandToRegister;
 8005e42:	68bb      	ldr	r3, [r7, #8]
 8005e44:	687a      	ldr	r2, [r7, #4]
 8005e46:	601a      	str	r2, [r3, #0]

			/* The new list item will get added to the end of the list, so
			pxNext has nowhere to point. */
			pxNewListItem->pxNext = NULL;
 8005e48:	68bb      	ldr	r3, [r7, #8]
 8005e4a:	2200      	movs	r2, #0
 8005e4c:	605a      	str	r2, [r3, #4]

			/* Add the newly created list item to the end of the already existing
			list. */
			pxLastCommandInList->pxNext = pxNewListItem;
 8005e4e:	4b08      	ldr	r3, [pc, #32]	; (8005e70 <FreeRTOS_CLIRegisterCommand+0x64>)
 8005e50:	681b      	ldr	r3, [r3, #0]
 8005e52:	68ba      	ldr	r2, [r7, #8]
 8005e54:	605a      	str	r2, [r3, #4]

			/* Set the end of list marker to the new list item. */
			pxLastCommandInList = pxNewListItem;
 8005e56:	4b06      	ldr	r3, [pc, #24]	; (8005e70 <FreeRTOS_CLIRegisterCommand+0x64>)
 8005e58:	68ba      	ldr	r2, [r7, #8]
 8005e5a:	601a      	str	r2, [r3, #0]
		}
		taskEXIT_CRITICAL();
 8005e5c:	f7ff fae6 	bl	800542c <vPortExitCritical>

		xReturn = pdPASS;
 8005e60:	2301      	movs	r3, #1
 8005e62:	60fb      	str	r3, [r7, #12]
	}

	return xReturn;
 8005e64:	68fb      	ldr	r3, [r7, #12]
}
 8005e66:	4618      	mov	r0, r3
 8005e68:	3710      	adds	r7, #16
 8005e6a:	46bd      	mov	sp, r7
 8005e6c:	bd80      	pop	{r7, pc}
 8005e6e:	bf00      	nop
 8005e70:	20000028 	.word	0x20000028

08005e74 <FreeRTOS_CLIProcessCommand>:
/*-----------------------------------------------------------*/

portBASE_TYPE FreeRTOS_CLIProcessCommand( const int8_t * const pcCommandInput, int8_t * pcWriteBuffer, size_t xWriteBufferLen  )
{
 8005e74:	b580      	push	{r7, lr}
 8005e76:	b088      	sub	sp, #32
 8005e78:	af00      	add	r7, sp, #0
 8005e7a:	60f8      	str	r0, [r7, #12]
 8005e7c:	60b9      	str	r1, [r7, #8]
 8005e7e:	607a      	str	r2, [r7, #4]
static const CLI_Definition_List_Item_t *pxCommand = NULL;
portBASE_TYPE xReturn = pdTRUE;
 8005e80:	2301      	movs	r3, #1
 8005e82:	61fb      	str	r3, [r7, #28]
size_t xCommandStringLength;

	/* Note:  This function is not re-entrant.  It must not be called from more
	thank one task. */

	if( pxCommand == NULL )
 8005e84:	4b3a      	ldr	r3, [pc, #232]	; (8005f70 <FreeRTOS_CLIProcessCommand+0xfc>)
 8005e86:	681b      	ldr	r3, [r3, #0]
 8005e88:	2b00      	cmp	r3, #0
 8005e8a:	d141      	bne.n	8005f10 <FreeRTOS_CLIProcessCommand+0x9c>
	{
		/* Search for the command string in the list of registered commands. */
		for( pxCommand = &xRegisteredCommands; pxCommand != NULL; pxCommand = pxCommand->pxNext )
 8005e8c:	4b38      	ldr	r3, [pc, #224]	; (8005f70 <FreeRTOS_CLIProcessCommand+0xfc>)
 8005e8e:	4a39      	ldr	r2, [pc, #228]	; (8005f74 <FreeRTOS_CLIProcessCommand+0x100>)
 8005e90:	601a      	str	r2, [r3, #0]
 8005e92:	e039      	b.n	8005f08 <FreeRTOS_CLIProcessCommand+0x94>
		{
			pcRegisteredCommandString = pxCommand->pxCommandLineDefinition->pcCommand;
 8005e94:	4b36      	ldr	r3, [pc, #216]	; (8005f70 <FreeRTOS_CLIProcessCommand+0xfc>)
 8005e96:	681b      	ldr	r3, [r3, #0]
 8005e98:	681b      	ldr	r3, [r3, #0]
 8005e9a:	681b      	ldr	r3, [r3, #0]
 8005e9c:	61bb      	str	r3, [r7, #24]
			xCommandStringLength = strlen( ( const char * ) pcRegisteredCommandString );
 8005e9e:	69b8      	ldr	r0, [r7, #24]
 8005ea0:	f002 ff10 	bl	8008cc4 <strlen>
 8005ea4:	6178      	str	r0, [r7, #20]

			/* To ensure the string lengths match exactly, so as not to pick up
			a sub-string of a longer command, check the byte after the expected
			end of the string is either the end of the string or a space before
			a parameter. */
			if( ( pcCommandInput[ xCommandStringLength ] == ' ' ) || ( pcCommandInput[ xCommandStringLength ] == 0x00 ) )
 8005ea6:	68fa      	ldr	r2, [r7, #12]
 8005ea8:	697b      	ldr	r3, [r7, #20]
 8005eaa:	4413      	add	r3, r2
 8005eac:	781b      	ldrb	r3, [r3, #0]
 8005eae:	b25b      	sxtb	r3, r3
 8005eb0:	2b20      	cmp	r3, #32
 8005eb2:	d005      	beq.n	8005ec0 <FreeRTOS_CLIProcessCommand+0x4c>
 8005eb4:	68fa      	ldr	r2, [r7, #12]
 8005eb6:	697b      	ldr	r3, [r7, #20]
 8005eb8:	4413      	add	r3, r2
 8005eba:	781b      	ldrb	r3, [r3, #0]
 8005ebc:	2b00      	cmp	r3, #0
 8005ebe:	d11e      	bne.n	8005efe <FreeRTOS_CLIProcessCommand+0x8a>
			{
				if( strncmp( ( const char * ) pcCommandInput, ( const char * ) pcRegisteredCommandString, xCommandStringLength ) == 0 )
 8005ec0:	68f8      	ldr	r0, [r7, #12]
 8005ec2:	69b9      	ldr	r1, [r7, #24]
 8005ec4:	697a      	ldr	r2, [r7, #20]
 8005ec6:	f002 ff2d 	bl	8008d24 <strncmp>
 8005eca:	4603      	mov	r3, r0
 8005ecc:	2b00      	cmp	r3, #0
 8005ece:	d116      	bne.n	8005efe <FreeRTOS_CLIProcessCommand+0x8a>
				{
					/* The command has been found.  Check it has the expected
					number of parameters.  If cExpectedNumberOfParameters is -1,
					then there could be a variable number of parameters and no
					check is made. */
					if( pxCommand->pxCommandLineDefinition->cExpectedNumberOfParameters >= 0 )
 8005ed0:	4b27      	ldr	r3, [pc, #156]	; (8005f70 <FreeRTOS_CLIProcessCommand+0xfc>)
 8005ed2:	681b      	ldr	r3, [r3, #0]
 8005ed4:	681b      	ldr	r3, [r3, #0]
 8005ed6:	7b1b      	ldrb	r3, [r3, #12]
 8005ed8:	b25b      	sxtb	r3, r3
 8005eda:	2b00      	cmp	r3, #0
 8005edc:	db0e      	blt.n	8005efc <FreeRTOS_CLIProcessCommand+0x88>
					{
						if( prvGetNumberOfParameters( pcCommandInput ) != pxCommand->pxCommandLineDefinition->cExpectedNumberOfParameters )
 8005ede:	68f8      	ldr	r0, [r7, #12]
 8005ee0:	f000 f8d8 	bl	8006094 <prvGetNumberOfParameters>
 8005ee4:	4603      	mov	r3, r0
 8005ee6:	461a      	mov	r2, r3
 8005ee8:	4b21      	ldr	r3, [pc, #132]	; (8005f70 <FreeRTOS_CLIProcessCommand+0xfc>)
 8005eea:	681b      	ldr	r3, [r3, #0]
 8005eec:	681b      	ldr	r3, [r3, #0]
 8005eee:	7b1b      	ldrb	r3, [r3, #12]
 8005ef0:	b25b      	sxtb	r3, r3
 8005ef2:	429a      	cmp	r2, r3
 8005ef4:	d002      	beq.n	8005efc <FreeRTOS_CLIProcessCommand+0x88>
						{
							xReturn = pdFALSE;
 8005ef6:	2300      	movs	r3, #0
 8005ef8:	61fb      	str	r3, [r7, #28]
						}
					}

					break;
 8005efa:	e009      	b.n	8005f10 <FreeRTOS_CLIProcessCommand+0x9c>
 8005efc:	e008      	b.n	8005f10 <FreeRTOS_CLIProcessCommand+0x9c>
	thank one task. */

	if( pxCommand == NULL )
	{
		/* Search for the command string in the list of registered commands. */
		for( pxCommand = &xRegisteredCommands; pxCommand != NULL; pxCommand = pxCommand->pxNext )
 8005efe:	4b1c      	ldr	r3, [pc, #112]	; (8005f70 <FreeRTOS_CLIProcessCommand+0xfc>)
 8005f00:	681b      	ldr	r3, [r3, #0]
 8005f02:	685a      	ldr	r2, [r3, #4]
 8005f04:	4b1a      	ldr	r3, [pc, #104]	; (8005f70 <FreeRTOS_CLIProcessCommand+0xfc>)
 8005f06:	601a      	str	r2, [r3, #0]
 8005f08:	4b19      	ldr	r3, [pc, #100]	; (8005f70 <FreeRTOS_CLIProcessCommand+0xfc>)
 8005f0a:	681b      	ldr	r3, [r3, #0]
 8005f0c:	2b00      	cmp	r3, #0
 8005f0e:	d1c1      	bne.n	8005e94 <FreeRTOS_CLIProcessCommand+0x20>
				}
			}
		}
	}

	if( ( pxCommand != NULL ) && ( xReturn == pdFALSE ) )
 8005f10:	4b17      	ldr	r3, [pc, #92]	; (8005f70 <FreeRTOS_CLIProcessCommand+0xfc>)
 8005f12:	681b      	ldr	r3, [r3, #0]
 8005f14:	2b00      	cmp	r3, #0
 8005f16:	d00b      	beq.n	8005f30 <FreeRTOS_CLIProcessCommand+0xbc>
 8005f18:	69fb      	ldr	r3, [r7, #28]
 8005f1a:	2b00      	cmp	r3, #0
 8005f1c:	d108      	bne.n	8005f30 <FreeRTOS_CLIProcessCommand+0xbc>
	{
		/* The command was found, but the number of parameters with the command
		was incorrect. */
		strncpy( ( char * ) pcWriteBuffer, "Incorrect command parameter(s).  Enter \"help\" to view a list of available commands.\r\n\r\n", xWriteBufferLen );
 8005f1e:	68b8      	ldr	r0, [r7, #8]
 8005f20:	4915      	ldr	r1, [pc, #84]	; (8005f78 <FreeRTOS_CLIProcessCommand+0x104>)
 8005f22:	687a      	ldr	r2, [r7, #4]
 8005f24:	f002 ff58 	bl	8008dd8 <strncpy>
		pxCommand = NULL;
 8005f28:	4b11      	ldr	r3, [pc, #68]	; (8005f70 <FreeRTOS_CLIProcessCommand+0xfc>)
 8005f2a:	2200      	movs	r2, #0
 8005f2c:	601a      	str	r2, [r3, #0]
 8005f2e:	e01a      	b.n	8005f66 <FreeRTOS_CLIProcessCommand+0xf2>
	}
	else if( pxCommand != NULL )
 8005f30:	4b0f      	ldr	r3, [pc, #60]	; (8005f70 <FreeRTOS_CLIProcessCommand+0xfc>)
 8005f32:	681b      	ldr	r3, [r3, #0]
 8005f34:	2b00      	cmp	r3, #0
 8005f36:	d00f      	beq.n	8005f58 <FreeRTOS_CLIProcessCommand+0xe4>
	{
		/* Call the callback function that is registered to this command. */
		xReturn = pxCommand->pxCommandLineDefinition->pxCommandInterpreter( pcWriteBuffer, xWriteBufferLen, pcCommandInput );
 8005f38:	4b0d      	ldr	r3, [pc, #52]	; (8005f70 <FreeRTOS_CLIProcessCommand+0xfc>)
 8005f3a:	681b      	ldr	r3, [r3, #0]
 8005f3c:	681b      	ldr	r3, [r3, #0]
 8005f3e:	689b      	ldr	r3, [r3, #8]
 8005f40:	68b8      	ldr	r0, [r7, #8]
 8005f42:	6879      	ldr	r1, [r7, #4]
 8005f44:	68fa      	ldr	r2, [r7, #12]
 8005f46:	4798      	blx	r3
 8005f48:	61f8      	str	r0, [r7, #28]

		/* If xReturn is pdFALSE, then no further strings will be returned
		after this one, and	pxCommand can be reset to NULL ready to search
		for the next entered command. */
		if( xReturn == pdFALSE )
 8005f4a:	69fb      	ldr	r3, [r7, #28]
 8005f4c:	2b00      	cmp	r3, #0
 8005f4e:	d10a      	bne.n	8005f66 <FreeRTOS_CLIProcessCommand+0xf2>
		{
			pxCommand = NULL;
 8005f50:	4b07      	ldr	r3, [pc, #28]	; (8005f70 <FreeRTOS_CLIProcessCommand+0xfc>)
 8005f52:	2200      	movs	r2, #0
 8005f54:	601a      	str	r2, [r3, #0]
 8005f56:	e006      	b.n	8005f66 <FreeRTOS_CLIProcessCommand+0xf2>
		}
	}
	else
	{
		/* pxCommand was NULL, the command was not found. */
		strncpy( ( char * ) pcWriteBuffer, ( const char * const ) "Command not recognised.  Enter 'help' to view a list of available commands.\r\n\r\n", xWriteBufferLen );
 8005f58:	68b8      	ldr	r0, [r7, #8]
 8005f5a:	4908      	ldr	r1, [pc, #32]	; (8005f7c <FreeRTOS_CLIProcessCommand+0x108>)
 8005f5c:	687a      	ldr	r2, [r7, #4]
 8005f5e:	f002 ff3b 	bl	8008dd8 <strncpy>
		xReturn = pdFALSE;
 8005f62:	2300      	movs	r3, #0
 8005f64:	61fb      	str	r3, [r7, #28]
	}

	return xReturn;
 8005f66:	69fb      	ldr	r3, [r7, #28]
}
 8005f68:	4618      	mov	r0, r3
 8005f6a:	3720      	adds	r7, #32
 8005f6c:	46bd      	mov	sp, r7
 8005f6e:	bd80      	pop	{r7, pc}
 8005f70:	20000648 	.word	0x20000648
 8005f74:	20000020 	.word	0x20000020
 8005f78:	08009700 	.word	0x08009700
 8005f7c:	08009758 	.word	0x08009758

08005f80 <FreeRTOS_CLIGetParameter>:
	return cOutputBuffer;
}
/*-----------------------------------------------------------*/

const int8_t *FreeRTOS_CLIGetParameter( const int8_t *pcCommandString, unsigned portBASE_TYPE uxWantedParameter, portBASE_TYPE *pxParameterStringLength )
{
 8005f80:	b480      	push	{r7}
 8005f82:	b087      	sub	sp, #28
 8005f84:	af00      	add	r7, sp, #0
 8005f86:	60f8      	str	r0, [r7, #12]
 8005f88:	60b9      	str	r1, [r7, #8]
 8005f8a:	607a      	str	r2, [r7, #4]
unsigned portBASE_TYPE uxParametersFound = 0;
 8005f8c:	2300      	movs	r3, #0
 8005f8e:	617b      	str	r3, [r7, #20]
const int8_t *pcReturn = NULL;
 8005f90:	2300      	movs	r3, #0
 8005f92:	613b      	str	r3, [r7, #16]

	*pxParameterStringLength = 0;
 8005f94:	687b      	ldr	r3, [r7, #4]
 8005f96:	2200      	movs	r2, #0
 8005f98:	601a      	str	r2, [r3, #0]

	while( uxParametersFound < uxWantedParameter )
 8005f9a:	e041      	b.n	8006020 <FreeRTOS_CLIGetParameter+0xa0>
	{
		/* Index the character pointer past the current word.  If this is the start
		of the command string then the first word is the command itself. */
		while( ( ( *pcCommandString ) != 0x00 ) && ( ( *pcCommandString ) != ' ' ) )
 8005f9c:	e002      	b.n	8005fa4 <FreeRTOS_CLIGetParameter+0x24>
		{
			pcCommandString++;
 8005f9e:	68fb      	ldr	r3, [r7, #12]
 8005fa0:	3301      	adds	r3, #1
 8005fa2:	60fb      	str	r3, [r7, #12]

	while( uxParametersFound < uxWantedParameter )
	{
		/* Index the character pointer past the current word.  If this is the start
		of the command string then the first word is the command itself. */
		while( ( ( *pcCommandString ) != 0x00 ) && ( ( *pcCommandString ) != ' ' ) )
 8005fa4:	68fb      	ldr	r3, [r7, #12]
 8005fa6:	781b      	ldrb	r3, [r3, #0]
 8005fa8:	2b00      	cmp	r3, #0
 8005faa:	d004      	beq.n	8005fb6 <FreeRTOS_CLIGetParameter+0x36>
 8005fac:	68fb      	ldr	r3, [r7, #12]
 8005fae:	781b      	ldrb	r3, [r3, #0]
 8005fb0:	b25b      	sxtb	r3, r3
 8005fb2:	2b20      	cmp	r3, #32
 8005fb4:	d1f3      	bne.n	8005f9e <FreeRTOS_CLIGetParameter+0x1e>
		{
			pcCommandString++;
		}

		/* Find the start of the next string. */
		while( ( ( *pcCommandString ) != 0x00 ) && ( ( *pcCommandString ) == ' ' ) )
 8005fb6:	e002      	b.n	8005fbe <FreeRTOS_CLIGetParameter+0x3e>
		{
			pcCommandString++;
 8005fb8:	68fb      	ldr	r3, [r7, #12]
 8005fba:	3301      	adds	r3, #1
 8005fbc:	60fb      	str	r3, [r7, #12]
		{
			pcCommandString++;
		}

		/* Find the start of the next string. */
		while( ( ( *pcCommandString ) != 0x00 ) && ( ( *pcCommandString ) == ' ' ) )
 8005fbe:	68fb      	ldr	r3, [r7, #12]
 8005fc0:	781b      	ldrb	r3, [r3, #0]
 8005fc2:	2b00      	cmp	r3, #0
 8005fc4:	d004      	beq.n	8005fd0 <FreeRTOS_CLIGetParameter+0x50>
 8005fc6:	68fb      	ldr	r3, [r7, #12]
 8005fc8:	781b      	ldrb	r3, [r3, #0]
 8005fca:	b25b      	sxtb	r3, r3
 8005fcc:	2b20      	cmp	r3, #32
 8005fce:	d0f3      	beq.n	8005fb8 <FreeRTOS_CLIGetParameter+0x38>
		{
			pcCommandString++;
		}

		/* Was a string found? */
		if( *pcCommandString != 0x00 )
 8005fd0:	68fb      	ldr	r3, [r7, #12]
 8005fd2:	781b      	ldrb	r3, [r3, #0]
 8005fd4:	2b00      	cmp	r3, #0
 8005fd6:	d022      	beq.n	800601e <FreeRTOS_CLIGetParameter+0x9e>
		{
			/* Is this the start of the required parameter? */
			uxParametersFound++;
 8005fd8:	697b      	ldr	r3, [r7, #20]
 8005fda:	3301      	adds	r3, #1
 8005fdc:	617b      	str	r3, [r7, #20]

			if( uxParametersFound == uxWantedParameter )
 8005fde:	697a      	ldr	r2, [r7, #20]
 8005fe0:	68bb      	ldr	r3, [r7, #8]
 8005fe2:	429a      	cmp	r2, r3
 8005fe4:	d11c      	bne.n	8006020 <FreeRTOS_CLIGetParameter+0xa0>
			{
				/* How long is the parameter? */
				pcReturn = pcCommandString;
 8005fe6:	68fb      	ldr	r3, [r7, #12]
 8005fe8:	613b      	str	r3, [r7, #16]
				while( ( ( *pcCommandString ) != 0x00 ) && ( ( *pcCommandString ) != ' ' ) )
 8005fea:	e007      	b.n	8005ffc <FreeRTOS_CLIGetParameter+0x7c>
				{
					( *pxParameterStringLength )++;
 8005fec:	687b      	ldr	r3, [r7, #4]
 8005fee:	681b      	ldr	r3, [r3, #0]
 8005ff0:	1c5a      	adds	r2, r3, #1
 8005ff2:	687b      	ldr	r3, [r7, #4]
 8005ff4:	601a      	str	r2, [r3, #0]
					pcCommandString++;
 8005ff6:	68fb      	ldr	r3, [r7, #12]
 8005ff8:	3301      	adds	r3, #1
 8005ffa:	60fb      	str	r3, [r7, #12]

			if( uxParametersFound == uxWantedParameter )
			{
				/* How long is the parameter? */
				pcReturn = pcCommandString;
				while( ( ( *pcCommandString ) != 0x00 ) && ( ( *pcCommandString ) != ' ' ) )
 8005ffc:	68fb      	ldr	r3, [r7, #12]
 8005ffe:	781b      	ldrb	r3, [r3, #0]
 8006000:	2b00      	cmp	r3, #0
 8006002:	d004      	beq.n	800600e <FreeRTOS_CLIGetParameter+0x8e>
 8006004:	68fb      	ldr	r3, [r7, #12]
 8006006:	781b      	ldrb	r3, [r3, #0]
 8006008:	b25b      	sxtb	r3, r3
 800600a:	2b20      	cmp	r3, #32
 800600c:	d1ee      	bne.n	8005fec <FreeRTOS_CLIGetParameter+0x6c>
				{
					( *pxParameterStringLength )++;
					pcCommandString++;
				}

				if( *pxParameterStringLength == 0 )
 800600e:	687b      	ldr	r3, [r7, #4]
 8006010:	681b      	ldr	r3, [r3, #0]
 8006012:	2b00      	cmp	r3, #0
 8006014:	d102      	bne.n	800601c <FreeRTOS_CLIGetParameter+0x9c>
				{
					pcReturn = NULL;
 8006016:	2300      	movs	r3, #0
 8006018:	613b      	str	r3, [r7, #16]
				}

				break;
 800601a:	e005      	b.n	8006028 <FreeRTOS_CLIGetParameter+0xa8>
 800601c:	e004      	b.n	8006028 <FreeRTOS_CLIGetParameter+0xa8>
			}
		}
		else
		{
			break;
 800601e:	e003      	b.n	8006028 <FreeRTOS_CLIGetParameter+0xa8>
unsigned portBASE_TYPE uxParametersFound = 0;
const int8_t *pcReturn = NULL;

	*pxParameterStringLength = 0;

	while( uxParametersFound < uxWantedParameter )
 8006020:	697a      	ldr	r2, [r7, #20]
 8006022:	68bb      	ldr	r3, [r7, #8]
 8006024:	429a      	cmp	r2, r3
 8006026:	d3b9      	bcc.n	8005f9c <FreeRTOS_CLIGetParameter+0x1c>
		{
			break;
		}
	}

	return pcReturn;
 8006028:	693b      	ldr	r3, [r7, #16]
}
 800602a:	4618      	mov	r0, r3
 800602c:	371c      	adds	r7, #28
 800602e:	46bd      	mov	sp, r7
 8006030:	f85d 7b04 	ldr.w	r7, [sp], #4
 8006034:	4770      	bx	lr
 8006036:	bf00      	nop

08006038 <prvHelpCommand>:
/*-----------------------------------------------------------*/

portBASE_TYPE prvHelpCommand( int8_t *pcWriteBuffer, size_t xWriteBufferLen, const int8_t *pcCommandString )
{
 8006038:	b580      	push	{r7, lr}
 800603a:	b086      	sub	sp, #24
 800603c:	af00      	add	r7, sp, #0
 800603e:	60f8      	str	r0, [r7, #12]
 8006040:	60b9      	str	r1, [r7, #8]
 8006042:	607a      	str	r2, [r7, #4]
static const CLI_Definition_List_Item_t * pxCommand = NULL;
signed portBASE_TYPE xReturn;

	( void ) pcCommandString;

	if( pxCommand == NULL )
 8006044:	4b11      	ldr	r3, [pc, #68]	; (800608c <prvHelpCommand+0x54>)
 8006046:	681b      	ldr	r3, [r3, #0]
 8006048:	2b00      	cmp	r3, #0
 800604a:	d102      	bne.n	8006052 <prvHelpCommand+0x1a>
	{
		/* Reset the pxCommand pointer back to the start of the list. */
		pxCommand = &xRegisteredCommands;
 800604c:	4b0f      	ldr	r3, [pc, #60]	; (800608c <prvHelpCommand+0x54>)
 800604e:	4a10      	ldr	r2, [pc, #64]	; (8006090 <prvHelpCommand+0x58>)
 8006050:	601a      	str	r2, [r3, #0]
	}

	/* Return the next command help string, before moving the pointer on to
	the next command in the list. */
	strncpy( ( char * ) pcWriteBuffer, ( const char * ) pxCommand->pxCommandLineDefinition->pcHelpString, xWriteBufferLen );
 8006052:	4b0e      	ldr	r3, [pc, #56]	; (800608c <prvHelpCommand+0x54>)
 8006054:	681b      	ldr	r3, [r3, #0]
 8006056:	681b      	ldr	r3, [r3, #0]
 8006058:	685b      	ldr	r3, [r3, #4]
 800605a:	68f8      	ldr	r0, [r7, #12]
 800605c:	4619      	mov	r1, r3
 800605e:	68ba      	ldr	r2, [r7, #8]
 8006060:	f002 feba 	bl	8008dd8 <strncpy>
	pxCommand = pxCommand->pxNext;
 8006064:	4b09      	ldr	r3, [pc, #36]	; (800608c <prvHelpCommand+0x54>)
 8006066:	681b      	ldr	r3, [r3, #0]
 8006068:	685a      	ldr	r2, [r3, #4]
 800606a:	4b08      	ldr	r3, [pc, #32]	; (800608c <prvHelpCommand+0x54>)
 800606c:	601a      	str	r2, [r3, #0]

	if( pxCommand == NULL )
 800606e:	4b07      	ldr	r3, [pc, #28]	; (800608c <prvHelpCommand+0x54>)
 8006070:	681b      	ldr	r3, [r3, #0]
 8006072:	2b00      	cmp	r3, #0
 8006074:	d102      	bne.n	800607c <prvHelpCommand+0x44>
	{
		/* There are no more commands in the list, so there will be no more
		strings to return after this one and pdFALSE should be returned. */
	//	strcat ( (char * ) pcWriteBuffer, "\nend help\n\n\0");
		xReturn = pdFALSE;
 8006076:	2300      	movs	r3, #0
 8006078:	617b      	str	r3, [r7, #20]
 800607a:	e001      	b.n	8006080 <prvHelpCommand+0x48>
	}
	else
	{
		xReturn = pdTRUE;
 800607c:	2301      	movs	r3, #1
 800607e:	617b      	str	r3, [r7, #20]
	}

	return xReturn;
 8006080:	697b      	ldr	r3, [r7, #20]
}
 8006082:	4618      	mov	r0, r3
 8006084:	3718      	adds	r7, #24
 8006086:	46bd      	mov	sp, r7
 8006088:	bd80      	pop	{r7, pc}
 800608a:	bf00      	nop
 800608c:	2000064c 	.word	0x2000064c
 8006090:	20000020 	.word	0x20000020

08006094 <prvGetNumberOfParameters>:
/*-----------------------------------------------------------*/

static int8_t prvGetNumberOfParameters( const int8_t * pcCommandString )
{
 8006094:	b480      	push	{r7}
 8006096:	b085      	sub	sp, #20
 8006098:	af00      	add	r7, sp, #0
 800609a:	6078      	str	r0, [r7, #4]
int8_t cParameters = 0;
 800609c:	2300      	movs	r3, #0
 800609e:	73fb      	strb	r3, [r7, #15]
portBASE_TYPE xLastCharacterWasSpace = pdFALSE;
 80060a0:	2300      	movs	r3, #0
 80060a2:	60bb      	str	r3, [r7, #8]

	/* Count the number of space delimited words in pcCommandString. */
	while( *pcCommandString != 0x00 )
 80060a4:	e012      	b.n	80060cc <prvGetNumberOfParameters+0x38>
	{
		if( ( *pcCommandString ) == ' ' )
 80060a6:	687b      	ldr	r3, [r7, #4]
 80060a8:	781b      	ldrb	r3, [r3, #0]
 80060aa:	b25b      	sxtb	r3, r3
 80060ac:	2b20      	cmp	r3, #32
 80060ae:	d108      	bne.n	80060c2 <prvGetNumberOfParameters+0x2e>
		{
			if( xLastCharacterWasSpace != pdTRUE )
 80060b0:	68bb      	ldr	r3, [r7, #8]
 80060b2:	2b01      	cmp	r3, #1
 80060b4:	d007      	beq.n	80060c6 <prvGetNumberOfParameters+0x32>
			{
				cParameters++;
 80060b6:	7bfb      	ldrb	r3, [r7, #15]
 80060b8:	3301      	adds	r3, #1
 80060ba:	73fb      	strb	r3, [r7, #15]
				xLastCharacterWasSpace = pdTRUE;
 80060bc:	2301      	movs	r3, #1
 80060be:	60bb      	str	r3, [r7, #8]
 80060c0:	e001      	b.n	80060c6 <prvGetNumberOfParameters+0x32>
			}
		}
		else
		{
			xLastCharacterWasSpace = pdFALSE;
 80060c2:	2300      	movs	r3, #0
 80060c4:	60bb      	str	r3, [r7, #8]
		}

		pcCommandString++;
 80060c6:	687b      	ldr	r3, [r7, #4]
 80060c8:	3301      	adds	r3, #1
 80060ca:	607b      	str	r3, [r7, #4]
{
int8_t cParameters = 0;
portBASE_TYPE xLastCharacterWasSpace = pdFALSE;

	/* Count the number of space delimited words in pcCommandString. */
	while( *pcCommandString != 0x00 )
 80060cc:	687b      	ldr	r3, [r7, #4]
 80060ce:	781b      	ldrb	r3, [r3, #0]
 80060d0:	2b00      	cmp	r3, #0
 80060d2:	d1e8      	bne.n	80060a6 <prvGetNumberOfParameters+0x12>
		pcCommandString++;
	}

	/* If the command string ended with spaces, then there will have been too
	many parameters counted. */
	if( xLastCharacterWasSpace == pdTRUE )
 80060d4:	68bb      	ldr	r3, [r7, #8]
 80060d6:	2b01      	cmp	r3, #1
 80060d8:	d102      	bne.n	80060e0 <prvGetNumberOfParameters+0x4c>
	{
		cParameters--;
 80060da:	7bfb      	ldrb	r3, [r7, #15]
 80060dc:	3b01      	subs	r3, #1
 80060de:	73fb      	strb	r3, [r7, #15]
	}

	/* The value returned is one less than the number of space delimited words,
	as the first word should be the command itself. */
	return cParameters;
 80060e0:	7bfb      	ldrb	r3, [r7, #15]
 80060e2:	b25b      	sxtb	r3, r3
}
 80060e4:	4618      	mov	r0, r3
 80060e6:	3714      	adds	r7, #20
 80060e8:	46bd      	mov	sp, r7
 80060ea:	f85d 7b04 	ldr.w	r7, [sp], #4
 80060ee:	4770      	bx	lr

080060f0 <pvPortMalloc>:
static size_t xBlockAllocatedBit = 0;

/*-----------------------------------------------------------*/

void *pvPortMalloc( size_t xWantedSize )
{
 80060f0:	b580      	push	{r7, lr}
 80060f2:	b086      	sub	sp, #24
 80060f4:	af00      	add	r7, sp, #0
 80060f6:	6078      	str	r0, [r7, #4]
xBlockLink *pxBlock, *pxPreviousBlock, *pxNewBlockLink;
void *pvReturn = NULL;
 80060f8:	2300      	movs	r3, #0
 80060fa:	60fb      	str	r3, [r7, #12]

	vTaskSuspendAll();
 80060fc:	f7fd fd44 	bl	8003b88 <vTaskSuspendAll>
	{
		/* If this is the first call to malloc then the heap will require
		initialisation to setup the list of free blocks. */
		if( pxEnd == NULL )
 8006100:	4b3d      	ldr	r3, [pc, #244]	; (80061f8 <pvPortMalloc+0x108>)
 8006102:	681b      	ldr	r3, [r3, #0]
 8006104:	2b00      	cmp	r3, #0
 8006106:	d101      	bne.n	800610c <pvPortMalloc+0x1c>
		{
			prvHeapInit();
 8006108:	f000 f8c8 	bl	800629c <prvHeapInit>

		/* Check the requested block size is not so large that the top bit is
		set.  The top bit of the block size member of the xBlockLink structure 
		is used to determine who owns the block - the application or the
		kernel, so it must be free. */
		if( ( xWantedSize & xBlockAllocatedBit ) == 0 )
 800610c:	4b3b      	ldr	r3, [pc, #236]	; (80061fc <pvPortMalloc+0x10c>)
 800610e:	681a      	ldr	r2, [r3, #0]
 8006110:	687b      	ldr	r3, [r7, #4]
 8006112:	4013      	ands	r3, r2
 8006114:	2b00      	cmp	r3, #0
 8006116:	d163      	bne.n	80061e0 <pvPortMalloc+0xf0>
		{
			/* The wanted size is increased so it can contain a xBlockLink
			structure in addition to the requested amount of bytes. */
			if( xWantedSize > 0 )
 8006118:	687b      	ldr	r3, [r7, #4]
 800611a:	2b00      	cmp	r3, #0
 800611c:	d00d      	beq.n	800613a <pvPortMalloc+0x4a>
			{
				xWantedSize += heapSTRUCT_SIZE;
 800611e:	2308      	movs	r3, #8
 8006120:	687a      	ldr	r2, [r7, #4]
 8006122:	4413      	add	r3, r2
 8006124:	607b      	str	r3, [r7, #4]

				/* Ensure that blocks are always aligned to the required number 
				of bytes. */
				if( ( xWantedSize & portBYTE_ALIGNMENT_MASK ) != 0x00 )
 8006126:	687b      	ldr	r3, [r7, #4]
 8006128:	f003 0307 	and.w	r3, r3, #7
 800612c:	2b00      	cmp	r3, #0
 800612e:	d004      	beq.n	800613a <pvPortMalloc+0x4a>
				{
					/* Byte alignment required. */
					xWantedSize += ( portBYTE_ALIGNMENT - ( xWantedSize & portBYTE_ALIGNMENT_MASK ) );
 8006130:	687b      	ldr	r3, [r7, #4]
 8006132:	f023 0307 	bic.w	r3, r3, #7
 8006136:	3308      	adds	r3, #8
 8006138:	607b      	str	r3, [r7, #4]
				}
			}

			if( ( xWantedSize > 0 ) && ( xWantedSize <= xFreeBytesRemaining ) )
 800613a:	687b      	ldr	r3, [r7, #4]
 800613c:	2b00      	cmp	r3, #0
 800613e:	d04f      	beq.n	80061e0 <pvPortMalloc+0xf0>
 8006140:	4b2f      	ldr	r3, [pc, #188]	; (8006200 <pvPortMalloc+0x110>)
 8006142:	681b      	ldr	r3, [r3, #0]
 8006144:	687a      	ldr	r2, [r7, #4]
 8006146:	429a      	cmp	r2, r3
 8006148:	d84a      	bhi.n	80061e0 <pvPortMalloc+0xf0>
			{
				/* Traverse the list from the start	(lowest address) block until 
				one	of adequate size is found. */
				pxPreviousBlock = &xStart;
 800614a:	4b2e      	ldr	r3, [pc, #184]	; (8006204 <pvPortMalloc+0x114>)
 800614c:	613b      	str	r3, [r7, #16]
				pxBlock = xStart.pxNextFreeBlock;
 800614e:	4b2d      	ldr	r3, [pc, #180]	; (8006204 <pvPortMalloc+0x114>)
 8006150:	681b      	ldr	r3, [r3, #0]
 8006152:	617b      	str	r3, [r7, #20]
				while( ( pxBlock->xBlockSize < xWantedSize ) && ( pxBlock->pxNextFreeBlock != NULL ) )
 8006154:	e004      	b.n	8006160 <pvPortMalloc+0x70>
				{
					pxPreviousBlock = pxBlock;
 8006156:	697b      	ldr	r3, [r7, #20]
 8006158:	613b      	str	r3, [r7, #16]
					pxBlock = pxBlock->pxNextFreeBlock;
 800615a:	697b      	ldr	r3, [r7, #20]
 800615c:	681b      	ldr	r3, [r3, #0]
 800615e:	617b      	str	r3, [r7, #20]
			{
				/* Traverse the list from the start	(lowest address) block until 
				one	of adequate size is found. */
				pxPreviousBlock = &xStart;
				pxBlock = xStart.pxNextFreeBlock;
				while( ( pxBlock->xBlockSize < xWantedSize ) && ( pxBlock->pxNextFreeBlock != NULL ) )
 8006160:	697b      	ldr	r3, [r7, #20]
 8006162:	685a      	ldr	r2, [r3, #4]
 8006164:	687b      	ldr	r3, [r7, #4]
 8006166:	429a      	cmp	r2, r3
 8006168:	d203      	bcs.n	8006172 <pvPortMalloc+0x82>
 800616a:	697b      	ldr	r3, [r7, #20]
 800616c:	681b      	ldr	r3, [r3, #0]
 800616e:	2b00      	cmp	r3, #0
 8006170:	d1f1      	bne.n	8006156 <pvPortMalloc+0x66>
					pxBlock = pxBlock->pxNextFreeBlock;
				}

				/* If the end marker was reached then a block of adequate size 
				was	not found. */
				if( pxBlock != pxEnd )
 8006172:	4b21      	ldr	r3, [pc, #132]	; (80061f8 <pvPortMalloc+0x108>)
 8006174:	681b      	ldr	r3, [r3, #0]
 8006176:	697a      	ldr	r2, [r7, #20]
 8006178:	429a      	cmp	r2, r3
 800617a:	d031      	beq.n	80061e0 <pvPortMalloc+0xf0>
				{
					/* Return the memory space pointed to - jumping over the 
					xBlockLink structure at its start. */
					pvReturn = ( void * ) ( ( ( unsigned char * ) pxPreviousBlock->pxNextFreeBlock ) + heapSTRUCT_SIZE );
 800617c:	693b      	ldr	r3, [r7, #16]
 800617e:	681a      	ldr	r2, [r3, #0]
 8006180:	2308      	movs	r3, #8
 8006182:	4413      	add	r3, r2
 8006184:	60fb      	str	r3, [r7, #12]

					/* This block is being returned for use so must be taken out 
					of the list of free blocks. */
					pxPreviousBlock->pxNextFreeBlock = pxBlock->pxNextFreeBlock;
 8006186:	697b      	ldr	r3, [r7, #20]
 8006188:	681a      	ldr	r2, [r3, #0]
 800618a:	693b      	ldr	r3, [r7, #16]
 800618c:	601a      	str	r2, [r3, #0]

					/* If the block is larger than required it can be split into 
					two. */
					if( ( pxBlock->xBlockSize - xWantedSize ) > heapMINIMUM_BLOCK_SIZE )
 800618e:	697b      	ldr	r3, [r7, #20]
 8006190:	685a      	ldr	r2, [r3, #4]
 8006192:	687b      	ldr	r3, [r7, #4]
 8006194:	1ad2      	subs	r2, r2, r3
 8006196:	2308      	movs	r3, #8
 8006198:	005b      	lsls	r3, r3, #1
 800619a:	429a      	cmp	r2, r3
 800619c:	d90f      	bls.n	80061be <pvPortMalloc+0xce>
					{
						/* This block is to be split into two.  Create a new 
						block following the number of bytes requested. The void 
						cast is used to prevent byte alignment warnings from the 
						compiler. */
						pxNewBlockLink = ( void * ) ( ( ( unsigned char * ) pxBlock ) + xWantedSize );
 800619e:	697a      	ldr	r2, [r7, #20]
 80061a0:	687b      	ldr	r3, [r7, #4]
 80061a2:	4413      	add	r3, r2
 80061a4:	60bb      	str	r3, [r7, #8]

						/* Calculate the sizes of two blocks split from the 
						single block. */
						pxNewBlockLink->xBlockSize = pxBlock->xBlockSize - xWantedSize;
 80061a6:	697b      	ldr	r3, [r7, #20]
 80061a8:	685a      	ldr	r2, [r3, #4]
 80061aa:	687b      	ldr	r3, [r7, #4]
 80061ac:	1ad2      	subs	r2, r2, r3
 80061ae:	68bb      	ldr	r3, [r7, #8]
 80061b0:	605a      	str	r2, [r3, #4]
						pxBlock->xBlockSize = xWantedSize;
 80061b2:	697b      	ldr	r3, [r7, #20]
 80061b4:	687a      	ldr	r2, [r7, #4]
 80061b6:	605a      	str	r2, [r3, #4]

						/* Insert the new block into the list of free blocks. */
						prvInsertBlockIntoFreeList( ( pxNewBlockLink ) );
 80061b8:	68b8      	ldr	r0, [r7, #8]
 80061ba:	f000 f8bd 	bl	8006338 <prvInsertBlockIntoFreeList>
					}

					xFreeBytesRemaining -= pxBlock->xBlockSize;
 80061be:	4b10      	ldr	r3, [pc, #64]	; (8006200 <pvPortMalloc+0x110>)
 80061c0:	681a      	ldr	r2, [r3, #0]
 80061c2:	697b      	ldr	r3, [r7, #20]
 80061c4:	685b      	ldr	r3, [r3, #4]
 80061c6:	1ad2      	subs	r2, r2, r3
 80061c8:	4b0d      	ldr	r3, [pc, #52]	; (8006200 <pvPortMalloc+0x110>)
 80061ca:	601a      	str	r2, [r3, #0]

					/* The block is being returned - it is allocated and owned
					by the application and has no "next" block. */
					pxBlock->xBlockSize |= xBlockAllocatedBit;
 80061cc:	697b      	ldr	r3, [r7, #20]
 80061ce:	685a      	ldr	r2, [r3, #4]
 80061d0:	4b0a      	ldr	r3, [pc, #40]	; (80061fc <pvPortMalloc+0x10c>)
 80061d2:	681b      	ldr	r3, [r3, #0]
 80061d4:	431a      	orrs	r2, r3
 80061d6:	697b      	ldr	r3, [r7, #20]
 80061d8:	605a      	str	r2, [r3, #4]
					pxBlock->pxNextFreeBlock = NULL;
 80061da:	697b      	ldr	r3, [r7, #20]
 80061dc:	2200      	movs	r2, #0
 80061de:	601a      	str	r2, [r3, #0]
			}
		}

		traceMALLOC( pvReturn, xWantedSize );
	}
	xTaskResumeAll();
 80061e0:	f7fd fce0 	bl	8003ba4 <xTaskResumeAll>

	#if( configUSE_MALLOC_FAILED_HOOK == 1 )
	{
		if( pvReturn == NULL )
 80061e4:	68fb      	ldr	r3, [r7, #12]
 80061e6:	2b00      	cmp	r3, #0
 80061e8:	d101      	bne.n	80061ee <pvPortMalloc+0xfe>
		{
			extern void vApplicationMallocFailedHook( void );
			vApplicationMallocFailedHook();
 80061ea:	f7fd f9a1 	bl	8003530 <vApplicationMallocFailedHook>
		}
	}
	#endif

	return pvReturn;
 80061ee:	68fb      	ldr	r3, [r7, #12]
}
 80061f0:	4618      	mov	r0, r3
 80061f2:	3718      	adds	r7, #24
 80061f4:	46bd      	mov	sp, r7
 80061f6:	bd80      	pop	{r7, pc}
 80061f8:	20013258 	.word	0x20013258
 80061fc:	2001325c 	.word	0x2001325c
 8006200:	2000002c 	.word	0x2000002c
 8006204:	20013250 	.word	0x20013250

08006208 <vPortFree>:
/*-----------------------------------------------------------*/

void vPortFree( void *pv )
{
 8006208:	b580      	push	{r7, lr}
 800620a:	b084      	sub	sp, #16
 800620c:	af00      	add	r7, sp, #0
 800620e:	6078      	str	r0, [r7, #4]
unsigned char *puc = ( unsigned char * ) pv;
 8006210:	687b      	ldr	r3, [r7, #4]
 8006212:	60fb      	str	r3, [r7, #12]
xBlockLink *pxLink;

	if( pv != NULL )
 8006214:	687b      	ldr	r3, [r7, #4]
 8006216:	2b00      	cmp	r3, #0
 8006218:	d038      	beq.n	800628c <vPortFree+0x84>
	{
		/* The memory being freed will have an xBlockLink structure immediately
		before it. */
		puc -= heapSTRUCT_SIZE;
 800621a:	2308      	movs	r3, #8
 800621c:	425b      	negs	r3, r3
 800621e:	68fa      	ldr	r2, [r7, #12]
 8006220:	4413      	add	r3, r2
 8006222:	60fb      	str	r3, [r7, #12]

		/* This casting is to keep the compiler from issuing warnings. */
		pxLink = ( void * ) puc;
 8006224:	68fb      	ldr	r3, [r7, #12]
 8006226:	60bb      	str	r3, [r7, #8]

		/* Check the block is actually allocated. */
		configASSERT( ( pxLink->xBlockSize & xBlockAllocatedBit ) != 0 );
 8006228:	68bb      	ldr	r3, [r7, #8]
 800622a:	685a      	ldr	r2, [r3, #4]
 800622c:	4b19      	ldr	r3, [pc, #100]	; (8006294 <vPortFree+0x8c>)
 800622e:	681b      	ldr	r3, [r3, #0]
 8006230:	4013      	ands	r3, r2
 8006232:	2b00      	cmp	r3, #0
 8006234:	d102      	bne.n	800623c <vPortFree+0x34>
 8006236:	f7ff f90b 	bl	8005450 <ulPortSetInterruptMask>
 800623a:	e7fe      	b.n	800623a <vPortFree+0x32>
		configASSERT( pxLink->pxNextFreeBlock == NULL );
 800623c:	68bb      	ldr	r3, [r7, #8]
 800623e:	681b      	ldr	r3, [r3, #0]
 8006240:	2b00      	cmp	r3, #0
 8006242:	d002      	beq.n	800624a <vPortFree+0x42>
 8006244:	f7ff f904 	bl	8005450 <ulPortSetInterruptMask>
 8006248:	e7fe      	b.n	8006248 <vPortFree+0x40>
		
		if( ( pxLink->xBlockSize & xBlockAllocatedBit ) != 0 )
 800624a:	68bb      	ldr	r3, [r7, #8]
 800624c:	685a      	ldr	r2, [r3, #4]
 800624e:	4b11      	ldr	r3, [pc, #68]	; (8006294 <vPortFree+0x8c>)
 8006250:	681b      	ldr	r3, [r3, #0]
 8006252:	4013      	ands	r3, r2
 8006254:	2b00      	cmp	r3, #0
 8006256:	d019      	beq.n	800628c <vPortFree+0x84>
		{
			if( pxLink->pxNextFreeBlock == NULL )
 8006258:	68bb      	ldr	r3, [r7, #8]
 800625a:	681b      	ldr	r3, [r3, #0]
 800625c:	2b00      	cmp	r3, #0
 800625e:	d115      	bne.n	800628c <vPortFree+0x84>
			{
				/* The block is being returned to the heap - it is no longer
				allocated. */
				pxLink->xBlockSize &= ~xBlockAllocatedBit;
 8006260:	68bb      	ldr	r3, [r7, #8]
 8006262:	685a      	ldr	r2, [r3, #4]
 8006264:	4b0b      	ldr	r3, [pc, #44]	; (8006294 <vPortFree+0x8c>)
 8006266:	681b      	ldr	r3, [r3, #0]
 8006268:	43db      	mvns	r3, r3
 800626a:	401a      	ands	r2, r3
 800626c:	68bb      	ldr	r3, [r7, #8]
 800626e:	605a      	str	r2, [r3, #4]

				vTaskSuspendAll();
 8006270:	f7fd fc8a 	bl	8003b88 <vTaskSuspendAll>
				{
					/* Add this block to the list of free blocks. */
					xFreeBytesRemaining += pxLink->xBlockSize;
 8006274:	68bb      	ldr	r3, [r7, #8]
 8006276:	685a      	ldr	r2, [r3, #4]
 8006278:	4b07      	ldr	r3, [pc, #28]	; (8006298 <vPortFree+0x90>)
 800627a:	681b      	ldr	r3, [r3, #0]
 800627c:	441a      	add	r2, r3
 800627e:	4b06      	ldr	r3, [pc, #24]	; (8006298 <vPortFree+0x90>)
 8006280:	601a      	str	r2, [r3, #0]
					prvInsertBlockIntoFreeList( ( ( xBlockLink * ) pxLink ) );
 8006282:	68b8      	ldr	r0, [r7, #8]
 8006284:	f000 f858 	bl	8006338 <prvInsertBlockIntoFreeList>
					traceFREE( pv, pxLink->xBlockSize );
				}
				xTaskResumeAll();
 8006288:	f7fd fc8c 	bl	8003ba4 <xTaskResumeAll>
			}
		}
	}
}
 800628c:	3710      	adds	r7, #16
 800628e:	46bd      	mov	sp, r7
 8006290:	bd80      	pop	{r7, pc}
 8006292:	bf00      	nop
 8006294:	2001325c 	.word	0x2001325c
 8006298:	2000002c 	.word	0x2000002c

0800629c <prvHeapInit>:
	/* This just exists to keep the linker quiet. */
}
/*-----------------------------------------------------------*/

static void prvHeapInit( void )
{
 800629c:	b580      	push	{r7, lr}
 800629e:	b084      	sub	sp, #16
 80062a0:	af00      	add	r7, sp, #0
xBlockLink *pxFirstFreeBlock;
unsigned char *pucHeapEnd, *pucAlignedHeap;

	/* Ensure the heap starts on a correctly aligned boundary. */
	pucAlignedHeap = ( unsigned char * ) ( ( ( portPOINTER_SIZE_TYPE ) &ucHeap[ portBYTE_ALIGNMENT ] ) & ( ( portPOINTER_SIZE_TYPE ) ~portBYTE_ALIGNMENT_MASK ) );
 80062a2:	4b1f      	ldr	r3, [pc, #124]	; (8006320 <prvHeapInit+0x84>)
 80062a4:	f023 0307 	bic.w	r3, r3, #7
 80062a8:	60fb      	str	r3, [r7, #12]

	/* xStart is used to hold a pointer to the first item in the list of free
	blocks.  The void cast is used to prevent compiler warnings. */
	xStart.pxNextFreeBlock = ( void * ) pucAlignedHeap;
 80062aa:	4b1e      	ldr	r3, [pc, #120]	; (8006324 <prvHeapInit+0x88>)
 80062ac:	68fa      	ldr	r2, [r7, #12]
 80062ae:	601a      	str	r2, [r3, #0]
	xStart.xBlockSize = ( size_t ) 0;
 80062b0:	4b1c      	ldr	r3, [pc, #112]	; (8006324 <prvHeapInit+0x88>)
 80062b2:	2200      	movs	r2, #0
 80062b4:	605a      	str	r2, [r3, #4]

	/* pxEnd is used to mark the end of the list of free blocks and is inserted
	at the end of the heap space. */
	pucHeapEnd = pucAlignedHeap + xTotalHeapSize;
 80062b6:	4b1c      	ldr	r3, [pc, #112]	; (8006328 <prvHeapInit+0x8c>)
 80062b8:	68fa      	ldr	r2, [r7, #12]
 80062ba:	4413      	add	r3, r2
 80062bc:	60bb      	str	r3, [r7, #8]
	pucHeapEnd -= heapSTRUCT_SIZE;
 80062be:	2308      	movs	r3, #8
 80062c0:	425b      	negs	r3, r3
 80062c2:	68ba      	ldr	r2, [r7, #8]
 80062c4:	4413      	add	r3, r2
 80062c6:	60bb      	str	r3, [r7, #8]
	pxEnd = ( void * ) pucHeapEnd;
 80062c8:	4b18      	ldr	r3, [pc, #96]	; (800632c <prvHeapInit+0x90>)
 80062ca:	68ba      	ldr	r2, [r7, #8]
 80062cc:	601a      	str	r2, [r3, #0]
	configASSERT( ( ( ( unsigned long ) pxEnd ) & ( ( unsigned long ) portBYTE_ALIGNMENT_MASK ) ) == 0UL );
 80062ce:	4b17      	ldr	r3, [pc, #92]	; (800632c <prvHeapInit+0x90>)
 80062d0:	681b      	ldr	r3, [r3, #0]
 80062d2:	f003 0307 	and.w	r3, r3, #7
 80062d6:	2b00      	cmp	r3, #0
 80062d8:	d002      	beq.n	80062e0 <prvHeapInit+0x44>
 80062da:	f7ff f8b9 	bl	8005450 <ulPortSetInterruptMask>
 80062de:	e7fe      	b.n	80062de <prvHeapInit+0x42>
	pxEnd->xBlockSize = 0;
 80062e0:	4b12      	ldr	r3, [pc, #72]	; (800632c <prvHeapInit+0x90>)
 80062e2:	681b      	ldr	r3, [r3, #0]
 80062e4:	2200      	movs	r2, #0
 80062e6:	605a      	str	r2, [r3, #4]
	pxEnd->pxNextFreeBlock = NULL;
 80062e8:	4b10      	ldr	r3, [pc, #64]	; (800632c <prvHeapInit+0x90>)
 80062ea:	681b      	ldr	r3, [r3, #0]
 80062ec:	2200      	movs	r2, #0
 80062ee:	601a      	str	r2, [r3, #0]

	/* To start with there is a single free block that is sized to take up the
	entire heap space, minus the space taken by pxEnd. */
	pxFirstFreeBlock = ( void * ) pucAlignedHeap;
 80062f0:	68fb      	ldr	r3, [r7, #12]
 80062f2:	607b      	str	r3, [r7, #4]
	pxFirstFreeBlock->xBlockSize = xTotalHeapSize - heapSTRUCT_SIZE;
 80062f4:	4a0c      	ldr	r2, [pc, #48]	; (8006328 <prvHeapInit+0x8c>)
 80062f6:	2308      	movs	r3, #8
 80062f8:	1ad2      	subs	r2, r2, r3
 80062fa:	687b      	ldr	r3, [r7, #4]
 80062fc:	605a      	str	r2, [r3, #4]
	pxFirstFreeBlock->pxNextFreeBlock = pxEnd;
 80062fe:	4b0b      	ldr	r3, [pc, #44]	; (800632c <prvHeapInit+0x90>)
 8006300:	681a      	ldr	r2, [r3, #0]
 8006302:	687b      	ldr	r3, [r7, #4]
 8006304:	601a      	str	r2, [r3, #0]

	/* The heap now contains pxEnd. */
	xFreeBytesRemaining -= heapSTRUCT_SIZE;
 8006306:	4b0a      	ldr	r3, [pc, #40]	; (8006330 <prvHeapInit+0x94>)
 8006308:	681a      	ldr	r2, [r3, #0]
 800630a:	2308      	movs	r3, #8
 800630c:	1ad2      	subs	r2, r2, r3
 800630e:	4b08      	ldr	r3, [pc, #32]	; (8006330 <prvHeapInit+0x94>)
 8006310:	601a      	str	r2, [r3, #0]

	/* Work out the position of the top bit in a size_t variable. */
	xBlockAllocatedBit = ( ( size_t ) 1 ) << ( ( sizeof( size_t ) * heapBITS_PER_BYTE ) - 1 );
 8006312:	4b08      	ldr	r3, [pc, #32]	; (8006334 <prvHeapInit+0x98>)
 8006314:	f04f 4200 	mov.w	r2, #2147483648	; 0x80000000
 8006318:	601a      	str	r2, [r3, #0]
}
 800631a:	3710      	adds	r7, #16
 800631c:	46bd      	mov	sp, r7
 800631e:	bd80      	pop	{r7, pc}
 8006320:	20000658 	.word	0x20000658
 8006324:	20013250 	.word	0x20013250
 8006328:	00012bf8 	.word	0x00012bf8
 800632c:	20013258 	.word	0x20013258
 8006330:	2000002c 	.word	0x2000002c
 8006334:	2001325c 	.word	0x2001325c

08006338 <prvInsertBlockIntoFreeList>:
/*-----------------------------------------------------------*/

static void prvInsertBlockIntoFreeList( xBlockLink *pxBlockToInsert )
{
 8006338:	b480      	push	{r7}
 800633a:	b085      	sub	sp, #20
 800633c:	af00      	add	r7, sp, #0
 800633e:	6078      	str	r0, [r7, #4]
xBlockLink *pxIterator;
unsigned char *puc;

	/* Iterate through the list until a block is found that has a higher address
	than the block being inserted. */
	for( pxIterator = &xStart; pxIterator->pxNextFreeBlock < pxBlockToInsert; pxIterator = pxIterator->pxNextFreeBlock )
 8006340:	4b27      	ldr	r3, [pc, #156]	; (80063e0 <prvInsertBlockIntoFreeList+0xa8>)
 8006342:	60fb      	str	r3, [r7, #12]
 8006344:	e002      	b.n	800634c <prvInsertBlockIntoFreeList+0x14>
 8006346:	68fb      	ldr	r3, [r7, #12]
 8006348:	681b      	ldr	r3, [r3, #0]
 800634a:	60fb      	str	r3, [r7, #12]
 800634c:	68fb      	ldr	r3, [r7, #12]
 800634e:	681a      	ldr	r2, [r3, #0]
 8006350:	687b      	ldr	r3, [r7, #4]
 8006352:	429a      	cmp	r2, r3
 8006354:	d3f7      	bcc.n	8006346 <prvInsertBlockIntoFreeList+0xe>
		/* Nothing to do here, just iterate to the right position. */
	}

	/* Do the block being inserted, and the block it is being inserted after
	make a contiguous block of memory? */	
	puc = ( unsigned char * ) pxIterator;
 8006356:	68fb      	ldr	r3, [r7, #12]
 8006358:	60bb      	str	r3, [r7, #8]
	if( ( puc + pxIterator->xBlockSize ) == ( unsigned char * ) pxBlockToInsert )
 800635a:	68fb      	ldr	r3, [r7, #12]
 800635c:	685b      	ldr	r3, [r3, #4]
 800635e:	68ba      	ldr	r2, [r7, #8]
 8006360:	441a      	add	r2, r3
 8006362:	687b      	ldr	r3, [r7, #4]
 8006364:	429a      	cmp	r2, r3
 8006366:	d108      	bne.n	800637a <prvInsertBlockIntoFreeList+0x42>
	{
		pxIterator->xBlockSize += pxBlockToInsert->xBlockSize;
 8006368:	68fb      	ldr	r3, [r7, #12]
 800636a:	685a      	ldr	r2, [r3, #4]
 800636c:	687b      	ldr	r3, [r7, #4]
 800636e:	685b      	ldr	r3, [r3, #4]
 8006370:	441a      	add	r2, r3
 8006372:	68fb      	ldr	r3, [r7, #12]
 8006374:	605a      	str	r2, [r3, #4]
		pxBlockToInsert = pxIterator;
 8006376:	68fb      	ldr	r3, [r7, #12]
 8006378:	607b      	str	r3, [r7, #4]
	}

	/* Do the block being inserted, and the block it is being inserted before
	make a contiguous block of memory? */
	puc = ( unsigned char * ) pxBlockToInsert;
 800637a:	687b      	ldr	r3, [r7, #4]
 800637c:	60bb      	str	r3, [r7, #8]
	if( ( puc + pxBlockToInsert->xBlockSize ) == ( unsigned char * ) pxIterator->pxNextFreeBlock )
 800637e:	687b      	ldr	r3, [r7, #4]
 8006380:	685b      	ldr	r3, [r3, #4]
 8006382:	68ba      	ldr	r2, [r7, #8]
 8006384:	441a      	add	r2, r3
 8006386:	68fb      	ldr	r3, [r7, #12]
 8006388:	681b      	ldr	r3, [r3, #0]
 800638a:	429a      	cmp	r2, r3
 800638c:	d118      	bne.n	80063c0 <prvInsertBlockIntoFreeList+0x88>
	{
		if( pxIterator->pxNextFreeBlock != pxEnd )
 800638e:	68fb      	ldr	r3, [r7, #12]
 8006390:	681a      	ldr	r2, [r3, #0]
 8006392:	4b14      	ldr	r3, [pc, #80]	; (80063e4 <prvInsertBlockIntoFreeList+0xac>)
 8006394:	681b      	ldr	r3, [r3, #0]
 8006396:	429a      	cmp	r2, r3
 8006398:	d00d      	beq.n	80063b6 <prvInsertBlockIntoFreeList+0x7e>
		{
			/* Form one big block from the two blocks. */
			pxBlockToInsert->xBlockSize += pxIterator->pxNextFreeBlock->xBlockSize;
 800639a:	687b      	ldr	r3, [r7, #4]
 800639c:	685a      	ldr	r2, [r3, #4]
 800639e:	68fb      	ldr	r3, [r7, #12]
 80063a0:	681b      	ldr	r3, [r3, #0]
 80063a2:	685b      	ldr	r3, [r3, #4]
 80063a4:	441a      	add	r2, r3
 80063a6:	687b      	ldr	r3, [r7, #4]
 80063a8:	605a      	str	r2, [r3, #4]
			pxBlockToInsert->pxNextFreeBlock = pxIterator->pxNextFreeBlock->pxNextFreeBlock;
 80063aa:	68fb      	ldr	r3, [r7, #12]
 80063ac:	681b      	ldr	r3, [r3, #0]
 80063ae:	681a      	ldr	r2, [r3, #0]
 80063b0:	687b      	ldr	r3, [r7, #4]
 80063b2:	601a      	str	r2, [r3, #0]
 80063b4:	e008      	b.n	80063c8 <prvInsertBlockIntoFreeList+0x90>
		}
		else
		{
			pxBlockToInsert->pxNextFreeBlock = pxEnd;
 80063b6:	4b0b      	ldr	r3, [pc, #44]	; (80063e4 <prvInsertBlockIntoFreeList+0xac>)
 80063b8:	681a      	ldr	r2, [r3, #0]
 80063ba:	687b      	ldr	r3, [r7, #4]
 80063bc:	601a      	str	r2, [r3, #0]
 80063be:	e003      	b.n	80063c8 <prvInsertBlockIntoFreeList+0x90>
		}
	}
	else
	{
		pxBlockToInsert->pxNextFreeBlock = pxIterator->pxNextFreeBlock;		
 80063c0:	68fb      	ldr	r3, [r7, #12]
 80063c2:	681a      	ldr	r2, [r3, #0]
 80063c4:	687b      	ldr	r3, [r7, #4]
 80063c6:	601a      	str	r2, [r3, #0]

	/* If the block being inserted plugged a gab, so was merged with the block
	before and the block after, then it's pxNextFreeBlock pointer will have
	already been set, and should not be set here as that would make it point
	to itself. */
	if( pxIterator != pxBlockToInsert )
 80063c8:	68fa      	ldr	r2, [r7, #12]
 80063ca:	687b      	ldr	r3, [r7, #4]
 80063cc:	429a      	cmp	r2, r3
 80063ce:	d002      	beq.n	80063d6 <prvInsertBlockIntoFreeList+0x9e>
	{
		pxIterator->pxNextFreeBlock = pxBlockToInsert;
 80063d0:	68fb      	ldr	r3, [r7, #12]
 80063d2:	687a      	ldr	r2, [r7, #4]
 80063d4:	601a      	str	r2, [r3, #0]
	}
}
 80063d6:	3714      	adds	r7, #20
 80063d8:	46bd      	mov	sp, r7
 80063da:	f85d 7b04 	ldr.w	r7, [sp], #4
 80063de:	4770      	bx	lr
 80063e0:	20013250 	.word	0x20013250
 80063e4:	20013258 	.word	0x20013258

080063e8 <NVIC_PriorityGroupConfig>:
  * @note   When the NVIC_PriorityGroup_0 is selected, IRQ pre-emption is no more possible. 
  *         The pending IRQ priority will be managed only by the subpriority. 
  * @retval None
  */
void NVIC_PriorityGroupConfig(uint32_t NVIC_PriorityGroup)
{
 80063e8:	b580      	push	{r7, lr}
 80063ea:	b082      	sub	sp, #8
 80063ec:	af00      	add	r7, sp, #0
 80063ee:	6078      	str	r0, [r7, #4]
  /* Check the parameters */
  assert_param(IS_NVIC_PRIORITY_GROUP(NVIC_PriorityGroup));
 80063f0:	687b      	ldr	r3, [r7, #4]
 80063f2:	f5b3 6fe0 	cmp.w	r3, #1792	; 0x700
 80063f6:	d013      	beq.n	8006420 <NVIC_PriorityGroupConfig+0x38>
 80063f8:	687b      	ldr	r3, [r7, #4]
 80063fa:	f5b3 6fc0 	cmp.w	r3, #1536	; 0x600
 80063fe:	d00f      	beq.n	8006420 <NVIC_PriorityGroupConfig+0x38>
 8006400:	687b      	ldr	r3, [r7, #4]
 8006402:	f5b3 6fa0 	cmp.w	r3, #1280	; 0x500
 8006406:	d00b      	beq.n	8006420 <NVIC_PriorityGroupConfig+0x38>
 8006408:	687b      	ldr	r3, [r7, #4]
 800640a:	f5b3 6f80 	cmp.w	r3, #1024	; 0x400
 800640e:	d007      	beq.n	8006420 <NVIC_PriorityGroupConfig+0x38>
 8006410:	687b      	ldr	r3, [r7, #4]
 8006412:	f5b3 7f40 	cmp.w	r3, #768	; 0x300
 8006416:	d003      	beq.n	8006420 <NVIC_PriorityGroupConfig+0x38>
 8006418:	4806      	ldr	r0, [pc, #24]	; (8006434 <NVIC_PriorityGroupConfig+0x4c>)
 800641a:	2173      	movs	r1, #115	; 0x73
 800641c:	f7fd f89c 	bl	8003558 <assert_failed>
  
  /* Set the PRIGROUP[10:8] bits according to NVIC_PriorityGroup value */
  SCB->AIRCR = AIRCR_VECTKEY_MASK | NVIC_PriorityGroup;
 8006420:	4a05      	ldr	r2, [pc, #20]	; (8006438 <NVIC_PriorityGroupConfig+0x50>)
 8006422:	687b      	ldr	r3, [r7, #4]
 8006424:	f043 63bf 	orr.w	r3, r3, #100139008	; 0x5f80000
 8006428:	f443 3300 	orr.w	r3, r3, #131072	; 0x20000
 800642c:	60d3      	str	r3, [r2, #12]
}
 800642e:	3708      	adds	r7, #8
 8006430:	46bd      	mov	sp, r7
 8006432:	bd80      	pop	{r7, pc}
 8006434:	080097a8 	.word	0x080097a8
 8006438:	e000ed00 	.word	0xe000ed00

0800643c <NVIC_Init>:
  * @param  NVIC_InitStruct: pointer to a NVIC_InitTypeDef structure that contains
  *         the configuration information for the specified NVIC peripheral.
  * @retval None
  */
void NVIC_Init(NVIC_InitTypeDef* NVIC_InitStruct)
{
 800643c:	b580      	push	{r7, lr}
 800643e:	b084      	sub	sp, #16
 8006440:	af00      	add	r7, sp, #0
 8006442:	6078      	str	r0, [r7, #4]
  uint8_t tmppriority = 0x00, tmppre = 0x00, tmpsub = 0x0F;
 8006444:	2300      	movs	r3, #0
 8006446:	73fb      	strb	r3, [r7, #15]
 8006448:	2300      	movs	r3, #0
 800644a:	73bb      	strb	r3, [r7, #14]
 800644c:	230f      	movs	r3, #15
 800644e:	737b      	strb	r3, [r7, #13]
  
  /* Check the parameters */
  assert_param(IS_FUNCTIONAL_STATE(NVIC_InitStruct->NVIC_IRQChannelCmd));
 8006450:	687b      	ldr	r3, [r7, #4]
 8006452:	78db      	ldrb	r3, [r3, #3]
 8006454:	2b00      	cmp	r3, #0
 8006456:	d007      	beq.n	8006468 <NVIC_Init+0x2c>
 8006458:	687b      	ldr	r3, [r7, #4]
 800645a:	78db      	ldrb	r3, [r3, #3]
 800645c:	2b01      	cmp	r3, #1
 800645e:	d003      	beq.n	8006468 <NVIC_Init+0x2c>
 8006460:	4830      	ldr	r0, [pc, #192]	; (8006524 <NVIC_Init+0xe8>)
 8006462:	2187      	movs	r1, #135	; 0x87
 8006464:	f7fd f878 	bl	8003558 <assert_failed>
  assert_param(IS_NVIC_PREEMPTION_PRIORITY(NVIC_InitStruct->NVIC_IRQChannelPreemptionPriority));  
 8006468:	687b      	ldr	r3, [r7, #4]
 800646a:	785b      	ldrb	r3, [r3, #1]
 800646c:	2b0f      	cmp	r3, #15
 800646e:	d903      	bls.n	8006478 <NVIC_Init+0x3c>
 8006470:	482c      	ldr	r0, [pc, #176]	; (8006524 <NVIC_Init+0xe8>)
 8006472:	2188      	movs	r1, #136	; 0x88
 8006474:	f7fd f870 	bl	8003558 <assert_failed>
  assert_param(IS_NVIC_SUB_PRIORITY(NVIC_InitStruct->NVIC_IRQChannelSubPriority));
 8006478:	687b      	ldr	r3, [r7, #4]
 800647a:	789b      	ldrb	r3, [r3, #2]
 800647c:	2b0f      	cmp	r3, #15
 800647e:	d903      	bls.n	8006488 <NVIC_Init+0x4c>
 8006480:	4828      	ldr	r0, [pc, #160]	; (8006524 <NVIC_Init+0xe8>)
 8006482:	2189      	movs	r1, #137	; 0x89
 8006484:	f7fd f868 	bl	8003558 <assert_failed>
    
  if (NVIC_InitStruct->NVIC_IRQChannelCmd != DISABLE)
 8006488:	687b      	ldr	r3, [r7, #4]
 800648a:	78db      	ldrb	r3, [r3, #3]
 800648c:	2b00      	cmp	r3, #0
 800648e:	d037      	beq.n	8006500 <NVIC_Init+0xc4>
  {
    /* Compute the Corresponding IRQ Priority --------------------------------*/    
    tmppriority = (0x700 - ((SCB->AIRCR) & (uint32_t)0x700))>> 0x08;
 8006490:	4b25      	ldr	r3, [pc, #148]	; (8006528 <NVIC_Init+0xec>)
 8006492:	68db      	ldr	r3, [r3, #12]
 8006494:	43db      	mvns	r3, r3
 8006496:	f403 63e0 	and.w	r3, r3, #1792	; 0x700
 800649a:	0a1b      	lsrs	r3, r3, #8
 800649c:	73fb      	strb	r3, [r7, #15]
    tmppre = (0x4 - tmppriority);
 800649e:	7bfb      	ldrb	r3, [r7, #15]
 80064a0:	f1c3 0304 	rsb	r3, r3, #4
 80064a4:	73bb      	strb	r3, [r7, #14]
    tmpsub = tmpsub >> tmppriority;
 80064a6:	7b7a      	ldrb	r2, [r7, #13]
 80064a8:	7bfb      	ldrb	r3, [r7, #15]
 80064aa:	fa42 f303 	asr.w	r3, r2, r3
 80064ae:	737b      	strb	r3, [r7, #13]

    tmppriority = NVIC_InitStruct->NVIC_IRQChannelPreemptionPriority << tmppre;
 80064b0:	687b      	ldr	r3, [r7, #4]
 80064b2:	785b      	ldrb	r3, [r3, #1]
 80064b4:	461a      	mov	r2, r3
 80064b6:	7bbb      	ldrb	r3, [r7, #14]
 80064b8:	fa02 f303 	lsl.w	r3, r2, r3
 80064bc:	73fb      	strb	r3, [r7, #15]
    tmppriority |=  (uint8_t)(NVIC_InitStruct->NVIC_IRQChannelSubPriority & tmpsub);
 80064be:	687b      	ldr	r3, [r7, #4]
 80064c0:	789a      	ldrb	r2, [r3, #2]
 80064c2:	7b7b      	ldrb	r3, [r7, #13]
 80064c4:	4013      	ands	r3, r2
 80064c6:	b2da      	uxtb	r2, r3
 80064c8:	7bfb      	ldrb	r3, [r7, #15]
 80064ca:	4313      	orrs	r3, r2
 80064cc:	73fb      	strb	r3, [r7, #15]
        
    tmppriority = tmppriority << 0x04;
 80064ce:	7bfb      	ldrb	r3, [r7, #15]
 80064d0:	011b      	lsls	r3, r3, #4
 80064d2:	73fb      	strb	r3, [r7, #15]
        
    NVIC->IP[NVIC_InitStruct->NVIC_IRQChannel] = tmppriority;
 80064d4:	4a15      	ldr	r2, [pc, #84]	; (800652c <NVIC_Init+0xf0>)
 80064d6:	687b      	ldr	r3, [r7, #4]
 80064d8:	781b      	ldrb	r3, [r3, #0]
 80064da:	4413      	add	r3, r2
 80064dc:	7bfa      	ldrb	r2, [r7, #15]
 80064de:	f883 2300 	strb.w	r2, [r3, #768]	; 0x300
    
    /* Enable the Selected IRQ Channels --------------------------------------*/
    NVIC->ISER[NVIC_InitStruct->NVIC_IRQChannel >> 0x05] =
 80064e2:	4b12      	ldr	r3, [pc, #72]	; (800652c <NVIC_Init+0xf0>)
 80064e4:	687a      	ldr	r2, [r7, #4]
 80064e6:	7812      	ldrb	r2, [r2, #0]
 80064e8:	0952      	lsrs	r2, r2, #5
 80064ea:	b2d2      	uxtb	r2, r2
      (uint32_t)0x01 << (NVIC_InitStruct->NVIC_IRQChannel & (uint8_t)0x1F);
 80064ec:	6879      	ldr	r1, [r7, #4]
 80064ee:	7809      	ldrb	r1, [r1, #0]
 80064f0:	f001 011f 	and.w	r1, r1, #31
 80064f4:	2001      	movs	r0, #1
 80064f6:	fa00 f101 	lsl.w	r1, r0, r1
    tmppriority = tmppriority << 0x04;
        
    NVIC->IP[NVIC_InitStruct->NVIC_IRQChannel] = tmppriority;
    
    /* Enable the Selected IRQ Channels --------------------------------------*/
    NVIC->ISER[NVIC_InitStruct->NVIC_IRQChannel >> 0x05] =
 80064fa:	f843 1022 	str.w	r1, [r3, r2, lsl #2]
 80064fe:	e00e      	b.n	800651e <NVIC_Init+0xe2>
      (uint32_t)0x01 << (NVIC_InitStruct->NVIC_IRQChannel & (uint8_t)0x1F);
  }
  else
  {
    /* Disable the Selected IRQ Channels -------------------------------------*/
    NVIC->ICER[NVIC_InitStruct->NVIC_IRQChannel >> 0x05] =
 8006500:	4b0a      	ldr	r3, [pc, #40]	; (800652c <NVIC_Init+0xf0>)
 8006502:	687a      	ldr	r2, [r7, #4]
 8006504:	7812      	ldrb	r2, [r2, #0]
 8006506:	0952      	lsrs	r2, r2, #5
 8006508:	b2d2      	uxtb	r2, r2
      (uint32_t)0x01 << (NVIC_InitStruct->NVIC_IRQChannel & (uint8_t)0x1F);
 800650a:	6879      	ldr	r1, [r7, #4]
 800650c:	7809      	ldrb	r1, [r1, #0]
 800650e:	f001 011f 	and.w	r1, r1, #31
 8006512:	2001      	movs	r0, #1
 8006514:	fa00 f101 	lsl.w	r1, r0, r1
      (uint32_t)0x01 << (NVIC_InitStruct->NVIC_IRQChannel & (uint8_t)0x1F);
  }
  else
  {
    /* Disable the Selected IRQ Channels -------------------------------------*/
    NVIC->ICER[NVIC_InitStruct->NVIC_IRQChannel >> 0x05] =
 8006518:	3220      	adds	r2, #32
 800651a:	f843 1022 	str.w	r1, [r3, r2, lsl #2]
      (uint32_t)0x01 << (NVIC_InitStruct->NVIC_IRQChannel & (uint8_t)0x1F);
  }
}
 800651e:	3710      	adds	r7, #16
 8006520:	46bd      	mov	sp, r7
 8006522:	bd80      	pop	{r7, pc}
 8006524:	080097a8 	.word	0x080097a8
 8006528:	e000ed00 	.word	0xe000ed00
 800652c:	e000e100 	.word	0xe000e100

08006530 <DMA_DeInit>:
  * @param  DMAy_Streamx: where y can be 1 or 2 to select the DMA and x can be 0
  *         to 7 to select the DMA Stream.
  * @retval None
  */
void DMA_DeInit(DMA_Stream_TypeDef* DMAy_Streamx)
{
 8006530:	b580      	push	{r7, lr}
 8006532:	b082      	sub	sp, #8
 8006534:	af00      	add	r7, sp, #0
 8006536:	6078      	str	r0, [r7, #4]
  /* Check the parameters */
  assert_param(IS_DMA_ALL_PERIPH(DMAy_Streamx));
 8006538:	687a      	ldr	r2, [r7, #4]
 800653a:	4b72      	ldr	r3, [pc, #456]	; (8006704 <DMA_DeInit+0x1d4>)
 800653c:	429a      	cmp	r2, r3
 800653e:	d03f      	beq.n	80065c0 <DMA_DeInit+0x90>
 8006540:	687a      	ldr	r2, [r7, #4]
 8006542:	4b71      	ldr	r3, [pc, #452]	; (8006708 <DMA_DeInit+0x1d8>)
 8006544:	429a      	cmp	r2, r3
 8006546:	d03b      	beq.n	80065c0 <DMA_DeInit+0x90>
 8006548:	687a      	ldr	r2, [r7, #4]
 800654a:	4b70      	ldr	r3, [pc, #448]	; (800670c <DMA_DeInit+0x1dc>)
 800654c:	429a      	cmp	r2, r3
 800654e:	d037      	beq.n	80065c0 <DMA_DeInit+0x90>
 8006550:	687a      	ldr	r2, [r7, #4]
 8006552:	4b6f      	ldr	r3, [pc, #444]	; (8006710 <DMA_DeInit+0x1e0>)
 8006554:	429a      	cmp	r2, r3
 8006556:	d033      	beq.n	80065c0 <DMA_DeInit+0x90>
 8006558:	687a      	ldr	r2, [r7, #4]
 800655a:	4b6e      	ldr	r3, [pc, #440]	; (8006714 <DMA_DeInit+0x1e4>)
 800655c:	429a      	cmp	r2, r3
 800655e:	d02f      	beq.n	80065c0 <DMA_DeInit+0x90>
 8006560:	687a      	ldr	r2, [r7, #4]
 8006562:	4b6d      	ldr	r3, [pc, #436]	; (8006718 <DMA_DeInit+0x1e8>)
 8006564:	429a      	cmp	r2, r3
 8006566:	d02b      	beq.n	80065c0 <DMA_DeInit+0x90>
 8006568:	687a      	ldr	r2, [r7, #4]
 800656a:	4b6c      	ldr	r3, [pc, #432]	; (800671c <DMA_DeInit+0x1ec>)
 800656c:	429a      	cmp	r2, r3
 800656e:	d027      	beq.n	80065c0 <DMA_DeInit+0x90>
 8006570:	687a      	ldr	r2, [r7, #4]
 8006572:	4b6b      	ldr	r3, [pc, #428]	; (8006720 <DMA_DeInit+0x1f0>)
 8006574:	429a      	cmp	r2, r3
 8006576:	d023      	beq.n	80065c0 <DMA_DeInit+0x90>
 8006578:	687a      	ldr	r2, [r7, #4]
 800657a:	4b6a      	ldr	r3, [pc, #424]	; (8006724 <DMA_DeInit+0x1f4>)
 800657c:	429a      	cmp	r2, r3
 800657e:	d01f      	beq.n	80065c0 <DMA_DeInit+0x90>
 8006580:	687a      	ldr	r2, [r7, #4]
 8006582:	4b69      	ldr	r3, [pc, #420]	; (8006728 <DMA_DeInit+0x1f8>)
 8006584:	429a      	cmp	r2, r3
 8006586:	d01b      	beq.n	80065c0 <DMA_DeInit+0x90>
 8006588:	687a      	ldr	r2, [r7, #4]
 800658a:	4b68      	ldr	r3, [pc, #416]	; (800672c <DMA_DeInit+0x1fc>)
 800658c:	429a      	cmp	r2, r3
 800658e:	d017      	beq.n	80065c0 <DMA_DeInit+0x90>
 8006590:	687a      	ldr	r2, [r7, #4]
 8006592:	4b67      	ldr	r3, [pc, #412]	; (8006730 <DMA_DeInit+0x200>)
 8006594:	429a      	cmp	r2, r3
 8006596:	d013      	beq.n	80065c0 <DMA_DeInit+0x90>
 8006598:	687a      	ldr	r2, [r7, #4]
 800659a:	4b66      	ldr	r3, [pc, #408]	; (8006734 <DMA_DeInit+0x204>)
 800659c:	429a      	cmp	r2, r3
 800659e:	d00f      	beq.n	80065c0 <DMA_DeInit+0x90>
 80065a0:	687a      	ldr	r2, [r7, #4]
 80065a2:	4b65      	ldr	r3, [pc, #404]	; (8006738 <DMA_DeInit+0x208>)
 80065a4:	429a      	cmp	r2, r3
 80065a6:	d00b      	beq.n	80065c0 <DMA_DeInit+0x90>
 80065a8:	687a      	ldr	r2, [r7, #4]
 80065aa:	4b64      	ldr	r3, [pc, #400]	; (800673c <DMA_DeInit+0x20c>)
 80065ac:	429a      	cmp	r2, r3
 80065ae:	d007      	beq.n	80065c0 <DMA_DeInit+0x90>
 80065b0:	687a      	ldr	r2, [r7, #4]
 80065b2:	4b63      	ldr	r3, [pc, #396]	; (8006740 <DMA_DeInit+0x210>)
 80065b4:	429a      	cmp	r2, r3
 80065b6:	d003      	beq.n	80065c0 <DMA_DeInit+0x90>
 80065b8:	4862      	ldr	r0, [pc, #392]	; (8006744 <DMA_DeInit+0x214>)
 80065ba:	21bf      	movs	r1, #191	; 0xbf
 80065bc:	f7fc ffcc 	bl	8003558 <assert_failed>

  /* Disable the selected DMAy Streamx */
  DMAy_Streamx->CR &= ~((uint32_t)DMA_SxCR_EN);
 80065c0:	687b      	ldr	r3, [r7, #4]
 80065c2:	681b      	ldr	r3, [r3, #0]
 80065c4:	f023 0201 	bic.w	r2, r3, #1
 80065c8:	687b      	ldr	r3, [r7, #4]
 80065ca:	601a      	str	r2, [r3, #0]

  /* Reset DMAy Streamx control register */
  DMAy_Streamx->CR  = 0;
 80065cc:	687b      	ldr	r3, [r7, #4]
 80065ce:	2200      	movs	r2, #0
 80065d0:	601a      	str	r2, [r3, #0]
  
  /* Reset DMAy Streamx Number of Data to Transfer register */
  DMAy_Streamx->NDTR = 0;
 80065d2:	687b      	ldr	r3, [r7, #4]
 80065d4:	2200      	movs	r2, #0
 80065d6:	605a      	str	r2, [r3, #4]
  
  /* Reset DMAy Streamx peripheral address register */
  DMAy_Streamx->PAR  = 0;
 80065d8:	687b      	ldr	r3, [r7, #4]
 80065da:	2200      	movs	r2, #0
 80065dc:	609a      	str	r2, [r3, #8]
  
  /* Reset DMAy Streamx memory 0 address register */
  DMAy_Streamx->M0AR = 0;
 80065de:	687b      	ldr	r3, [r7, #4]
 80065e0:	2200      	movs	r2, #0
 80065e2:	60da      	str	r2, [r3, #12]

  /* Reset DMAy Streamx memory 1 address register */
  DMAy_Streamx->M1AR = 0;
 80065e4:	687b      	ldr	r3, [r7, #4]
 80065e6:	2200      	movs	r2, #0
 80065e8:	611a      	str	r2, [r3, #16]

  /* Reset DMAy Streamx FIFO control register */
  DMAy_Streamx->FCR = (uint32_t)0x00000021; 
 80065ea:	687b      	ldr	r3, [r7, #4]
 80065ec:	2221      	movs	r2, #33	; 0x21
 80065ee:	615a      	str	r2, [r3, #20]

  /* Reset interrupt pending bits for the selected stream */
  if (DMAy_Streamx == DMA1_Stream0)
 80065f0:	687a      	ldr	r2, [r7, #4]
 80065f2:	4b44      	ldr	r3, [pc, #272]	; (8006704 <DMA_DeInit+0x1d4>)
 80065f4:	429a      	cmp	r2, r3
 80065f6:	d103      	bne.n	8006600 <DMA_DeInit+0xd0>
  {
    /* Reset interrupt pending bits for DMA1 Stream0 */
    DMA1->LIFCR = DMA_Stream0_IT_MASK;
 80065f8:	4b53      	ldr	r3, [pc, #332]	; (8006748 <DMA_DeInit+0x218>)
 80065fa:	223d      	movs	r2, #61	; 0x3d
 80065fc:	609a      	str	r2, [r3, #8]
 80065fe:	e07e      	b.n	80066fe <DMA_DeInit+0x1ce>
  }
  else if (DMAy_Streamx == DMA1_Stream1)
 8006600:	687a      	ldr	r2, [r7, #4]
 8006602:	4b41      	ldr	r3, [pc, #260]	; (8006708 <DMA_DeInit+0x1d8>)
 8006604:	429a      	cmp	r2, r3
 8006606:	d104      	bne.n	8006612 <DMA_DeInit+0xe2>
  {
    /* Reset interrupt pending bits for DMA1 Stream1 */
    DMA1->LIFCR = DMA_Stream1_IT_MASK;
 8006608:	4b4f      	ldr	r3, [pc, #316]	; (8006748 <DMA_DeInit+0x218>)
 800660a:	f44f 6274 	mov.w	r2, #3904	; 0xf40
 800660e:	609a      	str	r2, [r3, #8]
 8006610:	e075      	b.n	80066fe <DMA_DeInit+0x1ce>
  }
  else if (DMAy_Streamx == DMA1_Stream2)
 8006612:	687a      	ldr	r2, [r7, #4]
 8006614:	4b3d      	ldr	r3, [pc, #244]	; (800670c <DMA_DeInit+0x1dc>)
 8006616:	429a      	cmp	r2, r3
 8006618:	d104      	bne.n	8006624 <DMA_DeInit+0xf4>
  {
    /* Reset interrupt pending bits for DMA1 Stream2 */
    DMA1->LIFCR = DMA_Stream2_IT_MASK;
 800661a:	4b4b      	ldr	r3, [pc, #300]	; (8006748 <DMA_DeInit+0x218>)
 800661c:	f44f 1274 	mov.w	r2, #3997696	; 0x3d0000
 8006620:	609a      	str	r2, [r3, #8]
 8006622:	e06c      	b.n	80066fe <DMA_DeInit+0x1ce>
  }
  else if (DMAy_Streamx == DMA1_Stream3)
 8006624:	687a      	ldr	r2, [r7, #4]
 8006626:	4b3a      	ldr	r3, [pc, #232]	; (8006710 <DMA_DeInit+0x1e0>)
 8006628:	429a      	cmp	r2, r3
 800662a:	d104      	bne.n	8006636 <DMA_DeInit+0x106>
  {
    /* Reset interrupt pending bits for DMA1 Stream3 */
    DMA1->LIFCR = DMA_Stream3_IT_MASK;
 800662c:	4b46      	ldr	r3, [pc, #280]	; (8006748 <DMA_DeInit+0x218>)
 800662e:	f04f 6274 	mov.w	r2, #255852544	; 0xf400000
 8006632:	609a      	str	r2, [r3, #8]
 8006634:	e063      	b.n	80066fe <DMA_DeInit+0x1ce>
  }
  else if (DMAy_Streamx == DMA1_Stream4)
 8006636:	687a      	ldr	r2, [r7, #4]
 8006638:	4b36      	ldr	r3, [pc, #216]	; (8006714 <DMA_DeInit+0x1e4>)
 800663a:	429a      	cmp	r2, r3
 800663c:	d103      	bne.n	8006646 <DMA_DeInit+0x116>
  {
    /* Reset interrupt pending bits for DMA1 Stream4 */
    DMA1->HIFCR = DMA_Stream4_IT_MASK;
 800663e:	4b42      	ldr	r3, [pc, #264]	; (8006748 <DMA_DeInit+0x218>)
 8006640:	4a42      	ldr	r2, [pc, #264]	; (800674c <DMA_DeInit+0x21c>)
 8006642:	60da      	str	r2, [r3, #12]
 8006644:	e05b      	b.n	80066fe <DMA_DeInit+0x1ce>
  }
  else if (DMAy_Streamx == DMA1_Stream5)
 8006646:	687a      	ldr	r2, [r7, #4]
 8006648:	4b33      	ldr	r3, [pc, #204]	; (8006718 <DMA_DeInit+0x1e8>)
 800664a:	429a      	cmp	r2, r3
 800664c:	d103      	bne.n	8006656 <DMA_DeInit+0x126>
  {
    /* Reset interrupt pending bits for DMA1 Stream5 */
    DMA1->HIFCR = DMA_Stream5_IT_MASK;
 800664e:	4b3e      	ldr	r3, [pc, #248]	; (8006748 <DMA_DeInit+0x218>)
 8006650:	4a3f      	ldr	r2, [pc, #252]	; (8006750 <DMA_DeInit+0x220>)
 8006652:	60da      	str	r2, [r3, #12]
 8006654:	e053      	b.n	80066fe <DMA_DeInit+0x1ce>
  }
  else if (DMAy_Streamx == DMA1_Stream6)
 8006656:	687a      	ldr	r2, [r7, #4]
 8006658:	4b30      	ldr	r3, [pc, #192]	; (800671c <DMA_DeInit+0x1ec>)
 800665a:	429a      	cmp	r2, r3
 800665c:	d103      	bne.n	8006666 <DMA_DeInit+0x136>
  {
    /* Reset interrupt pending bits for DMA1 Stream6 */
    DMA1->HIFCR = (uint32_t)DMA_Stream6_IT_MASK;
 800665e:	4b3a      	ldr	r3, [pc, #232]	; (8006748 <DMA_DeInit+0x218>)
 8006660:	4a3c      	ldr	r2, [pc, #240]	; (8006754 <DMA_DeInit+0x224>)
 8006662:	60da      	str	r2, [r3, #12]
 8006664:	e04b      	b.n	80066fe <DMA_DeInit+0x1ce>
  }
  else if (DMAy_Streamx == DMA1_Stream7)
 8006666:	687a      	ldr	r2, [r7, #4]
 8006668:	4b2d      	ldr	r3, [pc, #180]	; (8006720 <DMA_DeInit+0x1f0>)
 800666a:	429a      	cmp	r2, r3
 800666c:	d104      	bne.n	8006678 <DMA_DeInit+0x148>
  {
    /* Reset interrupt pending bits for DMA1 Stream7 */
    DMA1->HIFCR = DMA_Stream7_IT_MASK;
 800666e:	4b36      	ldr	r3, [pc, #216]	; (8006748 <DMA_DeInit+0x218>)
 8006670:	f04f 523d 	mov.w	r2, #792723456	; 0x2f400000
 8006674:	60da      	str	r2, [r3, #12]
 8006676:	e042      	b.n	80066fe <DMA_DeInit+0x1ce>
  }
  else if (DMAy_Streamx == DMA2_Stream0)
 8006678:	687a      	ldr	r2, [r7, #4]
 800667a:	4b2a      	ldr	r3, [pc, #168]	; (8006724 <DMA_DeInit+0x1f4>)
 800667c:	429a      	cmp	r2, r3
 800667e:	d103      	bne.n	8006688 <DMA_DeInit+0x158>
  {
    /* Reset interrupt pending bits for DMA2 Stream0 */
    DMA2->LIFCR = DMA_Stream0_IT_MASK;
 8006680:	4b35      	ldr	r3, [pc, #212]	; (8006758 <DMA_DeInit+0x228>)
 8006682:	223d      	movs	r2, #61	; 0x3d
 8006684:	609a      	str	r2, [r3, #8]
 8006686:	e03a      	b.n	80066fe <DMA_DeInit+0x1ce>
  }
  else if (DMAy_Streamx == DMA2_Stream1)
 8006688:	687a      	ldr	r2, [r7, #4]
 800668a:	4b27      	ldr	r3, [pc, #156]	; (8006728 <DMA_DeInit+0x1f8>)
 800668c:	429a      	cmp	r2, r3
 800668e:	d104      	bne.n	800669a <DMA_DeInit+0x16a>
  {
    /* Reset interrupt pending bits for DMA2 Stream1 */
    DMA2->LIFCR = DMA_Stream1_IT_MASK;
 8006690:	4b31      	ldr	r3, [pc, #196]	; (8006758 <DMA_DeInit+0x228>)
 8006692:	f44f 6274 	mov.w	r2, #3904	; 0xf40
 8006696:	609a      	str	r2, [r3, #8]
 8006698:	e031      	b.n	80066fe <DMA_DeInit+0x1ce>
  }
  else if (DMAy_Streamx == DMA2_Stream2)
 800669a:	687a      	ldr	r2, [r7, #4]
 800669c:	4b23      	ldr	r3, [pc, #140]	; (800672c <DMA_DeInit+0x1fc>)
 800669e:	429a      	cmp	r2, r3
 80066a0:	d104      	bne.n	80066ac <DMA_DeInit+0x17c>
  {
    /* Reset interrupt pending bits for DMA2 Stream2 */
    DMA2->LIFCR = DMA_Stream2_IT_MASK;
 80066a2:	4b2d      	ldr	r3, [pc, #180]	; (8006758 <DMA_DeInit+0x228>)
 80066a4:	f44f 1274 	mov.w	r2, #3997696	; 0x3d0000
 80066a8:	609a      	str	r2, [r3, #8]
 80066aa:	e028      	b.n	80066fe <DMA_DeInit+0x1ce>
  }
  else if (DMAy_Streamx == DMA2_Stream3)
 80066ac:	687a      	ldr	r2, [r7, #4]
 80066ae:	4b20      	ldr	r3, [pc, #128]	; (8006730 <DMA_DeInit+0x200>)
 80066b0:	429a      	cmp	r2, r3
 80066b2:	d104      	bne.n	80066be <DMA_DeInit+0x18e>
  {
    /* Reset interrupt pending bits for DMA2 Stream3 */
    DMA2->LIFCR = DMA_Stream3_IT_MASK;
 80066b4:	4b28      	ldr	r3, [pc, #160]	; (8006758 <DMA_DeInit+0x228>)
 80066b6:	f04f 6274 	mov.w	r2, #255852544	; 0xf400000
 80066ba:	609a      	str	r2, [r3, #8]
 80066bc:	e01f      	b.n	80066fe <DMA_DeInit+0x1ce>
  }
  else if (DMAy_Streamx == DMA2_Stream4)
 80066be:	687a      	ldr	r2, [r7, #4]
 80066c0:	4b1c      	ldr	r3, [pc, #112]	; (8006734 <DMA_DeInit+0x204>)
 80066c2:	429a      	cmp	r2, r3
 80066c4:	d103      	bne.n	80066ce <DMA_DeInit+0x19e>
  {
    /* Reset interrupt pending bits for DMA2 Stream4 */
    DMA2->HIFCR = DMA_Stream4_IT_MASK;
 80066c6:	4b24      	ldr	r3, [pc, #144]	; (8006758 <DMA_DeInit+0x228>)
 80066c8:	4a20      	ldr	r2, [pc, #128]	; (800674c <DMA_DeInit+0x21c>)
 80066ca:	60da      	str	r2, [r3, #12]
 80066cc:	e017      	b.n	80066fe <DMA_DeInit+0x1ce>
  }
  else if (DMAy_Streamx == DMA2_Stream5)
 80066ce:	687a      	ldr	r2, [r7, #4]
 80066d0:	4b19      	ldr	r3, [pc, #100]	; (8006738 <DMA_DeInit+0x208>)
 80066d2:	429a      	cmp	r2, r3
 80066d4:	d103      	bne.n	80066de <DMA_DeInit+0x1ae>
  {
    /* Reset interrupt pending bits for DMA2 Stream5 */
    DMA2->HIFCR = DMA_Stream5_IT_MASK;
 80066d6:	4b20      	ldr	r3, [pc, #128]	; (8006758 <DMA_DeInit+0x228>)
 80066d8:	4a1d      	ldr	r2, [pc, #116]	; (8006750 <DMA_DeInit+0x220>)
 80066da:	60da      	str	r2, [r3, #12]
 80066dc:	e00f      	b.n	80066fe <DMA_DeInit+0x1ce>
  }
  else if (DMAy_Streamx == DMA2_Stream6)
 80066de:	687a      	ldr	r2, [r7, #4]
 80066e0:	4b16      	ldr	r3, [pc, #88]	; (800673c <DMA_DeInit+0x20c>)
 80066e2:	429a      	cmp	r2, r3
 80066e4:	d103      	bne.n	80066ee <DMA_DeInit+0x1be>
  {
    /* Reset interrupt pending bits for DMA2 Stream6 */
    DMA2->HIFCR = DMA_Stream6_IT_MASK;
 80066e6:	4b1c      	ldr	r3, [pc, #112]	; (8006758 <DMA_DeInit+0x228>)
 80066e8:	4a1a      	ldr	r2, [pc, #104]	; (8006754 <DMA_DeInit+0x224>)
 80066ea:	60da      	str	r2, [r3, #12]
 80066ec:	e007      	b.n	80066fe <DMA_DeInit+0x1ce>
  }
  else 
  {
    if (DMAy_Streamx == DMA2_Stream7)
 80066ee:	687a      	ldr	r2, [r7, #4]
 80066f0:	4b13      	ldr	r3, [pc, #76]	; (8006740 <DMA_DeInit+0x210>)
 80066f2:	429a      	cmp	r2, r3
 80066f4:	d103      	bne.n	80066fe <DMA_DeInit+0x1ce>
    {
      /* Reset interrupt pending bits for DMA2 Stream7 */
      DMA2->HIFCR = DMA_Stream7_IT_MASK;
 80066f6:	4b18      	ldr	r3, [pc, #96]	; (8006758 <DMA_DeInit+0x228>)
 80066f8:	f04f 523d 	mov.w	r2, #792723456	; 0x2f400000
 80066fc:	60da      	str	r2, [r3, #12]
    }
  }
}
 80066fe:	3708      	adds	r7, #8
 8006700:	46bd      	mov	sp, r7
 8006702:	bd80      	pop	{r7, pc}
 8006704:	40026010 	.word	0x40026010
 8006708:	40026028 	.word	0x40026028
 800670c:	40026040 	.word	0x40026040
 8006710:	40026058 	.word	0x40026058
 8006714:	40026070 	.word	0x40026070
 8006718:	40026088 	.word	0x40026088
 800671c:	400260a0 	.word	0x400260a0
 8006720:	400260b8 	.word	0x400260b8
 8006724:	40026410 	.word	0x40026410
 8006728:	40026428 	.word	0x40026428
 800672c:	40026440 	.word	0x40026440
 8006730:	40026458 	.word	0x40026458
 8006734:	40026470 	.word	0x40026470
 8006738:	40026488 	.word	0x40026488
 800673c:	400264a0 	.word	0x400264a0
 8006740:	400264b8 	.word	0x400264b8
 8006744:	080097f0 	.word	0x080097f0
 8006748:	40026000 	.word	0x40026000
 800674c:	2000003d 	.word	0x2000003d
 8006750:	20000f40 	.word	0x20000f40
 8006754:	203d0000 	.word	0x203d0000
 8006758:	40026400 	.word	0x40026400

0800675c <DMA_Init>:
  * @param  DMA_InitStruct: pointer to a DMA_InitTypeDef structure that contains
  *         the configuration information for the specified DMA Stream.  
  * @retval None
  */
void DMA_Init(DMA_Stream_TypeDef* DMAy_Streamx, DMA_InitTypeDef* DMA_InitStruct)
{
 800675c:	b580      	push	{r7, lr}
 800675e:	b084      	sub	sp, #16
 8006760:	af00      	add	r7, sp, #0
 8006762:	6078      	str	r0, [r7, #4]
 8006764:	6039      	str	r1, [r7, #0]
  uint32_t tmpreg = 0;
 8006766:	2300      	movs	r3, #0
 8006768:	60fb      	str	r3, [r7, #12]

  /* Check the parameters */
  assert_param(IS_DMA_ALL_PERIPH(DMAy_Streamx));
 800676a:	687a      	ldr	r2, [r7, #4]
 800676c:	4b98      	ldr	r3, [pc, #608]	; (80069d0 <DMA_Init+0x274>)
 800676e:	429a      	cmp	r2, r3
 8006770:	d040      	beq.n	80067f4 <DMA_Init+0x98>
 8006772:	687a      	ldr	r2, [r7, #4]
 8006774:	4b97      	ldr	r3, [pc, #604]	; (80069d4 <DMA_Init+0x278>)
 8006776:	429a      	cmp	r2, r3
 8006778:	d03c      	beq.n	80067f4 <DMA_Init+0x98>
 800677a:	687a      	ldr	r2, [r7, #4]
 800677c:	4b96      	ldr	r3, [pc, #600]	; (80069d8 <DMA_Init+0x27c>)
 800677e:	429a      	cmp	r2, r3
 8006780:	d038      	beq.n	80067f4 <DMA_Init+0x98>
 8006782:	687a      	ldr	r2, [r7, #4]
 8006784:	4b95      	ldr	r3, [pc, #596]	; (80069dc <DMA_Init+0x280>)
 8006786:	429a      	cmp	r2, r3
 8006788:	d034      	beq.n	80067f4 <DMA_Init+0x98>
 800678a:	687a      	ldr	r2, [r7, #4]
 800678c:	4b94      	ldr	r3, [pc, #592]	; (80069e0 <DMA_Init+0x284>)
 800678e:	429a      	cmp	r2, r3
 8006790:	d030      	beq.n	80067f4 <DMA_Init+0x98>
 8006792:	687a      	ldr	r2, [r7, #4]
 8006794:	4b93      	ldr	r3, [pc, #588]	; (80069e4 <DMA_Init+0x288>)
 8006796:	429a      	cmp	r2, r3
 8006798:	d02c      	beq.n	80067f4 <DMA_Init+0x98>
 800679a:	687a      	ldr	r2, [r7, #4]
 800679c:	4b92      	ldr	r3, [pc, #584]	; (80069e8 <DMA_Init+0x28c>)
 800679e:	429a      	cmp	r2, r3
 80067a0:	d028      	beq.n	80067f4 <DMA_Init+0x98>
 80067a2:	687a      	ldr	r2, [r7, #4]
 80067a4:	4b91      	ldr	r3, [pc, #580]	; (80069ec <DMA_Init+0x290>)
 80067a6:	429a      	cmp	r2, r3
 80067a8:	d024      	beq.n	80067f4 <DMA_Init+0x98>
 80067aa:	687a      	ldr	r2, [r7, #4]
 80067ac:	4b90      	ldr	r3, [pc, #576]	; (80069f0 <DMA_Init+0x294>)
 80067ae:	429a      	cmp	r2, r3
 80067b0:	d020      	beq.n	80067f4 <DMA_Init+0x98>
 80067b2:	687a      	ldr	r2, [r7, #4]
 80067b4:	4b8f      	ldr	r3, [pc, #572]	; (80069f4 <DMA_Init+0x298>)
 80067b6:	429a      	cmp	r2, r3
 80067b8:	d01c      	beq.n	80067f4 <DMA_Init+0x98>
 80067ba:	687a      	ldr	r2, [r7, #4]
 80067bc:	4b8e      	ldr	r3, [pc, #568]	; (80069f8 <DMA_Init+0x29c>)
 80067be:	429a      	cmp	r2, r3
 80067c0:	d018      	beq.n	80067f4 <DMA_Init+0x98>
 80067c2:	687a      	ldr	r2, [r7, #4]
 80067c4:	4b8d      	ldr	r3, [pc, #564]	; (80069fc <DMA_Init+0x2a0>)
 80067c6:	429a      	cmp	r2, r3
 80067c8:	d014      	beq.n	80067f4 <DMA_Init+0x98>
 80067ca:	687a      	ldr	r2, [r7, #4]
 80067cc:	4b8c      	ldr	r3, [pc, #560]	; (8006a00 <DMA_Init+0x2a4>)
 80067ce:	429a      	cmp	r2, r3
 80067d0:	d010      	beq.n	80067f4 <DMA_Init+0x98>
 80067d2:	687a      	ldr	r2, [r7, #4]
 80067d4:	4b8b      	ldr	r3, [pc, #556]	; (8006a04 <DMA_Init+0x2a8>)
 80067d6:	429a      	cmp	r2, r3
 80067d8:	d00c      	beq.n	80067f4 <DMA_Init+0x98>
 80067da:	687a      	ldr	r2, [r7, #4]
 80067dc:	4b8a      	ldr	r3, [pc, #552]	; (8006a08 <DMA_Init+0x2ac>)
 80067de:	429a      	cmp	r2, r3
 80067e0:	d008      	beq.n	80067f4 <DMA_Init+0x98>
 80067e2:	687a      	ldr	r2, [r7, #4]
 80067e4:	4b89      	ldr	r3, [pc, #548]	; (8006a0c <DMA_Init+0x2b0>)
 80067e6:	429a      	cmp	r2, r3
 80067e8:	d004      	beq.n	80067f4 <DMA_Init+0x98>
 80067ea:	4889      	ldr	r0, [pc, #548]	; (8006a10 <DMA_Init+0x2b4>)
 80067ec:	f44f 719e 	mov.w	r1, #316	; 0x13c
 80067f0:	f7fc feb2 	bl	8003558 <assert_failed>
  assert_param(IS_DMA_CHANNEL(DMA_InitStruct->DMA_Channel));
 80067f4:	683b      	ldr	r3, [r7, #0]
 80067f6:	681b      	ldr	r3, [r3, #0]
 80067f8:	2b00      	cmp	r3, #0
 80067fa:	d027      	beq.n	800684c <DMA_Init+0xf0>
 80067fc:	683b      	ldr	r3, [r7, #0]
 80067fe:	681b      	ldr	r3, [r3, #0]
 8006800:	f1b3 7f00 	cmp.w	r3, #33554432	; 0x2000000
 8006804:	d022      	beq.n	800684c <DMA_Init+0xf0>
 8006806:	683b      	ldr	r3, [r7, #0]
 8006808:	681b      	ldr	r3, [r3, #0]
 800680a:	f1b3 6f80 	cmp.w	r3, #67108864	; 0x4000000
 800680e:	d01d      	beq.n	800684c <DMA_Init+0xf0>
 8006810:	683b      	ldr	r3, [r7, #0]
 8006812:	681b      	ldr	r3, [r3, #0]
 8006814:	f1b3 6fc0 	cmp.w	r3, #100663296	; 0x6000000
 8006818:	d018      	beq.n	800684c <DMA_Init+0xf0>
 800681a:	683b      	ldr	r3, [r7, #0]
 800681c:	681b      	ldr	r3, [r3, #0]
 800681e:	f1b3 6f00 	cmp.w	r3, #134217728	; 0x8000000
 8006822:	d013      	beq.n	800684c <DMA_Init+0xf0>
 8006824:	683b      	ldr	r3, [r7, #0]
 8006826:	681b      	ldr	r3, [r3, #0]
 8006828:	f1b3 6f20 	cmp.w	r3, #167772160	; 0xa000000
 800682c:	d00e      	beq.n	800684c <DMA_Init+0xf0>
 800682e:	683b      	ldr	r3, [r7, #0]
 8006830:	681b      	ldr	r3, [r3, #0]
 8006832:	f1b3 6f40 	cmp.w	r3, #201326592	; 0xc000000
 8006836:	d009      	beq.n	800684c <DMA_Init+0xf0>
 8006838:	683b      	ldr	r3, [r7, #0]
 800683a:	681b      	ldr	r3, [r3, #0]
 800683c:	f1b3 6f60 	cmp.w	r3, #234881024	; 0xe000000
 8006840:	d004      	beq.n	800684c <DMA_Init+0xf0>
 8006842:	4873      	ldr	r0, [pc, #460]	; (8006a10 <DMA_Init+0x2b4>)
 8006844:	f240 113d 	movw	r1, #317	; 0x13d
 8006848:	f7fc fe86 	bl	8003558 <assert_failed>
  assert_param(IS_DMA_DIRECTION(DMA_InitStruct->DMA_DIR));
 800684c:	683b      	ldr	r3, [r7, #0]
 800684e:	68db      	ldr	r3, [r3, #12]
 8006850:	2b00      	cmp	r3, #0
 8006852:	d00c      	beq.n	800686e <DMA_Init+0x112>
 8006854:	683b      	ldr	r3, [r7, #0]
 8006856:	68db      	ldr	r3, [r3, #12]
 8006858:	2b40      	cmp	r3, #64	; 0x40
 800685a:	d008      	beq.n	800686e <DMA_Init+0x112>
 800685c:	683b      	ldr	r3, [r7, #0]
 800685e:	68db      	ldr	r3, [r3, #12]
 8006860:	2b80      	cmp	r3, #128	; 0x80
 8006862:	d004      	beq.n	800686e <DMA_Init+0x112>
 8006864:	486a      	ldr	r0, [pc, #424]	; (8006a10 <DMA_Init+0x2b4>)
 8006866:	f44f 719f 	mov.w	r1, #318	; 0x13e
 800686a:	f7fc fe75 	bl	8003558 <assert_failed>
  assert_param(IS_DMA_BUFFER_SIZE(DMA_InitStruct->DMA_BufferSize));
 800686e:	683b      	ldr	r3, [r7, #0]
 8006870:	691b      	ldr	r3, [r3, #16]
 8006872:	2b00      	cmp	r3, #0
 8006874:	d004      	beq.n	8006880 <DMA_Init+0x124>
 8006876:	683b      	ldr	r3, [r7, #0]
 8006878:	691b      	ldr	r3, [r3, #16]
 800687a:	f5b3 3f80 	cmp.w	r3, #65536	; 0x10000
 800687e:	d304      	bcc.n	800688a <DMA_Init+0x12e>
 8006880:	4863      	ldr	r0, [pc, #396]	; (8006a10 <DMA_Init+0x2b4>)
 8006882:	f240 113f 	movw	r1, #319	; 0x13f
 8006886:	f7fc fe67 	bl	8003558 <assert_failed>
  assert_param(IS_DMA_PERIPHERAL_INC_STATE(DMA_InitStruct->DMA_PeripheralInc));
 800688a:	683b      	ldr	r3, [r7, #0]
 800688c:	695b      	ldr	r3, [r3, #20]
 800688e:	f5b3 7f00 	cmp.w	r3, #512	; 0x200
 8006892:	d008      	beq.n	80068a6 <DMA_Init+0x14a>
 8006894:	683b      	ldr	r3, [r7, #0]
 8006896:	695b      	ldr	r3, [r3, #20]
 8006898:	2b00      	cmp	r3, #0
 800689a:	d004      	beq.n	80068a6 <DMA_Init+0x14a>
 800689c:	485c      	ldr	r0, [pc, #368]	; (8006a10 <DMA_Init+0x2b4>)
 800689e:	f44f 71a0 	mov.w	r1, #320	; 0x140
 80068a2:	f7fc fe59 	bl	8003558 <assert_failed>
  assert_param(IS_DMA_MEMORY_INC_STATE(DMA_InitStruct->DMA_MemoryInc));
 80068a6:	683b      	ldr	r3, [r7, #0]
 80068a8:	699b      	ldr	r3, [r3, #24]
 80068aa:	f5b3 6f80 	cmp.w	r3, #1024	; 0x400
 80068ae:	d008      	beq.n	80068c2 <DMA_Init+0x166>
 80068b0:	683b      	ldr	r3, [r7, #0]
 80068b2:	699b      	ldr	r3, [r3, #24]
 80068b4:	2b00      	cmp	r3, #0
 80068b6:	d004      	beq.n	80068c2 <DMA_Init+0x166>
 80068b8:	4855      	ldr	r0, [pc, #340]	; (8006a10 <DMA_Init+0x2b4>)
 80068ba:	f240 1141 	movw	r1, #321	; 0x141
 80068be:	f7fc fe4b 	bl	8003558 <assert_failed>
  assert_param(IS_DMA_PERIPHERAL_DATA_SIZE(DMA_InitStruct->DMA_PeripheralDataSize));
 80068c2:	683b      	ldr	r3, [r7, #0]
 80068c4:	69db      	ldr	r3, [r3, #28]
 80068c6:	2b00      	cmp	r3, #0
 80068c8:	d00e      	beq.n	80068e8 <DMA_Init+0x18c>
 80068ca:	683b      	ldr	r3, [r7, #0]
 80068cc:	69db      	ldr	r3, [r3, #28]
 80068ce:	f5b3 6f00 	cmp.w	r3, #2048	; 0x800
 80068d2:	d009      	beq.n	80068e8 <DMA_Init+0x18c>
 80068d4:	683b      	ldr	r3, [r7, #0]
 80068d6:	69db      	ldr	r3, [r3, #28]
 80068d8:	f5b3 5f80 	cmp.w	r3, #4096	; 0x1000
 80068dc:	d004      	beq.n	80068e8 <DMA_Init+0x18c>
 80068de:	484c      	ldr	r0, [pc, #304]	; (8006a10 <DMA_Init+0x2b4>)
 80068e0:	f44f 71a1 	mov.w	r1, #322	; 0x142
 80068e4:	f7fc fe38 	bl	8003558 <assert_failed>
  assert_param(IS_DMA_MEMORY_DATA_SIZE(DMA_InitStruct->DMA_MemoryDataSize));
 80068e8:	683b      	ldr	r3, [r7, #0]
 80068ea:	6a1b      	ldr	r3, [r3, #32]
 80068ec:	2b00      	cmp	r3, #0
 80068ee:	d00e      	beq.n	800690e <DMA_Init+0x1b2>
 80068f0:	683b      	ldr	r3, [r7, #0]
 80068f2:	6a1b      	ldr	r3, [r3, #32]
 80068f4:	f5b3 5f00 	cmp.w	r3, #8192	; 0x2000
 80068f8:	d009      	beq.n	800690e <DMA_Init+0x1b2>
 80068fa:	683b      	ldr	r3, [r7, #0]
 80068fc:	6a1b      	ldr	r3, [r3, #32]
 80068fe:	f5b3 4f80 	cmp.w	r3, #16384	; 0x4000
 8006902:	d004      	beq.n	800690e <DMA_Init+0x1b2>
 8006904:	4842      	ldr	r0, [pc, #264]	; (8006a10 <DMA_Init+0x2b4>)
 8006906:	f240 1143 	movw	r1, #323	; 0x143
 800690a:	f7fc fe25 	bl	8003558 <assert_failed>
  assert_param(IS_DMA_MODE(DMA_InitStruct->DMA_Mode));
 800690e:	683b      	ldr	r3, [r7, #0]
 8006910:	6a5b      	ldr	r3, [r3, #36]	; 0x24
 8006912:	2b00      	cmp	r3, #0
 8006914:	d009      	beq.n	800692a <DMA_Init+0x1ce>
 8006916:	683b      	ldr	r3, [r7, #0]
 8006918:	6a5b      	ldr	r3, [r3, #36]	; 0x24
 800691a:	f5b3 7f80 	cmp.w	r3, #256	; 0x100
 800691e:	d004      	beq.n	800692a <DMA_Init+0x1ce>
 8006920:	483b      	ldr	r0, [pc, #236]	; (8006a10 <DMA_Init+0x2b4>)
 8006922:	f44f 71a2 	mov.w	r1, #324	; 0x144
 8006926:	f7fc fe17 	bl	8003558 <assert_failed>
  assert_param(IS_DMA_PRIORITY(DMA_InitStruct->DMA_Priority));
 800692a:	683b      	ldr	r3, [r7, #0]
 800692c:	6a9b      	ldr	r3, [r3, #40]	; 0x28
 800692e:	2b00      	cmp	r3, #0
 8006930:	d013      	beq.n	800695a <DMA_Init+0x1fe>
 8006932:	683b      	ldr	r3, [r7, #0]
 8006934:	6a9b      	ldr	r3, [r3, #40]	; 0x28
 8006936:	f5b3 3f80 	cmp.w	r3, #65536	; 0x10000
 800693a:	d00e      	beq.n	800695a <DMA_Init+0x1fe>
 800693c:	683b      	ldr	r3, [r7, #0]
 800693e:	6a9b      	ldr	r3, [r3, #40]	; 0x28
 8006940:	f5b3 3f00 	cmp.w	r3, #131072	; 0x20000
 8006944:	d009      	beq.n	800695a <DMA_Init+0x1fe>
 8006946:	683b      	ldr	r3, [r7, #0]
 8006948:	6a9b      	ldr	r3, [r3, #40]	; 0x28
 800694a:	f5b3 3f40 	cmp.w	r3, #196608	; 0x30000
 800694e:	d004      	beq.n	800695a <DMA_Init+0x1fe>
 8006950:	482f      	ldr	r0, [pc, #188]	; (8006a10 <DMA_Init+0x2b4>)
 8006952:	f240 1145 	movw	r1, #325	; 0x145
 8006956:	f7fc fdff 	bl	8003558 <assert_failed>
  assert_param(IS_DMA_FIFO_MODE_STATE(DMA_InitStruct->DMA_FIFOMode));
 800695a:	683b      	ldr	r3, [r7, #0]
 800695c:	6adb      	ldr	r3, [r3, #44]	; 0x2c
 800695e:	2b00      	cmp	r3, #0
 8006960:	d008      	beq.n	8006974 <DMA_Init+0x218>
 8006962:	683b      	ldr	r3, [r7, #0]
 8006964:	6adb      	ldr	r3, [r3, #44]	; 0x2c
 8006966:	2b04      	cmp	r3, #4
 8006968:	d004      	beq.n	8006974 <DMA_Init+0x218>
 800696a:	4829      	ldr	r0, [pc, #164]	; (8006a10 <DMA_Init+0x2b4>)
 800696c:	f44f 71a3 	mov.w	r1, #326	; 0x146
 8006970:	f7fc fdf2 	bl	8003558 <assert_failed>
  assert_param(IS_DMA_FIFO_THRESHOLD(DMA_InitStruct->DMA_FIFOThreshold));
 8006974:	683b      	ldr	r3, [r7, #0]
 8006976:	6b1b      	ldr	r3, [r3, #48]	; 0x30
 8006978:	2b00      	cmp	r3, #0
 800697a:	d010      	beq.n	800699e <DMA_Init+0x242>
 800697c:	683b      	ldr	r3, [r7, #0]
 800697e:	6b1b      	ldr	r3, [r3, #48]	; 0x30
 8006980:	2b01      	cmp	r3, #1
 8006982:	d00c      	beq.n	800699e <DMA_Init+0x242>
 8006984:	683b      	ldr	r3, [r7, #0]
 8006986:	6b1b      	ldr	r3, [r3, #48]	; 0x30
 8006988:	2b02      	cmp	r3, #2
 800698a:	d008      	beq.n	800699e <DMA_Init+0x242>
 800698c:	683b      	ldr	r3, [r7, #0]
 800698e:	6b1b      	ldr	r3, [r3, #48]	; 0x30
 8006990:	2b03      	cmp	r3, #3
 8006992:	d004      	beq.n	800699e <DMA_Init+0x242>
 8006994:	481e      	ldr	r0, [pc, #120]	; (8006a10 <DMA_Init+0x2b4>)
 8006996:	f240 1147 	movw	r1, #327	; 0x147
 800699a:	f7fc fddd 	bl	8003558 <assert_failed>
  assert_param(IS_DMA_MEMORY_BURST(DMA_InitStruct->DMA_MemoryBurst));
 800699e:	683b      	ldr	r3, [r7, #0]
 80069a0:	6b5b      	ldr	r3, [r3, #52]	; 0x34
 80069a2:	2b00      	cmp	r3, #0
 80069a4:	d036      	beq.n	8006a14 <DMA_Init+0x2b8>
 80069a6:	683b      	ldr	r3, [r7, #0]
 80069a8:	6b5b      	ldr	r3, [r3, #52]	; 0x34
 80069aa:	f5b3 0f00 	cmp.w	r3, #8388608	; 0x800000
 80069ae:	d031      	beq.n	8006a14 <DMA_Init+0x2b8>
 80069b0:	683b      	ldr	r3, [r7, #0]
 80069b2:	6b5b      	ldr	r3, [r3, #52]	; 0x34
 80069b4:	f1b3 7f80 	cmp.w	r3, #16777216	; 0x1000000
 80069b8:	d02c      	beq.n	8006a14 <DMA_Init+0x2b8>
 80069ba:	683b      	ldr	r3, [r7, #0]
 80069bc:	6b5b      	ldr	r3, [r3, #52]	; 0x34
 80069be:	f1b3 7fc0 	cmp.w	r3, #25165824	; 0x1800000
 80069c2:	d027      	beq.n	8006a14 <DMA_Init+0x2b8>
 80069c4:	4812      	ldr	r0, [pc, #72]	; (8006a10 <DMA_Init+0x2b4>)
 80069c6:	f44f 71a4 	mov.w	r1, #328	; 0x148
 80069ca:	f7fc fdc5 	bl	8003558 <assert_failed>
 80069ce:	e021      	b.n	8006a14 <DMA_Init+0x2b8>
 80069d0:	40026010 	.word	0x40026010
 80069d4:	40026028 	.word	0x40026028
 80069d8:	40026040 	.word	0x40026040
 80069dc:	40026058 	.word	0x40026058
 80069e0:	40026070 	.word	0x40026070
 80069e4:	40026088 	.word	0x40026088
 80069e8:	400260a0 	.word	0x400260a0
 80069ec:	400260b8 	.word	0x400260b8
 80069f0:	40026410 	.word	0x40026410
 80069f4:	40026428 	.word	0x40026428
 80069f8:	40026440 	.word	0x40026440
 80069fc:	40026458 	.word	0x40026458
 8006a00:	40026470 	.word	0x40026470
 8006a04:	40026488 	.word	0x40026488
 8006a08:	400264a0 	.word	0x400264a0
 8006a0c:	400264b8 	.word	0x400264b8
 8006a10:	080097f0 	.word	0x080097f0
  assert_param(IS_DMA_PERIPHERAL_BURST(DMA_InitStruct->DMA_PeripheralBurst));
 8006a14:	683b      	ldr	r3, [r7, #0]
 8006a16:	6b9b      	ldr	r3, [r3, #56]	; 0x38
 8006a18:	2b00      	cmp	r3, #0
 8006a1a:	d013      	beq.n	8006a44 <DMA_Init+0x2e8>
 8006a1c:	683b      	ldr	r3, [r7, #0]
 8006a1e:	6b9b      	ldr	r3, [r3, #56]	; 0x38
 8006a20:	f5b3 1f00 	cmp.w	r3, #2097152	; 0x200000
 8006a24:	d00e      	beq.n	8006a44 <DMA_Init+0x2e8>
 8006a26:	683b      	ldr	r3, [r7, #0]
 8006a28:	6b9b      	ldr	r3, [r3, #56]	; 0x38
 8006a2a:	f5b3 0f80 	cmp.w	r3, #4194304	; 0x400000
 8006a2e:	d009      	beq.n	8006a44 <DMA_Init+0x2e8>
 8006a30:	683b      	ldr	r3, [r7, #0]
 8006a32:	6b9b      	ldr	r3, [r3, #56]	; 0x38
 8006a34:	f5b3 0fc0 	cmp.w	r3, #6291456	; 0x600000
 8006a38:	d004      	beq.n	8006a44 <DMA_Init+0x2e8>
 8006a3a:	4828      	ldr	r0, [pc, #160]	; (8006adc <DMA_Init+0x380>)
 8006a3c:	f240 1149 	movw	r1, #329	; 0x149
 8006a40:	f7fc fd8a 	bl	8003558 <assert_failed>

  /*------------------------- DMAy Streamx CR Configuration ------------------*/
  /* Get the DMAy_Streamx CR value */
  tmpreg = DMAy_Streamx->CR;
 8006a44:	687b      	ldr	r3, [r7, #4]
 8006a46:	681b      	ldr	r3, [r3, #0]
 8006a48:	60fb      	str	r3, [r7, #12]

  /* Clear CHSEL, MBURST, PBURST, PL, MSIZE, PSIZE, MINC, PINC, CIRC and DIR bits */
  tmpreg &= ((uint32_t)~(DMA_SxCR_CHSEL | DMA_SxCR_MBURST | DMA_SxCR_PBURST | \
 8006a4a:	68fa      	ldr	r2, [r7, #12]
 8006a4c:	4b24      	ldr	r3, [pc, #144]	; (8006ae0 <DMA_Init+0x384>)
 8006a4e:	4013      	ands	r3, r2
 8006a50:	60fb      	str	r3, [r7, #12]
  /* Set MSIZE bits according to DMA_MemoryDataSize value */
  /* Set CIRC bit according to DMA_Mode value */
  /* Set PL bits according to DMA_Priority value */
  /* Set MBURST bits according to DMA_MemoryBurst value */
  /* Set PBURST bits according to DMA_PeripheralBurst value */
  tmpreg |= DMA_InitStruct->DMA_Channel | DMA_InitStruct->DMA_DIR |
 8006a52:	683b      	ldr	r3, [r7, #0]
 8006a54:	681a      	ldr	r2, [r3, #0]
 8006a56:	683b      	ldr	r3, [r7, #0]
 8006a58:	68db      	ldr	r3, [r3, #12]
 8006a5a:	431a      	orrs	r2, r3
            DMA_InitStruct->DMA_PeripheralInc | DMA_InitStruct->DMA_MemoryInc |
 8006a5c:	683b      	ldr	r3, [r7, #0]
 8006a5e:	695b      	ldr	r3, [r3, #20]
  /* Set MSIZE bits according to DMA_MemoryDataSize value */
  /* Set CIRC bit according to DMA_Mode value */
  /* Set PL bits according to DMA_Priority value */
  /* Set MBURST bits according to DMA_MemoryBurst value */
  /* Set PBURST bits according to DMA_PeripheralBurst value */
  tmpreg |= DMA_InitStruct->DMA_Channel | DMA_InitStruct->DMA_DIR |
 8006a60:	431a      	orrs	r2, r3
            DMA_InitStruct->DMA_PeripheralInc | DMA_InitStruct->DMA_MemoryInc |
 8006a62:	683b      	ldr	r3, [r7, #0]
 8006a64:	699b      	ldr	r3, [r3, #24]
 8006a66:	431a      	orrs	r2, r3
            DMA_InitStruct->DMA_PeripheralDataSize | DMA_InitStruct->DMA_MemoryDataSize |
 8006a68:	683b      	ldr	r3, [r7, #0]
 8006a6a:	69db      	ldr	r3, [r3, #28]
  /* Set CIRC bit according to DMA_Mode value */
  /* Set PL bits according to DMA_Priority value */
  /* Set MBURST bits according to DMA_MemoryBurst value */
  /* Set PBURST bits according to DMA_PeripheralBurst value */
  tmpreg |= DMA_InitStruct->DMA_Channel | DMA_InitStruct->DMA_DIR |
            DMA_InitStruct->DMA_PeripheralInc | DMA_InitStruct->DMA_MemoryInc |
 8006a6c:	431a      	orrs	r2, r3
            DMA_InitStruct->DMA_PeripheralDataSize | DMA_InitStruct->DMA_MemoryDataSize |
 8006a6e:	683b      	ldr	r3, [r7, #0]
 8006a70:	6a1b      	ldr	r3, [r3, #32]
 8006a72:	431a      	orrs	r2, r3
            DMA_InitStruct->DMA_Mode | DMA_InitStruct->DMA_Priority |
 8006a74:	683b      	ldr	r3, [r7, #0]
 8006a76:	6a5b      	ldr	r3, [r3, #36]	; 0x24
  /* Set PL bits according to DMA_Priority value */
  /* Set MBURST bits according to DMA_MemoryBurst value */
  /* Set PBURST bits according to DMA_PeripheralBurst value */
  tmpreg |= DMA_InitStruct->DMA_Channel | DMA_InitStruct->DMA_DIR |
            DMA_InitStruct->DMA_PeripheralInc | DMA_InitStruct->DMA_MemoryInc |
            DMA_InitStruct->DMA_PeripheralDataSize | DMA_InitStruct->DMA_MemoryDataSize |
 8006a78:	431a      	orrs	r2, r3
            DMA_InitStruct->DMA_Mode | DMA_InitStruct->DMA_Priority |
 8006a7a:	683b      	ldr	r3, [r7, #0]
 8006a7c:	6a9b      	ldr	r3, [r3, #40]	; 0x28
 8006a7e:	431a      	orrs	r2, r3
            DMA_InitStruct->DMA_MemoryBurst | DMA_InitStruct->DMA_PeripheralBurst;
 8006a80:	683b      	ldr	r3, [r7, #0]
 8006a82:	6b5b      	ldr	r3, [r3, #52]	; 0x34
  /* Set MBURST bits according to DMA_MemoryBurst value */
  /* Set PBURST bits according to DMA_PeripheralBurst value */
  tmpreg |= DMA_InitStruct->DMA_Channel | DMA_InitStruct->DMA_DIR |
            DMA_InitStruct->DMA_PeripheralInc | DMA_InitStruct->DMA_MemoryInc |
            DMA_InitStruct->DMA_PeripheralDataSize | DMA_InitStruct->DMA_MemoryDataSize |
            DMA_InitStruct->DMA_Mode | DMA_InitStruct->DMA_Priority |
 8006a84:	431a      	orrs	r2, r3
            DMA_InitStruct->DMA_MemoryBurst | DMA_InitStruct->DMA_PeripheralBurst;
 8006a86:	683b      	ldr	r3, [r7, #0]
 8006a88:	6b9b      	ldr	r3, [r3, #56]	; 0x38
 8006a8a:	4313      	orrs	r3, r2
  /* Set MSIZE bits according to DMA_MemoryDataSize value */
  /* Set CIRC bit according to DMA_Mode value */
  /* Set PL bits according to DMA_Priority value */
  /* Set MBURST bits according to DMA_MemoryBurst value */
  /* Set PBURST bits according to DMA_PeripheralBurst value */
  tmpreg |= DMA_InitStruct->DMA_Channel | DMA_InitStruct->DMA_DIR |
 8006a8c:	68fa      	ldr	r2, [r7, #12]
 8006a8e:	4313      	orrs	r3, r2
 8006a90:	60fb      	str	r3, [r7, #12]
            DMA_InitStruct->DMA_PeripheralDataSize | DMA_InitStruct->DMA_MemoryDataSize |
            DMA_InitStruct->DMA_Mode | DMA_InitStruct->DMA_Priority |
            DMA_InitStruct->DMA_MemoryBurst | DMA_InitStruct->DMA_PeripheralBurst;

  /* Write to DMAy Streamx CR register */
  DMAy_Streamx->CR = tmpreg;
 8006a92:	687b      	ldr	r3, [r7, #4]
 8006a94:	68fa      	ldr	r2, [r7, #12]
 8006a96:	601a      	str	r2, [r3, #0]

  /*------------------------- DMAy Streamx FCR Configuration -----------------*/
  /* Get the DMAy_Streamx FCR value */
  tmpreg = DMAy_Streamx->FCR;
 8006a98:	687b      	ldr	r3, [r7, #4]
 8006a9a:	695b      	ldr	r3, [r3, #20]
 8006a9c:	60fb      	str	r3, [r7, #12]

  /* Clear DMDIS and FTH bits */
  tmpreg &= (uint32_t)~(DMA_SxFCR_DMDIS | DMA_SxFCR_FTH);
 8006a9e:	68fb      	ldr	r3, [r7, #12]
 8006aa0:	f023 0307 	bic.w	r3, r3, #7
 8006aa4:	60fb      	str	r3, [r7, #12]

  /* Configure DMAy Streamx FIFO: 
    Set DMDIS bits according to DMA_FIFOMode value 
    Set FTH bits according to DMA_FIFOThreshold value */
  tmpreg |= DMA_InitStruct->DMA_FIFOMode | DMA_InitStruct->DMA_FIFOThreshold;
 8006aa6:	683b      	ldr	r3, [r7, #0]
 8006aa8:	6ada      	ldr	r2, [r3, #44]	; 0x2c
 8006aaa:	683b      	ldr	r3, [r7, #0]
 8006aac:	6b1b      	ldr	r3, [r3, #48]	; 0x30
 8006aae:	4313      	orrs	r3, r2
 8006ab0:	68fa      	ldr	r2, [r7, #12]
 8006ab2:	4313      	orrs	r3, r2
 8006ab4:	60fb      	str	r3, [r7, #12]

  /* Write to DMAy Streamx CR */
  DMAy_Streamx->FCR = tmpreg;
 8006ab6:	687b      	ldr	r3, [r7, #4]
 8006ab8:	68fa      	ldr	r2, [r7, #12]
 8006aba:	615a      	str	r2, [r3, #20]

  /*------------------------- DMAy Streamx NDTR Configuration ----------------*/
  /* Write to DMAy Streamx NDTR register */
  DMAy_Streamx->NDTR = DMA_InitStruct->DMA_BufferSize;
 8006abc:	683b      	ldr	r3, [r7, #0]
 8006abe:	691a      	ldr	r2, [r3, #16]
 8006ac0:	687b      	ldr	r3, [r7, #4]
 8006ac2:	605a      	str	r2, [r3, #4]

  /*------------------------- DMAy Streamx PAR Configuration -----------------*/
  /* Write to DMAy Streamx PAR */
  DMAy_Streamx->PAR = DMA_InitStruct->DMA_PeripheralBaseAddr;
 8006ac4:	683b      	ldr	r3, [r7, #0]
 8006ac6:	685a      	ldr	r2, [r3, #4]
 8006ac8:	687b      	ldr	r3, [r7, #4]
 8006aca:	609a      	str	r2, [r3, #8]

  /*------------------------- DMAy Streamx M0AR Configuration ----------------*/
  /* Write to DMAy Streamx M0AR */
  DMAy_Streamx->M0AR = DMA_InitStruct->DMA_Memory0BaseAddr;
 8006acc:	683b      	ldr	r3, [r7, #0]
 8006ace:	689a      	ldr	r2, [r3, #8]
 8006ad0:	687b      	ldr	r3, [r7, #4]
 8006ad2:	60da      	str	r2, [r3, #12]
}
 8006ad4:	3710      	adds	r7, #16
 8006ad6:	46bd      	mov	sp, r7
 8006ad8:	bd80      	pop	{r7, pc}
 8006ada:	bf00      	nop
 8006adc:	080097f0 	.word	0x080097f0
 8006ae0:	f01c803f 	.word	0xf01c803f

08006ae4 <DMA_StructInit>:
  * @param  DMA_InitStruct : pointer to a DMA_InitTypeDef structure which will 
  *         be initialized.
  * @retval None
  */
void DMA_StructInit(DMA_InitTypeDef* DMA_InitStruct)
{
 8006ae4:	b480      	push	{r7}
 8006ae6:	b083      	sub	sp, #12
 8006ae8:	af00      	add	r7, sp, #0
 8006aea:	6078      	str	r0, [r7, #4]
  /*-------------- Reset DMA init structure parameters values ----------------*/
  /* Initialize the DMA_Channel member */
  DMA_InitStruct->DMA_Channel = 0;
 8006aec:	687b      	ldr	r3, [r7, #4]
 8006aee:	2200      	movs	r2, #0
 8006af0:	601a      	str	r2, [r3, #0]

  /* Initialize the DMA_PeripheralBaseAddr member */
  DMA_InitStruct->DMA_PeripheralBaseAddr = 0;
 8006af2:	687b      	ldr	r3, [r7, #4]
 8006af4:	2200      	movs	r2, #0
 8006af6:	605a      	str	r2, [r3, #4]

  /* Initialize the DMA_Memory0BaseAddr member */
  DMA_InitStruct->DMA_Memory0BaseAddr = 0;
 8006af8:	687b      	ldr	r3, [r7, #4]
 8006afa:	2200      	movs	r2, #0
 8006afc:	609a      	str	r2, [r3, #8]

  /* Initialize the DMA_DIR member */
  DMA_InitStruct->DMA_DIR = DMA_DIR_PeripheralToMemory;
 8006afe:	687b      	ldr	r3, [r7, #4]
 8006b00:	2200      	movs	r2, #0
 8006b02:	60da      	str	r2, [r3, #12]

  /* Initialize the DMA_BufferSize member */
  DMA_InitStruct->DMA_BufferSize = 0;
 8006b04:	687b      	ldr	r3, [r7, #4]
 8006b06:	2200      	movs	r2, #0
 8006b08:	611a      	str	r2, [r3, #16]

  /* Initialize the DMA_PeripheralInc member */
  DMA_InitStruct->DMA_PeripheralInc = DMA_PeripheralInc_Disable;
 8006b0a:	687b      	ldr	r3, [r7, #4]
 8006b0c:	2200      	movs	r2, #0
 8006b0e:	615a      	str	r2, [r3, #20]

  /* Initialize the DMA_MemoryInc member */
  DMA_InitStruct->DMA_MemoryInc = DMA_MemoryInc_Disable;
 8006b10:	687b      	ldr	r3, [r7, #4]
 8006b12:	2200      	movs	r2, #0
 8006b14:	619a      	str	r2, [r3, #24]

  /* Initialize the DMA_PeripheralDataSize member */
  DMA_InitStruct->DMA_PeripheralDataSize = DMA_PeripheralDataSize_Byte;
 8006b16:	687b      	ldr	r3, [r7, #4]
 8006b18:	2200      	movs	r2, #0
 8006b1a:	61da      	str	r2, [r3, #28]

  /* Initialize the DMA_MemoryDataSize member */
  DMA_InitStruct->DMA_MemoryDataSize = DMA_MemoryDataSize_Byte;
 8006b1c:	687b      	ldr	r3, [r7, #4]
 8006b1e:	2200      	movs	r2, #0
 8006b20:	621a      	str	r2, [r3, #32]

  /* Initialize the DMA_Mode member */
  DMA_InitStruct->DMA_Mode = DMA_Mode_Normal;
 8006b22:	687b      	ldr	r3, [r7, #4]
 8006b24:	2200      	movs	r2, #0
 8006b26:	625a      	str	r2, [r3, #36]	; 0x24

  /* Initialize the DMA_Priority member */
  DMA_InitStruct->DMA_Priority = DMA_Priority_Low;
 8006b28:	687b      	ldr	r3, [r7, #4]
 8006b2a:	2200      	movs	r2, #0
 8006b2c:	629a      	str	r2, [r3, #40]	; 0x28

  /* Initialize the DMA_FIFOMode member */
  DMA_InitStruct->DMA_FIFOMode = DMA_FIFOMode_Disable;
 8006b2e:	687b      	ldr	r3, [r7, #4]
 8006b30:	2200      	movs	r2, #0
 8006b32:	62da      	str	r2, [r3, #44]	; 0x2c

  /* Initialize the DMA_FIFOThreshold member */
  DMA_InitStruct->DMA_FIFOThreshold = DMA_FIFOThreshold_1QuarterFull;
 8006b34:	687b      	ldr	r3, [r7, #4]
 8006b36:	2200      	movs	r2, #0
 8006b38:	631a      	str	r2, [r3, #48]	; 0x30

  /* Initialize the DMA_MemoryBurst member */
  DMA_InitStruct->DMA_MemoryBurst = DMA_MemoryBurst_Single;
 8006b3a:	687b      	ldr	r3, [r7, #4]
 8006b3c:	2200      	movs	r2, #0
 8006b3e:	635a      	str	r2, [r3, #52]	; 0x34

  /* Initialize the DMA_PeripheralBurst member */
  DMA_InitStruct->DMA_PeripheralBurst = DMA_PeripheralBurst_Single;
 8006b40:	687b      	ldr	r3, [r7, #4]
 8006b42:	2200      	movs	r2, #0
 8006b44:	639a      	str	r2, [r3, #56]	; 0x38
}
 8006b46:	370c      	adds	r7, #12
 8006b48:	46bd      	mov	sp, r7
 8006b4a:	f85d 7b04 	ldr.w	r7, [sp], #4
 8006b4e:	4770      	bx	lr

08006b50 <DMA_Cmd>:
  *        this single data is finished.            
  *    
  * @retval None
  */
void DMA_Cmd(DMA_Stream_TypeDef* DMAy_Streamx, FunctionalState NewState)
{
 8006b50:	b580      	push	{r7, lr}
 8006b52:	b082      	sub	sp, #8
 8006b54:	af00      	add	r7, sp, #0
 8006b56:	6078      	str	r0, [r7, #4]
 8006b58:	460b      	mov	r3, r1
 8006b5a:	70fb      	strb	r3, [r7, #3]
  /* Check the parameters */
  assert_param(IS_DMA_ALL_PERIPH(DMAy_Streamx));
 8006b5c:	687a      	ldr	r2, [r7, #4]
 8006b5e:	4b31      	ldr	r3, [pc, #196]	; (8006c24 <DMA_Cmd+0xd4>)
 8006b60:	429a      	cmp	r2, r3
 8006b62:	d040      	beq.n	8006be6 <DMA_Cmd+0x96>
 8006b64:	687a      	ldr	r2, [r7, #4]
 8006b66:	4b30      	ldr	r3, [pc, #192]	; (8006c28 <DMA_Cmd+0xd8>)
 8006b68:	429a      	cmp	r2, r3
 8006b6a:	d03c      	beq.n	8006be6 <DMA_Cmd+0x96>
 8006b6c:	687a      	ldr	r2, [r7, #4]
 8006b6e:	4b2f      	ldr	r3, [pc, #188]	; (8006c2c <DMA_Cmd+0xdc>)
 8006b70:	429a      	cmp	r2, r3
 8006b72:	d038      	beq.n	8006be6 <DMA_Cmd+0x96>
 8006b74:	687a      	ldr	r2, [r7, #4]
 8006b76:	4b2e      	ldr	r3, [pc, #184]	; (8006c30 <DMA_Cmd+0xe0>)
 8006b78:	429a      	cmp	r2, r3
 8006b7a:	d034      	beq.n	8006be6 <DMA_Cmd+0x96>
 8006b7c:	687a      	ldr	r2, [r7, #4]
 8006b7e:	4b2d      	ldr	r3, [pc, #180]	; (8006c34 <DMA_Cmd+0xe4>)
 8006b80:	429a      	cmp	r2, r3
 8006b82:	d030      	beq.n	8006be6 <DMA_Cmd+0x96>
 8006b84:	687a      	ldr	r2, [r7, #4]
 8006b86:	4b2c      	ldr	r3, [pc, #176]	; (8006c38 <DMA_Cmd+0xe8>)
 8006b88:	429a      	cmp	r2, r3
 8006b8a:	d02c      	beq.n	8006be6 <DMA_Cmd+0x96>
 8006b8c:	687a      	ldr	r2, [r7, #4]
 8006b8e:	4b2b      	ldr	r3, [pc, #172]	; (8006c3c <DMA_Cmd+0xec>)
 8006b90:	429a      	cmp	r2, r3
 8006b92:	d028      	beq.n	8006be6 <DMA_Cmd+0x96>
 8006b94:	687a      	ldr	r2, [r7, #4]
 8006b96:	4b2a      	ldr	r3, [pc, #168]	; (8006c40 <DMA_Cmd+0xf0>)
 8006b98:	429a      	cmp	r2, r3
 8006b9a:	d024      	beq.n	8006be6 <DMA_Cmd+0x96>
 8006b9c:	687a      	ldr	r2, [r7, #4]
 8006b9e:	4b29      	ldr	r3, [pc, #164]	; (8006c44 <DMA_Cmd+0xf4>)
 8006ba0:	429a      	cmp	r2, r3
 8006ba2:	d020      	beq.n	8006be6 <DMA_Cmd+0x96>
 8006ba4:	687a      	ldr	r2, [r7, #4]
 8006ba6:	4b28      	ldr	r3, [pc, #160]	; (8006c48 <DMA_Cmd+0xf8>)
 8006ba8:	429a      	cmp	r2, r3
 8006baa:	d01c      	beq.n	8006be6 <DMA_Cmd+0x96>
 8006bac:	687a      	ldr	r2, [r7, #4]
 8006bae:	4b27      	ldr	r3, [pc, #156]	; (8006c4c <DMA_Cmd+0xfc>)
 8006bb0:	429a      	cmp	r2, r3
 8006bb2:	d018      	beq.n	8006be6 <DMA_Cmd+0x96>
 8006bb4:	687a      	ldr	r2, [r7, #4]
 8006bb6:	4b26      	ldr	r3, [pc, #152]	; (8006c50 <DMA_Cmd+0x100>)
 8006bb8:	429a      	cmp	r2, r3
 8006bba:	d014      	beq.n	8006be6 <DMA_Cmd+0x96>
 8006bbc:	687a      	ldr	r2, [r7, #4]
 8006bbe:	4b25      	ldr	r3, [pc, #148]	; (8006c54 <DMA_Cmd+0x104>)
 8006bc0:	429a      	cmp	r2, r3
 8006bc2:	d010      	beq.n	8006be6 <DMA_Cmd+0x96>
 8006bc4:	687a      	ldr	r2, [r7, #4]
 8006bc6:	4b24      	ldr	r3, [pc, #144]	; (8006c58 <DMA_Cmd+0x108>)
 8006bc8:	429a      	cmp	r2, r3
 8006bca:	d00c      	beq.n	8006be6 <DMA_Cmd+0x96>
 8006bcc:	687a      	ldr	r2, [r7, #4]
 8006bce:	4b23      	ldr	r3, [pc, #140]	; (8006c5c <DMA_Cmd+0x10c>)
 8006bd0:	429a      	cmp	r2, r3
 8006bd2:	d008      	beq.n	8006be6 <DMA_Cmd+0x96>
 8006bd4:	687a      	ldr	r2, [r7, #4]
 8006bd6:	4b22      	ldr	r3, [pc, #136]	; (8006c60 <DMA_Cmd+0x110>)
 8006bd8:	429a      	cmp	r2, r3
 8006bda:	d004      	beq.n	8006be6 <DMA_Cmd+0x96>
 8006bdc:	4821      	ldr	r0, [pc, #132]	; (8006c64 <DMA_Cmd+0x114>)
 8006bde:	f240 11d9 	movw	r1, #473	; 0x1d9
 8006be2:	f7fc fcb9 	bl	8003558 <assert_failed>
  assert_param(IS_FUNCTIONAL_STATE(NewState));
 8006be6:	78fb      	ldrb	r3, [r7, #3]
 8006be8:	2b00      	cmp	r3, #0
 8006bea:	d007      	beq.n	8006bfc <DMA_Cmd+0xac>
 8006bec:	78fb      	ldrb	r3, [r7, #3]
 8006bee:	2b01      	cmp	r3, #1
 8006bf0:	d004      	beq.n	8006bfc <DMA_Cmd+0xac>
 8006bf2:	481c      	ldr	r0, [pc, #112]	; (8006c64 <DMA_Cmd+0x114>)
 8006bf4:	f44f 71ed 	mov.w	r1, #474	; 0x1da
 8006bf8:	f7fc fcae 	bl	8003558 <assert_failed>

  if (NewState != DISABLE)
 8006bfc:	78fb      	ldrb	r3, [r7, #3]
 8006bfe:	2b00      	cmp	r3, #0
 8006c00:	d006      	beq.n	8006c10 <DMA_Cmd+0xc0>
  {
    /* Enable the selected DMAy Streamx by setting EN bit */
    DMAy_Streamx->CR |= (uint32_t)DMA_SxCR_EN;
 8006c02:	687b      	ldr	r3, [r7, #4]
 8006c04:	681b      	ldr	r3, [r3, #0]
 8006c06:	f043 0201 	orr.w	r2, r3, #1
 8006c0a:	687b      	ldr	r3, [r7, #4]
 8006c0c:	601a      	str	r2, [r3, #0]
 8006c0e:	e005      	b.n	8006c1c <DMA_Cmd+0xcc>
  }
  else
  {
    /* Disable the selected DMAy Streamx by clearing EN bit */
    DMAy_Streamx->CR &= ~(uint32_t)DMA_SxCR_EN;
 8006c10:	687b      	ldr	r3, [r7, #4]
 8006c12:	681b      	ldr	r3, [r3, #0]
 8006c14:	f023 0201 	bic.w	r2, r3, #1
 8006c18:	687b      	ldr	r3, [r7, #4]
 8006c1a:	601a      	str	r2, [r3, #0]
  }
}
 8006c1c:	3708      	adds	r7, #8
 8006c1e:	46bd      	mov	sp, r7
 8006c20:	bd80      	pop	{r7, pc}
 8006c22:	bf00      	nop
 8006c24:	40026010 	.word	0x40026010
 8006c28:	40026028 	.word	0x40026028
 8006c2c:	40026040 	.word	0x40026040
 8006c30:	40026058 	.word	0x40026058
 8006c34:	40026070 	.word	0x40026070
 8006c38:	40026088 	.word	0x40026088
 8006c3c:	400260a0 	.word	0x400260a0
 8006c40:	400260b8 	.word	0x400260b8
 8006c44:	40026410 	.word	0x40026410
 8006c48:	40026428 	.word	0x40026428
 8006c4c:	40026440 	.word	0x40026440
 8006c50:	40026458 	.word	0x40026458
 8006c54:	40026470 	.word	0x40026470
 8006c58:	40026488 	.word	0x40026488
 8006c5c:	400264a0 	.word	0x400264a0
 8006c60:	400264b8 	.word	0x400264b8
 8006c64:	080097f0 	.word	0x080097f0

08006c68 <DMA_SetCurrDataCounter>:
  *         DMAy_SxPAR register is considered as Peripheral.
  *      
  * @retval The number of remaining data units in the current DMAy Streamx transfer.
  */
void DMA_SetCurrDataCounter(DMA_Stream_TypeDef* DMAy_Streamx, uint16_t Counter)
{
 8006c68:	b580      	push	{r7, lr}
 8006c6a:	b082      	sub	sp, #8
 8006c6c:	af00      	add	r7, sp, #0
 8006c6e:	6078      	str	r0, [r7, #4]
 8006c70:	460b      	mov	r3, r1
 8006c72:	807b      	strh	r3, [r7, #2]
  /* Check the parameters */
  assert_param(IS_DMA_ALL_PERIPH(DMAy_Streamx));
 8006c74:	687a      	ldr	r2, [r7, #4]
 8006c76:	4b25      	ldr	r3, [pc, #148]	; (8006d0c <DMA_SetCurrDataCounter+0xa4>)
 8006c78:	429a      	cmp	r2, r3
 8006c7a:	d040      	beq.n	8006cfe <DMA_SetCurrDataCounter+0x96>
 8006c7c:	687a      	ldr	r2, [r7, #4]
 8006c7e:	4b24      	ldr	r3, [pc, #144]	; (8006d10 <DMA_SetCurrDataCounter+0xa8>)
 8006c80:	429a      	cmp	r2, r3
 8006c82:	d03c      	beq.n	8006cfe <DMA_SetCurrDataCounter+0x96>
 8006c84:	687a      	ldr	r2, [r7, #4]
 8006c86:	4b23      	ldr	r3, [pc, #140]	; (8006d14 <DMA_SetCurrDataCounter+0xac>)
 8006c88:	429a      	cmp	r2, r3
 8006c8a:	d038      	beq.n	8006cfe <DMA_SetCurrDataCounter+0x96>
 8006c8c:	687a      	ldr	r2, [r7, #4]
 8006c8e:	4b22      	ldr	r3, [pc, #136]	; (8006d18 <DMA_SetCurrDataCounter+0xb0>)
 8006c90:	429a      	cmp	r2, r3
 8006c92:	d034      	beq.n	8006cfe <DMA_SetCurrDataCounter+0x96>
 8006c94:	687a      	ldr	r2, [r7, #4]
 8006c96:	4b21      	ldr	r3, [pc, #132]	; (8006d1c <DMA_SetCurrDataCounter+0xb4>)
 8006c98:	429a      	cmp	r2, r3
 8006c9a:	d030      	beq.n	8006cfe <DMA_SetCurrDataCounter+0x96>
 8006c9c:	687a      	ldr	r2, [r7, #4]
 8006c9e:	4b20      	ldr	r3, [pc, #128]	; (8006d20 <DMA_SetCurrDataCounter+0xb8>)
 8006ca0:	429a      	cmp	r2, r3
 8006ca2:	d02c      	beq.n	8006cfe <DMA_SetCurrDataCounter+0x96>
 8006ca4:	687a      	ldr	r2, [r7, #4]
 8006ca6:	4b1f      	ldr	r3, [pc, #124]	; (8006d24 <DMA_SetCurrDataCounter+0xbc>)
 8006ca8:	429a      	cmp	r2, r3
 8006caa:	d028      	beq.n	8006cfe <DMA_SetCurrDataCounter+0x96>
 8006cac:	687a      	ldr	r2, [r7, #4]
 8006cae:	4b1e      	ldr	r3, [pc, #120]	; (8006d28 <DMA_SetCurrDataCounter+0xc0>)
 8006cb0:	429a      	cmp	r2, r3
 8006cb2:	d024      	beq.n	8006cfe <DMA_SetCurrDataCounter+0x96>
 8006cb4:	687a      	ldr	r2, [r7, #4]
 8006cb6:	4b1d      	ldr	r3, [pc, #116]	; (8006d2c <DMA_SetCurrDataCounter+0xc4>)
 8006cb8:	429a      	cmp	r2, r3
 8006cba:	d020      	beq.n	8006cfe <DMA_SetCurrDataCounter+0x96>
 8006cbc:	687a      	ldr	r2, [r7, #4]
 8006cbe:	4b1c      	ldr	r3, [pc, #112]	; (8006d30 <DMA_SetCurrDataCounter+0xc8>)
 8006cc0:	429a      	cmp	r2, r3
 8006cc2:	d01c      	beq.n	8006cfe <DMA_SetCurrDataCounter+0x96>
 8006cc4:	687a      	ldr	r2, [r7, #4]
 8006cc6:	4b1b      	ldr	r3, [pc, #108]	; (8006d34 <DMA_SetCurrDataCounter+0xcc>)
 8006cc8:	429a      	cmp	r2, r3
 8006cca:	d018      	beq.n	8006cfe <DMA_SetCurrDataCounter+0x96>
 8006ccc:	687a      	ldr	r2, [r7, #4]
 8006cce:	4b1a      	ldr	r3, [pc, #104]	; (8006d38 <DMA_SetCurrDataCounter+0xd0>)
 8006cd0:	429a      	cmp	r2, r3
 8006cd2:	d014      	beq.n	8006cfe <DMA_SetCurrDataCounter+0x96>
 8006cd4:	687a      	ldr	r2, [r7, #4]
 8006cd6:	4b19      	ldr	r3, [pc, #100]	; (8006d3c <DMA_SetCurrDataCounter+0xd4>)
 8006cd8:	429a      	cmp	r2, r3
 8006cda:	d010      	beq.n	8006cfe <DMA_SetCurrDataCounter+0x96>
 8006cdc:	687a      	ldr	r2, [r7, #4]
 8006cde:	4b18      	ldr	r3, [pc, #96]	; (8006d40 <DMA_SetCurrDataCounter+0xd8>)
 8006ce0:	429a      	cmp	r2, r3
 8006ce2:	d00c      	beq.n	8006cfe <DMA_SetCurrDataCounter+0x96>
 8006ce4:	687a      	ldr	r2, [r7, #4]
 8006ce6:	4b17      	ldr	r3, [pc, #92]	; (8006d44 <DMA_SetCurrDataCounter+0xdc>)
 8006ce8:	429a      	cmp	r2, r3
 8006cea:	d008      	beq.n	8006cfe <DMA_SetCurrDataCounter+0x96>
 8006cec:	687a      	ldr	r2, [r7, #4]
 8006cee:	4b16      	ldr	r3, [pc, #88]	; (8006d48 <DMA_SetCurrDataCounter+0xe0>)
 8006cf0:	429a      	cmp	r2, r3
 8006cf2:	d004      	beq.n	8006cfe <DMA_SetCurrDataCounter+0x96>
 8006cf4:	4815      	ldr	r0, [pc, #84]	; (8006d4c <DMA_SetCurrDataCounter+0xe4>)
 8006cf6:	f240 2175 	movw	r1, #629	; 0x275
 8006cfa:	f7fc fc2d 	bl	8003558 <assert_failed>

  /* Write the number of data units to be transferred */
  DMAy_Streamx->NDTR = (uint16_t)Counter;
 8006cfe:	887a      	ldrh	r2, [r7, #2]
 8006d00:	687b      	ldr	r3, [r7, #4]
 8006d02:	605a      	str	r2, [r3, #4]
}
 8006d04:	3708      	adds	r7, #8
 8006d06:	46bd      	mov	sp, r7
 8006d08:	bd80      	pop	{r7, pc}
 8006d0a:	bf00      	nop
 8006d0c:	40026010 	.word	0x40026010
 8006d10:	40026028 	.word	0x40026028
 8006d14:	40026040 	.word	0x40026040
 8006d18:	40026058 	.word	0x40026058
 8006d1c:	40026070 	.word	0x40026070
 8006d20:	40026088 	.word	0x40026088
 8006d24:	400260a0 	.word	0x400260a0
 8006d28:	400260b8 	.word	0x400260b8
 8006d2c:	40026410 	.word	0x40026410
 8006d30:	40026428 	.word	0x40026428
 8006d34:	40026440 	.word	0x40026440
 8006d38:	40026458 	.word	0x40026458
 8006d3c:	40026470 	.word	0x40026470
 8006d40:	40026488 	.word	0x40026488
 8006d44:	400264a0 	.word	0x400264a0
 8006d48:	400264b8 	.word	0x400264b8
 8006d4c:	080097f0 	.word	0x080097f0

08006d50 <DMA_GetCmdStatus>:
  *          of this single data is finished.  
  *      
  * @retval Current state of the DMAy Streamx (ENABLE or DISABLE).
  */
FunctionalState DMA_GetCmdStatus(DMA_Stream_TypeDef* DMAy_Streamx)
{
 8006d50:	b580      	push	{r7, lr}
 8006d52:	b084      	sub	sp, #16
 8006d54:	af00      	add	r7, sp, #0
 8006d56:	6078      	str	r0, [r7, #4]
  FunctionalState state = DISABLE;
 8006d58:	2300      	movs	r3, #0
 8006d5a:	73fb      	strb	r3, [r7, #15]

  /* Check the parameters */
  assert_param(IS_DMA_ALL_PERIPH(DMAy_Streamx));
 8006d5c:	687a      	ldr	r2, [r7, #4]
 8006d5e:	4b2a      	ldr	r3, [pc, #168]	; (8006e08 <DMA_GetCmdStatus+0xb8>)
 8006d60:	429a      	cmp	r2, r3
 8006d62:	d040      	beq.n	8006de6 <DMA_GetCmdStatus+0x96>
 8006d64:	687a      	ldr	r2, [r7, #4]
 8006d66:	4b29      	ldr	r3, [pc, #164]	; (8006e0c <DMA_GetCmdStatus+0xbc>)
 8006d68:	429a      	cmp	r2, r3
 8006d6a:	d03c      	beq.n	8006de6 <DMA_GetCmdStatus+0x96>
 8006d6c:	687a      	ldr	r2, [r7, #4]
 8006d6e:	4b28      	ldr	r3, [pc, #160]	; (8006e10 <DMA_GetCmdStatus+0xc0>)
 8006d70:	429a      	cmp	r2, r3
 8006d72:	d038      	beq.n	8006de6 <DMA_GetCmdStatus+0x96>
 8006d74:	687a      	ldr	r2, [r7, #4]
 8006d76:	4b27      	ldr	r3, [pc, #156]	; (8006e14 <DMA_GetCmdStatus+0xc4>)
 8006d78:	429a      	cmp	r2, r3
 8006d7a:	d034      	beq.n	8006de6 <DMA_GetCmdStatus+0x96>
 8006d7c:	687a      	ldr	r2, [r7, #4]
 8006d7e:	4b26      	ldr	r3, [pc, #152]	; (8006e18 <DMA_GetCmdStatus+0xc8>)
 8006d80:	429a      	cmp	r2, r3
 8006d82:	d030      	beq.n	8006de6 <DMA_GetCmdStatus+0x96>
 8006d84:	687a      	ldr	r2, [r7, #4]
 8006d86:	4b25      	ldr	r3, [pc, #148]	; (8006e1c <DMA_GetCmdStatus+0xcc>)
 8006d88:	429a      	cmp	r2, r3
 8006d8a:	d02c      	beq.n	8006de6 <DMA_GetCmdStatus+0x96>
 8006d8c:	687a      	ldr	r2, [r7, #4]
 8006d8e:	4b24      	ldr	r3, [pc, #144]	; (8006e20 <DMA_GetCmdStatus+0xd0>)
 8006d90:	429a      	cmp	r2, r3
 8006d92:	d028      	beq.n	8006de6 <DMA_GetCmdStatus+0x96>
 8006d94:	687a      	ldr	r2, [r7, #4]
 8006d96:	4b23      	ldr	r3, [pc, #140]	; (8006e24 <DMA_GetCmdStatus+0xd4>)
 8006d98:	429a      	cmp	r2, r3
 8006d9a:	d024      	beq.n	8006de6 <DMA_GetCmdStatus+0x96>
 8006d9c:	687a      	ldr	r2, [r7, #4]
 8006d9e:	4b22      	ldr	r3, [pc, #136]	; (8006e28 <DMA_GetCmdStatus+0xd8>)
 8006da0:	429a      	cmp	r2, r3
 8006da2:	d020      	beq.n	8006de6 <DMA_GetCmdStatus+0x96>
 8006da4:	687a      	ldr	r2, [r7, #4]
 8006da6:	4b21      	ldr	r3, [pc, #132]	; (8006e2c <DMA_GetCmdStatus+0xdc>)
 8006da8:	429a      	cmp	r2, r3
 8006daa:	d01c      	beq.n	8006de6 <DMA_GetCmdStatus+0x96>
 8006dac:	687a      	ldr	r2, [r7, #4]
 8006dae:	4b20      	ldr	r3, [pc, #128]	; (8006e30 <DMA_GetCmdStatus+0xe0>)
 8006db0:	429a      	cmp	r2, r3
 8006db2:	d018      	beq.n	8006de6 <DMA_GetCmdStatus+0x96>
 8006db4:	687a      	ldr	r2, [r7, #4]
 8006db6:	4b1f      	ldr	r3, [pc, #124]	; (8006e34 <DMA_GetCmdStatus+0xe4>)
 8006db8:	429a      	cmp	r2, r3
 8006dba:	d014      	beq.n	8006de6 <DMA_GetCmdStatus+0x96>
 8006dbc:	687a      	ldr	r2, [r7, #4]
 8006dbe:	4b1e      	ldr	r3, [pc, #120]	; (8006e38 <DMA_GetCmdStatus+0xe8>)
 8006dc0:	429a      	cmp	r2, r3
 8006dc2:	d010      	beq.n	8006de6 <DMA_GetCmdStatus+0x96>
 8006dc4:	687a      	ldr	r2, [r7, #4]
 8006dc6:	4b1d      	ldr	r3, [pc, #116]	; (8006e3c <DMA_GetCmdStatus+0xec>)
 8006dc8:	429a      	cmp	r2, r3
 8006dca:	d00c      	beq.n	8006de6 <DMA_GetCmdStatus+0x96>
 8006dcc:	687a      	ldr	r2, [r7, #4]
 8006dce:	4b1c      	ldr	r3, [pc, #112]	; (8006e40 <DMA_GetCmdStatus+0xf0>)
 8006dd0:	429a      	cmp	r2, r3
 8006dd2:	d008      	beq.n	8006de6 <DMA_GetCmdStatus+0x96>
 8006dd4:	687a      	ldr	r2, [r7, #4]
 8006dd6:	4b1b      	ldr	r3, [pc, #108]	; (8006e44 <DMA_GetCmdStatus+0xf4>)
 8006dd8:	429a      	cmp	r2, r3
 8006dda:	d004      	beq.n	8006de6 <DMA_GetCmdStatus+0x96>
 8006ddc:	481a      	ldr	r0, [pc, #104]	; (8006e48 <DMA_GetCmdStatus+0xf8>)
 8006dde:	f240 31a2 	movw	r1, #930	; 0x3a2
 8006de2:	f7fc fbb9 	bl	8003558 <assert_failed>

  if ((DMAy_Streamx->CR & (uint32_t)DMA_SxCR_EN) != 0)
 8006de6:	687b      	ldr	r3, [r7, #4]
 8006de8:	681b      	ldr	r3, [r3, #0]
 8006dea:	f003 0301 	and.w	r3, r3, #1
 8006dee:	2b00      	cmp	r3, #0
 8006df0:	d002      	beq.n	8006df8 <DMA_GetCmdStatus+0xa8>
  {
    /* The selected DMAy Streamx EN bit is set (DMA is still transferring) */
    state = ENABLE;
 8006df2:	2301      	movs	r3, #1
 8006df4:	73fb      	strb	r3, [r7, #15]
 8006df6:	e001      	b.n	8006dfc <DMA_GetCmdStatus+0xac>
  }
  else
  {
    /* The selected DMAy Streamx EN bit is cleared (DMA is disabled and 
        all transfers are complete) */
    state = DISABLE;
 8006df8:	2300      	movs	r3, #0
 8006dfa:	73fb      	strb	r3, [r7, #15]
  }
  return state;
 8006dfc:	7bfb      	ldrb	r3, [r7, #15]
}
 8006dfe:	4618      	mov	r0, r3
 8006e00:	3710      	adds	r7, #16
 8006e02:	46bd      	mov	sp, r7
 8006e04:	bd80      	pop	{r7, pc}
 8006e06:	bf00      	nop
 8006e08:	40026010 	.word	0x40026010
 8006e0c:	40026028 	.word	0x40026028
 8006e10:	40026040 	.word	0x40026040
 8006e14:	40026058 	.word	0x40026058
 8006e18:	40026070 	.word	0x40026070
 8006e1c:	40026088 	.word	0x40026088
 8006e20:	400260a0 	.word	0x400260a0
 8006e24:	400260b8 	.word	0x400260b8
 8006e28:	40026410 	.word	0x40026410
 8006e2c:	40026428 	.word	0x40026428
 8006e30:	40026440 	.word	0x40026440
 8006e34:	40026458 	.word	0x40026458
 8006e38:	40026470 	.word	0x40026470
 8006e3c:	40026488 	.word	0x40026488
 8006e40:	400264a0 	.word	0x400264a0
 8006e44:	400264b8 	.word	0x400264b8
 8006e48:	080097f0 	.word	0x080097f0

08006e4c <DMA_ITConfig>:
  * @param  NewState: new state of the specified DMA interrupts.
  *          This parameter can be: ENABLE or DISABLE.
  * @retval None
  */
void DMA_ITConfig(DMA_Stream_TypeDef* DMAy_Streamx, uint32_t DMA_IT, FunctionalState NewState)
{
 8006e4c:	b580      	push	{r7, lr}
 8006e4e:	b084      	sub	sp, #16
 8006e50:	af00      	add	r7, sp, #0
 8006e52:	60f8      	str	r0, [r7, #12]
 8006e54:	60b9      	str	r1, [r7, #8]
 8006e56:	4613      	mov	r3, r2
 8006e58:	71fb      	strb	r3, [r7, #7]
  /* Check the parameters */
  assert_param(IS_DMA_ALL_PERIPH(DMAy_Streamx));
 8006e5a:	68fa      	ldr	r2, [r7, #12]
 8006e5c:	4b45      	ldr	r3, [pc, #276]	; (8006f74 <DMA_ITConfig+0x128>)
 8006e5e:	429a      	cmp	r2, r3
 8006e60:	d040      	beq.n	8006ee4 <DMA_ITConfig+0x98>
 8006e62:	68fa      	ldr	r2, [r7, #12]
 8006e64:	4b44      	ldr	r3, [pc, #272]	; (8006f78 <DMA_ITConfig+0x12c>)
 8006e66:	429a      	cmp	r2, r3
 8006e68:	d03c      	beq.n	8006ee4 <DMA_ITConfig+0x98>
 8006e6a:	68fa      	ldr	r2, [r7, #12]
 8006e6c:	4b43      	ldr	r3, [pc, #268]	; (8006f7c <DMA_ITConfig+0x130>)
 8006e6e:	429a      	cmp	r2, r3
 8006e70:	d038      	beq.n	8006ee4 <DMA_ITConfig+0x98>
 8006e72:	68fa      	ldr	r2, [r7, #12]
 8006e74:	4b42      	ldr	r3, [pc, #264]	; (8006f80 <DMA_ITConfig+0x134>)
 8006e76:	429a      	cmp	r2, r3
 8006e78:	d034      	beq.n	8006ee4 <DMA_ITConfig+0x98>
 8006e7a:	68fa      	ldr	r2, [r7, #12]
 8006e7c:	4b41      	ldr	r3, [pc, #260]	; (8006f84 <DMA_ITConfig+0x138>)
 8006e7e:	429a      	cmp	r2, r3
 8006e80:	d030      	beq.n	8006ee4 <DMA_ITConfig+0x98>
 8006e82:	68fa      	ldr	r2, [r7, #12]
 8006e84:	4b40      	ldr	r3, [pc, #256]	; (8006f88 <DMA_ITConfig+0x13c>)
 8006e86:	429a      	cmp	r2, r3
 8006e88:	d02c      	beq.n	8006ee4 <DMA_ITConfig+0x98>
 8006e8a:	68fa      	ldr	r2, [r7, #12]
 8006e8c:	4b3f      	ldr	r3, [pc, #252]	; (8006f8c <DMA_ITConfig+0x140>)
 8006e8e:	429a      	cmp	r2, r3
 8006e90:	d028      	beq.n	8006ee4 <DMA_ITConfig+0x98>
 8006e92:	68fa      	ldr	r2, [r7, #12]
 8006e94:	4b3e      	ldr	r3, [pc, #248]	; (8006f90 <DMA_ITConfig+0x144>)
 8006e96:	429a      	cmp	r2, r3
 8006e98:	d024      	beq.n	8006ee4 <DMA_ITConfig+0x98>
 8006e9a:	68fa      	ldr	r2, [r7, #12]
 8006e9c:	4b3d      	ldr	r3, [pc, #244]	; (8006f94 <DMA_ITConfig+0x148>)
 8006e9e:	429a      	cmp	r2, r3
 8006ea0:	d020      	beq.n	8006ee4 <DMA_ITConfig+0x98>
 8006ea2:	68fa      	ldr	r2, [r7, #12]
 8006ea4:	4b3c      	ldr	r3, [pc, #240]	; (8006f98 <DMA_ITConfig+0x14c>)
 8006ea6:	429a      	cmp	r2, r3
 8006ea8:	d01c      	beq.n	8006ee4 <DMA_ITConfig+0x98>
 8006eaa:	68fa      	ldr	r2, [r7, #12]
 8006eac:	4b3b      	ldr	r3, [pc, #236]	; (8006f9c <DMA_ITConfig+0x150>)
 8006eae:	429a      	cmp	r2, r3
 8006eb0:	d018      	beq.n	8006ee4 <DMA_ITConfig+0x98>
 8006eb2:	68fa      	ldr	r2, [r7, #12]
 8006eb4:	4b3a      	ldr	r3, [pc, #232]	; (8006fa0 <DMA_ITConfig+0x154>)
 8006eb6:	429a      	cmp	r2, r3
 8006eb8:	d014      	beq.n	8006ee4 <DMA_ITConfig+0x98>
 8006eba:	68fa      	ldr	r2, [r7, #12]
 8006ebc:	4b39      	ldr	r3, [pc, #228]	; (8006fa4 <DMA_ITConfig+0x158>)
 8006ebe:	429a      	cmp	r2, r3
 8006ec0:	d010      	beq.n	8006ee4 <DMA_ITConfig+0x98>
 8006ec2:	68fa      	ldr	r2, [r7, #12]
 8006ec4:	4b38      	ldr	r3, [pc, #224]	; (8006fa8 <DMA_ITConfig+0x15c>)
 8006ec6:	429a      	cmp	r2, r3
 8006ec8:	d00c      	beq.n	8006ee4 <DMA_ITConfig+0x98>
 8006eca:	68fa      	ldr	r2, [r7, #12]
 8006ecc:	4b37      	ldr	r3, [pc, #220]	; (8006fac <DMA_ITConfig+0x160>)
 8006ece:	429a      	cmp	r2, r3
 8006ed0:	d008      	beq.n	8006ee4 <DMA_ITConfig+0x98>
 8006ed2:	68fa      	ldr	r2, [r7, #12]
 8006ed4:	4b36      	ldr	r3, [pc, #216]	; (8006fb0 <DMA_ITConfig+0x164>)
 8006ed6:	429a      	cmp	r2, r3
 8006ed8:	d004      	beq.n	8006ee4 <DMA_ITConfig+0x98>
 8006eda:	4836      	ldr	r0, [pc, #216]	; (8006fb4 <DMA_ITConfig+0x168>)
 8006edc:	f240 414f 	movw	r1, #1103	; 0x44f
 8006ee0:	f7fc fb3a 	bl	8003558 <assert_failed>
  assert_param(IS_DMA_CONFIG_IT(DMA_IT));
 8006ee4:	68bb      	ldr	r3, [r7, #8]
 8006ee6:	f023 039e 	bic.w	r3, r3, #158	; 0x9e
 8006eea:	2b00      	cmp	r3, #0
 8006eec:	d102      	bne.n	8006ef4 <DMA_ITConfig+0xa8>
 8006eee:	68bb      	ldr	r3, [r7, #8]
 8006ef0:	2b00      	cmp	r3, #0
 8006ef2:	d104      	bne.n	8006efe <DMA_ITConfig+0xb2>
 8006ef4:	482f      	ldr	r0, [pc, #188]	; (8006fb4 <DMA_ITConfig+0x168>)
 8006ef6:	f44f 618a 	mov.w	r1, #1104	; 0x450
 8006efa:	f7fc fb2d 	bl	8003558 <assert_failed>
  assert_param(IS_FUNCTIONAL_STATE(NewState));
 8006efe:	79fb      	ldrb	r3, [r7, #7]
 8006f00:	2b00      	cmp	r3, #0
 8006f02:	d007      	beq.n	8006f14 <DMA_ITConfig+0xc8>
 8006f04:	79fb      	ldrb	r3, [r7, #7]
 8006f06:	2b01      	cmp	r3, #1
 8006f08:	d004      	beq.n	8006f14 <DMA_ITConfig+0xc8>
 8006f0a:	482a      	ldr	r0, [pc, #168]	; (8006fb4 <DMA_ITConfig+0x168>)
 8006f0c:	f240 4151 	movw	r1, #1105	; 0x451
 8006f10:	f7fc fb22 	bl	8003558 <assert_failed>

  /* Check if the DMA_IT parameter contains a FIFO interrupt */
  if ((DMA_IT & DMA_IT_FE) != 0)
 8006f14:	68bb      	ldr	r3, [r7, #8]
 8006f16:	f003 0380 	and.w	r3, r3, #128	; 0x80
 8006f1a:	2b00      	cmp	r3, #0
 8006f1c:	d00f      	beq.n	8006f3e <DMA_ITConfig+0xf2>
  {
    if (NewState != DISABLE)
 8006f1e:	79fb      	ldrb	r3, [r7, #7]
 8006f20:	2b00      	cmp	r3, #0
 8006f22:	d006      	beq.n	8006f32 <DMA_ITConfig+0xe6>
    {
      /* Enable the selected DMA FIFO interrupts */
      DMAy_Streamx->FCR |= (uint32_t)DMA_IT_FE;
 8006f24:	68fb      	ldr	r3, [r7, #12]
 8006f26:	695b      	ldr	r3, [r3, #20]
 8006f28:	f043 0280 	orr.w	r2, r3, #128	; 0x80
 8006f2c:	68fb      	ldr	r3, [r7, #12]
 8006f2e:	615a      	str	r2, [r3, #20]
 8006f30:	e005      	b.n	8006f3e <DMA_ITConfig+0xf2>
    }    
    else 
    {
      /* Disable the selected DMA FIFO interrupts */
      DMAy_Streamx->FCR &= ~(uint32_t)DMA_IT_FE;  
 8006f32:	68fb      	ldr	r3, [r7, #12]
 8006f34:	695b      	ldr	r3, [r3, #20]
 8006f36:	f023 0280 	bic.w	r2, r3, #128	; 0x80
 8006f3a:	68fb      	ldr	r3, [r7, #12]
 8006f3c:	615a      	str	r2, [r3, #20]
    }
  }

  /* Check if the DMA_IT parameter contains a Transfer interrupt */
  if (DMA_IT != DMA_IT_FE)
 8006f3e:	68bb      	ldr	r3, [r7, #8]
 8006f40:	2b80      	cmp	r3, #128	; 0x80
 8006f42:	d014      	beq.n	8006f6e <DMA_ITConfig+0x122>
  {
    if (NewState != DISABLE)
 8006f44:	79fb      	ldrb	r3, [r7, #7]
 8006f46:	2b00      	cmp	r3, #0
 8006f48:	d008      	beq.n	8006f5c <DMA_ITConfig+0x110>
    {
      /* Enable the selected DMA transfer interrupts */
      DMAy_Streamx->CR |= (uint32_t)(DMA_IT  & TRANSFER_IT_ENABLE_MASK);
 8006f4a:	68fb      	ldr	r3, [r7, #12]
 8006f4c:	681a      	ldr	r2, [r3, #0]
 8006f4e:	68bb      	ldr	r3, [r7, #8]
 8006f50:	f003 031e 	and.w	r3, r3, #30
 8006f54:	431a      	orrs	r2, r3
 8006f56:	68fb      	ldr	r3, [r7, #12]
 8006f58:	601a      	str	r2, [r3, #0]
 8006f5a:	e008      	b.n	8006f6e <DMA_ITConfig+0x122>
    }
    else
    {
      /* Disable the selected DMA transfer interrupts */
      DMAy_Streamx->CR &= ~(uint32_t)(DMA_IT & TRANSFER_IT_ENABLE_MASK);
 8006f5c:	68fb      	ldr	r3, [r7, #12]
 8006f5e:	681a      	ldr	r2, [r3, #0]
 8006f60:	68bb      	ldr	r3, [r7, #8]
 8006f62:	f003 031e 	and.w	r3, r3, #30
 8006f66:	43db      	mvns	r3, r3
 8006f68:	401a      	ands	r2, r3
 8006f6a:	68fb      	ldr	r3, [r7, #12]
 8006f6c:	601a      	str	r2, [r3, #0]
    }    
  }
}
 8006f6e:	3710      	adds	r7, #16
 8006f70:	46bd      	mov	sp, r7
 8006f72:	bd80      	pop	{r7, pc}
 8006f74:	40026010 	.word	0x40026010
 8006f78:	40026028 	.word	0x40026028
 8006f7c:	40026040 	.word	0x40026040
 8006f80:	40026058 	.word	0x40026058
 8006f84:	40026070 	.word	0x40026070
 8006f88:	40026088 	.word	0x40026088
 8006f8c:	400260a0 	.word	0x400260a0
 8006f90:	400260b8 	.word	0x400260b8
 8006f94:	40026410 	.word	0x40026410
 8006f98:	40026428 	.word	0x40026428
 8006f9c:	40026440 	.word	0x40026440
 8006fa0:	40026458 	.word	0x40026458
 8006fa4:	40026470 	.word	0x40026470
 8006fa8:	40026488 	.word	0x40026488
 8006fac:	400264a0 	.word	0x400264a0
 8006fb0:	400264b8 	.word	0x400264b8
 8006fb4:	080097f0 	.word	0x080097f0

08006fb8 <DMA_GetITStatus>:
  *            @arg DMA_IT_FEIFx:  Streamx FIFO error interrupt
  *         Where x can be 0 to 7 to select the DMA Stream.
  * @retval The new state of DMA_IT (SET or RESET).
  */
ITStatus DMA_GetITStatus(DMA_Stream_TypeDef* DMAy_Streamx, uint32_t DMA_IT)
{
 8006fb8:	b580      	push	{r7, lr}
 8006fba:	b086      	sub	sp, #24
 8006fbc:	af00      	add	r7, sp, #0
 8006fbe:	6078      	str	r0, [r7, #4]
 8006fc0:	6039      	str	r1, [r7, #0]
  ITStatus bitstatus = RESET;
 8006fc2:	2300      	movs	r3, #0
 8006fc4:	75fb      	strb	r3, [r7, #23]
  DMA_TypeDef* DMAy;
  uint32_t tmpreg = 0, enablestatus = 0;
 8006fc6:	2300      	movs	r3, #0
 8006fc8:	60fb      	str	r3, [r7, #12]
 8006fca:	2300      	movs	r3, #0
 8006fcc:	60bb      	str	r3, [r7, #8]

  /* Check the parameters */
  assert_param(IS_DMA_ALL_PERIPH(DMAy_Streamx));
 8006fce:	687a      	ldr	r2, [r7, #4]
 8006fd0:	4b97      	ldr	r3, [pc, #604]	; (8007230 <DMA_GetITStatus+0x278>)
 8006fd2:	429a      	cmp	r2, r3
 8006fd4:	d040      	beq.n	8007058 <DMA_GetITStatus+0xa0>
 8006fd6:	687a      	ldr	r2, [r7, #4]
 8006fd8:	4b96      	ldr	r3, [pc, #600]	; (8007234 <DMA_GetITStatus+0x27c>)
 8006fda:	429a      	cmp	r2, r3
 8006fdc:	d03c      	beq.n	8007058 <DMA_GetITStatus+0xa0>
 8006fde:	687a      	ldr	r2, [r7, #4]
 8006fe0:	4b95      	ldr	r3, [pc, #596]	; (8007238 <DMA_GetITStatus+0x280>)
 8006fe2:	429a      	cmp	r2, r3
 8006fe4:	d038      	beq.n	8007058 <DMA_GetITStatus+0xa0>
 8006fe6:	687a      	ldr	r2, [r7, #4]
 8006fe8:	4b94      	ldr	r3, [pc, #592]	; (800723c <DMA_GetITStatus+0x284>)
 8006fea:	429a      	cmp	r2, r3
 8006fec:	d034      	beq.n	8007058 <DMA_GetITStatus+0xa0>
 8006fee:	687a      	ldr	r2, [r7, #4]
 8006ff0:	4b93      	ldr	r3, [pc, #588]	; (8007240 <DMA_GetITStatus+0x288>)
 8006ff2:	429a      	cmp	r2, r3
 8006ff4:	d030      	beq.n	8007058 <DMA_GetITStatus+0xa0>
 8006ff6:	687a      	ldr	r2, [r7, #4]
 8006ff8:	4b92      	ldr	r3, [pc, #584]	; (8007244 <DMA_GetITStatus+0x28c>)
 8006ffa:	429a      	cmp	r2, r3
 8006ffc:	d02c      	beq.n	8007058 <DMA_GetITStatus+0xa0>
 8006ffe:	687a      	ldr	r2, [r7, #4]
 8007000:	4b91      	ldr	r3, [pc, #580]	; (8007248 <DMA_GetITStatus+0x290>)
 8007002:	429a      	cmp	r2, r3
 8007004:	d028      	beq.n	8007058 <DMA_GetITStatus+0xa0>
 8007006:	687a      	ldr	r2, [r7, #4]
 8007008:	4b90      	ldr	r3, [pc, #576]	; (800724c <DMA_GetITStatus+0x294>)
 800700a:	429a      	cmp	r2, r3
 800700c:	d024      	beq.n	8007058 <DMA_GetITStatus+0xa0>
 800700e:	687a      	ldr	r2, [r7, #4]
 8007010:	4b8f      	ldr	r3, [pc, #572]	; (8007250 <DMA_GetITStatus+0x298>)
 8007012:	429a      	cmp	r2, r3
 8007014:	d020      	beq.n	8007058 <DMA_GetITStatus+0xa0>
 8007016:	687a      	ldr	r2, [r7, #4]
 8007018:	4b8e      	ldr	r3, [pc, #568]	; (8007254 <DMA_GetITStatus+0x29c>)
 800701a:	429a      	cmp	r2, r3
 800701c:	d01c      	beq.n	8007058 <DMA_GetITStatus+0xa0>
 800701e:	687a      	ldr	r2, [r7, #4]
 8007020:	4b8d      	ldr	r3, [pc, #564]	; (8007258 <DMA_GetITStatus+0x2a0>)
 8007022:	429a      	cmp	r2, r3
 8007024:	d018      	beq.n	8007058 <DMA_GetITStatus+0xa0>
 8007026:	687a      	ldr	r2, [r7, #4]
 8007028:	4b8c      	ldr	r3, [pc, #560]	; (800725c <DMA_GetITStatus+0x2a4>)
 800702a:	429a      	cmp	r2, r3
 800702c:	d014      	beq.n	8007058 <DMA_GetITStatus+0xa0>
 800702e:	687a      	ldr	r2, [r7, #4]
 8007030:	4b8b      	ldr	r3, [pc, #556]	; (8007260 <DMA_GetITStatus+0x2a8>)
 8007032:	429a      	cmp	r2, r3
 8007034:	d010      	beq.n	8007058 <DMA_GetITStatus+0xa0>
 8007036:	687a      	ldr	r2, [r7, #4]
 8007038:	4b8a      	ldr	r3, [pc, #552]	; (8007264 <DMA_GetITStatus+0x2ac>)
 800703a:	429a      	cmp	r2, r3
 800703c:	d00c      	beq.n	8007058 <DMA_GetITStatus+0xa0>
 800703e:	687a      	ldr	r2, [r7, #4]
 8007040:	4b89      	ldr	r3, [pc, #548]	; (8007268 <DMA_GetITStatus+0x2b0>)
 8007042:	429a      	cmp	r2, r3
 8007044:	d008      	beq.n	8007058 <DMA_GetITStatus+0xa0>
 8007046:	687a      	ldr	r2, [r7, #4]
 8007048:	4b88      	ldr	r3, [pc, #544]	; (800726c <DMA_GetITStatus+0x2b4>)
 800704a:	429a      	cmp	r2, r3
 800704c:	d004      	beq.n	8007058 <DMA_GetITStatus+0xa0>
 800704e:	4888      	ldr	r0, [pc, #544]	; (8007270 <DMA_GetITStatus+0x2b8>)
 8007050:	f240 4187 	movw	r1, #1159	; 0x487
 8007054:	f7fc fa80 	bl	8003558 <assert_failed>
  assert_param(IS_DMA_GET_IT(DMA_IT));
 8007058:	683a      	ldr	r2, [r7, #0]
 800705a:	4b86      	ldr	r3, [pc, #536]	; (8007274 <DMA_GetITStatus+0x2bc>)
 800705c:	429a      	cmp	r2, r3
 800705e:	f000 80a9 	beq.w	80071b4 <DMA_GetITStatus+0x1fc>
 8007062:	683a      	ldr	r2, [r7, #0]
 8007064:	4b84      	ldr	r3, [pc, #528]	; (8007278 <DMA_GetITStatus+0x2c0>)
 8007066:	429a      	cmp	r2, r3
 8007068:	f000 80a4 	beq.w	80071b4 <DMA_GetITStatus+0x1fc>
 800706c:	683a      	ldr	r2, [r7, #0]
 800706e:	4b83      	ldr	r3, [pc, #524]	; (800727c <DMA_GetITStatus+0x2c4>)
 8007070:	429a      	cmp	r2, r3
 8007072:	f000 809f 	beq.w	80071b4 <DMA_GetITStatus+0x1fc>
 8007076:	683a      	ldr	r2, [r7, #0]
 8007078:	4b81      	ldr	r3, [pc, #516]	; (8007280 <DMA_GetITStatus+0x2c8>)
 800707a:	429a      	cmp	r2, r3
 800707c:	f000 809a 	beq.w	80071b4 <DMA_GetITStatus+0x1fc>
 8007080:	683a      	ldr	r2, [r7, #0]
 8007082:	4b80      	ldr	r3, [pc, #512]	; (8007284 <DMA_GetITStatus+0x2cc>)
 8007084:	429a      	cmp	r2, r3
 8007086:	f000 8095 	beq.w	80071b4 <DMA_GetITStatus+0x1fc>
 800708a:	683a      	ldr	r2, [r7, #0]
 800708c:	4b7e      	ldr	r3, [pc, #504]	; (8007288 <DMA_GetITStatus+0x2d0>)
 800708e:	429a      	cmp	r2, r3
 8007090:	f000 8090 	beq.w	80071b4 <DMA_GetITStatus+0x1fc>
 8007094:	683a      	ldr	r2, [r7, #0]
 8007096:	4b7d      	ldr	r3, [pc, #500]	; (800728c <DMA_GetITStatus+0x2d4>)
 8007098:	429a      	cmp	r2, r3
 800709a:	f000 808b 	beq.w	80071b4 <DMA_GetITStatus+0x1fc>
 800709e:	683a      	ldr	r2, [r7, #0]
 80070a0:	4b7b      	ldr	r3, [pc, #492]	; (8007290 <DMA_GetITStatus+0x2d8>)
 80070a2:	429a      	cmp	r2, r3
 80070a4:	f000 8086 	beq.w	80071b4 <DMA_GetITStatus+0x1fc>
 80070a8:	683a      	ldr	r2, [r7, #0]
 80070aa:	4b7a      	ldr	r3, [pc, #488]	; (8007294 <DMA_GetITStatus+0x2dc>)
 80070ac:	429a      	cmp	r2, r3
 80070ae:	f000 8081 	beq.w	80071b4 <DMA_GetITStatus+0x1fc>
 80070b2:	683a      	ldr	r2, [r7, #0]
 80070b4:	4b78      	ldr	r3, [pc, #480]	; (8007298 <DMA_GetITStatus+0x2e0>)
 80070b6:	429a      	cmp	r2, r3
 80070b8:	d07c      	beq.n	80071b4 <DMA_GetITStatus+0x1fc>
 80070ba:	683a      	ldr	r2, [r7, #0]
 80070bc:	4b77      	ldr	r3, [pc, #476]	; (800729c <DMA_GetITStatus+0x2e4>)
 80070be:	429a      	cmp	r2, r3
 80070c0:	d078      	beq.n	80071b4 <DMA_GetITStatus+0x1fc>
 80070c2:	683a      	ldr	r2, [r7, #0]
 80070c4:	4b76      	ldr	r3, [pc, #472]	; (80072a0 <DMA_GetITStatus+0x2e8>)
 80070c6:	429a      	cmp	r2, r3
 80070c8:	d074      	beq.n	80071b4 <DMA_GetITStatus+0x1fc>
 80070ca:	683a      	ldr	r2, [r7, #0]
 80070cc:	4b75      	ldr	r3, [pc, #468]	; (80072a4 <DMA_GetITStatus+0x2ec>)
 80070ce:	429a      	cmp	r2, r3
 80070d0:	d070      	beq.n	80071b4 <DMA_GetITStatus+0x1fc>
 80070d2:	683a      	ldr	r2, [r7, #0]
 80070d4:	4b74      	ldr	r3, [pc, #464]	; (80072a8 <DMA_GetITStatus+0x2f0>)
 80070d6:	429a      	cmp	r2, r3
 80070d8:	d06c      	beq.n	80071b4 <DMA_GetITStatus+0x1fc>
 80070da:	683a      	ldr	r2, [r7, #0]
 80070dc:	4b73      	ldr	r3, [pc, #460]	; (80072ac <DMA_GetITStatus+0x2f4>)
 80070de:	429a      	cmp	r2, r3
 80070e0:	d068      	beq.n	80071b4 <DMA_GetITStatus+0x1fc>
 80070e2:	683a      	ldr	r2, [r7, #0]
 80070e4:	4b72      	ldr	r3, [pc, #456]	; (80072b0 <DMA_GetITStatus+0x2f8>)
 80070e6:	429a      	cmp	r2, r3
 80070e8:	d064      	beq.n	80071b4 <DMA_GetITStatus+0x1fc>
 80070ea:	683a      	ldr	r2, [r7, #0]
 80070ec:	4b71      	ldr	r3, [pc, #452]	; (80072b4 <DMA_GetITStatus+0x2fc>)
 80070ee:	429a      	cmp	r2, r3
 80070f0:	d060      	beq.n	80071b4 <DMA_GetITStatus+0x1fc>
 80070f2:	683a      	ldr	r2, [r7, #0]
 80070f4:	4b70      	ldr	r3, [pc, #448]	; (80072b8 <DMA_GetITStatus+0x300>)
 80070f6:	429a      	cmp	r2, r3
 80070f8:	d05c      	beq.n	80071b4 <DMA_GetITStatus+0x1fc>
 80070fa:	683a      	ldr	r2, [r7, #0]
 80070fc:	4b6f      	ldr	r3, [pc, #444]	; (80072bc <DMA_GetITStatus+0x304>)
 80070fe:	429a      	cmp	r2, r3
 8007100:	d058      	beq.n	80071b4 <DMA_GetITStatus+0x1fc>
 8007102:	683a      	ldr	r2, [r7, #0]
 8007104:	4b6e      	ldr	r3, [pc, #440]	; (80072c0 <DMA_GetITStatus+0x308>)
 8007106:	429a      	cmp	r2, r3
 8007108:	d054      	beq.n	80071b4 <DMA_GetITStatus+0x1fc>
 800710a:	683a      	ldr	r2, [r7, #0]
 800710c:	4b6d      	ldr	r3, [pc, #436]	; (80072c4 <DMA_GetITStatus+0x30c>)
 800710e:	429a      	cmp	r2, r3
 8007110:	d050      	beq.n	80071b4 <DMA_GetITStatus+0x1fc>
 8007112:	683a      	ldr	r2, [r7, #0]
 8007114:	4b6c      	ldr	r3, [pc, #432]	; (80072c8 <DMA_GetITStatus+0x310>)
 8007116:	429a      	cmp	r2, r3
 8007118:	d04c      	beq.n	80071b4 <DMA_GetITStatus+0x1fc>
 800711a:	683a      	ldr	r2, [r7, #0]
 800711c:	4b6b      	ldr	r3, [pc, #428]	; (80072cc <DMA_GetITStatus+0x314>)
 800711e:	429a      	cmp	r2, r3
 8007120:	d048      	beq.n	80071b4 <DMA_GetITStatus+0x1fc>
 8007122:	683a      	ldr	r2, [r7, #0]
 8007124:	4b6a      	ldr	r3, [pc, #424]	; (80072d0 <DMA_GetITStatus+0x318>)
 8007126:	429a      	cmp	r2, r3
 8007128:	d044      	beq.n	80071b4 <DMA_GetITStatus+0x1fc>
 800712a:	683a      	ldr	r2, [r7, #0]
 800712c:	4b69      	ldr	r3, [pc, #420]	; (80072d4 <DMA_GetITStatus+0x31c>)
 800712e:	429a      	cmp	r2, r3
 8007130:	d040      	beq.n	80071b4 <DMA_GetITStatus+0x1fc>
 8007132:	683a      	ldr	r2, [r7, #0]
 8007134:	4b68      	ldr	r3, [pc, #416]	; (80072d8 <DMA_GetITStatus+0x320>)
 8007136:	429a      	cmp	r2, r3
 8007138:	d03c      	beq.n	80071b4 <DMA_GetITStatus+0x1fc>
 800713a:	683a      	ldr	r2, [r7, #0]
 800713c:	4b67      	ldr	r3, [pc, #412]	; (80072dc <DMA_GetITStatus+0x324>)
 800713e:	429a      	cmp	r2, r3
 8007140:	d038      	beq.n	80071b4 <DMA_GetITStatus+0x1fc>
 8007142:	683a      	ldr	r2, [r7, #0]
 8007144:	4b66      	ldr	r3, [pc, #408]	; (80072e0 <DMA_GetITStatus+0x328>)
 8007146:	429a      	cmp	r2, r3
 8007148:	d034      	beq.n	80071b4 <DMA_GetITStatus+0x1fc>
 800714a:	683a      	ldr	r2, [r7, #0]
 800714c:	4b65      	ldr	r3, [pc, #404]	; (80072e4 <DMA_GetITStatus+0x32c>)
 800714e:	429a      	cmp	r2, r3
 8007150:	d030      	beq.n	80071b4 <DMA_GetITStatus+0x1fc>
 8007152:	683a      	ldr	r2, [r7, #0]
 8007154:	4b64      	ldr	r3, [pc, #400]	; (80072e8 <DMA_GetITStatus+0x330>)
 8007156:	429a      	cmp	r2, r3
 8007158:	d02c      	beq.n	80071b4 <DMA_GetITStatus+0x1fc>
 800715a:	683a      	ldr	r2, [r7, #0]
 800715c:	4b63      	ldr	r3, [pc, #396]	; (80072ec <DMA_GetITStatus+0x334>)
 800715e:	429a      	cmp	r2, r3
 8007160:	d028      	beq.n	80071b4 <DMA_GetITStatus+0x1fc>
 8007162:	683a      	ldr	r2, [r7, #0]
 8007164:	4b62      	ldr	r3, [pc, #392]	; (80072f0 <DMA_GetITStatus+0x338>)
 8007166:	429a      	cmp	r2, r3
 8007168:	d024      	beq.n	80071b4 <DMA_GetITStatus+0x1fc>
 800716a:	683a      	ldr	r2, [r7, #0]
 800716c:	4b61      	ldr	r3, [pc, #388]	; (80072f4 <DMA_GetITStatus+0x33c>)
 800716e:	429a      	cmp	r2, r3
 8007170:	d020      	beq.n	80071b4 <DMA_GetITStatus+0x1fc>
 8007172:	683a      	ldr	r2, [r7, #0]
 8007174:	4b60      	ldr	r3, [pc, #384]	; (80072f8 <DMA_GetITStatus+0x340>)
 8007176:	429a      	cmp	r2, r3
 8007178:	d01c      	beq.n	80071b4 <DMA_GetITStatus+0x1fc>
 800717a:	683a      	ldr	r2, [r7, #0]
 800717c:	4b5f      	ldr	r3, [pc, #380]	; (80072fc <DMA_GetITStatus+0x344>)
 800717e:	429a      	cmp	r2, r3
 8007180:	d018      	beq.n	80071b4 <DMA_GetITStatus+0x1fc>
 8007182:	683a      	ldr	r2, [r7, #0]
 8007184:	4b5e      	ldr	r3, [pc, #376]	; (8007300 <DMA_GetITStatus+0x348>)
 8007186:	429a      	cmp	r2, r3
 8007188:	d014      	beq.n	80071b4 <DMA_GetITStatus+0x1fc>
 800718a:	683a      	ldr	r2, [r7, #0]
 800718c:	4b5d      	ldr	r3, [pc, #372]	; (8007304 <DMA_GetITStatus+0x34c>)
 800718e:	429a      	cmp	r2, r3
 8007190:	d010      	beq.n	80071b4 <DMA_GetITStatus+0x1fc>
 8007192:	683a      	ldr	r2, [r7, #0]
 8007194:	4b5c      	ldr	r3, [pc, #368]	; (8007308 <DMA_GetITStatus+0x350>)
 8007196:	429a      	cmp	r2, r3
 8007198:	d00c      	beq.n	80071b4 <DMA_GetITStatus+0x1fc>
 800719a:	683a      	ldr	r2, [r7, #0]
 800719c:	4b5b      	ldr	r3, [pc, #364]	; (800730c <DMA_GetITStatus+0x354>)
 800719e:	429a      	cmp	r2, r3
 80071a0:	d008      	beq.n	80071b4 <DMA_GetITStatus+0x1fc>
 80071a2:	683a      	ldr	r2, [r7, #0]
 80071a4:	4b5a      	ldr	r3, [pc, #360]	; (8007310 <DMA_GetITStatus+0x358>)
 80071a6:	429a      	cmp	r2, r3
 80071a8:	d004      	beq.n	80071b4 <DMA_GetITStatus+0x1fc>
 80071aa:	4831      	ldr	r0, [pc, #196]	; (8007270 <DMA_GetITStatus+0x2b8>)
 80071ac:	f44f 6191 	mov.w	r1, #1160	; 0x488
 80071b0:	f7fc f9d2 	bl	8003558 <assert_failed>
 
  /* Determine the DMA to which belongs the stream */
  if (DMAy_Streamx < DMA2_Stream0)
 80071b4:	687a      	ldr	r2, [r7, #4]
 80071b6:	4b57      	ldr	r3, [pc, #348]	; (8007314 <DMA_GetITStatus+0x35c>)
 80071b8:	429a      	cmp	r2, r3
 80071ba:	d802      	bhi.n	80071c2 <DMA_GetITStatus+0x20a>
  {
    /* DMAy_Streamx belongs to DMA1 */
    DMAy = DMA1; 
 80071bc:	4b56      	ldr	r3, [pc, #344]	; (8007318 <DMA_GetITStatus+0x360>)
 80071be:	613b      	str	r3, [r7, #16]
 80071c0:	e001      	b.n	80071c6 <DMA_GetITStatus+0x20e>
  } 
  else 
  {
    /* DMAy_Streamx belongs to DMA2 */
    DMAy = DMA2; 
 80071c2:	4b56      	ldr	r3, [pc, #344]	; (800731c <DMA_GetITStatus+0x364>)
 80071c4:	613b      	str	r3, [r7, #16]
  }

  /* Check if the interrupt enable bit is in the CR or FCR register */
  if ((DMA_IT & TRANSFER_IT_MASK) != (uint32_t)RESET)
 80071c6:	683b      	ldr	r3, [r7, #0]
 80071c8:	f023 23f0 	bic.w	r3, r3, #4026593280	; 0xf000f000
 80071cc:	f023 13c3 	bic.w	r3, r3, #12779715	; 0xc300c3
 80071d0:	2b00      	cmp	r3, #0
 80071d2:	d00a      	beq.n	80071ea <DMA_GetITStatus+0x232>
  {
    /* Get the interrupt enable position mask in CR register */
    tmpreg = (uint32_t)((DMA_IT >> 11) & TRANSFER_IT_ENABLE_MASK);   
 80071d4:	683b      	ldr	r3, [r7, #0]
 80071d6:	0adb      	lsrs	r3, r3, #11
 80071d8:	f003 031e 	and.w	r3, r3, #30
 80071dc:	60fb      	str	r3, [r7, #12]
    
    /* Check the enable bit in CR register */
    enablestatus = (uint32_t)(DMAy_Streamx->CR & tmpreg);
 80071de:	687b      	ldr	r3, [r7, #4]
 80071e0:	681a      	ldr	r2, [r3, #0]
 80071e2:	68fb      	ldr	r3, [r7, #12]
 80071e4:	4013      	ands	r3, r2
 80071e6:	60bb      	str	r3, [r7, #8]
 80071e8:	e004      	b.n	80071f4 <DMA_GetITStatus+0x23c>
  }
  else 
  {
    /* Check the enable bit in FCR register */
    enablestatus = (uint32_t)(DMAy_Streamx->FCR & DMA_IT_FE); 
 80071ea:	687b      	ldr	r3, [r7, #4]
 80071ec:	695b      	ldr	r3, [r3, #20]
 80071ee:	f003 0380 	and.w	r3, r3, #128	; 0x80
 80071f2:	60bb      	str	r3, [r7, #8]
  }
 
  /* Check if the interrupt pending flag is in LISR or HISR */
  if ((DMA_IT & HIGH_ISR_MASK) != (uint32_t)RESET)
 80071f4:	683b      	ldr	r3, [r7, #0]
 80071f6:	f003 5300 	and.w	r3, r3, #536870912	; 0x20000000
 80071fa:	2b00      	cmp	r3, #0
 80071fc:	d003      	beq.n	8007206 <DMA_GetITStatus+0x24e>
  {
    /* Get DMAy HISR register value */
    tmpreg = DMAy->HISR ;
 80071fe:	693b      	ldr	r3, [r7, #16]
 8007200:	685b      	ldr	r3, [r3, #4]
 8007202:	60fb      	str	r3, [r7, #12]
 8007204:	e002      	b.n	800720c <DMA_GetITStatus+0x254>
  }
  else
  {
    /* Get DMAy LISR register value */
    tmpreg = DMAy->LISR ;
 8007206:	693b      	ldr	r3, [r7, #16]
 8007208:	681b      	ldr	r3, [r3, #0]
 800720a:	60fb      	str	r3, [r7, #12]
  } 

  /* mask all reserved bits */
  tmpreg &= (uint32_t)RESERVED_MASK;
 800720c:	68fb      	ldr	r3, [r7, #12]
 800720e:	f023 23f0 	bic.w	r3, r3, #4026593280	; 0xf000f000
 8007212:	f023 1382 	bic.w	r3, r3, #8519810	; 0x820082
 8007216:	60fb      	str	r3, [r7, #12]

  /* Check the status of the specified DMA interrupt */
  if (((tmpreg & DMA_IT) != (uint32_t)RESET) && (enablestatus != (uint32_t)RESET))
 8007218:	68fa      	ldr	r2, [r7, #12]
 800721a:	683b      	ldr	r3, [r7, #0]
 800721c:	4013      	ands	r3, r2
 800721e:	2b00      	cmp	r3, #0
 8007220:	d07e      	beq.n	8007320 <DMA_GetITStatus+0x368>
 8007222:	68bb      	ldr	r3, [r7, #8]
 8007224:	2b00      	cmp	r3, #0
 8007226:	d07b      	beq.n	8007320 <DMA_GetITStatus+0x368>
  {
    /* DMA_IT is set */
    bitstatus = SET;
 8007228:	2301      	movs	r3, #1
 800722a:	75fb      	strb	r3, [r7, #23]
 800722c:	e07a      	b.n	8007324 <DMA_GetITStatus+0x36c>
 800722e:	bf00      	nop
 8007230:	40026010 	.word	0x40026010
 8007234:	40026028 	.word	0x40026028
 8007238:	40026040 	.word	0x40026040
 800723c:	40026058 	.word	0x40026058
 8007240:	40026070 	.word	0x40026070
 8007244:	40026088 	.word	0x40026088
 8007248:	400260a0 	.word	0x400260a0
 800724c:	400260b8 	.word	0x400260b8
 8007250:	40026410 	.word	0x40026410
 8007254:	40026428 	.word	0x40026428
 8007258:	40026440 	.word	0x40026440
 800725c:	40026458 	.word	0x40026458
 8007260:	40026470 	.word	0x40026470
 8007264:	40026488 	.word	0x40026488
 8007268:	400264a0 	.word	0x400264a0
 800726c:	400264b8 	.word	0x400264b8
 8007270:	080097f0 	.word	0x080097f0
 8007274:	10008020 	.word	0x10008020
 8007278:	10004010 	.word	0x10004010
 800727c:	10002008 	.word	0x10002008
 8007280:	10001004 	.word	0x10001004
 8007284:	90000001 	.word	0x90000001
 8007288:	10008800 	.word	0x10008800
 800728c:	10004400 	.word	0x10004400
 8007290:	10002200 	.word	0x10002200
 8007294:	10001100 	.word	0x10001100
 8007298:	90000040 	.word	0x90000040
 800729c:	10208000 	.word	0x10208000
 80072a0:	10104000 	.word	0x10104000
 80072a4:	10082000 	.word	0x10082000
 80072a8:	10041000 	.word	0x10041000
 80072ac:	90010000 	.word	0x90010000
 80072b0:	18008000 	.word	0x18008000
 80072b4:	14004000 	.word	0x14004000
 80072b8:	12002000 	.word	0x12002000
 80072bc:	11001000 	.word	0x11001000
 80072c0:	90400000 	.word	0x90400000
 80072c4:	20008020 	.word	0x20008020
 80072c8:	20004010 	.word	0x20004010
 80072cc:	20002008 	.word	0x20002008
 80072d0:	20001004 	.word	0x20001004
 80072d4:	a0000001 	.word	0xa0000001
 80072d8:	20008800 	.word	0x20008800
 80072dc:	20004400 	.word	0x20004400
 80072e0:	20002200 	.word	0x20002200
 80072e4:	20001100 	.word	0x20001100
 80072e8:	a0000040 	.word	0xa0000040
 80072ec:	20208000 	.word	0x20208000
 80072f0:	20104000 	.word	0x20104000
 80072f4:	20082000 	.word	0x20082000
 80072f8:	20041000 	.word	0x20041000
 80072fc:	a0010000 	.word	0xa0010000
 8007300:	28008000 	.word	0x28008000
 8007304:	24004000 	.word	0x24004000
 8007308:	22002000 	.word	0x22002000
 800730c:	21001000 	.word	0x21001000
 8007310:	a0400000 	.word	0xa0400000
 8007314:	4002640f 	.word	0x4002640f
 8007318:	40026000 	.word	0x40026000
 800731c:	40026400 	.word	0x40026400
  }
  else
  {
    /* DMA_IT is reset */
    bitstatus = RESET;
 8007320:	2300      	movs	r3, #0
 8007322:	75fb      	strb	r3, [r7, #23]
  }

  /* Return the DMA_IT status */
  return  bitstatus;
 8007324:	7dfb      	ldrb	r3, [r7, #23]
}
 8007326:	4618      	mov	r0, r3
 8007328:	3718      	adds	r7, #24
 800732a:	46bd      	mov	sp, r7
 800732c:	bd80      	pop	{r7, pc}
 800732e:	bf00      	nop

08007330 <DMA_ClearITPendingBit>:
  *            @arg DMA_IT_FEIFx:  Streamx FIFO error interrupt
  *         Where x can be 0 to 7 to select the DMA Stream.
  * @retval None
  */
void DMA_ClearITPendingBit(DMA_Stream_TypeDef* DMAy_Streamx, uint32_t DMA_IT)
{
 8007330:	b580      	push	{r7, lr}
 8007332:	b084      	sub	sp, #16
 8007334:	af00      	add	r7, sp, #0
 8007336:	6078      	str	r0, [r7, #4]
 8007338:	6039      	str	r1, [r7, #0]
  DMA_TypeDef* DMAy;

  /* Check the parameters */
  assert_param(IS_DMA_ALL_PERIPH(DMAy_Streamx));
 800733a:	687a      	ldr	r2, [r7, #4]
 800733c:	4b3d      	ldr	r3, [pc, #244]	; (8007434 <DMA_ClearITPendingBit+0x104>)
 800733e:	429a      	cmp	r2, r3
 8007340:	d040      	beq.n	80073c4 <DMA_ClearITPendingBit+0x94>
 8007342:	687a      	ldr	r2, [r7, #4]
 8007344:	4b3c      	ldr	r3, [pc, #240]	; (8007438 <DMA_ClearITPendingBit+0x108>)
 8007346:	429a      	cmp	r2, r3
 8007348:	d03c      	beq.n	80073c4 <DMA_ClearITPendingBit+0x94>
 800734a:	687a      	ldr	r2, [r7, #4]
 800734c:	4b3b      	ldr	r3, [pc, #236]	; (800743c <DMA_ClearITPendingBit+0x10c>)
 800734e:	429a      	cmp	r2, r3
 8007350:	d038      	beq.n	80073c4 <DMA_ClearITPendingBit+0x94>
 8007352:	687a      	ldr	r2, [r7, #4]
 8007354:	4b3a      	ldr	r3, [pc, #232]	; (8007440 <DMA_ClearITPendingBit+0x110>)
 8007356:	429a      	cmp	r2, r3
 8007358:	d034      	beq.n	80073c4 <DMA_ClearITPendingBit+0x94>
 800735a:	687a      	ldr	r2, [r7, #4]
 800735c:	4b39      	ldr	r3, [pc, #228]	; (8007444 <DMA_ClearITPendingBit+0x114>)
 800735e:	429a      	cmp	r2, r3
 8007360:	d030      	beq.n	80073c4 <DMA_ClearITPendingBit+0x94>
 8007362:	687a      	ldr	r2, [r7, #4]
 8007364:	4b38      	ldr	r3, [pc, #224]	; (8007448 <DMA_ClearITPendingBit+0x118>)
 8007366:	429a      	cmp	r2, r3
 8007368:	d02c      	beq.n	80073c4 <DMA_ClearITPendingBit+0x94>
 800736a:	687a      	ldr	r2, [r7, #4]
 800736c:	4b37      	ldr	r3, [pc, #220]	; (800744c <DMA_ClearITPendingBit+0x11c>)
 800736e:	429a      	cmp	r2, r3
 8007370:	d028      	beq.n	80073c4 <DMA_ClearITPendingBit+0x94>
 8007372:	687a      	ldr	r2, [r7, #4]
 8007374:	4b36      	ldr	r3, [pc, #216]	; (8007450 <DMA_ClearITPendingBit+0x120>)
 8007376:	429a      	cmp	r2, r3
 8007378:	d024      	beq.n	80073c4 <DMA_ClearITPendingBit+0x94>
 800737a:	687a      	ldr	r2, [r7, #4]
 800737c:	4b35      	ldr	r3, [pc, #212]	; (8007454 <DMA_ClearITPendingBit+0x124>)
 800737e:	429a      	cmp	r2, r3
 8007380:	d020      	beq.n	80073c4 <DMA_ClearITPendingBit+0x94>
 8007382:	687a      	ldr	r2, [r7, #4]
 8007384:	4b34      	ldr	r3, [pc, #208]	; (8007458 <DMA_ClearITPendingBit+0x128>)
 8007386:	429a      	cmp	r2, r3
 8007388:	d01c      	beq.n	80073c4 <DMA_ClearITPendingBit+0x94>
 800738a:	687a      	ldr	r2, [r7, #4]
 800738c:	4b33      	ldr	r3, [pc, #204]	; (800745c <DMA_ClearITPendingBit+0x12c>)
 800738e:	429a      	cmp	r2, r3
 8007390:	d018      	beq.n	80073c4 <DMA_ClearITPendingBit+0x94>
 8007392:	687a      	ldr	r2, [r7, #4]
 8007394:	4b32      	ldr	r3, [pc, #200]	; (8007460 <DMA_ClearITPendingBit+0x130>)
 8007396:	429a      	cmp	r2, r3
 8007398:	d014      	beq.n	80073c4 <DMA_ClearITPendingBit+0x94>
 800739a:	687a      	ldr	r2, [r7, #4]
 800739c:	4b31      	ldr	r3, [pc, #196]	; (8007464 <DMA_ClearITPendingBit+0x134>)
 800739e:	429a      	cmp	r2, r3
 80073a0:	d010      	beq.n	80073c4 <DMA_ClearITPendingBit+0x94>
 80073a2:	687a      	ldr	r2, [r7, #4]
 80073a4:	4b30      	ldr	r3, [pc, #192]	; (8007468 <DMA_ClearITPendingBit+0x138>)
 80073a6:	429a      	cmp	r2, r3
 80073a8:	d00c      	beq.n	80073c4 <DMA_ClearITPendingBit+0x94>
 80073aa:	687a      	ldr	r2, [r7, #4]
 80073ac:	4b2f      	ldr	r3, [pc, #188]	; (800746c <DMA_ClearITPendingBit+0x13c>)
 80073ae:	429a      	cmp	r2, r3
 80073b0:	d008      	beq.n	80073c4 <DMA_ClearITPendingBit+0x94>
 80073b2:	687a      	ldr	r2, [r7, #4]
 80073b4:	4b2e      	ldr	r3, [pc, #184]	; (8007470 <DMA_ClearITPendingBit+0x140>)
 80073b6:	429a      	cmp	r2, r3
 80073b8:	d004      	beq.n	80073c4 <DMA_ClearITPendingBit+0x94>
 80073ba:	482e      	ldr	r0, [pc, #184]	; (8007474 <DMA_ClearITPendingBit+0x144>)
 80073bc:	f240 41d7 	movw	r1, #1239	; 0x4d7
 80073c0:	f7fc f8ca 	bl	8003558 <assert_failed>
  assert_param(IS_DMA_CLEAR_IT(DMA_IT));
 80073c4:	683b      	ldr	r3, [r7, #0]
 80073c6:	f003 5340 	and.w	r3, r3, #805306368	; 0x30000000
 80073ca:	f1b3 5f40 	cmp.w	r3, #805306368	; 0x30000000
 80073ce:	d00c      	beq.n	80073ea <DMA_ClearITPendingBit+0xba>
 80073d0:	683b      	ldr	r3, [r7, #0]
 80073d2:	f003 5340 	and.w	r3, r3, #805306368	; 0x30000000
 80073d6:	2b00      	cmp	r3, #0
 80073d8:	d007      	beq.n	80073ea <DMA_ClearITPendingBit+0xba>
 80073da:	683b      	ldr	r3, [r7, #0]
 80073dc:	2b00      	cmp	r3, #0
 80073de:	d004      	beq.n	80073ea <DMA_ClearITPendingBit+0xba>
 80073e0:	683a      	ldr	r2, [r7, #0]
 80073e2:	4b25      	ldr	r3, [pc, #148]	; (8007478 <DMA_ClearITPendingBit+0x148>)
 80073e4:	4013      	ands	r3, r2
 80073e6:	2b00      	cmp	r3, #0
 80073e8:	d004      	beq.n	80073f4 <DMA_ClearITPendingBit+0xc4>
 80073ea:	4822      	ldr	r0, [pc, #136]	; (8007474 <DMA_ClearITPendingBit+0x144>)
 80073ec:	f44f 619b 	mov.w	r1, #1240	; 0x4d8
 80073f0:	f7fc f8b2 	bl	8003558 <assert_failed>

  /* Determine the DMA to which belongs the stream */
  if (DMAy_Streamx < DMA2_Stream0)
 80073f4:	687a      	ldr	r2, [r7, #4]
 80073f6:	4b21      	ldr	r3, [pc, #132]	; (800747c <DMA_ClearITPendingBit+0x14c>)
 80073f8:	429a      	cmp	r2, r3
 80073fa:	d802      	bhi.n	8007402 <DMA_ClearITPendingBit+0xd2>
  {
    /* DMAy_Streamx belongs to DMA1 */
    DMAy = DMA1; 
 80073fc:	4b20      	ldr	r3, [pc, #128]	; (8007480 <DMA_ClearITPendingBit+0x150>)
 80073fe:	60fb      	str	r3, [r7, #12]
 8007400:	e001      	b.n	8007406 <DMA_ClearITPendingBit+0xd6>
  } 
  else 
  {
    /* DMAy_Streamx belongs to DMA2 */
    DMAy = DMA2; 
 8007402:	4b20      	ldr	r3, [pc, #128]	; (8007484 <DMA_ClearITPendingBit+0x154>)
 8007404:	60fb      	str	r3, [r7, #12]
  }

  /* Check if LIFCR or HIFCR register is targeted */
  if ((DMA_IT & HIGH_ISR_MASK) != (uint32_t)RESET)
 8007406:	683b      	ldr	r3, [r7, #0]
 8007408:	f003 5300 	and.w	r3, r3, #536870912	; 0x20000000
 800740c:	2b00      	cmp	r3, #0
 800740e:	d007      	beq.n	8007420 <DMA_ClearITPendingBit+0xf0>
  {
    /* Set DMAy HIFCR register clear interrupt bits */
    DMAy->HIFCR = (uint32_t)(DMA_IT & RESERVED_MASK);
 8007410:	683b      	ldr	r3, [r7, #0]
 8007412:	f023 23f0 	bic.w	r3, r3, #4026593280	; 0xf000f000
 8007416:	f023 1382 	bic.w	r3, r3, #8519810	; 0x820082
 800741a:	68fa      	ldr	r2, [r7, #12]
 800741c:	60d3      	str	r3, [r2, #12]
 800741e:	e006      	b.n	800742e <DMA_ClearITPendingBit+0xfe>
  }
  else 
  {
    /* Set DMAy LIFCR register clear interrupt bits */
    DMAy->LIFCR = (uint32_t)(DMA_IT & RESERVED_MASK);
 8007420:	683b      	ldr	r3, [r7, #0]
 8007422:	f023 23f0 	bic.w	r3, r3, #4026593280	; 0xf000f000
 8007426:	f023 1382 	bic.w	r3, r3, #8519810	; 0x820082
 800742a:	68fa      	ldr	r2, [r7, #12]
 800742c:	6093      	str	r3, [r2, #8]
  }   
}
 800742e:	3710      	adds	r7, #16
 8007430:	46bd      	mov	sp, r7
 8007432:	bd80      	pop	{r7, pc}
 8007434:	40026010 	.word	0x40026010
 8007438:	40026028 	.word	0x40026028
 800743c:	40026040 	.word	0x40026040
 8007440:	40026058 	.word	0x40026058
 8007444:	40026070 	.word	0x40026070
 8007448:	40026088 	.word	0x40026088
 800744c:	400260a0 	.word	0x400260a0
 8007450:	400260b8 	.word	0x400260b8
 8007454:	40026410 	.word	0x40026410
 8007458:	40026428 	.word	0x40026428
 800745c:	40026440 	.word	0x40026440
 8007460:	40026458 	.word	0x40026458
 8007464:	40026470 	.word	0x40026470
 8007468:	40026488 	.word	0x40026488
 800746c:	400264a0 	.word	0x400264a0
 8007470:	400264b8 	.word	0x400264b8
 8007474:	080097f0 	.word	0x080097f0
 8007478:	40820082 	.word	0x40820082
 800747c:	4002640f 	.word	0x4002640f
 8007480:	40026000 	.word	0x40026000
 8007484:	40026400 	.word	0x40026400

08007488 <EXTI_Init>:
  * @param  EXTI_InitStruct: pointer to a EXTI_InitTypeDef structure
  *         that contains the configuration information for the EXTI peripheral.
  * @retval None
  */
void EXTI_Init(EXTI_InitTypeDef* EXTI_InitStruct)
{
 8007488:	b580      	push	{r7, lr}
 800748a:	b084      	sub	sp, #16
 800748c:	af00      	add	r7, sp, #0
 800748e:	6078      	str	r0, [r7, #4]
  uint32_t tmp = 0;
 8007490:	2300      	movs	r3, #0
 8007492:	60fb      	str	r3, [r7, #12]

  /* Check the parameters */
  assert_param(IS_EXTI_MODE(EXTI_InitStruct->EXTI_Mode));
 8007494:	687b      	ldr	r3, [r7, #4]
 8007496:	791b      	ldrb	r3, [r3, #4]
 8007498:	2b00      	cmp	r3, #0
 800749a:	d007      	beq.n	80074ac <EXTI_Init+0x24>
 800749c:	687b      	ldr	r3, [r7, #4]
 800749e:	791b      	ldrb	r3, [r3, #4]
 80074a0:	2b04      	cmp	r3, #4
 80074a2:	d003      	beq.n	80074ac <EXTI_Init+0x24>
 80074a4:	4848      	ldr	r0, [pc, #288]	; (80075c8 <EXTI_Init+0x140>)
 80074a6:	217c      	movs	r1, #124	; 0x7c
 80074a8:	f7fc f856 	bl	8003558 <assert_failed>
  assert_param(IS_EXTI_TRIGGER(EXTI_InitStruct->EXTI_Trigger));
 80074ac:	687b      	ldr	r3, [r7, #4]
 80074ae:	795b      	ldrb	r3, [r3, #5]
 80074b0:	2b08      	cmp	r3, #8
 80074b2:	d00b      	beq.n	80074cc <EXTI_Init+0x44>
 80074b4:	687b      	ldr	r3, [r7, #4]
 80074b6:	795b      	ldrb	r3, [r3, #5]
 80074b8:	2b0c      	cmp	r3, #12
 80074ba:	d007      	beq.n	80074cc <EXTI_Init+0x44>
 80074bc:	687b      	ldr	r3, [r7, #4]
 80074be:	795b      	ldrb	r3, [r3, #5]
 80074c0:	2b10      	cmp	r3, #16
 80074c2:	d003      	beq.n	80074cc <EXTI_Init+0x44>
 80074c4:	4840      	ldr	r0, [pc, #256]	; (80075c8 <EXTI_Init+0x140>)
 80074c6:	217d      	movs	r1, #125	; 0x7d
 80074c8:	f7fc f846 	bl	8003558 <assert_failed>
  assert_param(IS_EXTI_LINE(EXTI_InitStruct->EXTI_Line));  
 80074cc:	687b      	ldr	r3, [r7, #4]
 80074ce:	681b      	ldr	r3, [r3, #0]
 80074d0:	0ddb      	lsrs	r3, r3, #23
 80074d2:	05db      	lsls	r3, r3, #23
 80074d4:	2b00      	cmp	r3, #0
 80074d6:	d103      	bne.n	80074e0 <EXTI_Init+0x58>
 80074d8:	687b      	ldr	r3, [r7, #4]
 80074da:	681b      	ldr	r3, [r3, #0]
 80074dc:	2b00      	cmp	r3, #0
 80074de:	d103      	bne.n	80074e8 <EXTI_Init+0x60>
 80074e0:	4839      	ldr	r0, [pc, #228]	; (80075c8 <EXTI_Init+0x140>)
 80074e2:	217e      	movs	r1, #126	; 0x7e
 80074e4:	f7fc f838 	bl	8003558 <assert_failed>
  assert_param(IS_FUNCTIONAL_STATE(EXTI_InitStruct->EXTI_LineCmd));
 80074e8:	687b      	ldr	r3, [r7, #4]
 80074ea:	799b      	ldrb	r3, [r3, #6]
 80074ec:	2b00      	cmp	r3, #0
 80074ee:	d007      	beq.n	8007500 <EXTI_Init+0x78>
 80074f0:	687b      	ldr	r3, [r7, #4]
 80074f2:	799b      	ldrb	r3, [r3, #6]
 80074f4:	2b01      	cmp	r3, #1
 80074f6:	d003      	beq.n	8007500 <EXTI_Init+0x78>
 80074f8:	4833      	ldr	r0, [pc, #204]	; (80075c8 <EXTI_Init+0x140>)
 80074fa:	217f      	movs	r1, #127	; 0x7f
 80074fc:	f7fc f82c 	bl	8003558 <assert_failed>

  tmp = (uint32_t)EXTI_BASE;
 8007500:	4b32      	ldr	r3, [pc, #200]	; (80075cc <EXTI_Init+0x144>)
 8007502:	60fb      	str	r3, [r7, #12]
     
  if (EXTI_InitStruct->EXTI_LineCmd != DISABLE)
 8007504:	687b      	ldr	r3, [r7, #4]
 8007506:	799b      	ldrb	r3, [r3, #6]
 8007508:	2b00      	cmp	r3, #0
 800750a:	d04d      	beq.n	80075a8 <EXTI_Init+0x120>
  {
    /* Clear EXTI line configuration */
    EXTI->IMR &= ~EXTI_InitStruct->EXTI_Line;
 800750c:	4b2f      	ldr	r3, [pc, #188]	; (80075cc <EXTI_Init+0x144>)
 800750e:	4a2f      	ldr	r2, [pc, #188]	; (80075cc <EXTI_Init+0x144>)
 8007510:	6811      	ldr	r1, [r2, #0]
 8007512:	687a      	ldr	r2, [r7, #4]
 8007514:	6812      	ldr	r2, [r2, #0]
 8007516:	43d2      	mvns	r2, r2
 8007518:	400a      	ands	r2, r1
 800751a:	601a      	str	r2, [r3, #0]
    EXTI->EMR &= ~EXTI_InitStruct->EXTI_Line;
 800751c:	4b2b      	ldr	r3, [pc, #172]	; (80075cc <EXTI_Init+0x144>)
 800751e:	4a2b      	ldr	r2, [pc, #172]	; (80075cc <EXTI_Init+0x144>)
 8007520:	6851      	ldr	r1, [r2, #4]
 8007522:	687a      	ldr	r2, [r7, #4]
 8007524:	6812      	ldr	r2, [r2, #0]
 8007526:	43d2      	mvns	r2, r2
 8007528:	400a      	ands	r2, r1
 800752a:	605a      	str	r2, [r3, #4]
    
    tmp += EXTI_InitStruct->EXTI_Mode;
 800752c:	687b      	ldr	r3, [r7, #4]
 800752e:	791b      	ldrb	r3, [r3, #4]
 8007530:	68fa      	ldr	r2, [r7, #12]
 8007532:	4413      	add	r3, r2
 8007534:	60fb      	str	r3, [r7, #12]

    *(__IO uint32_t *) tmp |= EXTI_InitStruct->EXTI_Line;
 8007536:	68fb      	ldr	r3, [r7, #12]
 8007538:	68fa      	ldr	r2, [r7, #12]
 800753a:	6811      	ldr	r1, [r2, #0]
 800753c:	687a      	ldr	r2, [r7, #4]
 800753e:	6812      	ldr	r2, [r2, #0]
 8007540:	430a      	orrs	r2, r1
 8007542:	601a      	str	r2, [r3, #0]

    /* Clear Rising Falling edge configuration */
    EXTI->RTSR &= ~EXTI_InitStruct->EXTI_Line;
 8007544:	4b21      	ldr	r3, [pc, #132]	; (80075cc <EXTI_Init+0x144>)
 8007546:	4a21      	ldr	r2, [pc, #132]	; (80075cc <EXTI_Init+0x144>)
 8007548:	6891      	ldr	r1, [r2, #8]
 800754a:	687a      	ldr	r2, [r7, #4]
 800754c:	6812      	ldr	r2, [r2, #0]
 800754e:	43d2      	mvns	r2, r2
 8007550:	400a      	ands	r2, r1
 8007552:	609a      	str	r2, [r3, #8]
    EXTI->FTSR &= ~EXTI_InitStruct->EXTI_Line;
 8007554:	4b1d      	ldr	r3, [pc, #116]	; (80075cc <EXTI_Init+0x144>)
 8007556:	4a1d      	ldr	r2, [pc, #116]	; (80075cc <EXTI_Init+0x144>)
 8007558:	68d1      	ldr	r1, [r2, #12]
 800755a:	687a      	ldr	r2, [r7, #4]
 800755c:	6812      	ldr	r2, [r2, #0]
 800755e:	43d2      	mvns	r2, r2
 8007560:	400a      	ands	r2, r1
 8007562:	60da      	str	r2, [r3, #12]
    
    /* Select the trigger for the selected external interrupts */
    if (EXTI_InitStruct->EXTI_Trigger == EXTI_Trigger_Rising_Falling)
 8007564:	687b      	ldr	r3, [r7, #4]
 8007566:	795b      	ldrb	r3, [r3, #5]
 8007568:	2b10      	cmp	r3, #16
 800756a:	d10e      	bne.n	800758a <EXTI_Init+0x102>
    {
      /* Rising Falling edge */
      EXTI->RTSR |= EXTI_InitStruct->EXTI_Line;
 800756c:	4b17      	ldr	r3, [pc, #92]	; (80075cc <EXTI_Init+0x144>)
 800756e:	4a17      	ldr	r2, [pc, #92]	; (80075cc <EXTI_Init+0x144>)
 8007570:	6891      	ldr	r1, [r2, #8]
 8007572:	687a      	ldr	r2, [r7, #4]
 8007574:	6812      	ldr	r2, [r2, #0]
 8007576:	430a      	orrs	r2, r1
 8007578:	609a      	str	r2, [r3, #8]
      EXTI->FTSR |= EXTI_InitStruct->EXTI_Line;
 800757a:	4b14      	ldr	r3, [pc, #80]	; (80075cc <EXTI_Init+0x144>)
 800757c:	4a13      	ldr	r2, [pc, #76]	; (80075cc <EXTI_Init+0x144>)
 800757e:	68d1      	ldr	r1, [r2, #12]
 8007580:	687a      	ldr	r2, [r7, #4]
 8007582:	6812      	ldr	r2, [r2, #0]
 8007584:	430a      	orrs	r2, r1
 8007586:	60da      	str	r2, [r3, #12]
 8007588:	e01b      	b.n	80075c2 <EXTI_Init+0x13a>
    }
    else
    {
      tmp = (uint32_t)EXTI_BASE;
 800758a:	4b10      	ldr	r3, [pc, #64]	; (80075cc <EXTI_Init+0x144>)
 800758c:	60fb      	str	r3, [r7, #12]
      tmp += EXTI_InitStruct->EXTI_Trigger;
 800758e:	687b      	ldr	r3, [r7, #4]
 8007590:	795b      	ldrb	r3, [r3, #5]
 8007592:	68fa      	ldr	r2, [r7, #12]
 8007594:	4413      	add	r3, r2
 8007596:	60fb      	str	r3, [r7, #12]

      *(__IO uint32_t *) tmp |= EXTI_InitStruct->EXTI_Line;
 8007598:	68fb      	ldr	r3, [r7, #12]
 800759a:	68fa      	ldr	r2, [r7, #12]
 800759c:	6811      	ldr	r1, [r2, #0]
 800759e:	687a      	ldr	r2, [r7, #4]
 80075a0:	6812      	ldr	r2, [r2, #0]
 80075a2:	430a      	orrs	r2, r1
 80075a4:	601a      	str	r2, [r3, #0]
 80075a6:	e00c      	b.n	80075c2 <EXTI_Init+0x13a>
    }
  }
  else
  {
    tmp += EXTI_InitStruct->EXTI_Mode;
 80075a8:	687b      	ldr	r3, [r7, #4]
 80075aa:	791b      	ldrb	r3, [r3, #4]
 80075ac:	68fa      	ldr	r2, [r7, #12]
 80075ae:	4413      	add	r3, r2
 80075b0:	60fb      	str	r3, [r7, #12]

    /* Disable the selected external lines */
    *(__IO uint32_t *) tmp &= ~EXTI_InitStruct->EXTI_Line;
 80075b2:	68fb      	ldr	r3, [r7, #12]
 80075b4:	68fa      	ldr	r2, [r7, #12]
 80075b6:	6811      	ldr	r1, [r2, #0]
 80075b8:	687a      	ldr	r2, [r7, #4]
 80075ba:	6812      	ldr	r2, [r2, #0]
 80075bc:	43d2      	mvns	r2, r2
 80075be:	400a      	ands	r2, r1
 80075c0:	601a      	str	r2, [r3, #0]
  }
}
 80075c2:	3710      	adds	r7, #16
 80075c4:	46bd      	mov	sp, r7
 80075c6:	bd80      	pop	{r7, pc}
 80075c8:	08009840 	.word	0x08009840
 80075cc:	40013c00 	.word	0x40013c00

080075d0 <EXTI_ClearFlag>:
  * @param  EXTI_Line: specifies the EXTI lines flags to clear.
  *          This parameter can be any combination of EXTI_Linex where x can be (0..22)
  * @retval None
  */
void EXTI_ClearFlag(uint32_t EXTI_Line)
{
 80075d0:	b580      	push	{r7, lr}
 80075d2:	b082      	sub	sp, #8
 80075d4:	af00      	add	r7, sp, #0
 80075d6:	6078      	str	r0, [r7, #4]
  /* Check the parameters */
  assert_param(IS_EXTI_LINE(EXTI_Line));
 80075d8:	687b      	ldr	r3, [r7, #4]
 80075da:	0ddb      	lsrs	r3, r3, #23
 80075dc:	05db      	lsls	r3, r3, #23
 80075de:	2b00      	cmp	r3, #0
 80075e0:	d102      	bne.n	80075e8 <EXTI_ClearFlag+0x18>
 80075e2:	687b      	ldr	r3, [r7, #4]
 80075e4:	2b00      	cmp	r3, #0
 80075e6:	d103      	bne.n	80075f0 <EXTI_ClearFlag+0x20>
 80075e8:	4804      	ldr	r0, [pc, #16]	; (80075fc <EXTI_ClearFlag+0x2c>)
 80075ea:	21f6      	movs	r1, #246	; 0xf6
 80075ec:	f7fb ffb4 	bl	8003558 <assert_failed>
  
  EXTI->PR = EXTI_Line;
 80075f0:	4b03      	ldr	r3, [pc, #12]	; (8007600 <EXTI_ClearFlag+0x30>)
 80075f2:	687a      	ldr	r2, [r7, #4]
 80075f4:	615a      	str	r2, [r3, #20]
}
 80075f6:	3708      	adds	r7, #8
 80075f8:	46bd      	mov	sp, r7
 80075fa:	bd80      	pop	{r7, pc}
 80075fc:	08009840 	.word	0x08009840
 8007600:	40013c00 	.word	0x40013c00

08007604 <EXTI_GetITStatus>:
  * @param  EXTI_Line: specifies the EXTI line to check.
  *          This parameter can be EXTI_Linex where x can be(0..22)
  * @retval The new state of EXTI_Line (SET or RESET).
  */
ITStatus EXTI_GetITStatus(uint32_t EXTI_Line)
{
 8007604:	b580      	push	{r7, lr}
 8007606:	b084      	sub	sp, #16
 8007608:	af00      	add	r7, sp, #0
 800760a:	6078      	str	r0, [r7, #4]
  ITStatus bitstatus = RESET;
 800760c:	2300      	movs	r3, #0
 800760e:	73fb      	strb	r3, [r7, #15]
  uint32_t enablestatus = 0;
 8007610:	2300      	movs	r3, #0
 8007612:	60bb      	str	r3, [r7, #8]
  /* Check the parameters */
  assert_param(IS_GET_EXTI_LINE(EXTI_Line));
 8007614:	687b      	ldr	r3, [r7, #4]
 8007616:	2b01      	cmp	r3, #1
 8007618:	d055      	beq.n	80076c6 <EXTI_GetITStatus+0xc2>
 800761a:	687b      	ldr	r3, [r7, #4]
 800761c:	2b02      	cmp	r3, #2
 800761e:	d052      	beq.n	80076c6 <EXTI_GetITStatus+0xc2>
 8007620:	687b      	ldr	r3, [r7, #4]
 8007622:	2b04      	cmp	r3, #4
 8007624:	d04f      	beq.n	80076c6 <EXTI_GetITStatus+0xc2>
 8007626:	687b      	ldr	r3, [r7, #4]
 8007628:	2b08      	cmp	r3, #8
 800762a:	d04c      	beq.n	80076c6 <EXTI_GetITStatus+0xc2>
 800762c:	687b      	ldr	r3, [r7, #4]
 800762e:	2b10      	cmp	r3, #16
 8007630:	d049      	beq.n	80076c6 <EXTI_GetITStatus+0xc2>
 8007632:	687b      	ldr	r3, [r7, #4]
 8007634:	2b20      	cmp	r3, #32
 8007636:	d046      	beq.n	80076c6 <EXTI_GetITStatus+0xc2>
 8007638:	687b      	ldr	r3, [r7, #4]
 800763a:	2b40      	cmp	r3, #64	; 0x40
 800763c:	d043      	beq.n	80076c6 <EXTI_GetITStatus+0xc2>
 800763e:	687b      	ldr	r3, [r7, #4]
 8007640:	2b80      	cmp	r3, #128	; 0x80
 8007642:	d040      	beq.n	80076c6 <EXTI_GetITStatus+0xc2>
 8007644:	687b      	ldr	r3, [r7, #4]
 8007646:	f5b3 7f80 	cmp.w	r3, #256	; 0x100
 800764a:	d03c      	beq.n	80076c6 <EXTI_GetITStatus+0xc2>
 800764c:	687b      	ldr	r3, [r7, #4]
 800764e:	f5b3 7f00 	cmp.w	r3, #512	; 0x200
 8007652:	d038      	beq.n	80076c6 <EXTI_GetITStatus+0xc2>
 8007654:	687b      	ldr	r3, [r7, #4]
 8007656:	f5b3 6f80 	cmp.w	r3, #1024	; 0x400
 800765a:	d034      	beq.n	80076c6 <EXTI_GetITStatus+0xc2>
 800765c:	687b      	ldr	r3, [r7, #4]
 800765e:	f5b3 6f00 	cmp.w	r3, #2048	; 0x800
 8007662:	d030      	beq.n	80076c6 <EXTI_GetITStatus+0xc2>
 8007664:	687b      	ldr	r3, [r7, #4]
 8007666:	f5b3 5f80 	cmp.w	r3, #4096	; 0x1000
 800766a:	d02c      	beq.n	80076c6 <EXTI_GetITStatus+0xc2>
 800766c:	687b      	ldr	r3, [r7, #4]
 800766e:	f5b3 5f00 	cmp.w	r3, #8192	; 0x2000
 8007672:	d028      	beq.n	80076c6 <EXTI_GetITStatus+0xc2>
 8007674:	687b      	ldr	r3, [r7, #4]
 8007676:	f5b3 4f80 	cmp.w	r3, #16384	; 0x4000
 800767a:	d024      	beq.n	80076c6 <EXTI_GetITStatus+0xc2>
 800767c:	687b      	ldr	r3, [r7, #4]
 800767e:	f5b3 4f00 	cmp.w	r3, #32768	; 0x8000
 8007682:	d020      	beq.n	80076c6 <EXTI_GetITStatus+0xc2>
 8007684:	687b      	ldr	r3, [r7, #4]
 8007686:	f5b3 3f80 	cmp.w	r3, #65536	; 0x10000
 800768a:	d01c      	beq.n	80076c6 <EXTI_GetITStatus+0xc2>
 800768c:	687b      	ldr	r3, [r7, #4]
 800768e:	f5b3 3f00 	cmp.w	r3, #131072	; 0x20000
 8007692:	d018      	beq.n	80076c6 <EXTI_GetITStatus+0xc2>
 8007694:	687b      	ldr	r3, [r7, #4]
 8007696:	f5b3 2f80 	cmp.w	r3, #262144	; 0x40000
 800769a:	d014      	beq.n	80076c6 <EXTI_GetITStatus+0xc2>
 800769c:	687b      	ldr	r3, [r7, #4]
 800769e:	f5b3 2f00 	cmp.w	r3, #524288	; 0x80000
 80076a2:	d010      	beq.n	80076c6 <EXTI_GetITStatus+0xc2>
 80076a4:	687b      	ldr	r3, [r7, #4]
 80076a6:	f5b3 1f80 	cmp.w	r3, #1048576	; 0x100000
 80076aa:	d00c      	beq.n	80076c6 <EXTI_GetITStatus+0xc2>
 80076ac:	687b      	ldr	r3, [r7, #4]
 80076ae:	f5b3 1f00 	cmp.w	r3, #2097152	; 0x200000
 80076b2:	d008      	beq.n	80076c6 <EXTI_GetITStatus+0xc2>
 80076b4:	687b      	ldr	r3, [r7, #4]
 80076b6:	f5b3 0f80 	cmp.w	r3, #4194304	; 0x400000
 80076ba:	d004      	beq.n	80076c6 <EXTI_GetITStatus+0xc2>
 80076bc:	480e      	ldr	r0, [pc, #56]	; (80076f8 <EXTI_GetITStatus+0xf4>)
 80076be:	f44f 7183 	mov.w	r1, #262	; 0x106
 80076c2:	f7fb ff49 	bl	8003558 <assert_failed>
  
  enablestatus =  EXTI->IMR & EXTI_Line;
 80076c6:	4b0d      	ldr	r3, [pc, #52]	; (80076fc <EXTI_GetITStatus+0xf8>)
 80076c8:	681a      	ldr	r2, [r3, #0]
 80076ca:	687b      	ldr	r3, [r7, #4]
 80076cc:	4013      	ands	r3, r2
 80076ce:	60bb      	str	r3, [r7, #8]
  if (((EXTI->PR & EXTI_Line) != (uint32_t)RESET) && (enablestatus != (uint32_t)RESET))
 80076d0:	4b0a      	ldr	r3, [pc, #40]	; (80076fc <EXTI_GetITStatus+0xf8>)
 80076d2:	695a      	ldr	r2, [r3, #20]
 80076d4:	687b      	ldr	r3, [r7, #4]
 80076d6:	4013      	ands	r3, r2
 80076d8:	2b00      	cmp	r3, #0
 80076da:	d005      	beq.n	80076e8 <EXTI_GetITStatus+0xe4>
 80076dc:	68bb      	ldr	r3, [r7, #8]
 80076de:	2b00      	cmp	r3, #0
 80076e0:	d002      	beq.n	80076e8 <EXTI_GetITStatus+0xe4>
  {
    bitstatus = SET;
 80076e2:	2301      	movs	r3, #1
 80076e4:	73fb      	strb	r3, [r7, #15]
 80076e6:	e001      	b.n	80076ec <EXTI_GetITStatus+0xe8>
  }
  else
  {
    bitstatus = RESET;
 80076e8:	2300      	movs	r3, #0
 80076ea:	73fb      	strb	r3, [r7, #15]
  }
  return bitstatus;
 80076ec:	7bfb      	ldrb	r3, [r7, #15]
}
 80076ee:	4618      	mov	r0, r3
 80076f0:	3710      	adds	r7, #16
 80076f2:	46bd      	mov	sp, r7
 80076f4:	bd80      	pop	{r7, pc}
 80076f6:	bf00      	nop
 80076f8:	08009840 	.word	0x08009840
 80076fc:	40013c00 	.word	0x40013c00

08007700 <GPIO_Init>:
  * @param  GPIO_InitStruct: pointer to a GPIO_InitTypeDef structure that contains
  *         the configuration information for the specified GPIO peripheral.
  * @retval None
  */
void GPIO_Init(GPIO_TypeDef* GPIOx, GPIO_InitTypeDef* GPIO_InitStruct)
{
 8007700:	b580      	push	{r7, lr}
 8007702:	b086      	sub	sp, #24
 8007704:	af00      	add	r7, sp, #0
 8007706:	6078      	str	r0, [r7, #4]
 8007708:	6039      	str	r1, [r7, #0]
  uint32_t pinpos = 0x00, pos = 0x00 , currentpin = 0x00;
 800770a:	2300      	movs	r3, #0
 800770c:	617b      	str	r3, [r7, #20]
 800770e:	2300      	movs	r3, #0
 8007710:	613b      	str	r3, [r7, #16]
 8007712:	2300      	movs	r3, #0
 8007714:	60fb      	str	r3, [r7, #12]

  /* Check the parameters */
  assert_param(IS_GPIO_ALL_PERIPH(GPIOx));
 8007716:	687a      	ldr	r2, [r7, #4]
 8007718:	4b7a      	ldr	r3, [pc, #488]	; (8007904 <GPIO_Init+0x204>)
 800771a:	429a      	cmp	r2, r3
 800771c:	d023      	beq.n	8007766 <GPIO_Init+0x66>
 800771e:	687a      	ldr	r2, [r7, #4]
 8007720:	4b79      	ldr	r3, [pc, #484]	; (8007908 <GPIO_Init+0x208>)
 8007722:	429a      	cmp	r2, r3
 8007724:	d01f      	beq.n	8007766 <GPIO_Init+0x66>
 8007726:	687a      	ldr	r2, [r7, #4]
 8007728:	4b78      	ldr	r3, [pc, #480]	; (800790c <GPIO_Init+0x20c>)
 800772a:	429a      	cmp	r2, r3
 800772c:	d01b      	beq.n	8007766 <GPIO_Init+0x66>
 800772e:	687a      	ldr	r2, [r7, #4]
 8007730:	4b77      	ldr	r3, [pc, #476]	; (8007910 <GPIO_Init+0x210>)
 8007732:	429a      	cmp	r2, r3
 8007734:	d017      	beq.n	8007766 <GPIO_Init+0x66>
 8007736:	687a      	ldr	r2, [r7, #4]
 8007738:	4b76      	ldr	r3, [pc, #472]	; (8007914 <GPIO_Init+0x214>)
 800773a:	429a      	cmp	r2, r3
 800773c:	d013      	beq.n	8007766 <GPIO_Init+0x66>
 800773e:	687a      	ldr	r2, [r7, #4]
 8007740:	4b75      	ldr	r3, [pc, #468]	; (8007918 <GPIO_Init+0x218>)
 8007742:	429a      	cmp	r2, r3
 8007744:	d00f      	beq.n	8007766 <GPIO_Init+0x66>
 8007746:	687a      	ldr	r2, [r7, #4]
 8007748:	4b74      	ldr	r3, [pc, #464]	; (800791c <GPIO_Init+0x21c>)
 800774a:	429a      	cmp	r2, r3
 800774c:	d00b      	beq.n	8007766 <GPIO_Init+0x66>
 800774e:	687a      	ldr	r2, [r7, #4]
 8007750:	4b73      	ldr	r3, [pc, #460]	; (8007920 <GPIO_Init+0x220>)
 8007752:	429a      	cmp	r2, r3
 8007754:	d007      	beq.n	8007766 <GPIO_Init+0x66>
 8007756:	687a      	ldr	r2, [r7, #4]
 8007758:	4b72      	ldr	r3, [pc, #456]	; (8007924 <GPIO_Init+0x224>)
 800775a:	429a      	cmp	r2, r3
 800775c:	d003      	beq.n	8007766 <GPIO_Init+0x66>
 800775e:	4872      	ldr	r0, [pc, #456]	; (8007928 <GPIO_Init+0x228>)
 8007760:	21bb      	movs	r1, #187	; 0xbb
 8007762:	f7fb fef9 	bl	8003558 <assert_failed>
  assert_param(IS_GPIO_PIN(GPIO_InitStruct->GPIO_Pin));
 8007766:	683b      	ldr	r3, [r7, #0]
 8007768:	681b      	ldr	r3, [r3, #0]
 800776a:	2b00      	cmp	r3, #0
 800776c:	d103      	bne.n	8007776 <GPIO_Init+0x76>
 800776e:	486e      	ldr	r0, [pc, #440]	; (8007928 <GPIO_Init+0x228>)
 8007770:	21bc      	movs	r1, #188	; 0xbc
 8007772:	f7fb fef1 	bl	8003558 <assert_failed>
  assert_param(IS_GPIO_MODE(GPIO_InitStruct->GPIO_Mode));
 8007776:	683b      	ldr	r3, [r7, #0]
 8007778:	791b      	ldrb	r3, [r3, #4]
 800777a:	2b00      	cmp	r3, #0
 800777c:	d00f      	beq.n	800779e <GPIO_Init+0x9e>
 800777e:	683b      	ldr	r3, [r7, #0]
 8007780:	791b      	ldrb	r3, [r3, #4]
 8007782:	2b01      	cmp	r3, #1
 8007784:	d00b      	beq.n	800779e <GPIO_Init+0x9e>
 8007786:	683b      	ldr	r3, [r7, #0]
 8007788:	791b      	ldrb	r3, [r3, #4]
 800778a:	2b02      	cmp	r3, #2
 800778c:	d007      	beq.n	800779e <GPIO_Init+0x9e>
 800778e:	683b      	ldr	r3, [r7, #0]
 8007790:	791b      	ldrb	r3, [r3, #4]
 8007792:	2b03      	cmp	r3, #3
 8007794:	d003      	beq.n	800779e <GPIO_Init+0x9e>
 8007796:	4864      	ldr	r0, [pc, #400]	; (8007928 <GPIO_Init+0x228>)
 8007798:	21bd      	movs	r1, #189	; 0xbd
 800779a:	f7fb fedd 	bl	8003558 <assert_failed>
  assert_param(IS_GPIO_PUPD(GPIO_InitStruct->GPIO_PuPd));
 800779e:	683b      	ldr	r3, [r7, #0]
 80077a0:	79db      	ldrb	r3, [r3, #7]
 80077a2:	2b00      	cmp	r3, #0
 80077a4:	d00b      	beq.n	80077be <GPIO_Init+0xbe>
 80077a6:	683b      	ldr	r3, [r7, #0]
 80077a8:	79db      	ldrb	r3, [r3, #7]
 80077aa:	2b01      	cmp	r3, #1
 80077ac:	d007      	beq.n	80077be <GPIO_Init+0xbe>
 80077ae:	683b      	ldr	r3, [r7, #0]
 80077b0:	79db      	ldrb	r3, [r3, #7]
 80077b2:	2b02      	cmp	r3, #2
 80077b4:	d003      	beq.n	80077be <GPIO_Init+0xbe>
 80077b6:	485c      	ldr	r0, [pc, #368]	; (8007928 <GPIO_Init+0x228>)
 80077b8:	21be      	movs	r1, #190	; 0xbe
 80077ba:	f7fb fecd 	bl	8003558 <assert_failed>

  /* -------------------------Configure the port pins---------------- */
  /*-- GPIO Mode Configuration --*/
  for (pinpos = 0x00; pinpos < 0x10; pinpos++)
 80077be:	2300      	movs	r3, #0
 80077c0:	617b      	str	r3, [r7, #20]
 80077c2:	e097      	b.n	80078f4 <GPIO_Init+0x1f4>
  {
    pos = ((uint32_t)0x01) << pinpos;
 80077c4:	697b      	ldr	r3, [r7, #20]
 80077c6:	2201      	movs	r2, #1
 80077c8:	fa02 f303 	lsl.w	r3, r2, r3
 80077cc:	613b      	str	r3, [r7, #16]
    /* Get the port pins position */
    currentpin = (GPIO_InitStruct->GPIO_Pin) & pos;
 80077ce:	683b      	ldr	r3, [r7, #0]
 80077d0:	681a      	ldr	r2, [r3, #0]
 80077d2:	693b      	ldr	r3, [r7, #16]
 80077d4:	4013      	ands	r3, r2
 80077d6:	60fb      	str	r3, [r7, #12]

    if (currentpin == pos)
 80077d8:	68fa      	ldr	r2, [r7, #12]
 80077da:	693b      	ldr	r3, [r7, #16]
 80077dc:	429a      	cmp	r2, r3
 80077de:	f040 8086 	bne.w	80078ee <GPIO_Init+0x1ee>
    {
      GPIOx->MODER  &= ~(GPIO_MODER_MODER0 << (pinpos * 2));
 80077e2:	687b      	ldr	r3, [r7, #4]
 80077e4:	681a      	ldr	r2, [r3, #0]
 80077e6:	697b      	ldr	r3, [r7, #20]
 80077e8:	005b      	lsls	r3, r3, #1
 80077ea:	2103      	movs	r1, #3
 80077ec:	fa01 f303 	lsl.w	r3, r1, r3
 80077f0:	43db      	mvns	r3, r3
 80077f2:	401a      	ands	r2, r3
 80077f4:	687b      	ldr	r3, [r7, #4]
 80077f6:	601a      	str	r2, [r3, #0]
      GPIOx->MODER |= (((uint32_t)GPIO_InitStruct->GPIO_Mode) << (pinpos * 2));
 80077f8:	687b      	ldr	r3, [r7, #4]
 80077fa:	681a      	ldr	r2, [r3, #0]
 80077fc:	683b      	ldr	r3, [r7, #0]
 80077fe:	791b      	ldrb	r3, [r3, #4]
 8007800:	4619      	mov	r1, r3
 8007802:	697b      	ldr	r3, [r7, #20]
 8007804:	005b      	lsls	r3, r3, #1
 8007806:	fa01 f303 	lsl.w	r3, r1, r3
 800780a:	431a      	orrs	r2, r3
 800780c:	687b      	ldr	r3, [r7, #4]
 800780e:	601a      	str	r2, [r3, #0]

      if ((GPIO_InitStruct->GPIO_Mode == GPIO_Mode_OUT) || (GPIO_InitStruct->GPIO_Mode == GPIO_Mode_AF))
 8007810:	683b      	ldr	r3, [r7, #0]
 8007812:	791b      	ldrb	r3, [r3, #4]
 8007814:	2b01      	cmp	r3, #1
 8007816:	d003      	beq.n	8007820 <GPIO_Init+0x120>
 8007818:	683b      	ldr	r3, [r7, #0]
 800781a:	791b      	ldrb	r3, [r3, #4]
 800781c:	2b02      	cmp	r3, #2
 800781e:	d14e      	bne.n	80078be <GPIO_Init+0x1be>
      {
        /* Check Speed mode parameters */
        assert_param(IS_GPIO_SPEED(GPIO_InitStruct->GPIO_Speed));
 8007820:	683b      	ldr	r3, [r7, #0]
 8007822:	795b      	ldrb	r3, [r3, #5]
 8007824:	2b00      	cmp	r3, #0
 8007826:	d00f      	beq.n	8007848 <GPIO_Init+0x148>
 8007828:	683b      	ldr	r3, [r7, #0]
 800782a:	795b      	ldrb	r3, [r3, #5]
 800782c:	2b01      	cmp	r3, #1
 800782e:	d00b      	beq.n	8007848 <GPIO_Init+0x148>
 8007830:	683b      	ldr	r3, [r7, #0]
 8007832:	795b      	ldrb	r3, [r3, #5]
 8007834:	2b02      	cmp	r3, #2
 8007836:	d007      	beq.n	8007848 <GPIO_Init+0x148>
 8007838:	683b      	ldr	r3, [r7, #0]
 800783a:	795b      	ldrb	r3, [r3, #5]
 800783c:	2b03      	cmp	r3, #3
 800783e:	d003      	beq.n	8007848 <GPIO_Init+0x148>
 8007840:	4839      	ldr	r0, [pc, #228]	; (8007928 <GPIO_Init+0x228>)
 8007842:	21d0      	movs	r1, #208	; 0xd0
 8007844:	f7fb fe88 	bl	8003558 <assert_failed>

        /* Speed mode configuration */
        GPIOx->OSPEEDR &= ~(GPIO_OSPEEDER_OSPEEDR0 << (pinpos * 2));
 8007848:	687b      	ldr	r3, [r7, #4]
 800784a:	689a      	ldr	r2, [r3, #8]
 800784c:	697b      	ldr	r3, [r7, #20]
 800784e:	005b      	lsls	r3, r3, #1
 8007850:	2103      	movs	r1, #3
 8007852:	fa01 f303 	lsl.w	r3, r1, r3
 8007856:	43db      	mvns	r3, r3
 8007858:	401a      	ands	r2, r3
 800785a:	687b      	ldr	r3, [r7, #4]
 800785c:	609a      	str	r2, [r3, #8]
        GPIOx->OSPEEDR |= ((uint32_t)(GPIO_InitStruct->GPIO_Speed) << (pinpos * 2));
 800785e:	687b      	ldr	r3, [r7, #4]
 8007860:	689a      	ldr	r2, [r3, #8]
 8007862:	683b      	ldr	r3, [r7, #0]
 8007864:	795b      	ldrb	r3, [r3, #5]
 8007866:	4619      	mov	r1, r3
 8007868:	697b      	ldr	r3, [r7, #20]
 800786a:	005b      	lsls	r3, r3, #1
 800786c:	fa01 f303 	lsl.w	r3, r1, r3
 8007870:	431a      	orrs	r2, r3
 8007872:	687b      	ldr	r3, [r7, #4]
 8007874:	609a      	str	r2, [r3, #8]

        /* Check Output mode parameters */
        assert_param(IS_GPIO_OTYPE(GPIO_InitStruct->GPIO_OType));
 8007876:	683b      	ldr	r3, [r7, #0]
 8007878:	799b      	ldrb	r3, [r3, #6]
 800787a:	2b00      	cmp	r3, #0
 800787c:	d007      	beq.n	800788e <GPIO_Init+0x18e>
 800787e:	683b      	ldr	r3, [r7, #0]
 8007880:	799b      	ldrb	r3, [r3, #6]
 8007882:	2b01      	cmp	r3, #1
 8007884:	d003      	beq.n	800788e <GPIO_Init+0x18e>
 8007886:	4828      	ldr	r0, [pc, #160]	; (8007928 <GPIO_Init+0x228>)
 8007888:	21d7      	movs	r1, #215	; 0xd7
 800788a:	f7fb fe65 	bl	8003558 <assert_failed>

        /* Output mode configuration*/
        GPIOx->OTYPER  &= ~((GPIO_OTYPER_OT_0) << ((uint16_t)pinpos)) ;
 800788e:	687b      	ldr	r3, [r7, #4]
 8007890:	685a      	ldr	r2, [r3, #4]
 8007892:	697b      	ldr	r3, [r7, #20]
 8007894:	b29b      	uxth	r3, r3
 8007896:	2101      	movs	r1, #1
 8007898:	fa01 f303 	lsl.w	r3, r1, r3
 800789c:	43db      	mvns	r3, r3
 800789e:	401a      	ands	r2, r3
 80078a0:	687b      	ldr	r3, [r7, #4]
 80078a2:	605a      	str	r2, [r3, #4]
        GPIOx->OTYPER |= (uint16_t)(((uint16_t)GPIO_InitStruct->GPIO_OType) << ((uint16_t)pinpos));
 80078a4:	687b      	ldr	r3, [r7, #4]
 80078a6:	685a      	ldr	r2, [r3, #4]
 80078a8:	683b      	ldr	r3, [r7, #0]
 80078aa:	799b      	ldrb	r3, [r3, #6]
 80078ac:	4619      	mov	r1, r3
 80078ae:	697b      	ldr	r3, [r7, #20]
 80078b0:	b29b      	uxth	r3, r3
 80078b2:	fa01 f303 	lsl.w	r3, r1, r3
 80078b6:	b29b      	uxth	r3, r3
 80078b8:	431a      	orrs	r2, r3
 80078ba:	687b      	ldr	r3, [r7, #4]
 80078bc:	605a      	str	r2, [r3, #4]
      }

      /* Pull-up Pull down resistor configuration*/
      GPIOx->PUPDR &= ~(GPIO_PUPDR_PUPDR0 << ((uint16_t)pinpos * 2));
 80078be:	687b      	ldr	r3, [r7, #4]
 80078c0:	68da      	ldr	r2, [r3, #12]
 80078c2:	697b      	ldr	r3, [r7, #20]
 80078c4:	b29b      	uxth	r3, r3
 80078c6:	005b      	lsls	r3, r3, #1
 80078c8:	2103      	movs	r1, #3
 80078ca:	fa01 f303 	lsl.w	r3, r1, r3
 80078ce:	43db      	mvns	r3, r3
 80078d0:	401a      	ands	r2, r3
 80078d2:	687b      	ldr	r3, [r7, #4]
 80078d4:	60da      	str	r2, [r3, #12]
      GPIOx->PUPDR |= (((uint32_t)GPIO_InitStruct->GPIO_PuPd) << (pinpos * 2));
 80078d6:	687b      	ldr	r3, [r7, #4]
 80078d8:	68da      	ldr	r2, [r3, #12]
 80078da:	683b      	ldr	r3, [r7, #0]
 80078dc:	79db      	ldrb	r3, [r3, #7]
 80078de:	4619      	mov	r1, r3
 80078e0:	697b      	ldr	r3, [r7, #20]
 80078e2:	005b      	lsls	r3, r3, #1
 80078e4:	fa01 f303 	lsl.w	r3, r1, r3
 80078e8:	431a      	orrs	r2, r3
 80078ea:	687b      	ldr	r3, [r7, #4]
 80078ec:	60da      	str	r2, [r3, #12]
  assert_param(IS_GPIO_MODE(GPIO_InitStruct->GPIO_Mode));
  assert_param(IS_GPIO_PUPD(GPIO_InitStruct->GPIO_PuPd));

  /* -------------------------Configure the port pins---------------- */
  /*-- GPIO Mode Configuration --*/
  for (pinpos = 0x00; pinpos < 0x10; pinpos++)
 80078ee:	697b      	ldr	r3, [r7, #20]
 80078f0:	3301      	adds	r3, #1
 80078f2:	617b      	str	r3, [r7, #20]
 80078f4:	697b      	ldr	r3, [r7, #20]
 80078f6:	2b0f      	cmp	r3, #15
 80078f8:	f67f af64 	bls.w	80077c4 <GPIO_Init+0xc4>
      /* Pull-up Pull down resistor configuration*/
      GPIOx->PUPDR &= ~(GPIO_PUPDR_PUPDR0 << ((uint16_t)pinpos * 2));
      GPIOx->PUPDR |= (((uint32_t)GPIO_InitStruct->GPIO_PuPd) << (pinpos * 2));
    }
  }
}
 80078fc:	3718      	adds	r7, #24
 80078fe:	46bd      	mov	sp, r7
 8007900:	bd80      	pop	{r7, pc}
 8007902:	bf00      	nop
 8007904:	40020000 	.word	0x40020000
 8007908:	40020400 	.word	0x40020400
 800790c:	40020800 	.word	0x40020800
 8007910:	40020c00 	.word	0x40020c00
 8007914:	40021000 	.word	0x40021000
 8007918:	40021400 	.word	0x40021400
 800791c:	40021800 	.word	0x40021800
 8007920:	40021c00 	.word	0x40021c00
 8007924:	40022000 	.word	0x40022000
 8007928:	08009890 	.word	0x08009890

0800792c <GPIO_PinAFConfig>:
  *            @arg GPIO_AF_DCMI: Connect DCMI pins to AF13
  *            @arg GPIO_AF_EVENTOUT: Connect EVENTOUT pins to AF15
  * @retval None
  */
void GPIO_PinAFConfig(GPIO_TypeDef* GPIOx, uint16_t GPIO_PinSource, uint8_t GPIO_AF)
{
 800792c:	b580      	push	{r7, lr}
 800792e:	b084      	sub	sp, #16
 8007930:	af00      	add	r7, sp, #0
 8007932:	6078      	str	r0, [r7, #4]
 8007934:	4613      	mov	r3, r2
 8007936:	460a      	mov	r2, r1
 8007938:	807a      	strh	r2, [r7, #2]
 800793a:	707b      	strb	r3, [r7, #1]
  uint32_t temp = 0x00;
 800793c:	2300      	movs	r3, #0
 800793e:	60fb      	str	r3, [r7, #12]
  uint32_t temp_2 = 0x00;
 8007940:	2300      	movs	r3, #0
 8007942:	60bb      	str	r3, [r7, #8]
  
  /* Check the parameters */
  assert_param(IS_GPIO_ALL_PERIPH(GPIOx));
 8007944:	687a      	ldr	r2, [r7, #4]
 8007946:	4b83      	ldr	r3, [pc, #524]	; (8007b54 <GPIO_PinAFConfig+0x228>)
 8007948:	429a      	cmp	r2, r3
 800794a:	d024      	beq.n	8007996 <GPIO_PinAFConfig+0x6a>
 800794c:	687a      	ldr	r2, [r7, #4]
 800794e:	4b82      	ldr	r3, [pc, #520]	; (8007b58 <GPIO_PinAFConfig+0x22c>)
 8007950:	429a      	cmp	r2, r3
 8007952:	d020      	beq.n	8007996 <GPIO_PinAFConfig+0x6a>
 8007954:	687a      	ldr	r2, [r7, #4]
 8007956:	4b81      	ldr	r3, [pc, #516]	; (8007b5c <GPIO_PinAFConfig+0x230>)
 8007958:	429a      	cmp	r2, r3
 800795a:	d01c      	beq.n	8007996 <GPIO_PinAFConfig+0x6a>
 800795c:	687a      	ldr	r2, [r7, #4]
 800795e:	4b80      	ldr	r3, [pc, #512]	; (8007b60 <GPIO_PinAFConfig+0x234>)
 8007960:	429a      	cmp	r2, r3
 8007962:	d018      	beq.n	8007996 <GPIO_PinAFConfig+0x6a>
 8007964:	687a      	ldr	r2, [r7, #4]
 8007966:	4b7f      	ldr	r3, [pc, #508]	; (8007b64 <GPIO_PinAFConfig+0x238>)
 8007968:	429a      	cmp	r2, r3
 800796a:	d014      	beq.n	8007996 <GPIO_PinAFConfig+0x6a>
 800796c:	687a      	ldr	r2, [r7, #4]
 800796e:	4b7e      	ldr	r3, [pc, #504]	; (8007b68 <GPIO_PinAFConfig+0x23c>)
 8007970:	429a      	cmp	r2, r3
 8007972:	d010      	beq.n	8007996 <GPIO_PinAFConfig+0x6a>
 8007974:	687a      	ldr	r2, [r7, #4]
 8007976:	4b7d      	ldr	r3, [pc, #500]	; (8007b6c <GPIO_PinAFConfig+0x240>)
 8007978:	429a      	cmp	r2, r3
 800797a:	d00c      	beq.n	8007996 <GPIO_PinAFConfig+0x6a>
 800797c:	687a      	ldr	r2, [r7, #4]
 800797e:	4b7c      	ldr	r3, [pc, #496]	; (8007b70 <GPIO_PinAFConfig+0x244>)
 8007980:	429a      	cmp	r2, r3
 8007982:	d008      	beq.n	8007996 <GPIO_PinAFConfig+0x6a>
 8007984:	687a      	ldr	r2, [r7, #4]
 8007986:	4b7b      	ldr	r3, [pc, #492]	; (8007b74 <GPIO_PinAFConfig+0x248>)
 8007988:	429a      	cmp	r2, r3
 800798a:	d004      	beq.n	8007996 <GPIO_PinAFConfig+0x6a>
 800798c:	487a      	ldr	r0, [pc, #488]	; (8007b78 <GPIO_PinAFConfig+0x24c>)
 800798e:	f240 2117 	movw	r1, #535	; 0x217
 8007992:	f7fb fde1 	bl	8003558 <assert_failed>
  assert_param(IS_GPIO_PIN_SOURCE(GPIO_PinSource));
 8007996:	887b      	ldrh	r3, [r7, #2]
 8007998:	2b00      	cmp	r3, #0
 800799a:	d031      	beq.n	8007a00 <GPIO_PinAFConfig+0xd4>
 800799c:	887b      	ldrh	r3, [r7, #2]
 800799e:	2b01      	cmp	r3, #1
 80079a0:	d02e      	beq.n	8007a00 <GPIO_PinAFConfig+0xd4>
 80079a2:	887b      	ldrh	r3, [r7, #2]
 80079a4:	2b02      	cmp	r3, #2
 80079a6:	d02b      	beq.n	8007a00 <GPIO_PinAFConfig+0xd4>
 80079a8:	887b      	ldrh	r3, [r7, #2]
 80079aa:	2b03      	cmp	r3, #3
 80079ac:	d028      	beq.n	8007a00 <GPIO_PinAFConfig+0xd4>
 80079ae:	887b      	ldrh	r3, [r7, #2]
 80079b0:	2b04      	cmp	r3, #4
 80079b2:	d025      	beq.n	8007a00 <GPIO_PinAFConfig+0xd4>
 80079b4:	887b      	ldrh	r3, [r7, #2]
 80079b6:	2b05      	cmp	r3, #5
 80079b8:	d022      	beq.n	8007a00 <GPIO_PinAFConfig+0xd4>
 80079ba:	887b      	ldrh	r3, [r7, #2]
 80079bc:	2b06      	cmp	r3, #6
 80079be:	d01f      	beq.n	8007a00 <GPIO_PinAFConfig+0xd4>
 80079c0:	887b      	ldrh	r3, [r7, #2]
 80079c2:	2b07      	cmp	r3, #7
 80079c4:	d01c      	beq.n	8007a00 <GPIO_PinAFConfig+0xd4>
 80079c6:	887b      	ldrh	r3, [r7, #2]
 80079c8:	2b08      	cmp	r3, #8
 80079ca:	d019      	beq.n	8007a00 <GPIO_PinAFConfig+0xd4>
 80079cc:	887b      	ldrh	r3, [r7, #2]
 80079ce:	2b09      	cmp	r3, #9
 80079d0:	d016      	beq.n	8007a00 <GPIO_PinAFConfig+0xd4>
 80079d2:	887b      	ldrh	r3, [r7, #2]
 80079d4:	2b0a      	cmp	r3, #10
 80079d6:	d013      	beq.n	8007a00 <GPIO_PinAFConfig+0xd4>
 80079d8:	887b      	ldrh	r3, [r7, #2]
 80079da:	2b0b      	cmp	r3, #11
 80079dc:	d010      	beq.n	8007a00 <GPIO_PinAFConfig+0xd4>
 80079de:	887b      	ldrh	r3, [r7, #2]
 80079e0:	2b0c      	cmp	r3, #12
 80079e2:	d00d      	beq.n	8007a00 <GPIO_PinAFConfig+0xd4>
 80079e4:	887b      	ldrh	r3, [r7, #2]
 80079e6:	2b0d      	cmp	r3, #13
 80079e8:	d00a      	beq.n	8007a00 <GPIO_PinAFConfig+0xd4>
 80079ea:	887b      	ldrh	r3, [r7, #2]
 80079ec:	2b0e      	cmp	r3, #14
 80079ee:	d007      	beq.n	8007a00 <GPIO_PinAFConfig+0xd4>
 80079f0:	887b      	ldrh	r3, [r7, #2]
 80079f2:	2b0f      	cmp	r3, #15
 80079f4:	d004      	beq.n	8007a00 <GPIO_PinAFConfig+0xd4>
 80079f6:	4860      	ldr	r0, [pc, #384]	; (8007b78 <GPIO_PinAFConfig+0x24c>)
 80079f8:	f44f 7106 	mov.w	r1, #536	; 0x218
 80079fc:	f7fb fdac 	bl	8003558 <assert_failed>
  assert_param(IS_GPIO_AF(GPIO_AF));
 8007a00:	787b      	ldrb	r3, [r7, #1]
 8007a02:	2b00      	cmp	r3, #0
 8007a04:	d06d      	beq.n	8007ae2 <GPIO_PinAFConfig+0x1b6>
 8007a06:	787b      	ldrb	r3, [r7, #1]
 8007a08:	2b09      	cmp	r3, #9
 8007a0a:	d06a      	beq.n	8007ae2 <GPIO_PinAFConfig+0x1b6>
 8007a0c:	787b      	ldrb	r3, [r7, #1]
 8007a0e:	2b00      	cmp	r3, #0
 8007a10:	d067      	beq.n	8007ae2 <GPIO_PinAFConfig+0x1b6>
 8007a12:	787b      	ldrb	r3, [r7, #1]
 8007a14:	2b00      	cmp	r3, #0
 8007a16:	d064      	beq.n	8007ae2 <GPIO_PinAFConfig+0x1b6>
 8007a18:	787b      	ldrb	r3, [r7, #1]
 8007a1a:	2b00      	cmp	r3, #0
 8007a1c:	d061      	beq.n	8007ae2 <GPIO_PinAFConfig+0x1b6>
 8007a1e:	787b      	ldrb	r3, [r7, #1]
 8007a20:	2b00      	cmp	r3, #0
 8007a22:	d05e      	beq.n	8007ae2 <GPIO_PinAFConfig+0x1b6>
 8007a24:	787b      	ldrb	r3, [r7, #1]
 8007a26:	2b01      	cmp	r3, #1
 8007a28:	d05b      	beq.n	8007ae2 <GPIO_PinAFConfig+0x1b6>
 8007a2a:	787b      	ldrb	r3, [r7, #1]
 8007a2c:	2b01      	cmp	r3, #1
 8007a2e:	d058      	beq.n	8007ae2 <GPIO_PinAFConfig+0x1b6>
 8007a30:	787b      	ldrb	r3, [r7, #1]
 8007a32:	2b02      	cmp	r3, #2
 8007a34:	d055      	beq.n	8007ae2 <GPIO_PinAFConfig+0x1b6>
 8007a36:	787b      	ldrb	r3, [r7, #1]
 8007a38:	2b02      	cmp	r3, #2
 8007a3a:	d052      	beq.n	8007ae2 <GPIO_PinAFConfig+0x1b6>
 8007a3c:	787b      	ldrb	r3, [r7, #1]
 8007a3e:	2b02      	cmp	r3, #2
 8007a40:	d04f      	beq.n	8007ae2 <GPIO_PinAFConfig+0x1b6>
 8007a42:	787b      	ldrb	r3, [r7, #1]
 8007a44:	2b03      	cmp	r3, #3
 8007a46:	d04c      	beq.n	8007ae2 <GPIO_PinAFConfig+0x1b6>
 8007a48:	787b      	ldrb	r3, [r7, #1]
 8007a4a:	2b04      	cmp	r3, #4
 8007a4c:	d049      	beq.n	8007ae2 <GPIO_PinAFConfig+0x1b6>
 8007a4e:	787b      	ldrb	r3, [r7, #1]
 8007a50:	2b04      	cmp	r3, #4
 8007a52:	d046      	beq.n	8007ae2 <GPIO_PinAFConfig+0x1b6>
 8007a54:	787b      	ldrb	r3, [r7, #1]
 8007a56:	2b04      	cmp	r3, #4
 8007a58:	d043      	beq.n	8007ae2 <GPIO_PinAFConfig+0x1b6>
 8007a5a:	787b      	ldrb	r3, [r7, #1]
 8007a5c:	2b05      	cmp	r3, #5
 8007a5e:	d040      	beq.n	8007ae2 <GPIO_PinAFConfig+0x1b6>
 8007a60:	787b      	ldrb	r3, [r7, #1]
 8007a62:	2b05      	cmp	r3, #5
 8007a64:	d03d      	beq.n	8007ae2 <GPIO_PinAFConfig+0x1b6>
 8007a66:	787b      	ldrb	r3, [r7, #1]
 8007a68:	2b09      	cmp	r3, #9
 8007a6a:	d03a      	beq.n	8007ae2 <GPIO_PinAFConfig+0x1b6>
 8007a6c:	787b      	ldrb	r3, [r7, #1]
 8007a6e:	2b06      	cmp	r3, #6
 8007a70:	d037      	beq.n	8007ae2 <GPIO_PinAFConfig+0x1b6>
 8007a72:	787b      	ldrb	r3, [r7, #1]
 8007a74:	2b09      	cmp	r3, #9
 8007a76:	d034      	beq.n	8007ae2 <GPIO_PinAFConfig+0x1b6>
 8007a78:	787b      	ldrb	r3, [r7, #1]
 8007a7a:	2b07      	cmp	r3, #7
 8007a7c:	d031      	beq.n	8007ae2 <GPIO_PinAFConfig+0x1b6>
 8007a7e:	787b      	ldrb	r3, [r7, #1]
 8007a80:	2b07      	cmp	r3, #7
 8007a82:	d02e      	beq.n	8007ae2 <GPIO_PinAFConfig+0x1b6>
 8007a84:	787b      	ldrb	r3, [r7, #1]
 8007a86:	2b07      	cmp	r3, #7
 8007a88:	d02b      	beq.n	8007ae2 <GPIO_PinAFConfig+0x1b6>
 8007a8a:	787b      	ldrb	r3, [r7, #1]
 8007a8c:	2b08      	cmp	r3, #8
 8007a8e:	d028      	beq.n	8007ae2 <GPIO_PinAFConfig+0x1b6>
 8007a90:	787b      	ldrb	r3, [r7, #1]
 8007a92:	2b08      	cmp	r3, #8
 8007a94:	d025      	beq.n	8007ae2 <GPIO_PinAFConfig+0x1b6>
 8007a96:	787b      	ldrb	r3, [r7, #1]
 8007a98:	2b08      	cmp	r3, #8
 8007a9a:	d022      	beq.n	8007ae2 <GPIO_PinAFConfig+0x1b6>
 8007a9c:	787b      	ldrb	r3, [r7, #1]
 8007a9e:	2b09      	cmp	r3, #9
 8007aa0:	d01f      	beq.n	8007ae2 <GPIO_PinAFConfig+0x1b6>
 8007aa2:	787b      	ldrb	r3, [r7, #1]
 8007aa4:	2b09      	cmp	r3, #9
 8007aa6:	d01c      	beq.n	8007ae2 <GPIO_PinAFConfig+0x1b6>
 8007aa8:	787b      	ldrb	r3, [r7, #1]
 8007aaa:	2b0a      	cmp	r3, #10
 8007aac:	d019      	beq.n	8007ae2 <GPIO_PinAFConfig+0x1b6>
 8007aae:	787b      	ldrb	r3, [r7, #1]
 8007ab0:	2b0a      	cmp	r3, #10
 8007ab2:	d016      	beq.n	8007ae2 <GPIO_PinAFConfig+0x1b6>
 8007ab4:	787b      	ldrb	r3, [r7, #1]
 8007ab6:	2b0b      	cmp	r3, #11
 8007ab8:	d013      	beq.n	8007ae2 <GPIO_PinAFConfig+0x1b6>
 8007aba:	787b      	ldrb	r3, [r7, #1]
 8007abc:	2b0c      	cmp	r3, #12
 8007abe:	d010      	beq.n	8007ae2 <GPIO_PinAFConfig+0x1b6>
 8007ac0:	787b      	ldrb	r3, [r7, #1]
 8007ac2:	2b0c      	cmp	r3, #12
 8007ac4:	d00d      	beq.n	8007ae2 <GPIO_PinAFConfig+0x1b6>
 8007ac6:	787b      	ldrb	r3, [r7, #1]
 8007ac8:	2b0c      	cmp	r3, #12
 8007aca:	d00a      	beq.n	8007ae2 <GPIO_PinAFConfig+0x1b6>
 8007acc:	787b      	ldrb	r3, [r7, #1]
 8007ace:	2b0d      	cmp	r3, #13
 8007ad0:	d007      	beq.n	8007ae2 <GPIO_PinAFConfig+0x1b6>
 8007ad2:	787b      	ldrb	r3, [r7, #1]
 8007ad4:	2b0f      	cmp	r3, #15
 8007ad6:	d004      	beq.n	8007ae2 <GPIO_PinAFConfig+0x1b6>
 8007ad8:	4827      	ldr	r0, [pc, #156]	; (8007b78 <GPIO_PinAFConfig+0x24c>)
 8007ada:	f240 2119 	movw	r1, #537	; 0x219
 8007ade:	f7fb fd3b 	bl	8003558 <assert_failed>
  
  temp = ((uint32_t)(GPIO_AF) << ((uint32_t)((uint32_t)GPIO_PinSource & (uint32_t)0x07) * 4)) ;
 8007ae2:	787a      	ldrb	r2, [r7, #1]
 8007ae4:	887b      	ldrh	r3, [r7, #2]
 8007ae6:	f003 0307 	and.w	r3, r3, #7
 8007aea:	009b      	lsls	r3, r3, #2
 8007aec:	fa02 f303 	lsl.w	r3, r2, r3
 8007af0:	60fb      	str	r3, [r7, #12]
  GPIOx->AFR[GPIO_PinSource >> 0x03] &= ~((uint32_t)0xF << ((uint32_t)((uint32_t)GPIO_PinSource & (uint32_t)0x07) * 4)) ;
 8007af2:	887b      	ldrh	r3, [r7, #2]
 8007af4:	08db      	lsrs	r3, r3, #3
 8007af6:	b29b      	uxth	r3, r3
 8007af8:	461a      	mov	r2, r3
 8007afa:	887b      	ldrh	r3, [r7, #2]
 8007afc:	08db      	lsrs	r3, r3, #3
 8007afe:	b29b      	uxth	r3, r3
 8007b00:	4619      	mov	r1, r3
 8007b02:	687b      	ldr	r3, [r7, #4]
 8007b04:	3108      	adds	r1, #8
 8007b06:	f853 1021 	ldr.w	r1, [r3, r1, lsl #2]
 8007b0a:	887b      	ldrh	r3, [r7, #2]
 8007b0c:	f003 0307 	and.w	r3, r3, #7
 8007b10:	009b      	lsls	r3, r3, #2
 8007b12:	200f      	movs	r0, #15
 8007b14:	fa00 f303 	lsl.w	r3, r0, r3
 8007b18:	43db      	mvns	r3, r3
 8007b1a:	4019      	ands	r1, r3
 8007b1c:	687b      	ldr	r3, [r7, #4]
 8007b1e:	3208      	adds	r2, #8
 8007b20:	f843 1022 	str.w	r1, [r3, r2, lsl #2]
  temp_2 = GPIOx->AFR[GPIO_PinSource >> 0x03] | temp;
 8007b24:	887b      	ldrh	r3, [r7, #2]
 8007b26:	08db      	lsrs	r3, r3, #3
 8007b28:	b29b      	uxth	r3, r3
 8007b2a:	461a      	mov	r2, r3
 8007b2c:	687b      	ldr	r3, [r7, #4]
 8007b2e:	3208      	adds	r2, #8
 8007b30:	f853 2022 	ldr.w	r2, [r3, r2, lsl #2]
 8007b34:	68fb      	ldr	r3, [r7, #12]
 8007b36:	4313      	orrs	r3, r2
 8007b38:	60bb      	str	r3, [r7, #8]
  GPIOx->AFR[GPIO_PinSource >> 0x03] = temp_2;
 8007b3a:	887b      	ldrh	r3, [r7, #2]
 8007b3c:	08db      	lsrs	r3, r3, #3
 8007b3e:	b29b      	uxth	r3, r3
 8007b40:	461a      	mov	r2, r3
 8007b42:	687b      	ldr	r3, [r7, #4]
 8007b44:	3208      	adds	r2, #8
 8007b46:	68b9      	ldr	r1, [r7, #8]
 8007b48:	f843 1022 	str.w	r1, [r3, r2, lsl #2]
}
 8007b4c:	3710      	adds	r7, #16
 8007b4e:	46bd      	mov	sp, r7
 8007b50:	bd80      	pop	{r7, pc}
 8007b52:	bf00      	nop
 8007b54:	40020000 	.word	0x40020000
 8007b58:	40020400 	.word	0x40020400
 8007b5c:	40020800 	.word	0x40020800
 8007b60:	40020c00 	.word	0x40020c00
 8007b64:	40021000 	.word	0x40021000
 8007b68:	40021400 	.word	0x40021400
 8007b6c:	40021800 	.word	0x40021800
 8007b70:	40021c00 	.word	0x40021c00
 8007b74:	40022000 	.word	0x40022000
 8007b78:	08009890 	.word	0x08009890

08007b7c <RCC_GetClocksFreq>:
  *         configuration based on this function will be incorrect.
  *    
  * @retval None
  */
void RCC_GetClocksFreq(RCC_ClocksTypeDef* RCC_Clocks)
{
 8007b7c:	b480      	push	{r7}
 8007b7e:	b089      	sub	sp, #36	; 0x24
 8007b80:	af00      	add	r7, sp, #0
 8007b82:	6078      	str	r0, [r7, #4]
  uint32_t tmp = 0, presc = 0, pllvco = 0, pllp = 2, pllsource = 0, pllm = 2;
 8007b84:	2300      	movs	r3, #0
 8007b86:	61bb      	str	r3, [r7, #24]
 8007b88:	2300      	movs	r3, #0
 8007b8a:	617b      	str	r3, [r7, #20]
 8007b8c:	2300      	movs	r3, #0
 8007b8e:	61fb      	str	r3, [r7, #28]
 8007b90:	2302      	movs	r3, #2
 8007b92:	613b      	str	r3, [r7, #16]
 8007b94:	2300      	movs	r3, #0
 8007b96:	60fb      	str	r3, [r7, #12]
 8007b98:	2302      	movs	r3, #2
 8007b9a:	60bb      	str	r3, [r7, #8]

  /* Get SYSCLK source -------------------------------------------------------*/
  tmp = RCC->CFGR & RCC_CFGR_SWS;
 8007b9c:	4b48      	ldr	r3, [pc, #288]	; (8007cc0 <RCC_GetClocksFreq+0x144>)
 8007b9e:	689b      	ldr	r3, [r3, #8]
 8007ba0:	f003 030c 	and.w	r3, r3, #12
 8007ba4:	61bb      	str	r3, [r7, #24]

  switch (tmp)
 8007ba6:	69bb      	ldr	r3, [r7, #24]
 8007ba8:	2b04      	cmp	r3, #4
 8007baa:	d007      	beq.n	8007bbc <RCC_GetClocksFreq+0x40>
 8007bac:	2b08      	cmp	r3, #8
 8007bae:	d009      	beq.n	8007bc4 <RCC_GetClocksFreq+0x48>
 8007bb0:	2b00      	cmp	r3, #0
 8007bb2:	d13f      	bne.n	8007c34 <RCC_GetClocksFreq+0xb8>
  {
    case 0x00:  /* HSI used as system clock source */
      RCC_Clocks->SYSCLK_Frequency = HSI_VALUE;
 8007bb4:	687b      	ldr	r3, [r7, #4]
 8007bb6:	4a43      	ldr	r2, [pc, #268]	; (8007cc4 <RCC_GetClocksFreq+0x148>)
 8007bb8:	601a      	str	r2, [r3, #0]
      break;
 8007bba:	e03f      	b.n	8007c3c <RCC_GetClocksFreq+0xc0>
    case 0x04:  /* HSE used as system clock  source */
      RCC_Clocks->SYSCLK_Frequency = HSE_VALUE;
 8007bbc:	687b      	ldr	r3, [r7, #4]
 8007bbe:	4a42      	ldr	r2, [pc, #264]	; (8007cc8 <RCC_GetClocksFreq+0x14c>)
 8007bc0:	601a      	str	r2, [r3, #0]
      break;
 8007bc2:	e03b      	b.n	8007c3c <RCC_GetClocksFreq+0xc0>
    case 0x08:  /* PLL used as system clock  source */

      /* PLL_VCO = (HSE_VALUE or HSI_VALUE / PLLM) * PLLN
         SYSCLK = PLL_VCO / PLLP
         */    
      pllsource = (RCC->PLLCFGR & RCC_PLLCFGR_PLLSRC) >> 22;
 8007bc4:	4b3e      	ldr	r3, [pc, #248]	; (8007cc0 <RCC_GetClocksFreq+0x144>)
 8007bc6:	685b      	ldr	r3, [r3, #4]
 8007bc8:	f403 0380 	and.w	r3, r3, #4194304	; 0x400000
 8007bcc:	0d9b      	lsrs	r3, r3, #22
 8007bce:	60fb      	str	r3, [r7, #12]
      pllm = RCC->PLLCFGR & RCC_PLLCFGR_PLLM;
 8007bd0:	4b3b      	ldr	r3, [pc, #236]	; (8007cc0 <RCC_GetClocksFreq+0x144>)
 8007bd2:	685b      	ldr	r3, [r3, #4]
 8007bd4:	f003 033f 	and.w	r3, r3, #63	; 0x3f
 8007bd8:	60bb      	str	r3, [r7, #8]
      
      if (pllsource != 0)
 8007bda:	68fb      	ldr	r3, [r7, #12]
 8007bdc:	2b00      	cmp	r3, #0
 8007bde:	d00d      	beq.n	8007bfc <RCC_GetClocksFreq+0x80>
      {
        /* HSE used as PLL clock source */
        pllvco = (HSE_VALUE / pllm) * ((RCC->PLLCFGR & RCC_PLLCFGR_PLLN) >> 6);
 8007be0:	4a39      	ldr	r2, [pc, #228]	; (8007cc8 <RCC_GetClocksFreq+0x14c>)
 8007be2:	68bb      	ldr	r3, [r7, #8]
 8007be4:	fbb2 f2f3 	udiv	r2, r2, r3
 8007be8:	4b35      	ldr	r3, [pc, #212]	; (8007cc0 <RCC_GetClocksFreq+0x144>)
 8007bea:	6859      	ldr	r1, [r3, #4]
 8007bec:	f647 73c0 	movw	r3, #32704	; 0x7fc0
 8007bf0:	400b      	ands	r3, r1
 8007bf2:	099b      	lsrs	r3, r3, #6
 8007bf4:	fb03 f302 	mul.w	r3, r3, r2
 8007bf8:	61fb      	str	r3, [r7, #28]
 8007bfa:	e00c      	b.n	8007c16 <RCC_GetClocksFreq+0x9a>
      }
      else
      {
        /* HSI used as PLL clock source */
        pllvco = (HSI_VALUE / pllm) * ((RCC->PLLCFGR & RCC_PLLCFGR_PLLN) >> 6);      
 8007bfc:	4a31      	ldr	r2, [pc, #196]	; (8007cc4 <RCC_GetClocksFreq+0x148>)
 8007bfe:	68bb      	ldr	r3, [r7, #8]
 8007c00:	fbb2 f2f3 	udiv	r2, r2, r3
 8007c04:	4b2e      	ldr	r3, [pc, #184]	; (8007cc0 <RCC_GetClocksFreq+0x144>)
 8007c06:	6859      	ldr	r1, [r3, #4]
 8007c08:	f647 73c0 	movw	r3, #32704	; 0x7fc0
 8007c0c:	400b      	ands	r3, r1
 8007c0e:	099b      	lsrs	r3, r3, #6
 8007c10:	fb03 f302 	mul.w	r3, r3, r2
 8007c14:	61fb      	str	r3, [r7, #28]
      }

      pllp = (((RCC->PLLCFGR & RCC_PLLCFGR_PLLP) >>16) + 1 ) *2;
 8007c16:	4b2a      	ldr	r3, [pc, #168]	; (8007cc0 <RCC_GetClocksFreq+0x144>)
 8007c18:	685b      	ldr	r3, [r3, #4]
 8007c1a:	f403 3340 	and.w	r3, r3, #196608	; 0x30000
 8007c1e:	0c1b      	lsrs	r3, r3, #16
 8007c20:	3301      	adds	r3, #1
 8007c22:	005b      	lsls	r3, r3, #1
 8007c24:	613b      	str	r3, [r7, #16]
      RCC_Clocks->SYSCLK_Frequency = pllvco/pllp;
 8007c26:	69fa      	ldr	r2, [r7, #28]
 8007c28:	693b      	ldr	r3, [r7, #16]
 8007c2a:	fbb2 f2f3 	udiv	r2, r2, r3
 8007c2e:	687b      	ldr	r3, [r7, #4]
 8007c30:	601a      	str	r2, [r3, #0]
      break;
 8007c32:	e003      	b.n	8007c3c <RCC_GetClocksFreq+0xc0>
    default:
      RCC_Clocks->SYSCLK_Frequency = HSI_VALUE;
 8007c34:	687b      	ldr	r3, [r7, #4]
 8007c36:	4a23      	ldr	r2, [pc, #140]	; (8007cc4 <RCC_GetClocksFreq+0x148>)
 8007c38:	601a      	str	r2, [r3, #0]
      break;
 8007c3a:	bf00      	nop
  }
  /* Compute HCLK, PCLK1 and PCLK2 clocks frequencies ------------------------*/

  /* Get HCLK prescaler */
  tmp = RCC->CFGR & RCC_CFGR_HPRE;
 8007c3c:	4b20      	ldr	r3, [pc, #128]	; (8007cc0 <RCC_GetClocksFreq+0x144>)
 8007c3e:	689b      	ldr	r3, [r3, #8]
 8007c40:	f003 03f0 	and.w	r3, r3, #240	; 0xf0
 8007c44:	61bb      	str	r3, [r7, #24]
  tmp = tmp >> 4;
 8007c46:	69bb      	ldr	r3, [r7, #24]
 8007c48:	091b      	lsrs	r3, r3, #4
 8007c4a:	61bb      	str	r3, [r7, #24]
  presc = APBAHBPrescTable[tmp];
 8007c4c:	4a1f      	ldr	r2, [pc, #124]	; (8007ccc <RCC_GetClocksFreq+0x150>)
 8007c4e:	69bb      	ldr	r3, [r7, #24]
 8007c50:	4413      	add	r3, r2
 8007c52:	781b      	ldrb	r3, [r3, #0]
 8007c54:	b2db      	uxtb	r3, r3
 8007c56:	617b      	str	r3, [r7, #20]
  /* HCLK clock frequency */
  RCC_Clocks->HCLK_Frequency = RCC_Clocks->SYSCLK_Frequency >> presc;
 8007c58:	687b      	ldr	r3, [r7, #4]
 8007c5a:	681a      	ldr	r2, [r3, #0]
 8007c5c:	697b      	ldr	r3, [r7, #20]
 8007c5e:	40da      	lsrs	r2, r3
 8007c60:	687b      	ldr	r3, [r7, #4]
 8007c62:	605a      	str	r2, [r3, #4]

  /* Get PCLK1 prescaler */
  tmp = RCC->CFGR & RCC_CFGR_PPRE1;
 8007c64:	4b16      	ldr	r3, [pc, #88]	; (8007cc0 <RCC_GetClocksFreq+0x144>)
 8007c66:	689b      	ldr	r3, [r3, #8]
 8007c68:	f403 53e0 	and.w	r3, r3, #7168	; 0x1c00
 8007c6c:	61bb      	str	r3, [r7, #24]
  tmp = tmp >> 10;
 8007c6e:	69bb      	ldr	r3, [r7, #24]
 8007c70:	0a9b      	lsrs	r3, r3, #10
 8007c72:	61bb      	str	r3, [r7, #24]
  presc = APBAHBPrescTable[tmp];
 8007c74:	4a15      	ldr	r2, [pc, #84]	; (8007ccc <RCC_GetClocksFreq+0x150>)
 8007c76:	69bb      	ldr	r3, [r7, #24]
 8007c78:	4413      	add	r3, r2
 8007c7a:	781b      	ldrb	r3, [r3, #0]
 8007c7c:	b2db      	uxtb	r3, r3
 8007c7e:	617b      	str	r3, [r7, #20]
  /* PCLK1 clock frequency */
  RCC_Clocks->PCLK1_Frequency = RCC_Clocks->HCLK_Frequency >> presc;
 8007c80:	687b      	ldr	r3, [r7, #4]
 8007c82:	685a      	ldr	r2, [r3, #4]
 8007c84:	697b      	ldr	r3, [r7, #20]
 8007c86:	40da      	lsrs	r2, r3
 8007c88:	687b      	ldr	r3, [r7, #4]
 8007c8a:	609a      	str	r2, [r3, #8]

  /* Get PCLK2 prescaler */
  tmp = RCC->CFGR & RCC_CFGR_PPRE2;
 8007c8c:	4b0c      	ldr	r3, [pc, #48]	; (8007cc0 <RCC_GetClocksFreq+0x144>)
 8007c8e:	689b      	ldr	r3, [r3, #8]
 8007c90:	f403 4360 	and.w	r3, r3, #57344	; 0xe000
 8007c94:	61bb      	str	r3, [r7, #24]
  tmp = tmp >> 13;
 8007c96:	69bb      	ldr	r3, [r7, #24]
 8007c98:	0b5b      	lsrs	r3, r3, #13
 8007c9a:	61bb      	str	r3, [r7, #24]
  presc = APBAHBPrescTable[tmp];
 8007c9c:	4a0b      	ldr	r2, [pc, #44]	; (8007ccc <RCC_GetClocksFreq+0x150>)
 8007c9e:	69bb      	ldr	r3, [r7, #24]
 8007ca0:	4413      	add	r3, r2
 8007ca2:	781b      	ldrb	r3, [r3, #0]
 8007ca4:	b2db      	uxtb	r3, r3
 8007ca6:	617b      	str	r3, [r7, #20]
  /* PCLK2 clock frequency */
  RCC_Clocks->PCLK2_Frequency = RCC_Clocks->HCLK_Frequency >> presc;
 8007ca8:	687b      	ldr	r3, [r7, #4]
 8007caa:	685a      	ldr	r2, [r3, #4]
 8007cac:	697b      	ldr	r3, [r7, #20]
 8007cae:	40da      	lsrs	r2, r3
 8007cb0:	687b      	ldr	r3, [r7, #4]
 8007cb2:	60da      	str	r2, [r3, #12]
}
 8007cb4:	3724      	adds	r7, #36	; 0x24
 8007cb6:	46bd      	mov	sp, r7
 8007cb8:	f85d 7b04 	ldr.w	r7, [sp], #4
 8007cbc:	4770      	bx	lr
 8007cbe:	bf00      	nop
 8007cc0:	40023800 	.word	0x40023800
 8007cc4:	00f42400 	.word	0x00f42400
 8007cc8:	017d7840 	.word	0x017d7840
 8007ccc:	20000030 	.word	0x20000030

08007cd0 <RCC_AHB1PeriphClockCmd>:
  * @param  NewState: new state of the specified peripheral clock.
  *          This parameter can be: ENABLE or DISABLE.
  * @retval None
  */
void RCC_AHB1PeriphClockCmd(uint32_t RCC_AHB1Periph, FunctionalState NewState)
{
 8007cd0:	b580      	push	{r7, lr}
 8007cd2:	b082      	sub	sp, #8
 8007cd4:	af00      	add	r7, sp, #0
 8007cd6:	6078      	str	r0, [r7, #4]
 8007cd8:	460b      	mov	r3, r1
 8007cda:	70fb      	strb	r3, [r7, #3]
  /* Check the parameters */
  assert_param(IS_RCC_AHB1_CLOCK_PERIPH(RCC_AHB1Periph));
 8007cdc:	687a      	ldr	r2, [r7, #4]
 8007cde:	4b15      	ldr	r3, [pc, #84]	; (8007d34 <RCC_AHB1PeriphClockCmd+0x64>)
 8007ce0:	4013      	ands	r3, r2
 8007ce2:	2b00      	cmp	r3, #0
 8007ce4:	d102      	bne.n	8007cec <RCC_AHB1PeriphClockCmd+0x1c>
 8007ce6:	687b      	ldr	r3, [r7, #4]
 8007ce8:	2b00      	cmp	r3, #0
 8007cea:	d104      	bne.n	8007cf6 <RCC_AHB1PeriphClockCmd+0x26>
 8007cec:	4812      	ldr	r0, [pc, #72]	; (8007d38 <RCC_AHB1PeriphClockCmd+0x68>)
 8007cee:	f44f 6188 	mov.w	r1, #1088	; 0x440
 8007cf2:	f7fb fc31 	bl	8003558 <assert_failed>

  assert_param(IS_FUNCTIONAL_STATE(NewState));
 8007cf6:	78fb      	ldrb	r3, [r7, #3]
 8007cf8:	2b00      	cmp	r3, #0
 8007cfa:	d007      	beq.n	8007d0c <RCC_AHB1PeriphClockCmd+0x3c>
 8007cfc:	78fb      	ldrb	r3, [r7, #3]
 8007cfe:	2b01      	cmp	r3, #1
 8007d00:	d004      	beq.n	8007d0c <RCC_AHB1PeriphClockCmd+0x3c>
 8007d02:	480d      	ldr	r0, [pc, #52]	; (8007d38 <RCC_AHB1PeriphClockCmd+0x68>)
 8007d04:	f240 4142 	movw	r1, #1090	; 0x442
 8007d08:	f7fb fc26 	bl	8003558 <assert_failed>
  if (NewState != DISABLE)
 8007d0c:	78fb      	ldrb	r3, [r7, #3]
 8007d0e:	2b00      	cmp	r3, #0
 8007d10:	d006      	beq.n	8007d20 <RCC_AHB1PeriphClockCmd+0x50>
  {
    RCC->AHB1ENR |= RCC_AHB1Periph;
 8007d12:	4b0a      	ldr	r3, [pc, #40]	; (8007d3c <RCC_AHB1PeriphClockCmd+0x6c>)
 8007d14:	4a09      	ldr	r2, [pc, #36]	; (8007d3c <RCC_AHB1PeriphClockCmd+0x6c>)
 8007d16:	6b11      	ldr	r1, [r2, #48]	; 0x30
 8007d18:	687a      	ldr	r2, [r7, #4]
 8007d1a:	430a      	orrs	r2, r1
 8007d1c:	631a      	str	r2, [r3, #48]	; 0x30
 8007d1e:	e006      	b.n	8007d2e <RCC_AHB1PeriphClockCmd+0x5e>
  }
  else
  {
    RCC->AHB1ENR &= ~RCC_AHB1Periph;
 8007d20:	4b06      	ldr	r3, [pc, #24]	; (8007d3c <RCC_AHB1PeriphClockCmd+0x6c>)
 8007d22:	4a06      	ldr	r2, [pc, #24]	; (8007d3c <RCC_AHB1PeriphClockCmd+0x6c>)
 8007d24:	6b11      	ldr	r1, [r2, #48]	; 0x30
 8007d26:	687a      	ldr	r2, [r7, #4]
 8007d28:	43d2      	mvns	r2, r2
 8007d2a:	400a      	ands	r2, r1
 8007d2c:	631a      	str	r2, [r3, #48]	; 0x30
  }
}
 8007d2e:	3708      	adds	r7, #8
 8007d30:	46bd      	mov	sp, r7
 8007d32:	bd80      	pop	{r7, pc}
 8007d34:	818bee00 	.word	0x818bee00
 8007d38:	080098e0 	.word	0x080098e0
 8007d3c:	40023800 	.word	0x40023800

08007d40 <RCC_APB2PeriphClockCmd>:
  * @param  NewState: new state of the specified peripheral clock.
  *          This parameter can be: ENABLE or DISABLE.
  * @retval None
  */
void RCC_APB2PeriphClockCmd(uint32_t RCC_APB2Periph, FunctionalState NewState)
{
 8007d40:	b580      	push	{r7, lr}
 8007d42:	b082      	sub	sp, #8
 8007d44:	af00      	add	r7, sp, #0
 8007d46:	6078      	str	r0, [r7, #4]
 8007d48:	460b      	mov	r3, r1
 8007d4a:	70fb      	strb	r3, [r7, #3]
  /* Check the parameters */
  assert_param(IS_RCC_APB2_PERIPH(RCC_APB2Periph));
 8007d4c:	687a      	ldr	r2, [r7, #4]
 8007d4e:	4b15      	ldr	r3, [pc, #84]	; (8007da4 <RCC_APB2PeriphClockCmd+0x64>)
 8007d50:	4013      	ands	r3, r2
 8007d52:	2b00      	cmp	r3, #0
 8007d54:	d102      	bne.n	8007d5c <RCC_APB2PeriphClockCmd+0x1c>
 8007d56:	687b      	ldr	r3, [r7, #4]
 8007d58:	2b00      	cmp	r3, #0
 8007d5a:	d104      	bne.n	8007d66 <RCC_APB2PeriphClockCmd+0x26>
 8007d5c:	4812      	ldr	r0, [pc, #72]	; (8007da8 <RCC_APB2PeriphClockCmd+0x68>)
 8007d5e:	f240 41d5 	movw	r1, #1237	; 0x4d5
 8007d62:	f7fb fbf9 	bl	8003558 <assert_failed>
  assert_param(IS_FUNCTIONAL_STATE(NewState));
 8007d66:	78fb      	ldrb	r3, [r7, #3]
 8007d68:	2b00      	cmp	r3, #0
 8007d6a:	d007      	beq.n	8007d7c <RCC_APB2PeriphClockCmd+0x3c>
 8007d6c:	78fb      	ldrb	r3, [r7, #3]
 8007d6e:	2b01      	cmp	r3, #1
 8007d70:	d004      	beq.n	8007d7c <RCC_APB2PeriphClockCmd+0x3c>
 8007d72:	480d      	ldr	r0, [pc, #52]	; (8007da8 <RCC_APB2PeriphClockCmd+0x68>)
 8007d74:	f240 41d6 	movw	r1, #1238	; 0x4d6
 8007d78:	f7fb fbee 	bl	8003558 <assert_failed>

  if (NewState != DISABLE)
 8007d7c:	78fb      	ldrb	r3, [r7, #3]
 8007d7e:	2b00      	cmp	r3, #0
 8007d80:	d006      	beq.n	8007d90 <RCC_APB2PeriphClockCmd+0x50>
  {
    RCC->APB2ENR |= RCC_APB2Periph;
 8007d82:	4b0a      	ldr	r3, [pc, #40]	; (8007dac <RCC_APB2PeriphClockCmd+0x6c>)
 8007d84:	4a09      	ldr	r2, [pc, #36]	; (8007dac <RCC_APB2PeriphClockCmd+0x6c>)
 8007d86:	6c51      	ldr	r1, [r2, #68]	; 0x44
 8007d88:	687a      	ldr	r2, [r7, #4]
 8007d8a:	430a      	orrs	r2, r1
 8007d8c:	645a      	str	r2, [r3, #68]	; 0x44
 8007d8e:	e006      	b.n	8007d9e <RCC_APB2PeriphClockCmd+0x5e>
  }
  else
  {
    RCC->APB2ENR &= ~RCC_APB2Periph;
 8007d90:	4b06      	ldr	r3, [pc, #24]	; (8007dac <RCC_APB2PeriphClockCmd+0x6c>)
 8007d92:	4a06      	ldr	r2, [pc, #24]	; (8007dac <RCC_APB2PeriphClockCmd+0x6c>)
 8007d94:	6c51      	ldr	r1, [r2, #68]	; 0x44
 8007d96:	687a      	ldr	r2, [r7, #4]
 8007d98:	43d2      	mvns	r2, r2
 8007d9a:	400a      	ands	r2, r1
 8007d9c:	645a      	str	r2, [r3, #68]	; 0x44
  }
}
 8007d9e:	3708      	adds	r7, #8
 8007da0:	46bd      	mov	sp, r7
 8007da2:	bd80      	pop	{r7, pc}
 8007da4:	fff8a0cc 	.word	0xfff8a0cc
 8007da8:	080098e0 	.word	0x080098e0
 8007dac:	40023800 	.word	0x40023800

08007db0 <SPI_Init>:
  * @param  SPI_InitStruct: pointer to a SPI_InitTypeDef structure that
  *         contains the configuration information for the specified SPI peripheral.
  * @retval None
  */
void SPI_Init(SPI_TypeDef* SPIx, SPI_InitTypeDef* SPI_InitStruct)
{
 8007db0:	b580      	push	{r7, lr}
 8007db2:	b084      	sub	sp, #16
 8007db4:	af00      	add	r7, sp, #0
 8007db6:	6078      	str	r0, [r7, #4]
 8007db8:	6039      	str	r1, [r7, #0]
  uint16_t tmpreg = 0;
 8007dba:	2300      	movs	r3, #0
 8007dbc:	81fb      	strh	r3, [r7, #14]
  
  /* check the parameters */
  assert_param(IS_SPI_ALL_PERIPH(SPIx));
 8007dbe:	687a      	ldr	r2, [r7, #4]
 8007dc0:	4b70      	ldr	r3, [pc, #448]	; (8007f84 <SPI_Init+0x1d4>)
 8007dc2:	429a      	cmp	r2, r3
 8007dc4:	d00c      	beq.n	8007de0 <SPI_Init+0x30>
 8007dc6:	687a      	ldr	r2, [r7, #4]
 8007dc8:	4b6f      	ldr	r3, [pc, #444]	; (8007f88 <SPI_Init+0x1d8>)
 8007dca:	429a      	cmp	r2, r3
 8007dcc:	d008      	beq.n	8007de0 <SPI_Init+0x30>
 8007dce:	687a      	ldr	r2, [r7, #4]
 8007dd0:	4b6e      	ldr	r3, [pc, #440]	; (8007f8c <SPI_Init+0x1dc>)
 8007dd2:	429a      	cmp	r2, r3
 8007dd4:	d004      	beq.n	8007de0 <SPI_Init+0x30>
 8007dd6:	486e      	ldr	r0, [pc, #440]	; (8007f90 <SPI_Init+0x1e0>)
 8007dd8:	f44f 7183 	mov.w	r1, #262	; 0x106
 8007ddc:	f7fb fbbc 	bl	8003558 <assert_failed>
  
  /* Check the SPI parameters */
  assert_param(IS_SPI_DIRECTION_MODE(SPI_InitStruct->SPI_Direction));
 8007de0:	683b      	ldr	r3, [r7, #0]
 8007de2:	881b      	ldrh	r3, [r3, #0]
 8007de4:	2b00      	cmp	r3, #0
 8007de6:	d013      	beq.n	8007e10 <SPI_Init+0x60>
 8007de8:	683b      	ldr	r3, [r7, #0]
 8007dea:	881b      	ldrh	r3, [r3, #0]
 8007dec:	f5b3 6f80 	cmp.w	r3, #1024	; 0x400
 8007df0:	d00e      	beq.n	8007e10 <SPI_Init+0x60>
 8007df2:	683b      	ldr	r3, [r7, #0]
 8007df4:	881b      	ldrh	r3, [r3, #0]
 8007df6:	f5b3 4f00 	cmp.w	r3, #32768	; 0x8000
 8007dfa:	d009      	beq.n	8007e10 <SPI_Init+0x60>
 8007dfc:	683b      	ldr	r3, [r7, #0]
 8007dfe:	881b      	ldrh	r3, [r3, #0]
 8007e00:	f5b3 4f40 	cmp.w	r3, #49152	; 0xc000
 8007e04:	d004      	beq.n	8007e10 <SPI_Init+0x60>
 8007e06:	4862      	ldr	r0, [pc, #392]	; (8007f90 <SPI_Init+0x1e0>)
 8007e08:	f240 1109 	movw	r1, #265	; 0x109
 8007e0c:	f7fb fba4 	bl	8003558 <assert_failed>
  assert_param(IS_SPI_MODE(SPI_InitStruct->SPI_Mode));
 8007e10:	683b      	ldr	r3, [r7, #0]
 8007e12:	885b      	ldrh	r3, [r3, #2]
 8007e14:	f5b3 7f82 	cmp.w	r3, #260	; 0x104
 8007e18:	d008      	beq.n	8007e2c <SPI_Init+0x7c>
 8007e1a:	683b      	ldr	r3, [r7, #0]
 8007e1c:	885b      	ldrh	r3, [r3, #2]
 8007e1e:	2b00      	cmp	r3, #0
 8007e20:	d004      	beq.n	8007e2c <SPI_Init+0x7c>
 8007e22:	485b      	ldr	r0, [pc, #364]	; (8007f90 <SPI_Init+0x1e0>)
 8007e24:	f44f 7185 	mov.w	r1, #266	; 0x10a
 8007e28:	f7fb fb96 	bl	8003558 <assert_failed>
  assert_param(IS_SPI_DATASIZE(SPI_InitStruct->SPI_DataSize));
 8007e2c:	683b      	ldr	r3, [r7, #0]
 8007e2e:	889b      	ldrh	r3, [r3, #4]
 8007e30:	f5b3 6f00 	cmp.w	r3, #2048	; 0x800
 8007e34:	d008      	beq.n	8007e48 <SPI_Init+0x98>
 8007e36:	683b      	ldr	r3, [r7, #0]
 8007e38:	889b      	ldrh	r3, [r3, #4]
 8007e3a:	2b00      	cmp	r3, #0
 8007e3c:	d004      	beq.n	8007e48 <SPI_Init+0x98>
 8007e3e:	4854      	ldr	r0, [pc, #336]	; (8007f90 <SPI_Init+0x1e0>)
 8007e40:	f240 110b 	movw	r1, #267	; 0x10b
 8007e44:	f7fb fb88 	bl	8003558 <assert_failed>
  assert_param(IS_SPI_CPOL(SPI_InitStruct->SPI_CPOL));
 8007e48:	683b      	ldr	r3, [r7, #0]
 8007e4a:	88db      	ldrh	r3, [r3, #6]
 8007e4c:	2b00      	cmp	r3, #0
 8007e4e:	d008      	beq.n	8007e62 <SPI_Init+0xb2>
 8007e50:	683b      	ldr	r3, [r7, #0]
 8007e52:	88db      	ldrh	r3, [r3, #6]
 8007e54:	2b02      	cmp	r3, #2
 8007e56:	d004      	beq.n	8007e62 <SPI_Init+0xb2>
 8007e58:	484d      	ldr	r0, [pc, #308]	; (8007f90 <SPI_Init+0x1e0>)
 8007e5a:	f44f 7186 	mov.w	r1, #268	; 0x10c
 8007e5e:	f7fb fb7b 	bl	8003558 <assert_failed>
  assert_param(IS_SPI_CPHA(SPI_InitStruct->SPI_CPHA));
 8007e62:	683b      	ldr	r3, [r7, #0]
 8007e64:	891b      	ldrh	r3, [r3, #8]
 8007e66:	2b00      	cmp	r3, #0
 8007e68:	d008      	beq.n	8007e7c <SPI_Init+0xcc>
 8007e6a:	683b      	ldr	r3, [r7, #0]
 8007e6c:	891b      	ldrh	r3, [r3, #8]
 8007e6e:	2b01      	cmp	r3, #1
 8007e70:	d004      	beq.n	8007e7c <SPI_Init+0xcc>
 8007e72:	4847      	ldr	r0, [pc, #284]	; (8007f90 <SPI_Init+0x1e0>)
 8007e74:	f240 110d 	movw	r1, #269	; 0x10d
 8007e78:	f7fb fb6e 	bl	8003558 <assert_failed>
  assert_param(IS_SPI_NSS(SPI_InitStruct->SPI_NSS));
 8007e7c:	683b      	ldr	r3, [r7, #0]
 8007e7e:	895b      	ldrh	r3, [r3, #10]
 8007e80:	f5b3 7f00 	cmp.w	r3, #512	; 0x200
 8007e84:	d008      	beq.n	8007e98 <SPI_Init+0xe8>
 8007e86:	683b      	ldr	r3, [r7, #0]
 8007e88:	895b      	ldrh	r3, [r3, #10]
 8007e8a:	2b00      	cmp	r3, #0
 8007e8c:	d004      	beq.n	8007e98 <SPI_Init+0xe8>
 8007e8e:	4840      	ldr	r0, [pc, #256]	; (8007f90 <SPI_Init+0x1e0>)
 8007e90:	f44f 7187 	mov.w	r1, #270	; 0x10e
 8007e94:	f7fb fb60 	bl	8003558 <assert_failed>
  assert_param(IS_SPI_BAUDRATE_PRESCALER(SPI_InitStruct->SPI_BaudRatePrescaler));
 8007e98:	683b      	ldr	r3, [r7, #0]
 8007e9a:	899b      	ldrh	r3, [r3, #12]
 8007e9c:	2b00      	cmp	r3, #0
 8007e9e:	d020      	beq.n	8007ee2 <SPI_Init+0x132>
 8007ea0:	683b      	ldr	r3, [r7, #0]
 8007ea2:	899b      	ldrh	r3, [r3, #12]
 8007ea4:	2b08      	cmp	r3, #8
 8007ea6:	d01c      	beq.n	8007ee2 <SPI_Init+0x132>
 8007ea8:	683b      	ldr	r3, [r7, #0]
 8007eaa:	899b      	ldrh	r3, [r3, #12]
 8007eac:	2b10      	cmp	r3, #16
 8007eae:	d018      	beq.n	8007ee2 <SPI_Init+0x132>
 8007eb0:	683b      	ldr	r3, [r7, #0]
 8007eb2:	899b      	ldrh	r3, [r3, #12]
 8007eb4:	2b18      	cmp	r3, #24
 8007eb6:	d014      	beq.n	8007ee2 <SPI_Init+0x132>
 8007eb8:	683b      	ldr	r3, [r7, #0]
 8007eba:	899b      	ldrh	r3, [r3, #12]
 8007ebc:	2b20      	cmp	r3, #32
 8007ebe:	d010      	beq.n	8007ee2 <SPI_Init+0x132>
 8007ec0:	683b      	ldr	r3, [r7, #0]
 8007ec2:	899b      	ldrh	r3, [r3, #12]
 8007ec4:	2b28      	cmp	r3, #40	; 0x28
 8007ec6:	d00c      	beq.n	8007ee2 <SPI_Init+0x132>
 8007ec8:	683b      	ldr	r3, [r7, #0]
 8007eca:	899b      	ldrh	r3, [r3, #12]
 8007ecc:	2b30      	cmp	r3, #48	; 0x30
 8007ece:	d008      	beq.n	8007ee2 <SPI_Init+0x132>
 8007ed0:	683b      	ldr	r3, [r7, #0]
 8007ed2:	899b      	ldrh	r3, [r3, #12]
 8007ed4:	2b38      	cmp	r3, #56	; 0x38
 8007ed6:	d004      	beq.n	8007ee2 <SPI_Init+0x132>
 8007ed8:	482d      	ldr	r0, [pc, #180]	; (8007f90 <SPI_Init+0x1e0>)
 8007eda:	f240 110f 	movw	r1, #271	; 0x10f
 8007ede:	f7fb fb3b 	bl	8003558 <assert_failed>
  assert_param(IS_SPI_FIRST_BIT(SPI_InitStruct->SPI_FirstBit));
 8007ee2:	683b      	ldr	r3, [r7, #0]
 8007ee4:	89db      	ldrh	r3, [r3, #14]
 8007ee6:	2b00      	cmp	r3, #0
 8007ee8:	d008      	beq.n	8007efc <SPI_Init+0x14c>
 8007eea:	683b      	ldr	r3, [r7, #0]
 8007eec:	89db      	ldrh	r3, [r3, #14]
 8007eee:	2b80      	cmp	r3, #128	; 0x80
 8007ef0:	d004      	beq.n	8007efc <SPI_Init+0x14c>
 8007ef2:	4827      	ldr	r0, [pc, #156]	; (8007f90 <SPI_Init+0x1e0>)
 8007ef4:	f44f 7188 	mov.w	r1, #272	; 0x110
 8007ef8:	f7fb fb2e 	bl	8003558 <assert_failed>
  assert_param(IS_SPI_CRC_POLYNOMIAL(SPI_InitStruct->SPI_CRCPolynomial));
 8007efc:	683b      	ldr	r3, [r7, #0]
 8007efe:	8a1b      	ldrh	r3, [r3, #16]
 8007f00:	2b00      	cmp	r3, #0
 8007f02:	d104      	bne.n	8007f0e <SPI_Init+0x15e>
 8007f04:	4822      	ldr	r0, [pc, #136]	; (8007f90 <SPI_Init+0x1e0>)
 8007f06:	f240 1111 	movw	r1, #273	; 0x111
 8007f0a:	f7fb fb25 	bl	8003558 <assert_failed>

/*---------------------------- SPIx CR1 Configuration ------------------------*/
  /* Get the SPIx CR1 value */
  tmpreg = SPIx->CR1;
 8007f0e:	687b      	ldr	r3, [r7, #4]
 8007f10:	881b      	ldrh	r3, [r3, #0]
 8007f12:	81fb      	strh	r3, [r7, #14]
  /* Clear BIDIMode, BIDIOE, RxONLY, SSM, SSI, LSBFirst, BR, MSTR, CPOL and CPHA bits */
  tmpreg &= CR1_CLEAR_MASK;
 8007f14:	89fb      	ldrh	r3, [r7, #14]
 8007f16:	f403 5341 	and.w	r3, r3, #12352	; 0x3040
 8007f1a:	81fb      	strh	r3, [r7, #14]
  /* Set SSM, SSI and MSTR bits according to SPI_Mode and SPI_NSS values */
  /* Set LSBFirst bit according to SPI_FirstBit value */
  /* Set BR bits according to SPI_BaudRatePrescaler value */
  /* Set CPOL bit according to SPI_CPOL value */
  /* Set CPHA bit according to SPI_CPHA value */
  tmpreg |= (uint16_t)((uint32_t)SPI_InitStruct->SPI_Direction | SPI_InitStruct->SPI_Mode |
 8007f1c:	683b      	ldr	r3, [r7, #0]
 8007f1e:	881a      	ldrh	r2, [r3, #0]
 8007f20:	683b      	ldr	r3, [r7, #0]
 8007f22:	885b      	ldrh	r3, [r3, #2]
 8007f24:	4313      	orrs	r3, r2
 8007f26:	b29a      	uxth	r2, r3
                  SPI_InitStruct->SPI_DataSize | SPI_InitStruct->SPI_CPOL |  
 8007f28:	683b      	ldr	r3, [r7, #0]
 8007f2a:	889b      	ldrh	r3, [r3, #4]
  /* Set SSM, SSI and MSTR bits according to SPI_Mode and SPI_NSS values */
  /* Set LSBFirst bit according to SPI_FirstBit value */
  /* Set BR bits according to SPI_BaudRatePrescaler value */
  /* Set CPOL bit according to SPI_CPOL value */
  /* Set CPHA bit according to SPI_CPHA value */
  tmpreg |= (uint16_t)((uint32_t)SPI_InitStruct->SPI_Direction | SPI_InitStruct->SPI_Mode |
 8007f2c:	4313      	orrs	r3, r2
 8007f2e:	b29a      	uxth	r2, r3
                  SPI_InitStruct->SPI_DataSize | SPI_InitStruct->SPI_CPOL |  
 8007f30:	683b      	ldr	r3, [r7, #0]
 8007f32:	88db      	ldrh	r3, [r3, #6]
  /* Set SSM, SSI and MSTR bits according to SPI_Mode and SPI_NSS values */
  /* Set LSBFirst bit according to SPI_FirstBit value */
  /* Set BR bits according to SPI_BaudRatePrescaler value */
  /* Set CPOL bit according to SPI_CPOL value */
  /* Set CPHA bit according to SPI_CPHA value */
  tmpreg |= (uint16_t)((uint32_t)SPI_InitStruct->SPI_Direction | SPI_InitStruct->SPI_Mode |
 8007f34:	4313      	orrs	r3, r2
 8007f36:	b29a      	uxth	r2, r3
                  SPI_InitStruct->SPI_DataSize | SPI_InitStruct->SPI_CPOL |  
                  SPI_InitStruct->SPI_CPHA | SPI_InitStruct->SPI_NSS |  
 8007f38:	683b      	ldr	r3, [r7, #0]
 8007f3a:	891b      	ldrh	r3, [r3, #8]
  /* Set SSM, SSI and MSTR bits according to SPI_Mode and SPI_NSS values */
  /* Set LSBFirst bit according to SPI_FirstBit value */
  /* Set BR bits according to SPI_BaudRatePrescaler value */
  /* Set CPOL bit according to SPI_CPOL value */
  /* Set CPHA bit according to SPI_CPHA value */
  tmpreg |= (uint16_t)((uint32_t)SPI_InitStruct->SPI_Direction | SPI_InitStruct->SPI_Mode |
 8007f3c:	4313      	orrs	r3, r2
 8007f3e:	b29a      	uxth	r2, r3
                  SPI_InitStruct->SPI_DataSize | SPI_InitStruct->SPI_CPOL |  
                  SPI_InitStruct->SPI_CPHA | SPI_InitStruct->SPI_NSS |  
 8007f40:	683b      	ldr	r3, [r7, #0]
 8007f42:	895b      	ldrh	r3, [r3, #10]
  /* Set SSM, SSI and MSTR bits according to SPI_Mode and SPI_NSS values */
  /* Set LSBFirst bit according to SPI_FirstBit value */
  /* Set BR bits according to SPI_BaudRatePrescaler value */
  /* Set CPOL bit according to SPI_CPOL value */
  /* Set CPHA bit according to SPI_CPHA value */
  tmpreg |= (uint16_t)((uint32_t)SPI_InitStruct->SPI_Direction | SPI_InitStruct->SPI_Mode |
 8007f44:	4313      	orrs	r3, r2
 8007f46:	b29a      	uxth	r2, r3
                  SPI_InitStruct->SPI_DataSize | SPI_InitStruct->SPI_CPOL |  
                  SPI_InitStruct->SPI_CPHA | SPI_InitStruct->SPI_NSS |  
                  SPI_InitStruct->SPI_BaudRatePrescaler | SPI_InitStruct->SPI_FirstBit);
 8007f48:	683b      	ldr	r3, [r7, #0]
 8007f4a:	899b      	ldrh	r3, [r3, #12]
  /* Set SSM, SSI and MSTR bits according to SPI_Mode and SPI_NSS values */
  /* Set LSBFirst bit according to SPI_FirstBit value */
  /* Set BR bits according to SPI_BaudRatePrescaler value */
  /* Set CPOL bit according to SPI_CPOL value */
  /* Set CPHA bit according to SPI_CPHA value */
  tmpreg |= (uint16_t)((uint32_t)SPI_InitStruct->SPI_Direction | SPI_InitStruct->SPI_Mode |
 8007f4c:	4313      	orrs	r3, r2
 8007f4e:	b29a      	uxth	r2, r3
                  SPI_InitStruct->SPI_DataSize | SPI_InitStruct->SPI_CPOL |  
                  SPI_InitStruct->SPI_CPHA | SPI_InitStruct->SPI_NSS |  
                  SPI_InitStruct->SPI_BaudRatePrescaler | SPI_InitStruct->SPI_FirstBit);
 8007f50:	683b      	ldr	r3, [r7, #0]
 8007f52:	89db      	ldrh	r3, [r3, #14]
  /* Set SSM, SSI and MSTR bits according to SPI_Mode and SPI_NSS values */
  /* Set LSBFirst bit according to SPI_FirstBit value */
  /* Set BR bits according to SPI_BaudRatePrescaler value */
  /* Set CPOL bit according to SPI_CPOL value */
  /* Set CPHA bit according to SPI_CPHA value */
  tmpreg |= (uint16_t)((uint32_t)SPI_InitStruct->SPI_Direction | SPI_InitStruct->SPI_Mode |
 8007f54:	4313      	orrs	r3, r2
 8007f56:	b29a      	uxth	r2, r3
 8007f58:	89fb      	ldrh	r3, [r7, #14]
 8007f5a:	4313      	orrs	r3, r2
 8007f5c:	81fb      	strh	r3, [r7, #14]
                  SPI_InitStruct->SPI_DataSize | SPI_InitStruct->SPI_CPOL |  
                  SPI_InitStruct->SPI_CPHA | SPI_InitStruct->SPI_NSS |  
                  SPI_InitStruct->SPI_BaudRatePrescaler | SPI_InitStruct->SPI_FirstBit);
  /* Write to SPIx CR1 */
  SPIx->CR1 = tmpreg;
 8007f5e:	687b      	ldr	r3, [r7, #4]
 8007f60:	89fa      	ldrh	r2, [r7, #14]
 8007f62:	801a      	strh	r2, [r3, #0]

  /* Activate the SPI mode (Reset I2SMOD bit in I2SCFGR register) */
  SPIx->I2SCFGR &= (uint16_t)~((uint16_t)SPI_I2SCFGR_I2SMOD);
 8007f64:	687b      	ldr	r3, [r7, #4]
 8007f66:	8b9b      	ldrh	r3, [r3, #28]
 8007f68:	b29b      	uxth	r3, r3
 8007f6a:	f423 6300 	bic.w	r3, r3, #2048	; 0x800
 8007f6e:	b29a      	uxth	r2, r3
 8007f70:	687b      	ldr	r3, [r7, #4]
 8007f72:	839a      	strh	r2, [r3, #28]
/*---------------------------- SPIx CRCPOLY Configuration --------------------*/
  /* Write to SPIx CRCPOLY */
  SPIx->CRCPR = SPI_InitStruct->SPI_CRCPolynomial;
 8007f74:	683b      	ldr	r3, [r7, #0]
 8007f76:	8a1a      	ldrh	r2, [r3, #16]
 8007f78:	687b      	ldr	r3, [r7, #4]
 8007f7a:	821a      	strh	r2, [r3, #16]
}
 8007f7c:	3710      	adds	r7, #16
 8007f7e:	46bd      	mov	sp, r7
 8007f80:	bd80      	pop	{r7, pc}
 8007f82:	bf00      	nop
 8007f84:	40013000 	.word	0x40013000
 8007f88:	40003800 	.word	0x40003800
 8007f8c:	40003c00 	.word	0x40003c00
 8007f90:	08009930 	.word	0x08009930

08007f94 <SPI_Cmd>:
  * @param  NewState: new state of the SPIx peripheral. 
  *          This parameter can be: ENABLE or DISABLE.
  * @retval None
  */
void SPI_Cmd(SPI_TypeDef* SPIx, FunctionalState NewState)
{
 8007f94:	b580      	push	{r7, lr}
 8007f96:	b082      	sub	sp, #8
 8007f98:	af00      	add	r7, sp, #0
 8007f9a:	6078      	str	r0, [r7, #4]
 8007f9c:	460b      	mov	r3, r1
 8007f9e:	70fb      	strb	r3, [r7, #3]
  /* Check the parameters */
  assert_param(IS_SPI_ALL_PERIPH(SPIx));
 8007fa0:	687a      	ldr	r2, [r7, #4]
 8007fa2:	4b19      	ldr	r3, [pc, #100]	; (8008008 <SPI_Cmd+0x74>)
 8007fa4:	429a      	cmp	r2, r3
 8007fa6:	d00c      	beq.n	8007fc2 <SPI_Cmd+0x2e>
 8007fa8:	687a      	ldr	r2, [r7, #4]
 8007faa:	4b18      	ldr	r3, [pc, #96]	; (800800c <SPI_Cmd+0x78>)
 8007fac:	429a      	cmp	r2, r3
 8007fae:	d008      	beq.n	8007fc2 <SPI_Cmd+0x2e>
 8007fb0:	687a      	ldr	r2, [r7, #4]
 8007fb2:	4b17      	ldr	r3, [pc, #92]	; (8008010 <SPI_Cmd+0x7c>)
 8007fb4:	429a      	cmp	r2, r3
 8007fb6:	d004      	beq.n	8007fc2 <SPI_Cmd+0x2e>
 8007fb8:	4816      	ldr	r0, [pc, #88]	; (8008014 <SPI_Cmd+0x80>)
 8007fba:	f240 2101 	movw	r1, #513	; 0x201
 8007fbe:	f7fb facb 	bl	8003558 <assert_failed>
  assert_param(IS_FUNCTIONAL_STATE(NewState));
 8007fc2:	78fb      	ldrb	r3, [r7, #3]
 8007fc4:	2b00      	cmp	r3, #0
 8007fc6:	d007      	beq.n	8007fd8 <SPI_Cmd+0x44>
 8007fc8:	78fb      	ldrb	r3, [r7, #3]
 8007fca:	2b01      	cmp	r3, #1
 8007fcc:	d004      	beq.n	8007fd8 <SPI_Cmd+0x44>
 8007fce:	4811      	ldr	r0, [pc, #68]	; (8008014 <SPI_Cmd+0x80>)
 8007fd0:	f240 2102 	movw	r1, #514	; 0x202
 8007fd4:	f7fb fac0 	bl	8003558 <assert_failed>
  if (NewState != DISABLE)
 8007fd8:	78fb      	ldrb	r3, [r7, #3]
 8007fda:	2b00      	cmp	r3, #0
 8007fdc:	d008      	beq.n	8007ff0 <SPI_Cmd+0x5c>
  {
    /* Enable the selected SPI peripheral */
    SPIx->CR1 |= SPI_CR1_SPE;
 8007fde:	687b      	ldr	r3, [r7, #4]
 8007fe0:	881b      	ldrh	r3, [r3, #0]
 8007fe2:	b29b      	uxth	r3, r3
 8007fe4:	f043 0340 	orr.w	r3, r3, #64	; 0x40
 8007fe8:	b29a      	uxth	r2, r3
 8007fea:	687b      	ldr	r3, [r7, #4]
 8007fec:	801a      	strh	r2, [r3, #0]
 8007fee:	e007      	b.n	8008000 <SPI_Cmd+0x6c>
  }
  else
  {
    /* Disable the selected SPI peripheral */
    SPIx->CR1 &= (uint16_t)~((uint16_t)SPI_CR1_SPE);
 8007ff0:	687b      	ldr	r3, [r7, #4]
 8007ff2:	881b      	ldrh	r3, [r3, #0]
 8007ff4:	b29b      	uxth	r3, r3
 8007ff6:	f023 0340 	bic.w	r3, r3, #64	; 0x40
 8007ffa:	b29a      	uxth	r2, r3
 8007ffc:	687b      	ldr	r3, [r7, #4]
 8007ffe:	801a      	strh	r2, [r3, #0]
  }
}
 8008000:	3708      	adds	r7, #8
 8008002:	46bd      	mov	sp, r7
 8008004:	bd80      	pop	{r7, pc}
 8008006:	bf00      	nop
 8008008:	40013000 	.word	0x40013000
 800800c:	40003800 	.word	0x40003800
 8008010:	40003c00 	.word	0x40003c00
 8008014:	08009930 	.word	0x08009930

08008018 <SPI_I2S_DMACmd>:
  * @param  NewState: new state of the selected SPI DMA transfer request.
  *          This parameter can be: ENABLE or DISABLE.
  * @retval None
  */
void SPI_I2S_DMACmd(SPI_TypeDef* SPIx, uint16_t SPI_I2S_DMAReq, FunctionalState NewState)
{
 8008018:	b580      	push	{r7, lr}
 800801a:	b082      	sub	sp, #8
 800801c:	af00      	add	r7, sp, #0
 800801e:	6078      	str	r0, [r7, #4]
 8008020:	4613      	mov	r3, r2
 8008022:	460a      	mov	r2, r1
 8008024:	807a      	strh	r2, [r7, #2]
 8008026:	707b      	strb	r3, [r7, #1]
  /* Check the parameters */
  assert_param(IS_SPI_ALL_PERIPH_EXT(SPIx));
 8008028:	687a      	ldr	r2, [r7, #4]
 800802a:	4b25      	ldr	r3, [pc, #148]	; (80080c0 <SPI_I2S_DMACmd+0xa8>)
 800802c:	429a      	cmp	r2, r3
 800802e:	d014      	beq.n	800805a <SPI_I2S_DMACmd+0x42>
 8008030:	687a      	ldr	r2, [r7, #4]
 8008032:	4b24      	ldr	r3, [pc, #144]	; (80080c4 <SPI_I2S_DMACmd+0xac>)
 8008034:	429a      	cmp	r2, r3
 8008036:	d010      	beq.n	800805a <SPI_I2S_DMACmd+0x42>
 8008038:	687a      	ldr	r2, [r7, #4]
 800803a:	4b23      	ldr	r3, [pc, #140]	; (80080c8 <SPI_I2S_DMACmd+0xb0>)
 800803c:	429a      	cmp	r2, r3
 800803e:	d00c      	beq.n	800805a <SPI_I2S_DMACmd+0x42>
 8008040:	687a      	ldr	r2, [r7, #4]
 8008042:	4b22      	ldr	r3, [pc, #136]	; (80080cc <SPI_I2S_DMACmd+0xb4>)
 8008044:	429a      	cmp	r2, r3
 8008046:	d008      	beq.n	800805a <SPI_I2S_DMACmd+0x42>
 8008048:	687b      	ldr	r3, [r7, #4]
 800804a:	f1b3 2f40 	cmp.w	r3, #1073758208	; 0x40004000
 800804e:	d004      	beq.n	800805a <SPI_I2S_DMACmd+0x42>
 8008050:	481f      	ldr	r0, [pc, #124]	; (80080d0 <SPI_I2S_DMACmd+0xb8>)
 8008052:	f240 31d9 	movw	r1, #985	; 0x3d9
 8008056:	f7fb fa7f 	bl	8003558 <assert_failed>
  assert_param(IS_FUNCTIONAL_STATE(NewState));
 800805a:	787b      	ldrb	r3, [r7, #1]
 800805c:	2b00      	cmp	r3, #0
 800805e:	d007      	beq.n	8008070 <SPI_I2S_DMACmd+0x58>
 8008060:	787b      	ldrb	r3, [r7, #1]
 8008062:	2b01      	cmp	r3, #1
 8008064:	d004      	beq.n	8008070 <SPI_I2S_DMACmd+0x58>
 8008066:	481a      	ldr	r0, [pc, #104]	; (80080d0 <SPI_I2S_DMACmd+0xb8>)
 8008068:	f240 31da 	movw	r1, #986	; 0x3da
 800806c:	f7fb fa74 	bl	8003558 <assert_failed>
  assert_param(IS_SPI_I2S_DMAREQ(SPI_I2S_DMAReq));
 8008070:	887a      	ldrh	r2, [r7, #2]
 8008072:	f64f 73fc 	movw	r3, #65532	; 0xfffc
 8008076:	4013      	ands	r3, r2
 8008078:	2b00      	cmp	r3, #0
 800807a:	d102      	bne.n	8008082 <SPI_I2S_DMACmd+0x6a>
 800807c:	887b      	ldrh	r3, [r7, #2]
 800807e:	2b00      	cmp	r3, #0
 8008080:	d104      	bne.n	800808c <SPI_I2S_DMACmd+0x74>
 8008082:	4813      	ldr	r0, [pc, #76]	; (80080d0 <SPI_I2S_DMACmd+0xb8>)
 8008084:	f240 31db 	movw	r1, #987	; 0x3db
 8008088:	f7fb fa66 	bl	8003558 <assert_failed>

  if (NewState != DISABLE)
 800808c:	787b      	ldrb	r3, [r7, #1]
 800808e:	2b00      	cmp	r3, #0
 8008090:	d008      	beq.n	80080a4 <SPI_I2S_DMACmd+0x8c>
  {
    /* Enable the selected SPI DMA requests */
    SPIx->CR2 |= SPI_I2S_DMAReq;
 8008092:	687b      	ldr	r3, [r7, #4]
 8008094:	889b      	ldrh	r3, [r3, #4]
 8008096:	b29a      	uxth	r2, r3
 8008098:	887b      	ldrh	r3, [r7, #2]
 800809a:	4313      	orrs	r3, r2
 800809c:	b29a      	uxth	r2, r3
 800809e:	687b      	ldr	r3, [r7, #4]
 80080a0:	809a      	strh	r2, [r3, #4]
 80080a2:	e009      	b.n	80080b8 <SPI_I2S_DMACmd+0xa0>
  }
  else
  {
    /* Disable the selected SPI DMA requests */
    SPIx->CR2 &= (uint16_t)~SPI_I2S_DMAReq;
 80080a4:	687b      	ldr	r3, [r7, #4]
 80080a6:	889b      	ldrh	r3, [r3, #4]
 80080a8:	b29a      	uxth	r2, r3
 80080aa:	887b      	ldrh	r3, [r7, #2]
 80080ac:	43db      	mvns	r3, r3
 80080ae:	b29b      	uxth	r3, r3
 80080b0:	4013      	ands	r3, r2
 80080b2:	b29a      	uxth	r2, r3
 80080b4:	687b      	ldr	r3, [r7, #4]
 80080b6:	809a      	strh	r2, [r3, #4]
  }
}
 80080b8:	3708      	adds	r7, #8
 80080ba:	46bd      	mov	sp, r7
 80080bc:	bd80      	pop	{r7, pc}
 80080be:	bf00      	nop
 80080c0:	40013000 	.word	0x40013000
 80080c4:	40003800 	.word	0x40003800
 80080c8:	40003c00 	.word	0x40003c00
 80080cc:	40003400 	.word	0x40003400
 80080d0:	08009930 	.word	0x08009930

080080d4 <SPI_I2S_GetFlagStatus>:
  *            @arg I2S_FLAG_UDR: Underrun Error flag.
  *            @arg I2S_FLAG_CHSIDE: Channel Side flag.  
  * @retval The new state of SPI_I2S_FLAG (SET or RESET).
  */
FlagStatus SPI_I2S_GetFlagStatus(SPI_TypeDef* SPIx, uint16_t SPI_I2S_FLAG)
{
 80080d4:	b580      	push	{r7, lr}
 80080d6:	b084      	sub	sp, #16
 80080d8:	af00      	add	r7, sp, #0
 80080da:	6078      	str	r0, [r7, #4]
 80080dc:	460b      	mov	r3, r1
 80080de:	807b      	strh	r3, [r7, #2]
  FlagStatus bitstatus = RESET;
 80080e0:	2300      	movs	r3, #0
 80080e2:	73fb      	strb	r3, [r7, #15]
  /* Check the parameters */
  assert_param(IS_SPI_ALL_PERIPH_EXT(SPIx));
 80080e4:	687a      	ldr	r2, [r7, #4]
 80080e6:	4b25      	ldr	r3, [pc, #148]	; (800817c <SPI_I2S_GetFlagStatus+0xa8>)
 80080e8:	429a      	cmp	r2, r3
 80080ea:	d014      	beq.n	8008116 <SPI_I2S_GetFlagStatus+0x42>
 80080ec:	687a      	ldr	r2, [r7, #4]
 80080ee:	4b24      	ldr	r3, [pc, #144]	; (8008180 <SPI_I2S_GetFlagStatus+0xac>)
 80080f0:	429a      	cmp	r2, r3
 80080f2:	d010      	beq.n	8008116 <SPI_I2S_GetFlagStatus+0x42>
 80080f4:	687a      	ldr	r2, [r7, #4]
 80080f6:	4b23      	ldr	r3, [pc, #140]	; (8008184 <SPI_I2S_GetFlagStatus+0xb0>)
 80080f8:	429a      	cmp	r2, r3
 80080fa:	d00c      	beq.n	8008116 <SPI_I2S_GetFlagStatus+0x42>
 80080fc:	687a      	ldr	r2, [r7, #4]
 80080fe:	4b22      	ldr	r3, [pc, #136]	; (8008188 <SPI_I2S_GetFlagStatus+0xb4>)
 8008100:	429a      	cmp	r2, r3
 8008102:	d008      	beq.n	8008116 <SPI_I2S_GetFlagStatus+0x42>
 8008104:	687b      	ldr	r3, [r7, #4]
 8008106:	f1b3 2f40 	cmp.w	r3, #1073758208	; 0x40004000
 800810a:	d004      	beq.n	8008116 <SPI_I2S_GetFlagStatus+0x42>
 800810c:	481f      	ldr	r0, [pc, #124]	; (800818c <SPI_I2S_GetFlagStatus+0xb8>)
 800810e:	f240 4173 	movw	r1, #1139	; 0x473
 8008112:	f7fb fa21 	bl	8003558 <assert_failed>
  assert_param(IS_SPI_I2S_GET_FLAG(SPI_I2S_FLAG));
 8008116:	887b      	ldrh	r3, [r7, #2]
 8008118:	2b80      	cmp	r3, #128	; 0x80
 800811a:	d01d      	beq.n	8008158 <SPI_I2S_GetFlagStatus+0x84>
 800811c:	887b      	ldrh	r3, [r7, #2]
 800811e:	2b40      	cmp	r3, #64	; 0x40
 8008120:	d01a      	beq.n	8008158 <SPI_I2S_GetFlagStatus+0x84>
 8008122:	887b      	ldrh	r3, [r7, #2]
 8008124:	2b20      	cmp	r3, #32
 8008126:	d017      	beq.n	8008158 <SPI_I2S_GetFlagStatus+0x84>
 8008128:	887b      	ldrh	r3, [r7, #2]
 800812a:	2b10      	cmp	r3, #16
 800812c:	d014      	beq.n	8008158 <SPI_I2S_GetFlagStatus+0x84>
 800812e:	887b      	ldrh	r3, [r7, #2]
 8008130:	2b08      	cmp	r3, #8
 8008132:	d011      	beq.n	8008158 <SPI_I2S_GetFlagStatus+0x84>
 8008134:	887b      	ldrh	r3, [r7, #2]
 8008136:	2b04      	cmp	r3, #4
 8008138:	d00e      	beq.n	8008158 <SPI_I2S_GetFlagStatus+0x84>
 800813a:	887b      	ldrh	r3, [r7, #2]
 800813c:	2b02      	cmp	r3, #2
 800813e:	d00b      	beq.n	8008158 <SPI_I2S_GetFlagStatus+0x84>
 8008140:	887b      	ldrh	r3, [r7, #2]
 8008142:	2b01      	cmp	r3, #1
 8008144:	d008      	beq.n	8008158 <SPI_I2S_GetFlagStatus+0x84>
 8008146:	887b      	ldrh	r3, [r7, #2]
 8008148:	f5b3 7f80 	cmp.w	r3, #256	; 0x100
 800814c:	d004      	beq.n	8008158 <SPI_I2S_GetFlagStatus+0x84>
 800814e:	480f      	ldr	r0, [pc, #60]	; (800818c <SPI_I2S_GetFlagStatus+0xb8>)
 8008150:	f240 4174 	movw	r1, #1140	; 0x474
 8008154:	f7fb fa00 	bl	8003558 <assert_failed>
  
  /* Check the status of the specified SPI flag */
  if ((SPIx->SR & SPI_I2S_FLAG) != (uint16_t)RESET)
 8008158:	687b      	ldr	r3, [r7, #4]
 800815a:	891b      	ldrh	r3, [r3, #8]
 800815c:	b29a      	uxth	r2, r3
 800815e:	887b      	ldrh	r3, [r7, #2]
 8008160:	4013      	ands	r3, r2
 8008162:	b29b      	uxth	r3, r3
 8008164:	2b00      	cmp	r3, #0
 8008166:	d002      	beq.n	800816e <SPI_I2S_GetFlagStatus+0x9a>
  {
    /* SPI_I2S_FLAG is set */
    bitstatus = SET;
 8008168:	2301      	movs	r3, #1
 800816a:	73fb      	strb	r3, [r7, #15]
 800816c:	e001      	b.n	8008172 <SPI_I2S_GetFlagStatus+0x9e>
  }
  else
  {
    /* SPI_I2S_FLAG is reset */
    bitstatus = RESET;
 800816e:	2300      	movs	r3, #0
 8008170:	73fb      	strb	r3, [r7, #15]
  }
  /* Return the SPI_I2S_FLAG status */
  return  bitstatus;
 8008172:	7bfb      	ldrb	r3, [r7, #15]
}
 8008174:	4618      	mov	r0, r3
 8008176:	3710      	adds	r7, #16
 8008178:	46bd      	mov	sp, r7
 800817a:	bd80      	pop	{r7, pc}
 800817c:	40013000 	.word	0x40013000
 8008180:	40003800 	.word	0x40003800
 8008184:	40003c00 	.word	0x40003c00
 8008188:	40003400 	.word	0x40003400
 800818c:	08009930 	.word	0x08009930

08008190 <SPI_I2S_ClearFlag>:
  *          write operation to SPI_CR1 register (SPI_Cmd() to enable the SPI).
  *  
  * @retval None
  */
void SPI_I2S_ClearFlag(SPI_TypeDef* SPIx, uint16_t SPI_I2S_FLAG)
{
 8008190:	b580      	push	{r7, lr}
 8008192:	b082      	sub	sp, #8
 8008194:	af00      	add	r7, sp, #0
 8008196:	6078      	str	r0, [r7, #4]
 8008198:	460b      	mov	r3, r1
 800819a:	807b      	strh	r3, [r7, #2]
  /* Check the parameters */
  assert_param(IS_SPI_ALL_PERIPH_EXT(SPIx));
 800819c:	687a      	ldr	r2, [r7, #4]
 800819e:	4b14      	ldr	r3, [pc, #80]	; (80081f0 <SPI_I2S_ClearFlag+0x60>)
 80081a0:	429a      	cmp	r2, r3
 80081a2:	d014      	beq.n	80081ce <SPI_I2S_ClearFlag+0x3e>
 80081a4:	687a      	ldr	r2, [r7, #4]
 80081a6:	4b13      	ldr	r3, [pc, #76]	; (80081f4 <SPI_I2S_ClearFlag+0x64>)
 80081a8:	429a      	cmp	r2, r3
 80081aa:	d010      	beq.n	80081ce <SPI_I2S_ClearFlag+0x3e>
 80081ac:	687a      	ldr	r2, [r7, #4]
 80081ae:	4b12      	ldr	r3, [pc, #72]	; (80081f8 <SPI_I2S_ClearFlag+0x68>)
 80081b0:	429a      	cmp	r2, r3
 80081b2:	d00c      	beq.n	80081ce <SPI_I2S_ClearFlag+0x3e>
 80081b4:	687a      	ldr	r2, [r7, #4]
 80081b6:	4b11      	ldr	r3, [pc, #68]	; (80081fc <SPI_I2S_ClearFlag+0x6c>)
 80081b8:	429a      	cmp	r2, r3
 80081ba:	d008      	beq.n	80081ce <SPI_I2S_ClearFlag+0x3e>
 80081bc:	687b      	ldr	r3, [r7, #4]
 80081be:	f1b3 2f40 	cmp.w	r3, #1073758208	; 0x40004000
 80081c2:	d004      	beq.n	80081ce <SPI_I2S_ClearFlag+0x3e>
 80081c4:	480e      	ldr	r0, [pc, #56]	; (8008200 <SPI_I2S_ClearFlag+0x70>)
 80081c6:	f240 419b 	movw	r1, #1179	; 0x49b
 80081ca:	f7fb f9c5 	bl	8003558 <assert_failed>
  assert_param(IS_SPI_I2S_CLEAR_FLAG(SPI_I2S_FLAG));
 80081ce:	887b      	ldrh	r3, [r7, #2]
 80081d0:	2b10      	cmp	r3, #16
 80081d2:	d004      	beq.n	80081de <SPI_I2S_ClearFlag+0x4e>
 80081d4:	480a      	ldr	r0, [pc, #40]	; (8008200 <SPI_I2S_ClearFlag+0x70>)
 80081d6:	f240 419c 	movw	r1, #1180	; 0x49c
 80081da:	f7fb f9bd 	bl	8003558 <assert_failed>
    
  /* Clear the selected SPI CRC Error (CRCERR) flag */
  SPIx->SR = (uint16_t)~SPI_I2S_FLAG;
 80081de:	887b      	ldrh	r3, [r7, #2]
 80081e0:	43db      	mvns	r3, r3
 80081e2:	b29a      	uxth	r2, r3
 80081e4:	687b      	ldr	r3, [r7, #4]
 80081e6:	811a      	strh	r2, [r3, #8]
}
 80081e8:	3708      	adds	r7, #8
 80081ea:	46bd      	mov	sp, r7
 80081ec:	bd80      	pop	{r7, pc}
 80081ee:	bf00      	nop
 80081f0:	40013000 	.word	0x40013000
 80081f4:	40003800 	.word	0x40003800
 80081f8:	40003c00 	.word	0x40003c00
 80081fc:	40003400 	.word	0x40003400
 8008200:	08009930 	.word	0x08009930

08008204 <SYSCFG_EXTILineConfig>:
  *           This parameter can be EXTI_PinSourcex where x can be (0..15, except
  *           for EXTI_PortSourceGPIOI x can be (0..11).
  * @retval None
  */
void SYSCFG_EXTILineConfig(uint8_t EXTI_PortSourceGPIOx, uint8_t EXTI_PinSourcex)
{
 8008204:	b590      	push	{r4, r7, lr}
 8008206:	b085      	sub	sp, #20
 8008208:	af00      	add	r7, sp, #0
 800820a:	4602      	mov	r2, r0
 800820c:	460b      	mov	r3, r1
 800820e:	71fa      	strb	r2, [r7, #7]
 8008210:	71bb      	strb	r3, [r7, #6]
  uint32_t tmp = 0x00;
 8008212:	2300      	movs	r3, #0
 8008214:	60fb      	str	r3, [r7, #12]

  /* Check the parameters */
  assert_param(IS_EXTI_PORT_SOURCE(EXTI_PortSourceGPIOx));
 8008216:	79fb      	ldrb	r3, [r7, #7]
 8008218:	2b00      	cmp	r3, #0
 800821a:	d01b      	beq.n	8008254 <SYSCFG_EXTILineConfig+0x50>
 800821c:	79fb      	ldrb	r3, [r7, #7]
 800821e:	2b01      	cmp	r3, #1
 8008220:	d018      	beq.n	8008254 <SYSCFG_EXTILineConfig+0x50>
 8008222:	79fb      	ldrb	r3, [r7, #7]
 8008224:	2b02      	cmp	r3, #2
 8008226:	d015      	beq.n	8008254 <SYSCFG_EXTILineConfig+0x50>
 8008228:	79fb      	ldrb	r3, [r7, #7]
 800822a:	2b03      	cmp	r3, #3
 800822c:	d012      	beq.n	8008254 <SYSCFG_EXTILineConfig+0x50>
 800822e:	79fb      	ldrb	r3, [r7, #7]
 8008230:	2b04      	cmp	r3, #4
 8008232:	d00f      	beq.n	8008254 <SYSCFG_EXTILineConfig+0x50>
 8008234:	79fb      	ldrb	r3, [r7, #7]
 8008236:	2b05      	cmp	r3, #5
 8008238:	d00c      	beq.n	8008254 <SYSCFG_EXTILineConfig+0x50>
 800823a:	79fb      	ldrb	r3, [r7, #7]
 800823c:	2b06      	cmp	r3, #6
 800823e:	d009      	beq.n	8008254 <SYSCFG_EXTILineConfig+0x50>
 8008240:	79fb      	ldrb	r3, [r7, #7]
 8008242:	2b07      	cmp	r3, #7
 8008244:	d006      	beq.n	8008254 <SYSCFG_EXTILineConfig+0x50>
 8008246:	79fb      	ldrb	r3, [r7, #7]
 8008248:	2b08      	cmp	r3, #8
 800824a:	d003      	beq.n	8008254 <SYSCFG_EXTILineConfig+0x50>
 800824c:	4834      	ldr	r0, [pc, #208]	; (8008320 <SYSCFG_EXTILineConfig+0x11c>)
 800824e:	217c      	movs	r1, #124	; 0x7c
 8008250:	f7fb f982 	bl	8003558 <assert_failed>
  assert_param(IS_EXTI_PIN_SOURCE(EXTI_PinSourcex));
 8008254:	79bb      	ldrb	r3, [r7, #6]
 8008256:	2b00      	cmp	r3, #0
 8008258:	d030      	beq.n	80082bc <SYSCFG_EXTILineConfig+0xb8>
 800825a:	79bb      	ldrb	r3, [r7, #6]
 800825c:	2b01      	cmp	r3, #1
 800825e:	d02d      	beq.n	80082bc <SYSCFG_EXTILineConfig+0xb8>
 8008260:	79bb      	ldrb	r3, [r7, #6]
 8008262:	2b02      	cmp	r3, #2
 8008264:	d02a      	beq.n	80082bc <SYSCFG_EXTILineConfig+0xb8>
 8008266:	79bb      	ldrb	r3, [r7, #6]
 8008268:	2b03      	cmp	r3, #3
 800826a:	d027      	beq.n	80082bc <SYSCFG_EXTILineConfig+0xb8>
 800826c:	79bb      	ldrb	r3, [r7, #6]
 800826e:	2b04      	cmp	r3, #4
 8008270:	d024      	beq.n	80082bc <SYSCFG_EXTILineConfig+0xb8>
 8008272:	79bb      	ldrb	r3, [r7, #6]
 8008274:	2b05      	cmp	r3, #5
 8008276:	d021      	beq.n	80082bc <SYSCFG_EXTILineConfig+0xb8>
 8008278:	79bb      	ldrb	r3, [r7, #6]
 800827a:	2b06      	cmp	r3, #6
 800827c:	d01e      	beq.n	80082bc <SYSCFG_EXTILineConfig+0xb8>
 800827e:	79bb      	ldrb	r3, [r7, #6]
 8008280:	2b07      	cmp	r3, #7
 8008282:	d01b      	beq.n	80082bc <SYSCFG_EXTILineConfig+0xb8>
 8008284:	79bb      	ldrb	r3, [r7, #6]
 8008286:	2b08      	cmp	r3, #8
 8008288:	d018      	beq.n	80082bc <SYSCFG_EXTILineConfig+0xb8>
 800828a:	79bb      	ldrb	r3, [r7, #6]
 800828c:	2b09      	cmp	r3, #9
 800828e:	d015      	beq.n	80082bc <SYSCFG_EXTILineConfig+0xb8>
 8008290:	79bb      	ldrb	r3, [r7, #6]
 8008292:	2b0a      	cmp	r3, #10
 8008294:	d012      	beq.n	80082bc <SYSCFG_EXTILineConfig+0xb8>
 8008296:	79bb      	ldrb	r3, [r7, #6]
 8008298:	2b0b      	cmp	r3, #11
 800829a:	d00f      	beq.n	80082bc <SYSCFG_EXTILineConfig+0xb8>
 800829c:	79bb      	ldrb	r3, [r7, #6]
 800829e:	2b0c      	cmp	r3, #12
 80082a0:	d00c      	beq.n	80082bc <SYSCFG_EXTILineConfig+0xb8>
 80082a2:	79bb      	ldrb	r3, [r7, #6]
 80082a4:	2b0d      	cmp	r3, #13
 80082a6:	d009      	beq.n	80082bc <SYSCFG_EXTILineConfig+0xb8>
 80082a8:	79bb      	ldrb	r3, [r7, #6]
 80082aa:	2b0e      	cmp	r3, #14
 80082ac:	d006      	beq.n	80082bc <SYSCFG_EXTILineConfig+0xb8>
 80082ae:	79bb      	ldrb	r3, [r7, #6]
 80082b0:	2b0f      	cmp	r3, #15
 80082b2:	d003      	beq.n	80082bc <SYSCFG_EXTILineConfig+0xb8>
 80082b4:	481a      	ldr	r0, [pc, #104]	; (8008320 <SYSCFG_EXTILineConfig+0x11c>)
 80082b6:	217d      	movs	r1, #125	; 0x7d
 80082b8:	f7fb f94e 	bl	8003558 <assert_failed>

  tmp = ((uint32_t)0x0F) << (0x04 * (EXTI_PinSourcex & (uint8_t)0x03));
 80082bc:	79bb      	ldrb	r3, [r7, #6]
 80082be:	f003 0303 	and.w	r3, r3, #3
 80082c2:	009b      	lsls	r3, r3, #2
 80082c4:	220f      	movs	r2, #15
 80082c6:	fa02 f303 	lsl.w	r3, r2, r3
 80082ca:	60fb      	str	r3, [r7, #12]
  SYSCFG->EXTICR[EXTI_PinSourcex >> 0x02] &= ~tmp;
 80082cc:	4b15      	ldr	r3, [pc, #84]	; (8008324 <SYSCFG_EXTILineConfig+0x120>)
 80082ce:	79ba      	ldrb	r2, [r7, #6]
 80082d0:	0892      	lsrs	r2, r2, #2
 80082d2:	b2d2      	uxtb	r2, r2
 80082d4:	4913      	ldr	r1, [pc, #76]	; (8008324 <SYSCFG_EXTILineConfig+0x120>)
 80082d6:	79b8      	ldrb	r0, [r7, #6]
 80082d8:	0880      	lsrs	r0, r0, #2
 80082da:	b2c0      	uxtb	r0, r0
 80082dc:	3002      	adds	r0, #2
 80082de:	f851 0020 	ldr.w	r0, [r1, r0, lsl #2]
 80082e2:	68f9      	ldr	r1, [r7, #12]
 80082e4:	43c9      	mvns	r1, r1
 80082e6:	4001      	ands	r1, r0
 80082e8:	3202      	adds	r2, #2
 80082ea:	f843 1022 	str.w	r1, [r3, r2, lsl #2]
  SYSCFG->EXTICR[EXTI_PinSourcex >> 0x02] |= (((uint32_t)EXTI_PortSourceGPIOx) << (0x04 * (EXTI_PinSourcex & (uint8_t)0x03)));
 80082ee:	4b0d      	ldr	r3, [pc, #52]	; (8008324 <SYSCFG_EXTILineConfig+0x120>)
 80082f0:	79ba      	ldrb	r2, [r7, #6]
 80082f2:	0892      	lsrs	r2, r2, #2
 80082f4:	b2d2      	uxtb	r2, r2
 80082f6:	490b      	ldr	r1, [pc, #44]	; (8008324 <SYSCFG_EXTILineConfig+0x120>)
 80082f8:	79b8      	ldrb	r0, [r7, #6]
 80082fa:	0880      	lsrs	r0, r0, #2
 80082fc:	b2c0      	uxtb	r0, r0
 80082fe:	3002      	adds	r0, #2
 8008300:	f851 0020 	ldr.w	r0, [r1, r0, lsl #2]
 8008304:	79fc      	ldrb	r4, [r7, #7]
 8008306:	79b9      	ldrb	r1, [r7, #6]
 8008308:	f001 0103 	and.w	r1, r1, #3
 800830c:	0089      	lsls	r1, r1, #2
 800830e:	fa04 f101 	lsl.w	r1, r4, r1
 8008312:	4301      	orrs	r1, r0
 8008314:	3202      	adds	r2, #2
 8008316:	f843 1022 	str.w	r1, [r3, r2, lsl #2]
}
 800831a:	3714      	adds	r7, #20
 800831c:	46bd      	mov	sp, r7
 800831e:	bd90      	pop	{r4, r7, pc}
 8008320:	08009980 	.word	0x08009980
 8008324:	40013800 	.word	0x40013800

08008328 <USART_Init>:
  * @param  USART_InitStruct: pointer to a USART_InitTypeDef structure that contains
  *         the configuration information for the specified USART peripheral.
  * @retval None
  */
void USART_Init(USART_TypeDef* USARTx, USART_InitTypeDef* USART_InitStruct)
{
 8008328:	b580      	push	{r7, lr}
 800832a:	b08a      	sub	sp, #40	; 0x28
 800832c:	af00      	add	r7, sp, #0
 800832e:	6078      	str	r0, [r7, #4]
 8008330:	6039      	str	r1, [r7, #0]
  uint32_t tmpreg = 0x00, apbclock = 0x00;
 8008332:	2300      	movs	r3, #0
 8008334:	627b      	str	r3, [r7, #36]	; 0x24
 8008336:	2300      	movs	r3, #0
 8008338:	623b      	str	r3, [r7, #32]
  uint32_t integerdivider = 0x00;
 800833a:	2300      	movs	r3, #0
 800833c:	61fb      	str	r3, [r7, #28]
  uint32_t fractionaldivider = 0x00;
 800833e:	2300      	movs	r3, #0
 8008340:	61bb      	str	r3, [r7, #24]
  RCC_ClocksTypeDef RCC_ClocksStatus;

  /* Check the parameters */
  assert_param(IS_USART_ALL_PERIPH(USARTx));
 8008342:	687a      	ldr	r2, [r7, #4]
 8008344:	4b97      	ldr	r3, [pc, #604]	; (80085a4 <USART_Init+0x27c>)
 8008346:	429a      	cmp	r2, r3
 8008348:	d017      	beq.n	800837a <USART_Init+0x52>
 800834a:	687a      	ldr	r2, [r7, #4]
 800834c:	4b96      	ldr	r3, [pc, #600]	; (80085a8 <USART_Init+0x280>)
 800834e:	429a      	cmp	r2, r3
 8008350:	d013      	beq.n	800837a <USART_Init+0x52>
 8008352:	687a      	ldr	r2, [r7, #4]
 8008354:	4b95      	ldr	r3, [pc, #596]	; (80085ac <USART_Init+0x284>)
 8008356:	429a      	cmp	r2, r3
 8008358:	d00f      	beq.n	800837a <USART_Init+0x52>
 800835a:	687a      	ldr	r2, [r7, #4]
 800835c:	4b94      	ldr	r3, [pc, #592]	; (80085b0 <USART_Init+0x288>)
 800835e:	429a      	cmp	r2, r3
 8008360:	d00b      	beq.n	800837a <USART_Init+0x52>
 8008362:	687a      	ldr	r2, [r7, #4]
 8008364:	4b93      	ldr	r3, [pc, #588]	; (80085b4 <USART_Init+0x28c>)
 8008366:	429a      	cmp	r2, r3
 8008368:	d007      	beq.n	800837a <USART_Init+0x52>
 800836a:	687a      	ldr	r2, [r7, #4]
 800836c:	4b92      	ldr	r3, [pc, #584]	; (80085b8 <USART_Init+0x290>)
 800836e:	429a      	cmp	r2, r3
 8008370:	d003      	beq.n	800837a <USART_Init+0x52>
 8008372:	4892      	ldr	r0, [pc, #584]	; (80085bc <USART_Init+0x294>)
 8008374:	21eb      	movs	r1, #235	; 0xeb
 8008376:	f7fb f8ef 	bl	8003558 <assert_failed>
  assert_param(IS_USART_BAUDRATE(USART_InitStruct->USART_BaudRate));  
 800837a:	683b      	ldr	r3, [r7, #0]
 800837c:	681b      	ldr	r3, [r3, #0]
 800837e:	2b00      	cmp	r3, #0
 8008380:	d004      	beq.n	800838c <USART_Init+0x64>
 8008382:	683b      	ldr	r3, [r7, #0]
 8008384:	681a      	ldr	r2, [r3, #0]
 8008386:	4b8e      	ldr	r3, [pc, #568]	; (80085c0 <USART_Init+0x298>)
 8008388:	429a      	cmp	r2, r3
 800838a:	d903      	bls.n	8008394 <USART_Init+0x6c>
 800838c:	488b      	ldr	r0, [pc, #556]	; (80085bc <USART_Init+0x294>)
 800838e:	21ec      	movs	r1, #236	; 0xec
 8008390:	f7fb f8e2 	bl	8003558 <assert_failed>
  assert_param(IS_USART_WORD_LENGTH(USART_InitStruct->USART_WordLength));
 8008394:	683b      	ldr	r3, [r7, #0]
 8008396:	889b      	ldrh	r3, [r3, #4]
 8008398:	2b00      	cmp	r3, #0
 800839a:	d008      	beq.n	80083ae <USART_Init+0x86>
 800839c:	683b      	ldr	r3, [r7, #0]
 800839e:	889b      	ldrh	r3, [r3, #4]
 80083a0:	f5b3 5f80 	cmp.w	r3, #4096	; 0x1000
 80083a4:	d003      	beq.n	80083ae <USART_Init+0x86>
 80083a6:	4885      	ldr	r0, [pc, #532]	; (80085bc <USART_Init+0x294>)
 80083a8:	21ed      	movs	r1, #237	; 0xed
 80083aa:	f7fb f8d5 	bl	8003558 <assert_failed>
  assert_param(IS_USART_STOPBITS(USART_InitStruct->USART_StopBits));
 80083ae:	683b      	ldr	r3, [r7, #0]
 80083b0:	88db      	ldrh	r3, [r3, #6]
 80083b2:	2b00      	cmp	r3, #0
 80083b4:	d012      	beq.n	80083dc <USART_Init+0xb4>
 80083b6:	683b      	ldr	r3, [r7, #0]
 80083b8:	88db      	ldrh	r3, [r3, #6]
 80083ba:	f5b3 5f80 	cmp.w	r3, #4096	; 0x1000
 80083be:	d00d      	beq.n	80083dc <USART_Init+0xb4>
 80083c0:	683b      	ldr	r3, [r7, #0]
 80083c2:	88db      	ldrh	r3, [r3, #6]
 80083c4:	f5b3 5f00 	cmp.w	r3, #8192	; 0x2000
 80083c8:	d008      	beq.n	80083dc <USART_Init+0xb4>
 80083ca:	683b      	ldr	r3, [r7, #0]
 80083cc:	88db      	ldrh	r3, [r3, #6]
 80083ce:	f5b3 5f40 	cmp.w	r3, #12288	; 0x3000
 80083d2:	d003      	beq.n	80083dc <USART_Init+0xb4>
 80083d4:	4879      	ldr	r0, [pc, #484]	; (80085bc <USART_Init+0x294>)
 80083d6:	21ee      	movs	r1, #238	; 0xee
 80083d8:	f7fb f8be 	bl	8003558 <assert_failed>
  assert_param(IS_USART_PARITY(USART_InitStruct->USART_Parity));
 80083dc:	683b      	ldr	r3, [r7, #0]
 80083de:	891b      	ldrh	r3, [r3, #8]
 80083e0:	2b00      	cmp	r3, #0
 80083e2:	d00d      	beq.n	8008400 <USART_Init+0xd8>
 80083e4:	683b      	ldr	r3, [r7, #0]
 80083e6:	891b      	ldrh	r3, [r3, #8]
 80083e8:	f5b3 6f80 	cmp.w	r3, #1024	; 0x400
 80083ec:	d008      	beq.n	8008400 <USART_Init+0xd8>
 80083ee:	683b      	ldr	r3, [r7, #0]
 80083f0:	891b      	ldrh	r3, [r3, #8]
 80083f2:	f5b3 6fc0 	cmp.w	r3, #1536	; 0x600
 80083f6:	d003      	beq.n	8008400 <USART_Init+0xd8>
 80083f8:	4870      	ldr	r0, [pc, #448]	; (80085bc <USART_Init+0x294>)
 80083fa:	21ef      	movs	r1, #239	; 0xef
 80083fc:	f7fb f8ac 	bl	8003558 <assert_failed>
  assert_param(IS_USART_MODE(USART_InitStruct->USART_Mode));
 8008400:	683b      	ldr	r3, [r7, #0]
 8008402:	895b      	ldrh	r3, [r3, #10]
 8008404:	461a      	mov	r2, r3
 8008406:	f64f 73f3 	movw	r3, #65523	; 0xfff3
 800840a:	4013      	ands	r3, r2
 800840c:	2b00      	cmp	r3, #0
 800840e:	d103      	bne.n	8008418 <USART_Init+0xf0>
 8008410:	683b      	ldr	r3, [r7, #0]
 8008412:	895b      	ldrh	r3, [r3, #10]
 8008414:	2b00      	cmp	r3, #0
 8008416:	d103      	bne.n	8008420 <USART_Init+0xf8>
 8008418:	4868      	ldr	r0, [pc, #416]	; (80085bc <USART_Init+0x294>)
 800841a:	21f0      	movs	r1, #240	; 0xf0
 800841c:	f7fb f89c 	bl	8003558 <assert_failed>
  assert_param(IS_USART_HARDWARE_FLOW_CONTROL(USART_InitStruct->USART_HardwareFlowControl));
 8008420:	683b      	ldr	r3, [r7, #0]
 8008422:	899b      	ldrh	r3, [r3, #12]
 8008424:	2b00      	cmp	r3, #0
 8008426:	d012      	beq.n	800844e <USART_Init+0x126>
 8008428:	683b      	ldr	r3, [r7, #0]
 800842a:	899b      	ldrh	r3, [r3, #12]
 800842c:	f5b3 7f80 	cmp.w	r3, #256	; 0x100
 8008430:	d00d      	beq.n	800844e <USART_Init+0x126>
 8008432:	683b      	ldr	r3, [r7, #0]
 8008434:	899b      	ldrh	r3, [r3, #12]
 8008436:	f5b3 7f00 	cmp.w	r3, #512	; 0x200
 800843a:	d008      	beq.n	800844e <USART_Init+0x126>
 800843c:	683b      	ldr	r3, [r7, #0]
 800843e:	899b      	ldrh	r3, [r3, #12]
 8008440:	f5b3 7f40 	cmp.w	r3, #768	; 0x300
 8008444:	d003      	beq.n	800844e <USART_Init+0x126>
 8008446:	485d      	ldr	r0, [pc, #372]	; (80085bc <USART_Init+0x294>)
 8008448:	21f1      	movs	r1, #241	; 0xf1
 800844a:	f7fb f885 	bl	8003558 <assert_failed>

  /* The hardware flow control is available only for USART1, USART2, USART3 and USART6 */
  if (USART_InitStruct->USART_HardwareFlowControl != USART_HardwareFlowControl_None)
 800844e:	683b      	ldr	r3, [r7, #0]
 8008450:	899b      	ldrh	r3, [r3, #12]
 8008452:	2b00      	cmp	r3, #0
 8008454:	d013      	beq.n	800847e <USART_Init+0x156>
  {
    assert_param(IS_USART_1236_PERIPH(USARTx));
 8008456:	687a      	ldr	r2, [r7, #4]
 8008458:	4b52      	ldr	r3, [pc, #328]	; (80085a4 <USART_Init+0x27c>)
 800845a:	429a      	cmp	r2, r3
 800845c:	d00f      	beq.n	800847e <USART_Init+0x156>
 800845e:	687a      	ldr	r2, [r7, #4]
 8008460:	4b51      	ldr	r3, [pc, #324]	; (80085a8 <USART_Init+0x280>)
 8008462:	429a      	cmp	r2, r3
 8008464:	d00b      	beq.n	800847e <USART_Init+0x156>
 8008466:	687a      	ldr	r2, [r7, #4]
 8008468:	4b50      	ldr	r3, [pc, #320]	; (80085ac <USART_Init+0x284>)
 800846a:	429a      	cmp	r2, r3
 800846c:	d007      	beq.n	800847e <USART_Init+0x156>
 800846e:	687a      	ldr	r2, [r7, #4]
 8008470:	4b51      	ldr	r3, [pc, #324]	; (80085b8 <USART_Init+0x290>)
 8008472:	429a      	cmp	r2, r3
 8008474:	d003      	beq.n	800847e <USART_Init+0x156>
 8008476:	4851      	ldr	r0, [pc, #324]	; (80085bc <USART_Init+0x294>)
 8008478:	21f6      	movs	r1, #246	; 0xf6
 800847a:	f7fb f86d 	bl	8003558 <assert_failed>
  }

/*---------------------------- USART CR2 Configuration -----------------------*/
  tmpreg = USARTx->CR2;
 800847e:	687b      	ldr	r3, [r7, #4]
 8008480:	8a1b      	ldrh	r3, [r3, #16]
 8008482:	b29b      	uxth	r3, r3
 8008484:	627b      	str	r3, [r7, #36]	; 0x24

  /* Clear STOP[13:12] bits */
  tmpreg &= (uint32_t)~((uint32_t)USART_CR2_STOP);
 8008486:	6a7b      	ldr	r3, [r7, #36]	; 0x24
 8008488:	f423 5340 	bic.w	r3, r3, #12288	; 0x3000
 800848c:	627b      	str	r3, [r7, #36]	; 0x24

  /* Configure the USART Stop Bits, Clock, CPOL, CPHA and LastBit :
      Set STOP[13:12] bits according to USART_StopBits value */
  tmpreg |= (uint32_t)USART_InitStruct->USART_StopBits;
 800848e:	683b      	ldr	r3, [r7, #0]
 8008490:	88db      	ldrh	r3, [r3, #6]
 8008492:	6a7a      	ldr	r2, [r7, #36]	; 0x24
 8008494:	4313      	orrs	r3, r2
 8008496:	627b      	str	r3, [r7, #36]	; 0x24
  
  /* Write to USART CR2 */
  USARTx->CR2 = (uint16_t)tmpreg;
 8008498:	6a7b      	ldr	r3, [r7, #36]	; 0x24
 800849a:	b29a      	uxth	r2, r3
 800849c:	687b      	ldr	r3, [r7, #4]
 800849e:	821a      	strh	r2, [r3, #16]

/*---------------------------- USART CR1 Configuration -----------------------*/
  tmpreg = USARTx->CR1;
 80084a0:	687b      	ldr	r3, [r7, #4]
 80084a2:	899b      	ldrh	r3, [r3, #12]
 80084a4:	b29b      	uxth	r3, r3
 80084a6:	627b      	str	r3, [r7, #36]	; 0x24

  /* Clear M, PCE, PS, TE and RE bits */
  tmpreg &= (uint32_t)~((uint32_t)CR1_CLEAR_MASK);
 80084a8:	6a7b      	ldr	r3, [r7, #36]	; 0x24
 80084aa:	f423 53b0 	bic.w	r3, r3, #5632	; 0x1600
 80084ae:	f023 030c 	bic.w	r3, r3, #12
 80084b2:	627b      	str	r3, [r7, #36]	; 0x24

  /* Configure the USART Word Length, Parity and mode: 
     Set the M bits according to USART_WordLength value 
     Set PCE and PS bits according to USART_Parity value
     Set TE and RE bits according to USART_Mode value */
  tmpreg |= (uint32_t)USART_InitStruct->USART_WordLength | USART_InitStruct->USART_Parity |
 80084b4:	683b      	ldr	r3, [r7, #0]
 80084b6:	889a      	ldrh	r2, [r3, #4]
 80084b8:	683b      	ldr	r3, [r7, #0]
 80084ba:	891b      	ldrh	r3, [r3, #8]
 80084bc:	4313      	orrs	r3, r2
 80084be:	b29a      	uxth	r2, r3
            USART_InitStruct->USART_Mode;
 80084c0:	683b      	ldr	r3, [r7, #0]
 80084c2:	895b      	ldrh	r3, [r3, #10]

  /* Configure the USART Word Length, Parity and mode: 
     Set the M bits according to USART_WordLength value 
     Set PCE and PS bits according to USART_Parity value
     Set TE and RE bits according to USART_Mode value */
  tmpreg |= (uint32_t)USART_InitStruct->USART_WordLength | USART_InitStruct->USART_Parity |
 80084c4:	4313      	orrs	r3, r2
 80084c6:	b29b      	uxth	r3, r3
 80084c8:	6a7a      	ldr	r2, [r7, #36]	; 0x24
 80084ca:	4313      	orrs	r3, r2
 80084cc:	627b      	str	r3, [r7, #36]	; 0x24
            USART_InitStruct->USART_Mode;

  /* Write to USART CR1 */
  USARTx->CR1 = (uint16_t)tmpreg;
 80084ce:	6a7b      	ldr	r3, [r7, #36]	; 0x24
 80084d0:	b29a      	uxth	r2, r3
 80084d2:	687b      	ldr	r3, [r7, #4]
 80084d4:	819a      	strh	r2, [r3, #12]

/*---------------------------- USART CR3 Configuration -----------------------*/  
  tmpreg = USARTx->CR3;
 80084d6:	687b      	ldr	r3, [r7, #4]
 80084d8:	8a9b      	ldrh	r3, [r3, #20]
 80084da:	b29b      	uxth	r3, r3
 80084dc:	627b      	str	r3, [r7, #36]	; 0x24

  /* Clear CTSE and RTSE bits */
  tmpreg &= (uint32_t)~((uint32_t)CR3_CLEAR_MASK);
 80084de:	6a7b      	ldr	r3, [r7, #36]	; 0x24
 80084e0:	f423 7340 	bic.w	r3, r3, #768	; 0x300
 80084e4:	627b      	str	r3, [r7, #36]	; 0x24

  /* Configure the USART HFC : 
      Set CTSE and RTSE bits according to USART_HardwareFlowControl value */
  tmpreg |= USART_InitStruct->USART_HardwareFlowControl;
 80084e6:	683b      	ldr	r3, [r7, #0]
 80084e8:	899b      	ldrh	r3, [r3, #12]
 80084ea:	6a7a      	ldr	r2, [r7, #36]	; 0x24
 80084ec:	4313      	orrs	r3, r2
 80084ee:	627b      	str	r3, [r7, #36]	; 0x24

  /* Write to USART CR3 */
  USARTx->CR3 = (uint16_t)tmpreg;
 80084f0:	6a7b      	ldr	r3, [r7, #36]	; 0x24
 80084f2:	b29a      	uxth	r2, r3
 80084f4:	687b      	ldr	r3, [r7, #4]
 80084f6:	829a      	strh	r2, [r3, #20]

/*---------------------------- USART BRR Configuration -----------------------*/
  /* Configure the USART Baud Rate */
  RCC_GetClocksFreq(&RCC_ClocksStatus);
 80084f8:	f107 0308 	add.w	r3, r7, #8
 80084fc:	4618      	mov	r0, r3
 80084fe:	f7ff fb3d 	bl	8007b7c <RCC_GetClocksFreq>

  if ((USARTx == USART1) || (USARTx == USART6))
 8008502:	687a      	ldr	r2, [r7, #4]
 8008504:	4b27      	ldr	r3, [pc, #156]	; (80085a4 <USART_Init+0x27c>)
 8008506:	429a      	cmp	r2, r3
 8008508:	d003      	beq.n	8008512 <USART_Init+0x1ea>
 800850a:	687a      	ldr	r2, [r7, #4]
 800850c:	4b2a      	ldr	r3, [pc, #168]	; (80085b8 <USART_Init+0x290>)
 800850e:	429a      	cmp	r2, r3
 8008510:	d102      	bne.n	8008518 <USART_Init+0x1f0>
  {
    apbclock = RCC_ClocksStatus.PCLK2_Frequency;
 8008512:	697b      	ldr	r3, [r7, #20]
 8008514:	623b      	str	r3, [r7, #32]
 8008516:	e001      	b.n	800851c <USART_Init+0x1f4>
  }
  else
  {
    apbclock = RCC_ClocksStatus.PCLK1_Frequency;
 8008518:	693b      	ldr	r3, [r7, #16]
 800851a:	623b      	str	r3, [r7, #32]
  }
  
  /* Determine the integer part */
  if ((USARTx->CR1 & USART_CR1_OVER8) != 0)
 800851c:	687b      	ldr	r3, [r7, #4]
 800851e:	899b      	ldrh	r3, [r3, #12]
 8008520:	b29b      	uxth	r3, r3
 8008522:	b29b      	uxth	r3, r3
 8008524:	b21b      	sxth	r3, r3
 8008526:	2b00      	cmp	r3, #0
 8008528:	da0c      	bge.n	8008544 <USART_Init+0x21c>
  {
    /* Integer part computing in case Oversampling mode is 8 Samples */
    integerdivider = ((25 * apbclock) / (2 * (USART_InitStruct->USART_BaudRate)));    
 800852a:	6a3a      	ldr	r2, [r7, #32]
 800852c:	4613      	mov	r3, r2
 800852e:	009b      	lsls	r3, r3, #2
 8008530:	4413      	add	r3, r2
 8008532:	009a      	lsls	r2, r3, #2
 8008534:	441a      	add	r2, r3
 8008536:	683b      	ldr	r3, [r7, #0]
 8008538:	681b      	ldr	r3, [r3, #0]
 800853a:	005b      	lsls	r3, r3, #1
 800853c:	fbb2 f3f3 	udiv	r3, r2, r3
 8008540:	61fb      	str	r3, [r7, #28]
 8008542:	e00b      	b.n	800855c <USART_Init+0x234>
  }
  else /* if ((USARTx->CR1 & USART_CR1_OVER8) == 0) */
  {
    /* Integer part computing in case Oversampling mode is 16 Samples */
    integerdivider = ((25 * apbclock) / (4 * (USART_InitStruct->USART_BaudRate)));    
 8008544:	6a3a      	ldr	r2, [r7, #32]
 8008546:	4613      	mov	r3, r2
 8008548:	009b      	lsls	r3, r3, #2
 800854a:	4413      	add	r3, r2
 800854c:	009a      	lsls	r2, r3, #2
 800854e:	441a      	add	r2, r3
 8008550:	683b      	ldr	r3, [r7, #0]
 8008552:	681b      	ldr	r3, [r3, #0]
 8008554:	009b      	lsls	r3, r3, #2
 8008556:	fbb2 f3f3 	udiv	r3, r2, r3
 800855a:	61fb      	str	r3, [r7, #28]
  }
  tmpreg = (integerdivider / 100) << 4;
 800855c:	69fa      	ldr	r2, [r7, #28]
 800855e:	4b19      	ldr	r3, [pc, #100]	; (80085c4 <USART_Init+0x29c>)
 8008560:	fba3 1302 	umull	r1, r3, r3, r2
 8008564:	095b      	lsrs	r3, r3, #5
 8008566:	011b      	lsls	r3, r3, #4
 8008568:	627b      	str	r3, [r7, #36]	; 0x24

  /* Determine the fractional part */
  fractionaldivider = integerdivider - (100 * (tmpreg >> 4));
 800856a:	6a7b      	ldr	r3, [r7, #36]	; 0x24
 800856c:	091b      	lsrs	r3, r3, #4
 800856e:	2264      	movs	r2, #100	; 0x64
 8008570:	fb02 f303 	mul.w	r3, r2, r3
 8008574:	69fa      	ldr	r2, [r7, #28]
 8008576:	1ad3      	subs	r3, r2, r3
 8008578:	61bb      	str	r3, [r7, #24]

  /* Implement the fractional part in the register */
  if ((USARTx->CR1 & USART_CR1_OVER8) != 0)
 800857a:	687b      	ldr	r3, [r7, #4]
 800857c:	899b      	ldrh	r3, [r3, #12]
 800857e:	b29b      	uxth	r3, r3
 8008580:	b29b      	uxth	r3, r3
 8008582:	b21b      	sxth	r3, r3
 8008584:	2b00      	cmp	r3, #0
 8008586:	da1f      	bge.n	80085c8 <USART_Init+0x2a0>
  {
    tmpreg |= ((((fractionaldivider * 8) + 50) / 100)) & ((uint8_t)0x07);
 8008588:	69bb      	ldr	r3, [r7, #24]
 800858a:	00db      	lsls	r3, r3, #3
 800858c:	f103 0232 	add.w	r2, r3, #50	; 0x32
 8008590:	4b0c      	ldr	r3, [pc, #48]	; (80085c4 <USART_Init+0x29c>)
 8008592:	fba3 1302 	umull	r1, r3, r3, r2
 8008596:	095b      	lsrs	r3, r3, #5
 8008598:	f003 0307 	and.w	r3, r3, #7
 800859c:	6a7a      	ldr	r2, [r7, #36]	; 0x24
 800859e:	4313      	orrs	r3, r2
 80085a0:	627b      	str	r3, [r7, #36]	; 0x24
 80085a2:	e01e      	b.n	80085e2 <USART_Init+0x2ba>
 80085a4:	40011000 	.word	0x40011000
 80085a8:	40004400 	.word	0x40004400
 80085ac:	40004800 	.word	0x40004800
 80085b0:	40004c00 	.word	0x40004c00
 80085b4:	40005000 	.word	0x40005000
 80085b8:	40011400 	.word	0x40011400
 80085bc:	080099d4 	.word	0x080099d4
 80085c0:	007270e0 	.word	0x007270e0
 80085c4:	51eb851f 	.word	0x51eb851f
  }
  else /* if ((USARTx->CR1 & USART_CR1_OVER8) == 0) */
  {
    tmpreg |= ((((fractionaldivider * 16) + 50) / 100)) & ((uint8_t)0x0F);
 80085c8:	69bb      	ldr	r3, [r7, #24]
 80085ca:	011b      	lsls	r3, r3, #4
 80085cc:	f103 0232 	add.w	r2, r3, #50	; 0x32
 80085d0:	4b07      	ldr	r3, [pc, #28]	; (80085f0 <USART_Init+0x2c8>)
 80085d2:	fba3 1302 	umull	r1, r3, r3, r2
 80085d6:	095b      	lsrs	r3, r3, #5
 80085d8:	f003 030f 	and.w	r3, r3, #15
 80085dc:	6a7a      	ldr	r2, [r7, #36]	; 0x24
 80085de:	4313      	orrs	r3, r2
 80085e0:	627b      	str	r3, [r7, #36]	; 0x24
  }
  
  /* Write to USART BRR register */
  USARTx->BRR = (uint16_t)tmpreg;
 80085e2:	6a7b      	ldr	r3, [r7, #36]	; 0x24
 80085e4:	b29a      	uxth	r2, r3
 80085e6:	687b      	ldr	r3, [r7, #4]
 80085e8:	811a      	strh	r2, [r3, #8]
}
 80085ea:	3728      	adds	r7, #40	; 0x28
 80085ec:	46bd      	mov	sp, r7
 80085ee:	bd80      	pop	{r7, pc}
 80085f0:	51eb851f 	.word	0x51eb851f

080085f4 <USART_Cmd>:
  * @param  NewState: new state of the USARTx peripheral.
  *          This parameter can be: ENABLE or DISABLE.
  * @retval None
  */
void USART_Cmd(USART_TypeDef* USARTx, FunctionalState NewState)
{
 80085f4:	b580      	push	{r7, lr}
 80085f6:	b082      	sub	sp, #8
 80085f8:	af00      	add	r7, sp, #0
 80085fa:	6078      	str	r0, [r7, #4]
 80085fc:	460b      	mov	r3, r1
 80085fe:	70fb      	strb	r3, [r7, #3]
  /* Check the parameters */
  assert_param(IS_USART_ALL_PERIPH(USARTx));
 8008600:	687a      	ldr	r2, [r7, #4]
 8008602:	4b1f      	ldr	r3, [pc, #124]	; (8008680 <USART_Cmd+0x8c>)
 8008604:	429a      	cmp	r2, r3
 8008606:	d018      	beq.n	800863a <USART_Cmd+0x46>
 8008608:	687a      	ldr	r2, [r7, #4]
 800860a:	4b1e      	ldr	r3, [pc, #120]	; (8008684 <USART_Cmd+0x90>)
 800860c:	429a      	cmp	r2, r3
 800860e:	d014      	beq.n	800863a <USART_Cmd+0x46>
 8008610:	687a      	ldr	r2, [r7, #4]
 8008612:	4b1d      	ldr	r3, [pc, #116]	; (8008688 <USART_Cmd+0x94>)
 8008614:	429a      	cmp	r2, r3
 8008616:	d010      	beq.n	800863a <USART_Cmd+0x46>
 8008618:	687a      	ldr	r2, [r7, #4]
 800861a:	4b1c      	ldr	r3, [pc, #112]	; (800868c <USART_Cmd+0x98>)
 800861c:	429a      	cmp	r2, r3
 800861e:	d00c      	beq.n	800863a <USART_Cmd+0x46>
 8008620:	687a      	ldr	r2, [r7, #4]
 8008622:	4b1b      	ldr	r3, [pc, #108]	; (8008690 <USART_Cmd+0x9c>)
 8008624:	429a      	cmp	r2, r3
 8008626:	d008      	beq.n	800863a <USART_Cmd+0x46>
 8008628:	687a      	ldr	r2, [r7, #4]
 800862a:	4b1a      	ldr	r3, [pc, #104]	; (8008694 <USART_Cmd+0xa0>)
 800862c:	429a      	cmp	r2, r3
 800862e:	d004      	beq.n	800863a <USART_Cmd+0x46>
 8008630:	4819      	ldr	r0, [pc, #100]	; (8008698 <USART_Cmd+0xa4>)
 8008632:	f240 119b 	movw	r1, #411	; 0x19b
 8008636:	f7fa ff8f 	bl	8003558 <assert_failed>
  assert_param(IS_FUNCTIONAL_STATE(NewState));
 800863a:	78fb      	ldrb	r3, [r7, #3]
 800863c:	2b00      	cmp	r3, #0
 800863e:	d007      	beq.n	8008650 <USART_Cmd+0x5c>
 8008640:	78fb      	ldrb	r3, [r7, #3]
 8008642:	2b01      	cmp	r3, #1
 8008644:	d004      	beq.n	8008650 <USART_Cmd+0x5c>
 8008646:	4814      	ldr	r0, [pc, #80]	; (8008698 <USART_Cmd+0xa4>)
 8008648:	f44f 71ce 	mov.w	r1, #412	; 0x19c
 800864c:	f7fa ff84 	bl	8003558 <assert_failed>
  
  if (NewState != DISABLE)
 8008650:	78fb      	ldrb	r3, [r7, #3]
 8008652:	2b00      	cmp	r3, #0
 8008654:	d008      	beq.n	8008668 <USART_Cmd+0x74>
  {
    /* Enable the selected USART by setting the UE bit in the CR1 register */
    USARTx->CR1 |= USART_CR1_UE;
 8008656:	687b      	ldr	r3, [r7, #4]
 8008658:	899b      	ldrh	r3, [r3, #12]
 800865a:	b29b      	uxth	r3, r3
 800865c:	f443 5300 	orr.w	r3, r3, #8192	; 0x2000
 8008660:	b29a      	uxth	r2, r3
 8008662:	687b      	ldr	r3, [r7, #4]
 8008664:	819a      	strh	r2, [r3, #12]
 8008666:	e007      	b.n	8008678 <USART_Cmd+0x84>
  }
  else
  {
    /* Disable the selected USART by clearing the UE bit in the CR1 register */
    USARTx->CR1 &= (uint16_t)~((uint16_t)USART_CR1_UE);
 8008668:	687b      	ldr	r3, [r7, #4]
 800866a:	899b      	ldrh	r3, [r3, #12]
 800866c:	b29b      	uxth	r3, r3
 800866e:	f423 5300 	bic.w	r3, r3, #8192	; 0x2000
 8008672:	b29a      	uxth	r2, r3
 8008674:	687b      	ldr	r3, [r7, #4]
 8008676:	819a      	strh	r2, [r3, #12]
  }
}
 8008678:	3708      	adds	r7, #8
 800867a:	46bd      	mov	sp, r7
 800867c:	bd80      	pop	{r7, pc}
 800867e:	bf00      	nop
 8008680:	40011000 	.word	0x40011000
 8008684:	40004400 	.word	0x40004400
 8008688:	40004800 	.word	0x40004800
 800868c:	40004c00 	.word	0x40004c00
 8008690:	40005000 	.word	0x40005000
 8008694:	40011400 	.word	0x40011400
 8008698:	080099d4 	.word	0x080099d4

0800869c <USART_ITConfig>:
  * @param  NewState: new state of the specified USARTx interrupts.
  *          This parameter can be: ENABLE or DISABLE.
  * @retval None
  */
void USART_ITConfig(USART_TypeDef* USARTx, uint16_t USART_IT, FunctionalState NewState)
{
 800869c:	b580      	push	{r7, lr}
 800869e:	b086      	sub	sp, #24
 80086a0:	af00      	add	r7, sp, #0
 80086a2:	6078      	str	r0, [r7, #4]
 80086a4:	4613      	mov	r3, r2
 80086a6:	460a      	mov	r2, r1
 80086a8:	807a      	strh	r2, [r7, #2]
 80086aa:	707b      	strb	r3, [r7, #1]
  uint32_t usartreg = 0x00, itpos = 0x00, itmask = 0x00;
 80086ac:	2300      	movs	r3, #0
 80086ae:	613b      	str	r3, [r7, #16]
 80086b0:	2300      	movs	r3, #0
 80086b2:	60fb      	str	r3, [r7, #12]
 80086b4:	2300      	movs	r3, #0
 80086b6:	60bb      	str	r3, [r7, #8]
  uint32_t usartxbase = 0x00;
 80086b8:	2300      	movs	r3, #0
 80086ba:	617b      	str	r3, [r7, #20]
  /* Check the parameters */
  assert_param(IS_USART_ALL_PERIPH(USARTx));
 80086bc:	687a      	ldr	r2, [r7, #4]
 80086be:	4b4f      	ldr	r3, [pc, #316]	; (80087fc <USART_ITConfig+0x160>)
 80086c0:	429a      	cmp	r2, r3
 80086c2:	d018      	beq.n	80086f6 <USART_ITConfig+0x5a>
 80086c4:	687a      	ldr	r2, [r7, #4]
 80086c6:	4b4e      	ldr	r3, [pc, #312]	; (8008800 <USART_ITConfig+0x164>)
 80086c8:	429a      	cmp	r2, r3
 80086ca:	d014      	beq.n	80086f6 <USART_ITConfig+0x5a>
 80086cc:	687a      	ldr	r2, [r7, #4]
 80086ce:	4b4d      	ldr	r3, [pc, #308]	; (8008804 <USART_ITConfig+0x168>)
 80086d0:	429a      	cmp	r2, r3
 80086d2:	d010      	beq.n	80086f6 <USART_ITConfig+0x5a>
 80086d4:	687a      	ldr	r2, [r7, #4]
 80086d6:	4b4c      	ldr	r3, [pc, #304]	; (8008808 <USART_ITConfig+0x16c>)
 80086d8:	429a      	cmp	r2, r3
 80086da:	d00c      	beq.n	80086f6 <USART_ITConfig+0x5a>
 80086dc:	687a      	ldr	r2, [r7, #4]
 80086de:	4b4b      	ldr	r3, [pc, #300]	; (800880c <USART_ITConfig+0x170>)
 80086e0:	429a      	cmp	r2, r3
 80086e2:	d008      	beq.n	80086f6 <USART_ITConfig+0x5a>
 80086e4:	687a      	ldr	r2, [r7, #4]
 80086e6:	4b4a      	ldr	r3, [pc, #296]	; (8008810 <USART_ITConfig+0x174>)
 80086e8:	429a      	cmp	r2, r3
 80086ea:	d004      	beq.n	80086f6 <USART_ITConfig+0x5a>
 80086ec:	4849      	ldr	r0, [pc, #292]	; (8008814 <USART_ITConfig+0x178>)
 80086ee:	f240 41bd 	movw	r1, #1213	; 0x4bd
 80086f2:	f7fa ff31 	bl	8003558 <assert_failed>
  assert_param(IS_USART_CONFIG_IT(USART_IT));
 80086f6:	887b      	ldrh	r3, [r7, #2]
 80086f8:	2b28      	cmp	r3, #40	; 0x28
 80086fa:	d025      	beq.n	8008748 <USART_ITConfig+0xac>
 80086fc:	887a      	ldrh	r2, [r7, #2]
 80086fe:	f240 7327 	movw	r3, #1831	; 0x727
 8008702:	429a      	cmp	r2, r3
 8008704:	d020      	beq.n	8008748 <USART_ITConfig+0xac>
 8008706:	887a      	ldrh	r2, [r7, #2]
 8008708:	f240 6326 	movw	r3, #1574	; 0x626
 800870c:	429a      	cmp	r2, r3
 800870e:	d01b      	beq.n	8008748 <USART_ITConfig+0xac>
 8008710:	887a      	ldrh	r2, [r7, #2]
 8008712:	f240 5325 	movw	r3, #1317	; 0x525
 8008716:	429a      	cmp	r2, r3
 8008718:	d016      	beq.n	8008748 <USART_ITConfig+0xac>
 800871a:	887a      	ldrh	r2, [r7, #2]
 800871c:	f240 4324 	movw	r3, #1060	; 0x424
 8008720:	429a      	cmp	r2, r3
 8008722:	d011      	beq.n	8008748 <USART_ITConfig+0xac>
 8008724:	887a      	ldrh	r2, [r7, #2]
 8008726:	f640 0346 	movw	r3, #2118	; 0x846
 800872a:	429a      	cmp	r2, r3
 800872c:	d00c      	beq.n	8008748 <USART_ITConfig+0xac>
 800872e:	887a      	ldrh	r2, [r7, #2]
 8008730:	f640 136a 	movw	r3, #2410	; 0x96a
 8008734:	429a      	cmp	r2, r3
 8008736:	d007      	beq.n	8008748 <USART_ITConfig+0xac>
 8008738:	887b      	ldrh	r3, [r7, #2]
 800873a:	2b60      	cmp	r3, #96	; 0x60
 800873c:	d004      	beq.n	8008748 <USART_ITConfig+0xac>
 800873e:	4835      	ldr	r0, [pc, #212]	; (8008814 <USART_ITConfig+0x178>)
 8008740:	f240 41be 	movw	r1, #1214	; 0x4be
 8008744:	f7fa ff08 	bl	8003558 <assert_failed>
  assert_param(IS_FUNCTIONAL_STATE(NewState));
 8008748:	787b      	ldrb	r3, [r7, #1]
 800874a:	2b00      	cmp	r3, #0
 800874c:	d007      	beq.n	800875e <USART_ITConfig+0xc2>
 800874e:	787b      	ldrb	r3, [r7, #1]
 8008750:	2b01      	cmp	r3, #1
 8008752:	d004      	beq.n	800875e <USART_ITConfig+0xc2>
 8008754:	482f      	ldr	r0, [pc, #188]	; (8008814 <USART_ITConfig+0x178>)
 8008756:	f240 41bf 	movw	r1, #1215	; 0x4bf
 800875a:	f7fa fefd 	bl	8003558 <assert_failed>

  /* The CTS interrupt is not available for UART4 and UART5 */
  if (USART_IT == USART_IT_CTS)
 800875e:	887a      	ldrh	r2, [r7, #2]
 8008760:	f640 136a 	movw	r3, #2410	; 0x96a
 8008764:	429a      	cmp	r2, r3
 8008766:	d114      	bne.n	8008792 <USART_ITConfig+0xf6>
  {
    assert_param(IS_USART_1236_PERIPH(USARTx));
 8008768:	687a      	ldr	r2, [r7, #4]
 800876a:	4b24      	ldr	r3, [pc, #144]	; (80087fc <USART_ITConfig+0x160>)
 800876c:	429a      	cmp	r2, r3
 800876e:	d010      	beq.n	8008792 <USART_ITConfig+0xf6>
 8008770:	687a      	ldr	r2, [r7, #4]
 8008772:	4b23      	ldr	r3, [pc, #140]	; (8008800 <USART_ITConfig+0x164>)
 8008774:	429a      	cmp	r2, r3
 8008776:	d00c      	beq.n	8008792 <USART_ITConfig+0xf6>
 8008778:	687a      	ldr	r2, [r7, #4]
 800877a:	4b22      	ldr	r3, [pc, #136]	; (8008804 <USART_ITConfig+0x168>)
 800877c:	429a      	cmp	r2, r3
 800877e:	d008      	beq.n	8008792 <USART_ITConfig+0xf6>
 8008780:	687a      	ldr	r2, [r7, #4]
 8008782:	4b23      	ldr	r3, [pc, #140]	; (8008810 <USART_ITConfig+0x174>)
 8008784:	429a      	cmp	r2, r3
 8008786:	d004      	beq.n	8008792 <USART_ITConfig+0xf6>
 8008788:	4822      	ldr	r0, [pc, #136]	; (8008814 <USART_ITConfig+0x178>)
 800878a:	f240 41c4 	movw	r1, #1220	; 0x4c4
 800878e:	f7fa fee3 	bl	8003558 <assert_failed>
  } 
    
  usartxbase = (uint32_t)USARTx;
 8008792:	687b      	ldr	r3, [r7, #4]
 8008794:	617b      	str	r3, [r7, #20]

  /* Get the USART register index */
  usartreg = (((uint8_t)USART_IT) >> 0x05);
 8008796:	887b      	ldrh	r3, [r7, #2]
 8008798:	b2db      	uxtb	r3, r3
 800879a:	095b      	lsrs	r3, r3, #5
 800879c:	b2db      	uxtb	r3, r3
 800879e:	613b      	str	r3, [r7, #16]

  /* Get the interrupt position */
  itpos = USART_IT & IT_MASK;
 80087a0:	887b      	ldrh	r3, [r7, #2]
 80087a2:	f003 031f 	and.w	r3, r3, #31
 80087a6:	60fb      	str	r3, [r7, #12]
  itmask = (((uint32_t)0x01) << itpos);
 80087a8:	68fb      	ldr	r3, [r7, #12]
 80087aa:	2201      	movs	r2, #1
 80087ac:	fa02 f303 	lsl.w	r3, r2, r3
 80087b0:	60bb      	str	r3, [r7, #8]
    
  if (usartreg == 0x01) /* The IT is in CR1 register */
 80087b2:	693b      	ldr	r3, [r7, #16]
 80087b4:	2b01      	cmp	r3, #1
 80087b6:	d103      	bne.n	80087c0 <USART_ITConfig+0x124>
  {
    usartxbase += 0x0C;
 80087b8:	697b      	ldr	r3, [r7, #20]
 80087ba:	330c      	adds	r3, #12
 80087bc:	617b      	str	r3, [r7, #20]
 80087be:	e009      	b.n	80087d4 <USART_ITConfig+0x138>
  }
  else if (usartreg == 0x02) /* The IT is in CR2 register */
 80087c0:	693b      	ldr	r3, [r7, #16]
 80087c2:	2b02      	cmp	r3, #2
 80087c4:	d103      	bne.n	80087ce <USART_ITConfig+0x132>
  {
    usartxbase += 0x10;
 80087c6:	697b      	ldr	r3, [r7, #20]
 80087c8:	3310      	adds	r3, #16
 80087ca:	617b      	str	r3, [r7, #20]
 80087cc:	e002      	b.n	80087d4 <USART_ITConfig+0x138>
  }
  else /* The IT is in CR3 register */
  {
    usartxbase += 0x14; 
 80087ce:	697b      	ldr	r3, [r7, #20]
 80087d0:	3314      	adds	r3, #20
 80087d2:	617b      	str	r3, [r7, #20]
  }
  if (NewState != DISABLE)
 80087d4:	787b      	ldrb	r3, [r7, #1]
 80087d6:	2b00      	cmp	r3, #0
 80087d8:	d006      	beq.n	80087e8 <USART_ITConfig+0x14c>
  {
    *(__IO uint32_t*)usartxbase  |= itmask;
 80087da:	697b      	ldr	r3, [r7, #20]
 80087dc:	697a      	ldr	r2, [r7, #20]
 80087de:	6811      	ldr	r1, [r2, #0]
 80087e0:	68ba      	ldr	r2, [r7, #8]
 80087e2:	430a      	orrs	r2, r1
 80087e4:	601a      	str	r2, [r3, #0]
 80087e6:	e006      	b.n	80087f6 <USART_ITConfig+0x15a>
  }
  else
  {
    *(__IO uint32_t*)usartxbase &= ~itmask;
 80087e8:	697b      	ldr	r3, [r7, #20]
 80087ea:	697a      	ldr	r2, [r7, #20]
 80087ec:	6811      	ldr	r1, [r2, #0]
 80087ee:	68ba      	ldr	r2, [r7, #8]
 80087f0:	43d2      	mvns	r2, r2
 80087f2:	400a      	ands	r2, r1
 80087f4:	601a      	str	r2, [r3, #0]
  }
}
 80087f6:	3718      	adds	r7, #24
 80087f8:	46bd      	mov	sp, r7
 80087fa:	bd80      	pop	{r7, pc}
 80087fc:	40011000 	.word	0x40011000
 8008800:	40004400 	.word	0x40004400
 8008804:	40004800 	.word	0x40004800
 8008808:	40004c00 	.word	0x40004c00
 800880c:	40005000 	.word	0x40005000
 8008810:	40011400 	.word	0x40011400
 8008814:	080099d4 	.word	0x080099d4

08008818 <USART_GetITStatus>:
  *            @arg USART_IT_FE:   Framing Error interrupt
  *            @arg USART_IT_PE:   Parity Error interrupt
  * @retval The new state of USART_IT (SET or RESET).
  */
ITStatus USART_GetITStatus(USART_TypeDef* USARTx, uint16_t USART_IT)
{
 8008818:	b580      	push	{r7, lr}
 800881a:	b086      	sub	sp, #24
 800881c:	af00      	add	r7, sp, #0
 800881e:	6078      	str	r0, [r7, #4]
 8008820:	460b      	mov	r3, r1
 8008822:	807b      	strh	r3, [r7, #2]
  uint32_t bitpos = 0x00, itmask = 0x00, usartreg = 0x00;
 8008824:	2300      	movs	r3, #0
 8008826:	60fb      	str	r3, [r7, #12]
 8008828:	2300      	movs	r3, #0
 800882a:	617b      	str	r3, [r7, #20]
 800882c:	2300      	movs	r3, #0
 800882e:	60bb      	str	r3, [r7, #8]
  ITStatus bitstatus = RESET;
 8008830:	2300      	movs	r3, #0
 8008832:	74fb      	strb	r3, [r7, #19]
  /* Check the parameters */
  assert_param(IS_USART_ALL_PERIPH(USARTx));
 8008834:	687a      	ldr	r2, [r7, #4]
 8008836:	4b5c      	ldr	r3, [pc, #368]	; (80089a8 <USART_GetITStatus+0x190>)
 8008838:	429a      	cmp	r2, r3
 800883a:	d018      	beq.n	800886e <USART_GetITStatus+0x56>
 800883c:	687a      	ldr	r2, [r7, #4]
 800883e:	4b5b      	ldr	r3, [pc, #364]	; (80089ac <USART_GetITStatus+0x194>)
 8008840:	429a      	cmp	r2, r3
 8008842:	d014      	beq.n	800886e <USART_GetITStatus+0x56>
 8008844:	687a      	ldr	r2, [r7, #4]
 8008846:	4b5a      	ldr	r3, [pc, #360]	; (80089b0 <USART_GetITStatus+0x198>)
 8008848:	429a      	cmp	r2, r3
 800884a:	d010      	beq.n	800886e <USART_GetITStatus+0x56>
 800884c:	687a      	ldr	r2, [r7, #4]
 800884e:	4b59      	ldr	r3, [pc, #356]	; (80089b4 <USART_GetITStatus+0x19c>)
 8008850:	429a      	cmp	r2, r3
 8008852:	d00c      	beq.n	800886e <USART_GetITStatus+0x56>
 8008854:	687a      	ldr	r2, [r7, #4]
 8008856:	4b58      	ldr	r3, [pc, #352]	; (80089b8 <USART_GetITStatus+0x1a0>)
 8008858:	429a      	cmp	r2, r3
 800885a:	d008      	beq.n	800886e <USART_GetITStatus+0x56>
 800885c:	687a      	ldr	r2, [r7, #4]
 800885e:	4b57      	ldr	r3, [pc, #348]	; (80089bc <USART_GetITStatus+0x1a4>)
 8008860:	429a      	cmp	r2, r3
 8008862:	d004      	beq.n	800886e <USART_GetITStatus+0x56>
 8008864:	4856      	ldr	r0, [pc, #344]	; (80089c0 <USART_GetITStatus+0x1a8>)
 8008866:	f44f 61aa 	mov.w	r1, #1360	; 0x550
 800886a:	f7fa fe75 	bl	8003558 <assert_failed>
  assert_param(IS_USART_GET_IT(USART_IT)); 
 800886e:	887b      	ldrh	r3, [r7, #2]
 8008870:	2b28      	cmp	r3, #40	; 0x28
 8008872:	d037      	beq.n	80088e4 <USART_GetITStatus+0xcc>
 8008874:	887a      	ldrh	r2, [r7, #2]
 8008876:	f240 7327 	movw	r3, #1831	; 0x727
 800887a:	429a      	cmp	r2, r3
 800887c:	d032      	beq.n	80088e4 <USART_GetITStatus+0xcc>
 800887e:	887a      	ldrh	r2, [r7, #2]
 8008880:	f240 6326 	movw	r3, #1574	; 0x626
 8008884:	429a      	cmp	r2, r3
 8008886:	d02d      	beq.n	80088e4 <USART_GetITStatus+0xcc>
 8008888:	887a      	ldrh	r2, [r7, #2]
 800888a:	f240 5325 	movw	r3, #1317	; 0x525
 800888e:	429a      	cmp	r2, r3
 8008890:	d028      	beq.n	80088e4 <USART_GetITStatus+0xcc>
 8008892:	887a      	ldrh	r2, [r7, #2]
 8008894:	f240 4324 	movw	r3, #1060	; 0x424
 8008898:	429a      	cmp	r2, r3
 800889a:	d023      	beq.n	80088e4 <USART_GetITStatus+0xcc>
 800889c:	887a      	ldrh	r2, [r7, #2]
 800889e:	f640 0346 	movw	r3, #2118	; 0x846
 80088a2:	429a      	cmp	r2, r3
 80088a4:	d01e      	beq.n	80088e4 <USART_GetITStatus+0xcc>
 80088a6:	887a      	ldrh	r2, [r7, #2]
 80088a8:	f640 136a 	movw	r3, #2410	; 0x96a
 80088ac:	429a      	cmp	r2, r3
 80088ae:	d019      	beq.n	80088e4 <USART_GetITStatus+0xcc>
 80088b0:	887b      	ldrh	r3, [r7, #2]
 80088b2:	f5b3 7f58 	cmp.w	r3, #864	; 0x360
 80088b6:	d015      	beq.n	80088e4 <USART_GetITStatus+0xcc>
 80088b8:	887a      	ldrh	r2, [r7, #2]
 80088ba:	f240 3325 	movw	r3, #805	; 0x325
 80088be:	429a      	cmp	r2, r3
 80088c0:	d010      	beq.n	80088e4 <USART_GetITStatus+0xcc>
 80088c2:	887b      	ldrh	r3, [r7, #2]
 80088c4:	f5b3 7f58 	cmp.w	r3, #864	; 0x360
 80088c8:	d00c      	beq.n	80088e4 <USART_GetITStatus+0xcc>
 80088ca:	887b      	ldrh	r3, [r7, #2]
 80088cc:	f5b3 7f18 	cmp.w	r3, #608	; 0x260
 80088d0:	d008      	beq.n	80088e4 <USART_GetITStatus+0xcc>
 80088d2:	887b      	ldrh	r3, [r7, #2]
 80088d4:	f5b3 7fb0 	cmp.w	r3, #352	; 0x160
 80088d8:	d004      	beq.n	80088e4 <USART_GetITStatus+0xcc>
 80088da:	4839      	ldr	r0, [pc, #228]	; (80089c0 <USART_GetITStatus+0x1a8>)
 80088dc:	f240 5151 	movw	r1, #1361	; 0x551
 80088e0:	f7fa fe3a 	bl	8003558 <assert_failed>

  /* The CTS interrupt is not available for UART4 and UART5 */ 
  if (USART_IT == USART_IT_CTS)
 80088e4:	887a      	ldrh	r2, [r7, #2]
 80088e6:	f640 136a 	movw	r3, #2410	; 0x96a
 80088ea:	429a      	cmp	r2, r3
 80088ec:	d114      	bne.n	8008918 <USART_GetITStatus+0x100>
  {
    assert_param(IS_USART_1236_PERIPH(USARTx));
 80088ee:	687a      	ldr	r2, [r7, #4]
 80088f0:	4b2d      	ldr	r3, [pc, #180]	; (80089a8 <USART_GetITStatus+0x190>)
 80088f2:	429a      	cmp	r2, r3
 80088f4:	d010      	beq.n	8008918 <USART_GetITStatus+0x100>
 80088f6:	687a      	ldr	r2, [r7, #4]
 80088f8:	4b2c      	ldr	r3, [pc, #176]	; (80089ac <USART_GetITStatus+0x194>)
 80088fa:	429a      	cmp	r2, r3
 80088fc:	d00c      	beq.n	8008918 <USART_GetITStatus+0x100>
 80088fe:	687a      	ldr	r2, [r7, #4]
 8008900:	4b2b      	ldr	r3, [pc, #172]	; (80089b0 <USART_GetITStatus+0x198>)
 8008902:	429a      	cmp	r2, r3
 8008904:	d008      	beq.n	8008918 <USART_GetITStatus+0x100>
 8008906:	687a      	ldr	r2, [r7, #4]
 8008908:	4b2c      	ldr	r3, [pc, #176]	; (80089bc <USART_GetITStatus+0x1a4>)
 800890a:	429a      	cmp	r2, r3
 800890c:	d004      	beq.n	8008918 <USART_GetITStatus+0x100>
 800890e:	482c      	ldr	r0, [pc, #176]	; (80089c0 <USART_GetITStatus+0x1a8>)
 8008910:	f240 5156 	movw	r1, #1366	; 0x556
 8008914:	f7fa fe20 	bl	8003558 <assert_failed>
  } 
    
  /* Get the USART register index */
  usartreg = (((uint8_t)USART_IT) >> 0x05);
 8008918:	887b      	ldrh	r3, [r7, #2]
 800891a:	b2db      	uxtb	r3, r3
 800891c:	095b      	lsrs	r3, r3, #5
 800891e:	b2db      	uxtb	r3, r3
 8008920:	60bb      	str	r3, [r7, #8]
  /* Get the interrupt position */
  itmask = USART_IT & IT_MASK;
 8008922:	887b      	ldrh	r3, [r7, #2]
 8008924:	f003 031f 	and.w	r3, r3, #31
 8008928:	617b      	str	r3, [r7, #20]
  itmask = (uint32_t)0x01 << itmask;
 800892a:	697b      	ldr	r3, [r7, #20]
 800892c:	2201      	movs	r2, #1
 800892e:	fa02 f303 	lsl.w	r3, r2, r3
 8008932:	617b      	str	r3, [r7, #20]
  
  if (usartreg == 0x01) /* The IT  is in CR1 register */
 8008934:	68bb      	ldr	r3, [r7, #8]
 8008936:	2b01      	cmp	r3, #1
 8008938:	d106      	bne.n	8008948 <USART_GetITStatus+0x130>
  {
    itmask &= USARTx->CR1;
 800893a:	687b      	ldr	r3, [r7, #4]
 800893c:	899b      	ldrh	r3, [r3, #12]
 800893e:	b29b      	uxth	r3, r3
 8008940:	697a      	ldr	r2, [r7, #20]
 8008942:	4013      	ands	r3, r2
 8008944:	617b      	str	r3, [r7, #20]
 8008946:	e00f      	b.n	8008968 <USART_GetITStatus+0x150>
  }
  else if (usartreg == 0x02) /* The IT  is in CR2 register */
 8008948:	68bb      	ldr	r3, [r7, #8]
 800894a:	2b02      	cmp	r3, #2
 800894c:	d106      	bne.n	800895c <USART_GetITStatus+0x144>
  {
    itmask &= USARTx->CR2;
 800894e:	687b      	ldr	r3, [r7, #4]
 8008950:	8a1b      	ldrh	r3, [r3, #16]
 8008952:	b29b      	uxth	r3, r3
 8008954:	697a      	ldr	r2, [r7, #20]
 8008956:	4013      	ands	r3, r2
 8008958:	617b      	str	r3, [r7, #20]
 800895a:	e005      	b.n	8008968 <USART_GetITStatus+0x150>
  }
  else /* The IT  is in CR3 register */
  {
    itmask &= USARTx->CR3;
 800895c:	687b      	ldr	r3, [r7, #4]
 800895e:	8a9b      	ldrh	r3, [r3, #20]
 8008960:	b29b      	uxth	r3, r3
 8008962:	697a      	ldr	r2, [r7, #20]
 8008964:	4013      	ands	r3, r2
 8008966:	617b      	str	r3, [r7, #20]
  }
  
  bitpos = USART_IT >> 0x08;
 8008968:	887b      	ldrh	r3, [r7, #2]
 800896a:	0a1b      	lsrs	r3, r3, #8
 800896c:	b29b      	uxth	r3, r3
 800896e:	60fb      	str	r3, [r7, #12]
  bitpos = (uint32_t)0x01 << bitpos;
 8008970:	68fb      	ldr	r3, [r7, #12]
 8008972:	2201      	movs	r2, #1
 8008974:	fa02 f303 	lsl.w	r3, r2, r3
 8008978:	60fb      	str	r3, [r7, #12]
  bitpos &= USARTx->SR;
 800897a:	687b      	ldr	r3, [r7, #4]
 800897c:	881b      	ldrh	r3, [r3, #0]
 800897e:	b29b      	uxth	r3, r3
 8008980:	68fa      	ldr	r2, [r7, #12]
 8008982:	4013      	ands	r3, r2
 8008984:	60fb      	str	r3, [r7, #12]
  if ((itmask != (uint16_t)RESET)&&(bitpos != (uint16_t)RESET))
 8008986:	697b      	ldr	r3, [r7, #20]
 8008988:	2b00      	cmp	r3, #0
 800898a:	d005      	beq.n	8008998 <USART_GetITStatus+0x180>
 800898c:	68fb      	ldr	r3, [r7, #12]
 800898e:	2b00      	cmp	r3, #0
 8008990:	d002      	beq.n	8008998 <USART_GetITStatus+0x180>
  {
    bitstatus = SET;
 8008992:	2301      	movs	r3, #1
 8008994:	74fb      	strb	r3, [r7, #19]
 8008996:	e001      	b.n	800899c <USART_GetITStatus+0x184>
  }
  else
  {
    bitstatus = RESET;
 8008998:	2300      	movs	r3, #0
 800899a:	74fb      	strb	r3, [r7, #19]
  }
  
  return bitstatus;  
 800899c:	7cfb      	ldrb	r3, [r7, #19]
}
 800899e:	4618      	mov	r0, r3
 80089a0:	3718      	adds	r7, #24
 80089a2:	46bd      	mov	sp, r7
 80089a4:	bd80      	pop	{r7, pc}
 80089a6:	bf00      	nop
 80089a8:	40011000 	.word	0x40011000
 80089ac:	40004400 	.word	0x40004400
 80089b0:	40004800 	.word	0x40004800
 80089b4:	40004c00 	.word	0x40004c00
 80089b8:	40005000 	.word	0x40005000
 80089bc:	40011400 	.word	0x40011400
 80089c0:	080099d4 	.word	0x080099d4

080089c4 <USART_ClearITPendingBit>:
  *          (USART_SendData()).
  *  
  * @retval None
  */
void USART_ClearITPendingBit(USART_TypeDef* USARTx, uint16_t USART_IT)
{
 80089c4:	b580      	push	{r7, lr}
 80089c6:	b084      	sub	sp, #16
 80089c8:	af00      	add	r7, sp, #0
 80089ca:	6078      	str	r0, [r7, #4]
 80089cc:	460b      	mov	r3, r1
 80089ce:	807b      	strh	r3, [r7, #2]
  uint16_t bitpos = 0x00, itmask = 0x00;
 80089d0:	2300      	movs	r3, #0
 80089d2:	81fb      	strh	r3, [r7, #14]
 80089d4:	2300      	movs	r3, #0
 80089d6:	81bb      	strh	r3, [r7, #12]
  /* Check the parameters */
  assert_param(IS_USART_ALL_PERIPH(USARTx));
 80089d8:	687a      	ldr	r2, [r7, #4]
 80089da:	4b2f      	ldr	r3, [pc, #188]	; (8008a98 <USART_ClearITPendingBit+0xd4>)
 80089dc:	429a      	cmp	r2, r3
 80089de:	d018      	beq.n	8008a12 <USART_ClearITPendingBit+0x4e>
 80089e0:	687a      	ldr	r2, [r7, #4]
 80089e2:	4b2e      	ldr	r3, [pc, #184]	; (8008a9c <USART_ClearITPendingBit+0xd8>)
 80089e4:	429a      	cmp	r2, r3
 80089e6:	d014      	beq.n	8008a12 <USART_ClearITPendingBit+0x4e>
 80089e8:	687a      	ldr	r2, [r7, #4]
 80089ea:	4b2d      	ldr	r3, [pc, #180]	; (8008aa0 <USART_ClearITPendingBit+0xdc>)
 80089ec:	429a      	cmp	r2, r3
 80089ee:	d010      	beq.n	8008a12 <USART_ClearITPendingBit+0x4e>
 80089f0:	687a      	ldr	r2, [r7, #4]
 80089f2:	4b2c      	ldr	r3, [pc, #176]	; (8008aa4 <USART_ClearITPendingBit+0xe0>)
 80089f4:	429a      	cmp	r2, r3
 80089f6:	d00c      	beq.n	8008a12 <USART_ClearITPendingBit+0x4e>
 80089f8:	687a      	ldr	r2, [r7, #4]
 80089fa:	4b2b      	ldr	r3, [pc, #172]	; (8008aa8 <USART_ClearITPendingBit+0xe4>)
 80089fc:	429a      	cmp	r2, r3
 80089fe:	d008      	beq.n	8008a12 <USART_ClearITPendingBit+0x4e>
 8008a00:	687a      	ldr	r2, [r7, #4]
 8008a02:	4b2a      	ldr	r3, [pc, #168]	; (8008aac <USART_ClearITPendingBit+0xe8>)
 8008a04:	429a      	cmp	r2, r3
 8008a06:	d004      	beq.n	8008a12 <USART_ClearITPendingBit+0x4e>
 8008a08:	4829      	ldr	r0, [pc, #164]	; (8008ab0 <USART_ClearITPendingBit+0xec>)
 8008a0a:	f240 5199 	movw	r1, #1433	; 0x599
 8008a0e:	f7fa fda3 	bl	8003558 <assert_failed>
  assert_param(IS_USART_CLEAR_IT(USART_IT)); 
 8008a12:	887a      	ldrh	r2, [r7, #2]
 8008a14:	f240 6326 	movw	r3, #1574	; 0x626
 8008a18:	429a      	cmp	r2, r3
 8008a1a:	d013      	beq.n	8008a44 <USART_ClearITPendingBit+0x80>
 8008a1c:	887a      	ldrh	r2, [r7, #2]
 8008a1e:	f240 5325 	movw	r3, #1317	; 0x525
 8008a22:	429a      	cmp	r2, r3
 8008a24:	d00e      	beq.n	8008a44 <USART_ClearITPendingBit+0x80>
 8008a26:	887a      	ldrh	r2, [r7, #2]
 8008a28:	f640 0346 	movw	r3, #2118	; 0x846
 8008a2c:	429a      	cmp	r2, r3
 8008a2e:	d009      	beq.n	8008a44 <USART_ClearITPendingBit+0x80>
 8008a30:	887a      	ldrh	r2, [r7, #2]
 8008a32:	f640 136a 	movw	r3, #2410	; 0x96a
 8008a36:	429a      	cmp	r2, r3
 8008a38:	d004      	beq.n	8008a44 <USART_ClearITPendingBit+0x80>
 8008a3a:	481d      	ldr	r0, [pc, #116]	; (8008ab0 <USART_ClearITPendingBit+0xec>)
 8008a3c:	f240 519a 	movw	r1, #1434	; 0x59a
 8008a40:	f7fa fd8a 	bl	8003558 <assert_failed>

  /* The CTS interrupt is not available for UART4 and UART5 */
  if (USART_IT == USART_IT_CTS)
 8008a44:	887a      	ldrh	r2, [r7, #2]
 8008a46:	f640 136a 	movw	r3, #2410	; 0x96a
 8008a4a:	429a      	cmp	r2, r3
 8008a4c:	d114      	bne.n	8008a78 <USART_ClearITPendingBit+0xb4>
  {
    assert_param(IS_USART_1236_PERIPH(USARTx));
 8008a4e:	687a      	ldr	r2, [r7, #4]
 8008a50:	4b11      	ldr	r3, [pc, #68]	; (8008a98 <USART_ClearITPendingBit+0xd4>)
 8008a52:	429a      	cmp	r2, r3
 8008a54:	d010      	beq.n	8008a78 <USART_ClearITPendingBit+0xb4>
 8008a56:	687a      	ldr	r2, [r7, #4]
 8008a58:	4b10      	ldr	r3, [pc, #64]	; (8008a9c <USART_ClearITPendingBit+0xd8>)
 8008a5a:	429a      	cmp	r2, r3
 8008a5c:	d00c      	beq.n	8008a78 <USART_ClearITPendingBit+0xb4>
 8008a5e:	687a      	ldr	r2, [r7, #4]
 8008a60:	4b0f      	ldr	r3, [pc, #60]	; (8008aa0 <USART_ClearITPendingBit+0xdc>)
 8008a62:	429a      	cmp	r2, r3
 8008a64:	d008      	beq.n	8008a78 <USART_ClearITPendingBit+0xb4>
 8008a66:	687a      	ldr	r2, [r7, #4]
 8008a68:	4b10      	ldr	r3, [pc, #64]	; (8008aac <USART_ClearITPendingBit+0xe8>)
 8008a6a:	429a      	cmp	r2, r3
 8008a6c:	d004      	beq.n	8008a78 <USART_ClearITPendingBit+0xb4>
 8008a6e:	4810      	ldr	r0, [pc, #64]	; (8008ab0 <USART_ClearITPendingBit+0xec>)
 8008a70:	f240 519f 	movw	r1, #1439	; 0x59f
 8008a74:	f7fa fd70 	bl	8003558 <assert_failed>
  } 
    
  bitpos = USART_IT >> 0x08;
 8008a78:	887b      	ldrh	r3, [r7, #2]
 8008a7a:	0a1b      	lsrs	r3, r3, #8
 8008a7c:	81fb      	strh	r3, [r7, #14]
  itmask = ((uint16_t)0x01 << (uint16_t)bitpos);
 8008a7e:	89fb      	ldrh	r3, [r7, #14]
 8008a80:	2201      	movs	r2, #1
 8008a82:	fa02 f303 	lsl.w	r3, r2, r3
 8008a86:	81bb      	strh	r3, [r7, #12]
  USARTx->SR = (uint16_t)~itmask;
 8008a88:	89bb      	ldrh	r3, [r7, #12]
 8008a8a:	43db      	mvns	r3, r3
 8008a8c:	b29a      	uxth	r2, r3
 8008a8e:	687b      	ldr	r3, [r7, #4]
 8008a90:	801a      	strh	r2, [r3, #0]
}
 8008a92:	3710      	adds	r7, #16
 8008a94:	46bd      	mov	sp, r7
 8008a96:	bd80      	pop	{r7, pc}
 8008a98:	40011000 	.word	0x40011000
 8008a9c:	40004400 	.word	0x40004400
 8008aa0:	40004800 	.word	0x40004800
 8008aa4:	40004c00 	.word	0x40004c00
 8008aa8:	40005000 	.word	0x40005000
 8008aac:	40011400 	.word	0x40011400
 8008ab0:	080099d4 	.word	0x080099d4

08008ab4 <atoi>:
 8008ab4:	2100      	movs	r1, #0
 8008ab6:	220a      	movs	r2, #10
 8008ab8:	f000 ba4a 	b.w	8008f50 <strtol>

08008abc <__libc_init_array>:
 8008abc:	b570      	push	{r4, r5, r6, lr}
 8008abe:	4e0f      	ldr	r6, [pc, #60]	; (8008afc <__libc_init_array+0x40>)
 8008ac0:	4d0f      	ldr	r5, [pc, #60]	; (8008b00 <__libc_init_array+0x44>)
 8008ac2:	1b76      	subs	r6, r6, r5
 8008ac4:	10b6      	asrs	r6, r6, #2
 8008ac6:	d007      	beq.n	8008ad8 <__libc_init_array+0x1c>
 8008ac8:	3d04      	subs	r5, #4
 8008aca:	2400      	movs	r4, #0
 8008acc:	3401      	adds	r4, #1
 8008ace:	f855 3f04 	ldr.w	r3, [r5, #4]!
 8008ad2:	4798      	blx	r3
 8008ad4:	42a6      	cmp	r6, r4
 8008ad6:	d1f9      	bne.n	8008acc <__libc_init_array+0x10>
 8008ad8:	4e0a      	ldr	r6, [pc, #40]	; (8008b04 <__libc_init_array+0x48>)
 8008ada:	4d0b      	ldr	r5, [pc, #44]	; (8008b08 <__libc_init_array+0x4c>)
 8008adc:	1b76      	subs	r6, r6, r5
 8008ade:	f001 f94b 	bl	8009d78 <_init>
 8008ae2:	10b6      	asrs	r6, r6, #2
 8008ae4:	d008      	beq.n	8008af8 <__libc_init_array+0x3c>
 8008ae6:	3d04      	subs	r5, #4
 8008ae8:	2400      	movs	r4, #0
 8008aea:	3401      	adds	r4, #1
 8008aec:	f855 3f04 	ldr.w	r3, [r5, #4]!
 8008af0:	4798      	blx	r3
 8008af2:	42a6      	cmp	r6, r4
 8008af4:	d1f9      	bne.n	8008aea <__libc_init_array+0x2e>
 8008af6:	bd70      	pop	{r4, r5, r6, pc}
 8008af8:	bd70      	pop	{r4, r5, r6, pc}
 8008afa:	bf00      	nop
 8008afc:	08009d90 	.word	0x08009d90
 8008b00:	08009d90 	.word	0x08009d90
 8008b04:	08009d98 	.word	0x08009d98
 8008b08:	08009d90 	.word	0x08009d90

08008b0c <memcmp>:
 8008b0c:	2a03      	cmp	r2, #3
 8008b0e:	b470      	push	{r4, r5, r6}
 8008b10:	d928      	bls.n	8008b64 <memcmp+0x58>
 8008b12:	ea40 0301 	orr.w	r3, r0, r1
 8008b16:	079b      	lsls	r3, r3, #30
 8008b18:	d013      	beq.n	8008b42 <memcmp+0x36>
 8008b1a:	7805      	ldrb	r5, [r0, #0]
 8008b1c:	780c      	ldrb	r4, [r1, #0]
 8008b1e:	42a5      	cmp	r5, r4
 8008b20:	d124      	bne.n	8008b6c <memcmp+0x60>
 8008b22:	3a01      	subs	r2, #1
 8008b24:	2300      	movs	r3, #0
 8008b26:	e005      	b.n	8008b34 <memcmp+0x28>
 8008b28:	f810 5f01 	ldrb.w	r5, [r0, #1]!
 8008b2c:	f811 4f01 	ldrb.w	r4, [r1, #1]!
 8008b30:	42a5      	cmp	r5, r4
 8008b32:	d11b      	bne.n	8008b6c <memcmp+0x60>
 8008b34:	4293      	cmp	r3, r2
 8008b36:	f103 0301 	add.w	r3, r3, #1
 8008b3a:	d1f5      	bne.n	8008b28 <memcmp+0x1c>
 8008b3c:	2000      	movs	r0, #0
 8008b3e:	bc70      	pop	{r4, r5, r6}
 8008b40:	4770      	bx	lr
 8008b42:	460c      	mov	r4, r1
 8008b44:	4603      	mov	r3, r0
 8008b46:	6825      	ldr	r5, [r4, #0]
 8008b48:	681e      	ldr	r6, [r3, #0]
 8008b4a:	42ae      	cmp	r6, r5
 8008b4c:	4621      	mov	r1, r4
 8008b4e:	4618      	mov	r0, r3
 8008b50:	f104 0404 	add.w	r4, r4, #4
 8008b54:	f103 0304 	add.w	r3, r3, #4
 8008b58:	d104      	bne.n	8008b64 <memcmp+0x58>
 8008b5a:	3a04      	subs	r2, #4
 8008b5c:	2a03      	cmp	r2, #3
 8008b5e:	4618      	mov	r0, r3
 8008b60:	4621      	mov	r1, r4
 8008b62:	d8f0      	bhi.n	8008b46 <memcmp+0x3a>
 8008b64:	2a00      	cmp	r2, #0
 8008b66:	d1d8      	bne.n	8008b1a <memcmp+0xe>
 8008b68:	4610      	mov	r0, r2
 8008b6a:	e7e8      	b.n	8008b3e <memcmp+0x32>
 8008b6c:	1b28      	subs	r0, r5, r4
 8008b6e:	bc70      	pop	{r4, r5, r6}
 8008b70:	4770      	bx	lr
 8008b72:	bf00      	nop

08008b74 <memset>:
 8008b74:	b4f0      	push	{r4, r5, r6, r7}
 8008b76:	0784      	lsls	r4, r0, #30
 8008b78:	d043      	beq.n	8008c02 <memset+0x8e>
 8008b7a:	1e54      	subs	r4, r2, #1
 8008b7c:	2a00      	cmp	r2, #0
 8008b7e:	d03e      	beq.n	8008bfe <memset+0x8a>
 8008b80:	b2cd      	uxtb	r5, r1
 8008b82:	4603      	mov	r3, r0
 8008b84:	e003      	b.n	8008b8e <memset+0x1a>
 8008b86:	1e62      	subs	r2, r4, #1
 8008b88:	2c00      	cmp	r4, #0
 8008b8a:	d038      	beq.n	8008bfe <memset+0x8a>
 8008b8c:	4614      	mov	r4, r2
 8008b8e:	f803 5b01 	strb.w	r5, [r3], #1
 8008b92:	079a      	lsls	r2, r3, #30
 8008b94:	d1f7      	bne.n	8008b86 <memset+0x12>
 8008b96:	2c03      	cmp	r4, #3
 8008b98:	d92a      	bls.n	8008bf0 <memset+0x7c>
 8008b9a:	b2cd      	uxtb	r5, r1
 8008b9c:	ea45 2505 	orr.w	r5, r5, r5, lsl #8
 8008ba0:	2c0f      	cmp	r4, #15
 8008ba2:	ea45 4505 	orr.w	r5, r5, r5, lsl #16
 8008ba6:	d915      	bls.n	8008bd4 <memset+0x60>
 8008ba8:	f1a4 0710 	sub.w	r7, r4, #16
 8008bac:	093f      	lsrs	r7, r7, #4
 8008bae:	f103 0610 	add.w	r6, r3, #16
 8008bb2:	eb06 1607 	add.w	r6, r6, r7, lsl #4
 8008bb6:	461a      	mov	r2, r3
 8008bb8:	6015      	str	r5, [r2, #0]
 8008bba:	6055      	str	r5, [r2, #4]
 8008bbc:	6095      	str	r5, [r2, #8]
 8008bbe:	60d5      	str	r5, [r2, #12]
 8008bc0:	3210      	adds	r2, #16
 8008bc2:	42b2      	cmp	r2, r6
 8008bc4:	d1f8      	bne.n	8008bb8 <memset+0x44>
 8008bc6:	f004 040f 	and.w	r4, r4, #15
 8008bca:	3701      	adds	r7, #1
 8008bcc:	2c03      	cmp	r4, #3
 8008bce:	eb03 1307 	add.w	r3, r3, r7, lsl #4
 8008bd2:	d90d      	bls.n	8008bf0 <memset+0x7c>
 8008bd4:	461e      	mov	r6, r3
 8008bd6:	4622      	mov	r2, r4
 8008bd8:	3a04      	subs	r2, #4
 8008bda:	2a03      	cmp	r2, #3
 8008bdc:	f846 5b04 	str.w	r5, [r6], #4
 8008be0:	d8fa      	bhi.n	8008bd8 <memset+0x64>
 8008be2:	1f22      	subs	r2, r4, #4
 8008be4:	f022 0203 	bic.w	r2, r2, #3
 8008be8:	3204      	adds	r2, #4
 8008bea:	4413      	add	r3, r2
 8008bec:	f004 0403 	and.w	r4, r4, #3
 8008bf0:	b12c      	cbz	r4, 8008bfe <memset+0x8a>
 8008bf2:	b2c9      	uxtb	r1, r1
 8008bf4:	441c      	add	r4, r3
 8008bf6:	f803 1b01 	strb.w	r1, [r3], #1
 8008bfa:	42a3      	cmp	r3, r4
 8008bfc:	d1fb      	bne.n	8008bf6 <memset+0x82>
 8008bfe:	bcf0      	pop	{r4, r5, r6, r7}
 8008c00:	4770      	bx	lr
 8008c02:	4614      	mov	r4, r2
 8008c04:	4603      	mov	r3, r0
 8008c06:	e7c6      	b.n	8008b96 <memset+0x22>

08008c08 <strcpy>:
 8008c08:	ea80 0201 	eor.w	r2, r0, r1
 8008c0c:	4684      	mov	ip, r0
 8008c0e:	f012 0f03 	tst.w	r2, #3
 8008c12:	d14f      	bne.n	8008cb4 <strcpy+0xac>
 8008c14:	f011 0f03 	tst.w	r1, #3
 8008c18:	d132      	bne.n	8008c80 <strcpy+0x78>
 8008c1a:	f84d 4d04 	str.w	r4, [sp, #-4]!
 8008c1e:	f011 0f04 	tst.w	r1, #4
 8008c22:	f851 3b04 	ldr.w	r3, [r1], #4
 8008c26:	d00b      	beq.n	8008c40 <strcpy+0x38>
 8008c28:	f1a3 3201 	sub.w	r2, r3, #16843009	; 0x1010101
 8008c2c:	439a      	bics	r2, r3
 8008c2e:	f012 3f80 	tst.w	r2, #2155905152	; 0x80808080
 8008c32:	bf04      	itt	eq
 8008c34:	f84c 3b04 	streq.w	r3, [ip], #4
 8008c38:	f851 3b04 	ldreq.w	r3, [r1], #4
 8008c3c:	d116      	bne.n	8008c6c <strcpy+0x64>
 8008c3e:	bf00      	nop
 8008c40:	f851 4b04 	ldr.w	r4, [r1], #4
 8008c44:	f1a3 3201 	sub.w	r2, r3, #16843009	; 0x1010101
 8008c48:	439a      	bics	r2, r3
 8008c4a:	f012 3f80 	tst.w	r2, #2155905152	; 0x80808080
 8008c4e:	f1a4 3201 	sub.w	r2, r4, #16843009	; 0x1010101
 8008c52:	d10b      	bne.n	8008c6c <strcpy+0x64>
 8008c54:	f84c 3b04 	str.w	r3, [ip], #4
 8008c58:	43a2      	bics	r2, r4
 8008c5a:	f012 3f80 	tst.w	r2, #2155905152	; 0x80808080
 8008c5e:	bf04      	itt	eq
 8008c60:	f851 3b04 	ldreq.w	r3, [r1], #4
 8008c64:	f84c 4b04 	streq.w	r4, [ip], #4
 8008c68:	d0ea      	beq.n	8008c40 <strcpy+0x38>
 8008c6a:	4623      	mov	r3, r4
 8008c6c:	f80c 3b01 	strb.w	r3, [ip], #1
 8008c70:	f013 0fff 	tst.w	r3, #255	; 0xff
 8008c74:	ea4f 2333 	mov.w	r3, r3, ror #8
 8008c78:	d1f8      	bne.n	8008c6c <strcpy+0x64>
 8008c7a:	f85d 4b04 	ldr.w	r4, [sp], #4
 8008c7e:	4770      	bx	lr
 8008c80:	f011 0f01 	tst.w	r1, #1
 8008c84:	d006      	beq.n	8008c94 <strcpy+0x8c>
 8008c86:	f811 2b01 	ldrb.w	r2, [r1], #1
 8008c8a:	f80c 2b01 	strb.w	r2, [ip], #1
 8008c8e:	2a00      	cmp	r2, #0
 8008c90:	bf08      	it	eq
 8008c92:	4770      	bxeq	lr
 8008c94:	f011 0f02 	tst.w	r1, #2
 8008c98:	d0bf      	beq.n	8008c1a <strcpy+0x12>
 8008c9a:	f831 2b02 	ldrh.w	r2, [r1], #2
 8008c9e:	f012 0fff 	tst.w	r2, #255	; 0xff
 8008ca2:	bf16      	itet	ne
 8008ca4:	f82c 2b02 	strhne.w	r2, [ip], #2
 8008ca8:	f88c 2000 	strbeq.w	r2, [ip]
 8008cac:	f412 4f7f 	tstne.w	r2, #65280	; 0xff00
 8008cb0:	d1b3      	bne.n	8008c1a <strcpy+0x12>
 8008cb2:	4770      	bx	lr
 8008cb4:	f811 2b01 	ldrb.w	r2, [r1], #1
 8008cb8:	f80c 2b01 	strb.w	r2, [ip], #1
 8008cbc:	2a00      	cmp	r2, #0
 8008cbe:	d1f9      	bne.n	8008cb4 <strcpy+0xac>
 8008cc0:	4770      	bx	lr
 8008cc2:	bf00      	nop

08008cc4 <strlen>:
 8008cc4:	f020 0103 	bic.w	r1, r0, #3
 8008cc8:	f010 0003 	ands.w	r0, r0, #3
 8008ccc:	f1c0 0000 	rsb	r0, r0, #0
 8008cd0:	f851 3b04 	ldr.w	r3, [r1], #4
 8008cd4:	f100 0c04 	add.w	ip, r0, #4
 8008cd8:	ea4f 0ccc 	mov.w	ip, ip, lsl #3
 8008cdc:	f06f 0200 	mvn.w	r2, #0
 8008ce0:	bf1c      	itt	ne
 8008ce2:	fa22 f20c 	lsrne.w	r2, r2, ip
 8008ce6:	4313      	orrne	r3, r2
 8008ce8:	f04f 0c01 	mov.w	ip, #1
 8008cec:	ea4c 2c0c 	orr.w	ip, ip, ip, lsl #8
 8008cf0:	ea4c 4c0c 	orr.w	ip, ip, ip, lsl #16
 8008cf4:	eba3 020c 	sub.w	r2, r3, ip
 8008cf8:	ea22 0203 	bic.w	r2, r2, r3
 8008cfc:	ea12 12cc 	ands.w	r2, r2, ip, lsl #7
 8008d00:	bf04      	itt	eq
 8008d02:	f851 3b04 	ldreq.w	r3, [r1], #4
 8008d06:	3004      	addeq	r0, #4
 8008d08:	d0f4      	beq.n	8008cf4 <strlen+0x30>
 8008d0a:	f013 0fff 	tst.w	r3, #255	; 0xff
 8008d0e:	bf1f      	itttt	ne
 8008d10:	3001      	addne	r0, #1
 8008d12:	f413 4f7f 	tstne.w	r3, #65280	; 0xff00
 8008d16:	3001      	addne	r0, #1
 8008d18:	f413 0f7f 	tstne.w	r3, #16711680	; 0xff0000
 8008d1c:	bf18      	it	ne
 8008d1e:	3001      	addne	r0, #1
 8008d20:	4770      	bx	lr
 8008d22:	bf00      	nop

08008d24 <strncmp>:
 8008d24:	b430      	push	{r4, r5}
 8008d26:	2a00      	cmp	r2, #0
 8008d28:	d04a      	beq.n	8008dc0 <strncmp+0x9c>
 8008d2a:	ea40 0301 	orr.w	r3, r0, r1
 8008d2e:	f013 0303 	ands.w	r3, r3, #3
 8008d32:	d12d      	bne.n	8008d90 <strncmp+0x6c>
 8008d34:	2a03      	cmp	r2, #3
 8008d36:	d92b      	bls.n	8008d90 <strncmp+0x6c>
 8008d38:	6804      	ldr	r4, [r0, #0]
 8008d3a:	680d      	ldr	r5, [r1, #0]
 8008d3c:	42ac      	cmp	r4, r5
 8008d3e:	d127      	bne.n	8008d90 <strncmp+0x6c>
 8008d40:	3a04      	subs	r2, #4
 8008d42:	d03d      	beq.n	8008dc0 <strncmp+0x9c>
 8008d44:	f1a4 3501 	sub.w	r5, r4, #16843009	; 0x1010101
 8008d48:	ea25 0404 	bic.w	r4, r5, r4
 8008d4c:	f014 3f80 	tst.w	r4, #2155905152	; 0x80808080
 8008d50:	d13c      	bne.n	8008dcc <strncmp+0xa8>
 8008d52:	460c      	mov	r4, r1
 8008d54:	4603      	mov	r3, r0
 8008d56:	e00e      	b.n	8008d76 <strncmp+0x52>
 8008d58:	685b      	ldr	r3, [r3, #4]
 8008d5a:	6864      	ldr	r4, [r4, #4]
 8008d5c:	f1a3 3501 	sub.w	r5, r3, #16843009	; 0x1010101
 8008d60:	42a3      	cmp	r3, r4
 8008d62:	ea25 0503 	bic.w	r5, r5, r3
 8008d66:	d113      	bne.n	8008d90 <strncmp+0x6c>
 8008d68:	3a04      	subs	r2, #4
 8008d6a:	d029      	beq.n	8008dc0 <strncmp+0x9c>
 8008d6c:	f015 3f80 	tst.w	r5, #2155905152	; 0x80808080
 8008d70:	d129      	bne.n	8008dc6 <strncmp+0xa2>
 8008d72:	4603      	mov	r3, r0
 8008d74:	460c      	mov	r4, r1
 8008d76:	2a03      	cmp	r2, #3
 8008d78:	f100 0004 	add.w	r0, r0, #4
 8008d7c:	f101 0104 	add.w	r1, r1, #4
 8008d80:	d8ea      	bhi.n	8008d58 <strncmp+0x34>
 8008d82:	1e55      	subs	r5, r2, #1
 8008d84:	b92a      	cbnz	r2, 8008d92 <strncmp+0x6e>
 8008d86:	7918      	ldrb	r0, [r3, #4]
 8008d88:	7922      	ldrb	r2, [r4, #4]
 8008d8a:	1a80      	subs	r0, r0, r2
 8008d8c:	bc30      	pop	{r4, r5}
 8008d8e:	4770      	bx	lr
 8008d90:	1e55      	subs	r5, r2, #1
 8008d92:	7803      	ldrb	r3, [r0, #0]
 8008d94:	780a      	ldrb	r2, [r1, #0]
 8008d96:	4293      	cmp	r3, r2
 8008d98:	d11a      	bne.n	8008dd0 <strncmp+0xac>
 8008d9a:	b1dd      	cbz	r5, 8008dd4 <strncmp+0xb0>
 8008d9c:	b1b3      	cbz	r3, 8008dcc <strncmp+0xa8>
 8008d9e:	1c6c      	adds	r4, r5, #1
 8008da0:	440c      	add	r4, r1
 8008da2:	1c8b      	adds	r3, r1, #2
 8008da4:	4601      	mov	r1, r0
 8008da6:	e004      	b.n	8008db2 <strncmp+0x8e>
 8008da8:	42a3      	cmp	r3, r4
 8008daa:	d00c      	beq.n	8008dc6 <strncmp+0xa2>
 8008dac:	3301      	adds	r3, #1
 8008dae:	2800      	cmp	r0, #0
 8008db0:	d0ec      	beq.n	8008d8c <strncmp+0x68>
 8008db2:	f811 0f01 	ldrb.w	r0, [r1, #1]!
 8008db6:	f813 2c01 	ldrb.w	r2, [r3, #-1]
 8008dba:	4290      	cmp	r0, r2
 8008dbc:	d0f4      	beq.n	8008da8 <strncmp+0x84>
 8008dbe:	e7e4      	b.n	8008d8a <strncmp+0x66>
 8008dc0:	4610      	mov	r0, r2
 8008dc2:	bc30      	pop	{r4, r5}
 8008dc4:	4770      	bx	lr
 8008dc6:	2000      	movs	r0, #0
 8008dc8:	bc30      	pop	{r4, r5}
 8008dca:	4770      	bx	lr
 8008dcc:	4618      	mov	r0, r3
 8008dce:	e7dd      	b.n	8008d8c <strncmp+0x68>
 8008dd0:	4618      	mov	r0, r3
 8008dd2:	e7da      	b.n	8008d8a <strncmp+0x66>
 8008dd4:	4628      	mov	r0, r5
 8008dd6:	e7d9      	b.n	8008d8c <strncmp+0x68>

08008dd8 <strncpy>:
 8008dd8:	ea40 0301 	orr.w	r3, r0, r1
 8008ddc:	079b      	lsls	r3, r3, #30
 8008dde:	b470      	push	{r4, r5, r6}
 8008de0:	d12a      	bne.n	8008e38 <strncpy+0x60>
 8008de2:	2a03      	cmp	r2, #3
 8008de4:	d928      	bls.n	8008e38 <strncpy+0x60>
 8008de6:	460c      	mov	r4, r1
 8008de8:	4603      	mov	r3, r0
 8008dea:	4621      	mov	r1, r4
 8008dec:	f854 5b04 	ldr.w	r5, [r4], #4
 8008df0:	f1a5 3601 	sub.w	r6, r5, #16843009	; 0x1010101
 8008df4:	ea26 0605 	bic.w	r6, r6, r5
 8008df8:	f016 3f80 	tst.w	r6, #2155905152	; 0x80808080
 8008dfc:	d105      	bne.n	8008e0a <strncpy+0x32>
 8008dfe:	3a04      	subs	r2, #4
 8008e00:	2a03      	cmp	r2, #3
 8008e02:	f843 5b04 	str.w	r5, [r3], #4
 8008e06:	4621      	mov	r1, r4
 8008e08:	d8ef      	bhi.n	8008dea <strncpy+0x12>
 8008e0a:	b19a      	cbz	r2, 8008e34 <strncpy+0x5c>
 8008e0c:	780c      	ldrb	r4, [r1, #0]
 8008e0e:	701c      	strb	r4, [r3, #0]
 8008e10:	3a01      	subs	r2, #1
 8008e12:	3301      	adds	r3, #1
 8008e14:	b13c      	cbz	r4, 8008e26 <strncpy+0x4e>
 8008e16:	b16a      	cbz	r2, 8008e34 <strncpy+0x5c>
 8008e18:	f811 4f01 	ldrb.w	r4, [r1, #1]!
 8008e1c:	f803 4b01 	strb.w	r4, [r3], #1
 8008e20:	3a01      	subs	r2, #1
 8008e22:	2c00      	cmp	r4, #0
 8008e24:	d1f7      	bne.n	8008e16 <strncpy+0x3e>
 8008e26:	b12a      	cbz	r2, 8008e34 <strncpy+0x5c>
 8008e28:	441a      	add	r2, r3
 8008e2a:	2100      	movs	r1, #0
 8008e2c:	f803 1b01 	strb.w	r1, [r3], #1
 8008e30:	4293      	cmp	r3, r2
 8008e32:	d1fb      	bne.n	8008e2c <strncpy+0x54>
 8008e34:	bc70      	pop	{r4, r5, r6}
 8008e36:	4770      	bx	lr
 8008e38:	4603      	mov	r3, r0
 8008e3a:	e7e6      	b.n	8008e0a <strncpy+0x32>

08008e3c <_strtol_r>:
 8008e3c:	e92d 0ff0 	stmdb	sp!, {r4, r5, r6, r7, r8, r9, sl, fp}
 8008e40:	4c42      	ldr	r4, [pc, #264]	; (8008f4c <_strtol_r+0x110>)
 8008e42:	b082      	sub	sp, #8
 8008e44:	f8d4 c000 	ldr.w	ip, [r4]
 8008e48:	9001      	str	r0, [sp, #4]
 8008e4a:	460e      	mov	r6, r1
 8008e4c:	e000      	b.n	8008e50 <_strtol_r+0x14>
 8008e4e:	4626      	mov	r6, r4
 8008e50:	4634      	mov	r4, r6
 8008e52:	f814 5b01 	ldrb.w	r5, [r4], #1
 8008e56:	eb0c 0005 	add.w	r0, ip, r5
 8008e5a:	7840      	ldrb	r0, [r0, #1]
 8008e5c:	f000 0008 	and.w	r0, r0, #8
 8008e60:	f000 0aff 	and.w	sl, r0, #255	; 0xff
 8008e64:	2800      	cmp	r0, #0
 8008e66:	d1f2      	bne.n	8008e4e <_strtol_r+0x12>
 8008e68:	2d2d      	cmp	r5, #45	; 0x2d
 8008e6a:	d05b      	beq.n	8008f24 <_strtol_r+0xe8>
 8008e6c:	2d2b      	cmp	r5, #43	; 0x2b
 8008e6e:	bf04      	itt	eq
 8008e70:	7875      	ldrbeq	r5, [r6, #1]
 8008e72:	1cb4      	addeq	r4, r6, #2
 8008e74:	f033 0010 	bics.w	r0, r3, #16
 8008e78:	d03c      	beq.n	8008ef4 <_strtol_r+0xb8>
 8008e7a:	4699      	mov	r9, r3
 8008e7c:	f1ba 0f00 	cmp.w	sl, #0
 8008e80:	bf0c      	ite	eq
 8008e82:	f06f 4b00 	mvneq.w	fp, #2147483648	; 0x80000000
 8008e86:	f04f 4b00 	movne.w	fp, #2147483648	; 0x80000000
 8008e8a:	fbbb f8f9 	udiv	r8, fp, r9
 8008e8e:	2700      	movs	r7, #0
 8008e90:	fb09 bb18 	mls	fp, r9, r8, fp
 8008e94:	4638      	mov	r0, r7
 8008e96:	e00c      	b.n	8008eb2 <_strtol_r+0x76>
 8008e98:	3d30      	subs	r5, #48	; 0x30
 8008e9a:	42ab      	cmp	r3, r5
 8008e9c:	dd19      	ble.n	8008ed2 <_strtol_r+0x96>
 8008e9e:	1c7e      	adds	r6, r7, #1
 8008ea0:	d005      	beq.n	8008eae <_strtol_r+0x72>
 8008ea2:	4540      	cmp	r0, r8
 8008ea4:	d823      	bhi.n	8008eee <_strtol_r+0xb2>
 8008ea6:	d020      	beq.n	8008eea <_strtol_r+0xae>
 8008ea8:	fb09 5000 	mla	r0, r9, r0, r5
 8008eac:	2701      	movs	r7, #1
 8008eae:	f814 5b01 	ldrb.w	r5, [r4], #1
 8008eb2:	eb0c 0605 	add.w	r6, ip, r5
 8008eb6:	7876      	ldrb	r6, [r6, #1]
 8008eb8:	f016 0f04 	tst.w	r6, #4
 8008ebc:	d1ec      	bne.n	8008e98 <_strtol_r+0x5c>
 8008ebe:	f016 0603 	ands.w	r6, r6, #3
 8008ec2:	d006      	beq.n	8008ed2 <_strtol_r+0x96>
 8008ec4:	2e01      	cmp	r6, #1
 8008ec6:	bf14      	ite	ne
 8008ec8:	2657      	movne	r6, #87	; 0x57
 8008eca:	2637      	moveq	r6, #55	; 0x37
 8008ecc:	1bad      	subs	r5, r5, r6
 8008ece:	42ab      	cmp	r3, r5
 8008ed0:	dce5      	bgt.n	8008e9e <_strtol_r+0x62>
 8008ed2:	1c7b      	adds	r3, r7, #1
 8008ed4:	d015      	beq.n	8008f02 <_strtol_r+0xc6>
 8008ed6:	f1ba 0f00 	cmp.w	sl, #0
 8008eda:	d121      	bne.n	8008f20 <_strtol_r+0xe4>
 8008edc:	b10a      	cbz	r2, 8008ee2 <_strtol_r+0xa6>
 8008ede:	b9ef      	cbnz	r7, 8008f1c <_strtol_r+0xe0>
 8008ee0:	6011      	str	r1, [r2, #0]
 8008ee2:	b002      	add	sp, #8
 8008ee4:	e8bd 0ff0 	ldmia.w	sp!, {r4, r5, r6, r7, r8, r9, sl, fp}
 8008ee8:	4770      	bx	lr
 8008eea:	455d      	cmp	r5, fp
 8008eec:	dddc      	ble.n	8008ea8 <_strtol_r+0x6c>
 8008eee:	f04f 37ff 	mov.w	r7, #4294967295	; 0xffffffff
 8008ef2:	e7dc      	b.n	8008eae <_strtol_r+0x72>
 8008ef4:	2d30      	cmp	r5, #48	; 0x30
 8008ef6:	d01a      	beq.n	8008f2e <_strtol_r+0xf2>
 8008ef8:	2b00      	cmp	r3, #0
 8008efa:	d1be      	bne.n	8008e7a <_strtol_r+0x3e>
 8008efc:	230a      	movs	r3, #10
 8008efe:	4699      	mov	r9, r3
 8008f00:	e7bc      	b.n	8008e7c <_strtol_r+0x40>
 8008f02:	9901      	ldr	r1, [sp, #4]
 8008f04:	f1ba 0f00 	cmp.w	sl, #0
 8008f08:	f04f 0322 	mov.w	r3, #34	; 0x22
 8008f0c:	bf0c      	ite	eq
 8008f0e:	f06f 4000 	mvneq.w	r0, #2147483648	; 0x80000000
 8008f12:	f04f 4000 	movne.w	r0, #2147483648	; 0x80000000
 8008f16:	600b      	str	r3, [r1, #0]
 8008f18:	2a00      	cmp	r2, #0
 8008f1a:	d0e2      	beq.n	8008ee2 <_strtol_r+0xa6>
 8008f1c:	1e61      	subs	r1, r4, #1
 8008f1e:	e7df      	b.n	8008ee0 <_strtol_r+0xa4>
 8008f20:	4240      	negs	r0, r0
 8008f22:	e7db      	b.n	8008edc <_strtol_r+0xa0>
 8008f24:	1cb4      	adds	r4, r6, #2
 8008f26:	7875      	ldrb	r5, [r6, #1]
 8008f28:	f04f 0a01 	mov.w	sl, #1
 8008f2c:	e7a2      	b.n	8008e74 <_strtol_r+0x38>
 8008f2e:	7820      	ldrb	r0, [r4, #0]
 8008f30:	f000 00df 	and.w	r0, r0, #223	; 0xdf
 8008f34:	2858      	cmp	r0, #88	; 0x58
 8008f36:	d003      	beq.n	8008f40 <_strtol_r+0x104>
 8008f38:	2b00      	cmp	r3, #0
 8008f3a:	d19e      	bne.n	8008e7a <_strtol_r+0x3e>
 8008f3c:	2308      	movs	r3, #8
 8008f3e:	e79c      	b.n	8008e7a <_strtol_r+0x3e>
 8008f40:	2310      	movs	r3, #16
 8008f42:	7865      	ldrb	r5, [r4, #1]
 8008f44:	4699      	mov	r9, r3
 8008f46:	3402      	adds	r4, #2
 8008f48:	e798      	b.n	8008e7c <_strtol_r+0x40>
 8008f4a:	bf00      	nop
 8008f4c:	2000046c 	.word	0x2000046c

08008f50 <strtol>:
 8008f50:	b430      	push	{r4, r5}
 8008f52:	4c04      	ldr	r4, [pc, #16]	; (8008f64 <strtol+0x14>)
 8008f54:	460d      	mov	r5, r1
 8008f56:	4613      	mov	r3, r2
 8008f58:	4601      	mov	r1, r0
 8008f5a:	462a      	mov	r2, r5
 8008f5c:	6820      	ldr	r0, [r4, #0]
 8008f5e:	bc30      	pop	{r4, r5}
 8008f60:	f7ff bf6c 	b.w	8008e3c <_strtol_r>
 8008f64:	20000468 	.word	0x20000468

08008f68 <register_fini>:
 8008f68:	4b02      	ldr	r3, [pc, #8]	; (8008f74 <register_fini+0xc>)
 8008f6a:	b113      	cbz	r3, 8008f72 <register_fini+0xa>
 8008f6c:	4802      	ldr	r0, [pc, #8]	; (8008f78 <register_fini+0x10>)
 8008f6e:	f000 b805 	b.w	8008f7c <atexit>
 8008f72:	4770      	bx	lr
 8008f74:	00000000 	.word	0x00000000
 8008f78:	08008f89 	.word	0x08008f89

08008f7c <atexit>:
 8008f7c:	4601      	mov	r1, r0
 8008f7e:	2000      	movs	r0, #0
 8008f80:	4602      	mov	r2, r0
 8008f82:	4603      	mov	r3, r0
 8008f84:	f000 b818 	b.w	8008fb8 <__register_exitproc>

08008f88 <__libc_fini_array>:
 8008f88:	b538      	push	{r3, r4, r5, lr}
 8008f8a:	4d09      	ldr	r5, [pc, #36]	; (8008fb0 <__libc_fini_array+0x28>)
 8008f8c:	4c09      	ldr	r4, [pc, #36]	; (8008fb4 <__libc_fini_array+0x2c>)
 8008f8e:	1b64      	subs	r4, r4, r5
 8008f90:	10a4      	asrs	r4, r4, #2
 8008f92:	bf18      	it	ne
 8008f94:	eb05 0584 	addne.w	r5, r5, r4, lsl #2
 8008f98:	d005      	beq.n	8008fa6 <__libc_fini_array+0x1e>
 8008f9a:	3c01      	subs	r4, #1
 8008f9c:	f855 3d04 	ldr.w	r3, [r5, #-4]!
 8008fa0:	4798      	blx	r3
 8008fa2:	2c00      	cmp	r4, #0
 8008fa4:	d1f9      	bne.n	8008f9a <__libc_fini_array+0x12>
 8008fa6:	e8bd 4038 	ldmia.w	sp!, {r3, r4, r5, lr}
 8008faa:	f000 beeb 	b.w	8009d84 <_fini>
 8008fae:	bf00      	nop
 8008fb0:	08009d98 	.word	0x08009d98
 8008fb4:	08009d9c 	.word	0x08009d9c

08008fb8 <__register_exitproc>:
 8008fb8:	b5f0      	push	{r4, r5, r6, r7, lr}
 8008fba:	4c27      	ldr	r4, [pc, #156]	; (8009058 <__register_exitproc+0xa0>)
 8008fbc:	6826      	ldr	r6, [r4, #0]
 8008fbe:	f8d6 4148 	ldr.w	r4, [r6, #328]	; 0x148
 8008fc2:	b085      	sub	sp, #20
 8008fc4:	4607      	mov	r7, r0
 8008fc6:	2c00      	cmp	r4, #0
 8008fc8:	d041      	beq.n	800904e <__register_exitproc+0x96>
 8008fca:	6865      	ldr	r5, [r4, #4]
 8008fcc:	2d1f      	cmp	r5, #31
 8008fce:	dd1e      	ble.n	800900e <__register_exitproc+0x56>
 8008fd0:	4822      	ldr	r0, [pc, #136]	; (800905c <__register_exitproc+0xa4>)
 8008fd2:	b918      	cbnz	r0, 8008fdc <__register_exitproc+0x24>
 8008fd4:	f04f 30ff 	mov.w	r0, #4294967295	; 0xffffffff
 8008fd8:	b005      	add	sp, #20
 8008fda:	bdf0      	pop	{r4, r5, r6, r7, pc}
 8008fdc:	f44f 70c8 	mov.w	r0, #400	; 0x190
 8008fe0:	9103      	str	r1, [sp, #12]
 8008fe2:	9202      	str	r2, [sp, #8]
 8008fe4:	9301      	str	r3, [sp, #4]
 8008fe6:	f3af 8000 	nop.w
 8008fea:	9903      	ldr	r1, [sp, #12]
 8008fec:	9a02      	ldr	r2, [sp, #8]
 8008fee:	9b01      	ldr	r3, [sp, #4]
 8008ff0:	4604      	mov	r4, r0
 8008ff2:	2800      	cmp	r0, #0
 8008ff4:	d0ee      	beq.n	8008fd4 <__register_exitproc+0x1c>
 8008ff6:	f8d6 5148 	ldr.w	r5, [r6, #328]	; 0x148
 8008ffa:	6025      	str	r5, [r4, #0]
 8008ffc:	2000      	movs	r0, #0
 8008ffe:	6060      	str	r0, [r4, #4]
 8009000:	4605      	mov	r5, r0
 8009002:	f8c6 4148 	str.w	r4, [r6, #328]	; 0x148
 8009006:	f8c4 0188 	str.w	r0, [r4, #392]	; 0x188
 800900a:	f8c4 018c 	str.w	r0, [r4, #396]	; 0x18c
 800900e:	b93f      	cbnz	r7, 8009020 <__register_exitproc+0x68>
 8009010:	1cab      	adds	r3, r5, #2
 8009012:	2000      	movs	r0, #0
 8009014:	3501      	adds	r5, #1
 8009016:	6065      	str	r5, [r4, #4]
 8009018:	f844 1023 	str.w	r1, [r4, r3, lsl #2]
 800901c:	b005      	add	sp, #20
 800901e:	bdf0      	pop	{r4, r5, r6, r7, pc}
 8009020:	eb04 0085 	add.w	r0, r4, r5, lsl #2
 8009024:	f04f 0c01 	mov.w	ip, #1
 8009028:	f8c0 2088 	str.w	r2, [r0, #136]	; 0x88
 800902c:	f8d4 6188 	ldr.w	r6, [r4, #392]	; 0x188
 8009030:	fa0c f205 	lsl.w	r2, ip, r5
 8009034:	4316      	orrs	r6, r2
 8009036:	2f02      	cmp	r7, #2
 8009038:	f8c4 6188 	str.w	r6, [r4, #392]	; 0x188
 800903c:	f8c0 3108 	str.w	r3, [r0, #264]	; 0x108
 8009040:	d1e6      	bne.n	8009010 <__register_exitproc+0x58>
 8009042:	f8d4 318c 	ldr.w	r3, [r4, #396]	; 0x18c
 8009046:	431a      	orrs	r2, r3
 8009048:	f8c4 218c 	str.w	r2, [r4, #396]	; 0x18c
 800904c:	e7e0      	b.n	8009010 <__register_exitproc+0x58>
 800904e:	f506 74a6 	add.w	r4, r6, #332	; 0x14c
 8009052:	f8c6 4148 	str.w	r4, [r6, #328]	; 0x148
 8009056:	e7b8      	b.n	8008fca <__register_exitproc+0x12>
 8009058:	08009c70 	.word	0x08009c70
 800905c:	00000000 	.word	0x00000000
 8009060:	ccbbaadd 	.word	0xccbbaadd
 8009064:	00002211 	.word	0x00002211
 8009068:	0800a8c0 	.word	0x0800a8c0
 800906c:	00ffffff 	.word	0x00ffffff
 8009070:	0100a8c0 	.word	0x0100a8c0
 8009074:	6c6c6548 	.word	0x6c6c6548
 8009078:	2769206f 	.word	0x2769206f
 800907c:	7564206d 	.word	0x7564206d
 8009080:	20796d6d 	.word	0x20796d6d
 8009084:	76726573 	.word	0x76726573
 8009088:	0a217265 	.word	0x0a217265
 800908c:	0000000a 	.word	0x0000000a
 8009090:	6e616854 	.word	0x6e616854
 8009094:	6f79206b 	.word	0x6f79206b
 8009098:	63202c75 	.word	0x63202c75
 800909c:	20656d6f 	.word	0x20656d6f
 80090a0:	69616761 	.word	0x69616761
 80090a4:	0a0a216e 	.word	0x0a0a216e
 80090a8:	00000000 	.word	0x00000000
 80090ac:	65696c43 	.word	0x65696c43
 80090b0:	6320746e 	.word	0x6320746e
 80090b4:	656e6e6f 	.word	0x656e6e6f
 80090b8:	64657463 	.word	0x64657463
 80090bc:	00000a2e 	.word	0x00000a2e
 80090c0:	6b636150 	.word	0x6b636150
 80090c4:	72207465 	.word	0x72207465
 80090c8:	69656365 	.word	0x69656365
 80090cc:	2e646576 	.word	0x2e646576
 80090d0:	0000000a 	.word	0x0000000a
 80090d4:	65696c43 	.word	0x65696c43
 80090d8:	6320746e 	.word	0x6320746e
 80090dc:	65736f6c 	.word	0x65736f6c
 80090e0:	6f632064 	.word	0x6f632064
 80090e4:	63656e6e 	.word	0x63656e6e
 80090e8:	6e6f6974 	.word	0x6e6f6974
 80090ec:	00000a2e 	.word	0x00000a2e
 80090f0:	6f746f6d 	.word	0x6f746f6d
 80090f4:	00000072 	.word	0x00000072
 80090f8:	6f746f6d 	.word	0x6f746f6d
 80090fc:	5b202072 	.word	0x5b202072
 8009100:	6974706f 	.word	0x6974706f
 8009104:	5d736e6f 	.word	0x5d736e6f
 8009108:	705ba0c2 	.word	0x705ba0c2
 800910c:	6d617261 	.word	0x6d617261
 8009110:	72657465 	.word	0x72657465
 8009114:	a0c25d73 	.word	0xa0c25d73
 8009118:	7954202d 	.word	0x7954202d
 800911c:	6d206570 	.word	0x6d206570
 8009120:	726f746f 	.word	0x726f746f
 8009124:	6c656820 	.word	0x6c656820
 8009128:	6f662070 	.word	0x6f662070
 800912c:	6f6d2072 	.word	0x6f6d2072
 8009130:	68206572 	.word	0x68206572
 8009134:	0d706c65 	.word	0x0d706c65
 8009138:	00000a0a 	.word	0x00000a0a
 800913c:	6b736174 	.word	0x6b736174
 8009140:	00000000 	.word	0x00000000
 8009144:	6b736174 	.word	0x6b736174
 8009148:	72202d20 	.word	0x72202d20
 800914c:	72757465 	.word	0x72757465
 8009150:	6174206e 	.word	0x6174206e
 8009154:	20736b73 	.word	0x20736b73
 8009158:	7473696c 	.word	0x7473696c
 800915c:	000a0a0d 	.word	0x000a0a0d
 8009160:	00000000 	.word	0x00000000
 8009164:	62646f6d 	.word	0x62646f6d
 8009168:	4f207375 	.word	0x4f207375
 800916c:	000a2e4b 	.word	0x000a2e4b
 8009170:	5d78255b 	.word	0x5d78255b
 8009174:	00000000 	.word	0x00000000
 8009178:	0000000a 	.word	0x0000000a
 800917c:	203a4248 	.word	0x203a4248
 8009180:	0a0a6425 	.word	0x0a0a6425
 8009184:	00000000 	.word	0x00000000
 8009188:	6f746f6d 	.word	0x6f746f6d
 800918c:	00000072 	.word	0x00000072
 8009190:	6f746f6d 	.word	0x6f746f6d
 8009194:	5b202072 	.word	0x5b202072
 8009198:	6974706f 	.word	0x6974706f
 800919c:	5d736e6f 	.word	0x5d736e6f
 80091a0:	705ba0c2 	.word	0x705ba0c2
 80091a4:	6d617261 	.word	0x6d617261
 80091a8:	72657465 	.word	0x72657465
 80091ac:	a0c25d73 	.word	0xa0c25d73
 80091b0:	7954202d 	.word	0x7954202d
 80091b4:	6d206570 	.word	0x6d206570
 80091b8:	726f746f 	.word	0x726f746f
 80091bc:	6c656820 	.word	0x6c656820
 80091c0:	6f662070 	.word	0x6f662070
 80091c4:	6f6d2072 	.word	0x6f6d2072
 80091c8:	68206572 	.word	0x68206572
 80091cc:	0d706c65 	.word	0x0d706c65
 80091d0:	00000a0a 	.word	0x00000a0a
 80091d4:	6b736174 	.word	0x6b736174
 80091d8:	00000000 	.word	0x00000000
 80091dc:	6b736174 	.word	0x6b736174
 80091e0:	72202d20 	.word	0x72202d20
 80091e4:	72757465 	.word	0x72757465
 80091e8:	6174206e 	.word	0x6174206e
 80091ec:	20736b73 	.word	0x20736b73
 80091f0:	7473696c 	.word	0x7473696c
 80091f4:	000a0a0d 	.word	0x000a0a0d
 80091f8:	00000000 	.word	0x00000000
 80091fc:	65657073 	.word	0x65657073
 8009200:	00000064 	.word	0x00000064
 8009204:	6f727245 	.word	0x6f727245
 8009208:	73203a72 	.word	0x73203a72
 800920c:	64656570 	.word	0x64656570
 8009210:	20736920 	.word	0x20736920
 8009214:	2074756f 	.word	0x2074756f
 8009218:	7220666f 	.word	0x7220666f
 800921c:	65676e61 	.word	0x65676e61
 8009220:	2c315b20 	.word	0x2c315b20
 8009224:	5d303031 	.word	0x5d303031
 8009228:	203a2070 	.word	0x203a2070
 800922c:	0a0a6425 	.word	0x0a0a6425
 8009230:	00000000 	.word	0x00000000
 8009234:	65657053 	.word	0x65657053
 8009238:	75732064 	.word	0x75732064
 800923c:	65736363 	.word	0x65736363
 8009240:	6c756673 	.word	0x6c756673
 8009244:	7320796c 	.word	0x7320796c
 8009248:	0a2e7465 	.word	0x0a2e7465
 800924c:	0000000a 	.word	0x0000000a
 8009250:	42444f4d 	.word	0x42444f4d
 8009254:	45205355 	.word	0x45205355
 8009258:	524f5252 	.word	0x524f5252
 800925c:	21212120 	.word	0x21212120
 8009260:	000a0a2e 	.word	0x000a0a2e
 8009264:	6f727245 	.word	0x6f727245
 8009268:	65722072 	.word	0x65722072
 800926c:	76656963 	.word	0x76656963
 8009270:	20676e69 	.word	0x20676e69
 8009274:	70736572 	.word	0x70736572
 8009278:	65736e6f 	.word	0x65736e6f
 800927c:	000a0a21 	.word	0x000a0a21
 8009280:	6f727245 	.word	0x6f727245
 8009284:	65732072 	.word	0x65732072
 8009288:	6e69646e 	.word	0x6e69646e
 800928c:	75512067 	.word	0x75512067
 8009290:	21657565 	.word	0x21657565
 8009294:	00000a0a 	.word	0x00000a0a
 8009298:	61727075 	.word	0x61727075
 800929c:	0000706d 	.word	0x0000706d
 80092a0:	6f727245 	.word	0x6f727245
 80092a4:	52203a72 	.word	0x52203a72
 80092a8:	20706d61 	.word	0x20706d61
 80092ac:	656d6974 	.word	0x656d6974
 80092b0:	20736920 	.word	0x20736920
 80092b4:	2074756f 	.word	0x2074756f
 80092b8:	7220666f 	.word	0x7220666f
 80092bc:	65676e61 	.word	0x65676e61
 80092c0:	35315b20 	.word	0x35315b20
 80092c4:	3030332c 	.word	0x3030332c
 80092c8:	3a20735d 	.word	0x3a20735d
 80092cc:	0a642520 	.word	0x0a642520
 80092d0:	0000000a 	.word	0x0000000a
 80092d4:	72207055 	.word	0x72207055
 80092d8:	20706d61 	.word	0x20706d61
 80092dc:	63637573 	.word	0x63637573
 80092e0:	66736573 	.word	0x66736573
 80092e4:	796c6c75 	.word	0x796c6c75
 80092e8:	74657320 	.word	0x74657320
 80092ec:	000a0a2e 	.word	0x000a0a2e
 80092f0:	6e776f64 	.word	0x6e776f64
 80092f4:	706d6172 	.word	0x706d6172
 80092f8:	00000000 	.word	0x00000000
 80092fc:	6e776f44 	.word	0x6e776f44
 8009300:	6d617220 	.word	0x6d617220
 8009304:	75732070 	.word	0x75732070
 8009308:	65736363 	.word	0x65736363
 800930c:	6c756673 	.word	0x6c756673
 8009310:	7320796c 	.word	0x7320796c
 8009314:	0a2e7465 	.word	0x0a2e7465
 8009318:	0000000a 	.word	0x0000000a
 800931c:	65657053 	.word	0x65657053
 8009320:	73692064 	.word	0x73692064
 8009324:	32252020 	.word	0x32252020
 8009328:	32252e64 	.word	0x32252e64
 800932c:	0a207064 	.word	0x0a207064
 8009330:	0000000a 	.word	0x0000000a
 8009334:	66206f54 	.word	0x66206f54
 8009338:	61207765 	.word	0x61207765
 800933c:	6d756772 	.word	0x6d756772
 8009340:	73746e65 	.word	0x73746e65
 8009344:	0a0a202e 	.word	0x0a0a202e
 8009348:	00000000 	.word	0x00000000
 800934c:	706c6568 	.word	0x706c6568
 8009350:	00000000 	.word	0x00000000
 8009354:	67617355 	.word	0x67617355
 8009358:	6e612065 	.word	0x6e612065
 800935c:	61702064 	.word	0x61702064
 8009360:	656d6172 	.word	0x656d6172
 8009364:	73726574 	.word	0x73726574
 8009368:	74706f0a 	.word	0x74706f0a
 800936c:	736e6f69 	.word	0x736e6f69
 8009370:	67090a3a 	.word	0x67090a3a
 8009374:	2d207465 	.word	0x2d207465
 8009378:	74656720 	.word	0x74656720
 800937c:	746f6d20 	.word	0x746f6d20
 8009380:	7020726f 	.word	0x7020726f
 8009384:	6d617261 	.word	0x6d617261
 8009388:	72657465 	.word	0x72657465
 800938c:	6c617620 	.word	0x6c617620
 8009390:	090a6575 	.word	0x090a6575
 8009394:	20746573 	.word	0x20746573
 8009398:	6573202d 	.word	0x6573202d
 800939c:	6f6d2074 	.word	0x6f6d2074
 80093a0:	20726f74 	.word	0x20726f74
 80093a4:	61726170 	.word	0x61726170
 80093a8:	6574656d 	.word	0x6574656d
 80093ac:	61762072 	.word	0x61762072
 80093b0:	0a65756c 	.word	0x0a65756c
 80093b4:	61747309 	.word	0x61747309
 80093b8:	2d207472 	.word	0x2d207472
 80093bc:	61747320 	.word	0x61747320
 80093c0:	20737472 	.word	0x20737472
 80093c4:	6f746f6d 	.word	0x6f746f6d
 80093c8:	73090a72 	.word	0x73090a72
 80093cc:	20706f74 	.word	0x20706f74
 80093d0:	7473202d 	.word	0x7473202d
 80093d4:	2073706f 	.word	0x2073706f
 80093d8:	6f746f6d 	.word	0x6f746f6d
 80093dc:	61700a72 	.word	0x61700a72
 80093e0:	656d6172 	.word	0x656d6172
 80093e4:	3a737274 	.word	0x3a737274
 80093e8:	7073090a 	.word	0x7073090a
 80093ec:	20646565 	.word	0x20646565
 80093f0:	6573202d 	.word	0x6573202d
 80093f4:	73207374 	.word	0x73207374
 80093f8:	64656570 	.word	0x64656570
 80093fc:	7075090a 	.word	0x7075090a
 8009400:	706d6172 	.word	0x706d6172
 8009404:	6f64090a 	.word	0x6f64090a
 8009408:	61726e77 	.word	0x61726e77
 800940c:	000a706d 	.word	0x000a706d
 8009410:	00000000 	.word	0x00000000
 8009414:	00746573 	.word	0x00746573
 8009418:	00746567 	.word	0x00746567
 800941c:	65776f50 	.word	0x65776f50
 8009420:	6e492072 	.word	0x6e492072
 8009424:	2c64253d 	.word	0x2c64253d
 8009428:	756f4920 	.word	0x756f4920
 800942c:	64253d74 	.word	0x64253d74
 8009430:	6956202c 	.word	0x6956202c
 8009434:	64253d6e 	.word	0x64253d6e
 8009438:	7250202c 	.word	0x7250202c
 800943c:	74754f63 	.word	0x74754f63
 8009440:	2e64253d 	.word	0x2e64253d
 8009444:	202c6425 	.word	0x202c6425
 8009448:	4f4d5052 	.word	0x4f4d5052
 800944c:	253d7475 	.word	0x253d7475
 8009450:	49202c64 	.word	0x49202c64
 8009454:	7265746e 	.word	0x7265746e
 8009458:	546c616e 	.word	0x546c616e
 800945c:	3d706d65 	.word	0x3d706d65
 8009460:	252e6425 	.word	0x252e6425
 8009464:	00000a64 	.word	0x00000a64
 8009468:	706f7473 	.word	0x706f7473
 800946c:	00000000 	.word	0x00000000
 8009470:	6f746f4d 	.word	0x6f746f4d
 8009474:	75732072 	.word	0x75732072
 8009478:	65736363 	.word	0x65736363
 800947c:	6c756673 	.word	0x6c756673
 8009480:	7320796c 	.word	0x7320796c
 8009484:	70706f74 	.word	0x70706f74
 8009488:	0a2e6465 	.word	0x0a2e6465
 800948c:	0000000a 	.word	0x0000000a
 8009490:	72617473 	.word	0x72617473
 8009494:	00000074 	.word	0x00000074
 8009498:	6f746f4d 	.word	0x6f746f4d
 800949c:	75732072 	.word	0x75732072
 80094a0:	65736363 	.word	0x65736363
 80094a4:	6c756673 	.word	0x6c756673
 80094a8:	7320796c 	.word	0x7320796c
 80094ac:	74726174 	.word	0x74726174
 80094b0:	0a2e6465 	.word	0x0a2e6465
 80094b4:	0000000a 	.word	0x0000000a
 80094b8:	6c6c696b 	.word	0x6c6c696b
 80094bc:	00000000 	.word	0x00000000
 80094c0:	6b736154 	.word	0x6b736154
 80094c4:	6f6d203a 	.word	0x6f6d203a
 80094c8:	48726f74 	.word	0x48726f74
 80094cc:	75732042 	.word	0x75732042
 80094d0:	65736363 	.word	0x65736363
 80094d4:	75667373 	.word	0x75667373
 80094d8:	20796c6c 	.word	0x20796c6c
 80094dc:	6c6c696b 	.word	0x6c6c696b
 80094e0:	000a6465 	.word	0x000a6465
 80094e4:	00000000 	.word	0x00000000
 80094e8:	6f746f6d 	.word	0x6f746f6d
 80094ec:	00424872 	.word	0x00424872
 80094f0:	6b736154 	.word	0x6b736154
 80094f4:	6f6d203a 	.word	0x6f6d203a
 80094f8:	48726f74 	.word	0x48726f74
 80094fc:	75732042 	.word	0x75732042
 8009500:	65736363 	.word	0x65736363
 8009504:	75667373 	.word	0x75667373
 8009508:	20796c6c 	.word	0x20796c6c
 800950c:	72617473 	.word	0x72617473
 8009510:	0a646574 	.word	0x0a646574
 8009514:	00000000 	.word	0x00000000
 8009518:	6c756e28 	.word	0x6c756e28
 800951c:	0000296c 	.word	0x0000296c
 8009520:	6f746f6d 	.word	0x6f746f6d
 8009524:	00000072 	.word	0x00000072
 8009528:	6f746f6d 	.word	0x6f746f6d
 800952c:	5b202072 	.word	0x5b202072
 8009530:	6974706f 	.word	0x6974706f
 8009534:	5d736e6f 	.word	0x5d736e6f
 8009538:	705ba0c2 	.word	0x705ba0c2
 800953c:	6d617261 	.word	0x6d617261
 8009540:	72657465 	.word	0x72657465
 8009544:	a0c25d73 	.word	0xa0c25d73
 8009548:	7954202d 	.word	0x7954202d
 800954c:	6d206570 	.word	0x6d206570
 8009550:	726f746f 	.word	0x726f746f
 8009554:	6c656820 	.word	0x6c656820
 8009558:	6f662070 	.word	0x6f662070
 800955c:	6f6d2072 	.word	0x6f6d2072
 8009560:	68206572 	.word	0x68206572
 8009564:	0d706c65 	.word	0x0d706c65
 8009568:	00000a0a 	.word	0x00000a0a
 800956c:	6b736174 	.word	0x6b736174
 8009570:	00000000 	.word	0x00000000
 8009574:	6b736174 	.word	0x6b736174
 8009578:	72202d20 	.word	0x72202d20
 800957c:	72757465 	.word	0x72757465
 8009580:	6174206e 	.word	0x6174206e
 8009584:	20736b73 	.word	0x20736b73
 8009588:	7473696c 	.word	0x7473696c
 800958c:	000a0a0d 	.word	0x000a0a0d
 8009590:	00000000 	.word	0x00000000
 8009594:	72617453 	.word	0x72617453
 8009598:	676e6974 	.word	0x676e6974
 800959c:	0000000a 	.word	0x0000000a
 80095a0:	73504354 	.word	0x73504354
 80095a4:	00007672 	.word	0x00007672
 80095a8:	6f727245 	.word	0x6f727245
 80095ac:	72632072 	.word	0x72632072
 80095b0:	69746165 	.word	0x69746165
 80095b4:	7420676e 	.word	0x7420676e
 80095b8:	735f7063 	.word	0x735f7063
 80095bc:	745f7672 	.word	0x745f7672
 80095c0:	0a6b7361 	.word	0x0a6b7361
 80095c4:	00000000 	.word	0x00000000
 80095c8:	63637553 	.word	0x63637553
 80095cc:	73736573 	.word	0x73736573
 80095d0:	6c6c7566 	.word	0x6c6c7566
 80095d4:	72632079 	.word	0x72632079
 80095d8:	65746165 	.word	0x65746165
 80095dc:	63742064 	.word	0x63742064
 80095e0:	72735f70 	.word	0x72735f70
 80095e4:	61745f76 	.word	0x61745f76
 80095e8:	000a6b73 	.word	0x000a6b73
 80095ec:	6f727245 	.word	0x6f727245
 80095f0:	72632072 	.word	0x72632072
 80095f4:	69746165 	.word	0x69746165
 80095f8:	6d20676e 	.word	0x6d20676e
 80095fc:	726f746f 	.word	0x726f746f
 8009600:	73617420 	.word	0x73617420
 8009604:	000a2e6b 	.word	0x000a2e6b
 8009608:	63637553 	.word	0x63637553
 800960c:	73736573 	.word	0x73736573
 8009610:	6c6c7566 	.word	0x6c6c7566
 8009614:	72632079 	.word	0x72632079
 8009618:	65746165 	.word	0x65746165
 800961c:	6f6d2064 	.word	0x6f6d2064
 8009620:	20726f74 	.word	0x20726f74
 8009624:	6b736174 	.word	0x6b736174
 8009628:	0000000a 	.word	0x0000000a
 800962c:	6f746f6d 	.word	0x6f746f6d
 8009630:	00424872 	.word	0x00424872
 8009634:	6f727245 	.word	0x6f727245
 8009638:	72632072 	.word	0x72632072
 800963c:	69746165 	.word	0x69746165
 8009640:	6d20676e 	.word	0x6d20676e
 8009644:	726f746f 	.word	0x726f746f
 8009648:	74204248 	.word	0x74204248
 800964c:	2e6b7361 	.word	0x2e6b7361
 8009650:	0000000a 	.word	0x0000000a
 8009654:	63637553 	.word	0x63637553
 8009658:	73736573 	.word	0x73736573
 800965c:	6c6c7566 	.word	0x6c6c7566
 8009660:	72632079 	.word	0x72632079
 8009664:	65746165 	.word	0x65746165
 8009668:	6f6d2064 	.word	0x6f6d2064
 800966c:	48726f74 	.word	0x48726f74
 8009670:	61742042 	.word	0x61742042
 8009674:	000a6b73 	.word	0x000a6b73
 8009678:	72450a0a 	.word	0x72450a0a
 800967c:	20726f72 	.word	0x20726f72
 8009680:	68746977 	.word	0x68746977
 8009684:	68637320 	.word	0x68637320
 8009688:	6c756465 	.word	0x6c756465
 800968c:	21217265 	.word	0x21217265
 8009690:	0a0a2e20 	.word	0x0a0a2e20
 8009694:	00000000 	.word	0x00000000
 8009698:	74696e69 	.word	0x74696e69
 800969c:	3235575f 	.word	0x3235575f
 80096a0:	00003030 	.word	0x00003030
 80096a4:	454c4449 	.word	0x454c4449
 80096a8:	00000000 	.word	0x00000000
 80096ac:	09097325 	.word	0x09097325
 80096b0:	25096325 	.word	0x25096325
 80096b4:	75250975 	.word	0x75250975
 80096b8:	0d752509 	.word	0x0d752509
 80096bc:	0000000a 	.word	0x0000000a
 80096c0:	20726d54 	.word	0x20726d54
 80096c4:	00637653 	.word	0x00637653
 80096c8:	706c6568 	.word	0x706c6568
 80096cc:	00000000 	.word	0x00000000
 80096d0:	65680a0d 	.word	0x65680a0d
 80096d4:	0d3a706c 	.word	0x0d3a706c
 80096d8:	694c200a 	.word	0x694c200a
 80096dc:	20737473 	.word	0x20737473
 80096e0:	206c6c61 	.word	0x206c6c61
 80096e4:	20656874 	.word	0x20656874
 80096e8:	69676572 	.word	0x69676572
 80096ec:	72657473 	.word	0x72657473
 80096f0:	63206465 	.word	0x63206465
 80096f4:	616d6d6f 	.word	0x616d6d6f
 80096f8:	0d73646e 	.word	0x0d73646e
 80096fc:	000a0d0a 	.word	0x000a0d0a
 8009700:	6f636e49 	.word	0x6f636e49
 8009704:	63657272 	.word	0x63657272
 8009708:	6f632074 	.word	0x6f632074
 800970c:	6e616d6d 	.word	0x6e616d6d
 8009710:	61702064 	.word	0x61702064
 8009714:	656d6172 	.word	0x656d6172
 8009718:	28726574 	.word	0x28726574
 800971c:	202e2973 	.word	0x202e2973
 8009720:	746e4520 	.word	0x746e4520
 8009724:	22207265 	.word	0x22207265
 8009728:	706c6568 	.word	0x706c6568
 800972c:	6f742022 	.word	0x6f742022
 8009730:	65697620 	.word	0x65697620
 8009734:	20612077 	.word	0x20612077
 8009738:	7473696c 	.word	0x7473696c
 800973c:	20666f20 	.word	0x20666f20
 8009740:	69617661 	.word	0x69617661
 8009744:	6c62616c 	.word	0x6c62616c
 8009748:	6f632065 	.word	0x6f632065
 800974c:	6e616d6d 	.word	0x6e616d6d
 8009750:	0d2e7364 	.word	0x0d2e7364
 8009754:	000a0d0a 	.word	0x000a0d0a
 8009758:	6d6d6f43 	.word	0x6d6d6f43
 800975c:	20646e61 	.word	0x20646e61
 8009760:	20746f6e 	.word	0x20746f6e
 8009764:	6f636572 	.word	0x6f636572
 8009768:	73696e67 	.word	0x73696e67
 800976c:	202e6465 	.word	0x202e6465
 8009770:	746e4520 	.word	0x746e4520
 8009774:	27207265 	.word	0x27207265
 8009778:	706c6568 	.word	0x706c6568
 800977c:	6f742027 	.word	0x6f742027
 8009780:	65697620 	.word	0x65697620
 8009784:	20612077 	.word	0x20612077
 8009788:	7473696c 	.word	0x7473696c
 800978c:	20666f20 	.word	0x20666f20
 8009790:	69617661 	.word	0x69617661
 8009794:	6c62616c 	.word	0x6c62616c
 8009798:	6f632065 	.word	0x6f632065
 800979c:	6e616d6d 	.word	0x6e616d6d
 80097a0:	0d2e7364 	.word	0x0d2e7364
 80097a4:	000a0d0a 	.word	0x000a0d0a
 80097a8:	2f707041 	.word	0x2f707041
 80097ac:	334d5453 	.word	0x334d5453
 80097b0:	2d344632 	.word	0x2d344632
 80097b4:	63736944 	.word	0x63736944
 80097b8:	7265766f 	.word	0x7265766f
 80097bc:	694c2f79 	.word	0x694c2f79
 80097c0:	72617262 	.word	0x72617262
 80097c4:	2f736569 	.word	0x2f736569
 80097c8:	334d5453 	.word	0x334d5453
 80097cc:	78344632 	.word	0x78344632
 80097d0:	74535f78 	.word	0x74535f78
 80097d4:	72655064 	.word	0x72655064
 80097d8:	5f687069 	.word	0x5f687069
 80097dc:	76697244 	.word	0x76697244
 80097e0:	732f7265 	.word	0x732f7265
 80097e4:	6d2f6372 	.word	0x6d2f6372
 80097e8:	2e637369 	.word	0x2e637369
 80097ec:	00000063 	.word	0x00000063
 80097f0:	2f707041 	.word	0x2f707041
 80097f4:	334d5453 	.word	0x334d5453
 80097f8:	2d344632 	.word	0x2d344632
 80097fc:	63736944 	.word	0x63736944
 8009800:	7265766f 	.word	0x7265766f
 8009804:	694c2f79 	.word	0x694c2f79
 8009808:	72617262 	.word	0x72617262
 800980c:	2f736569 	.word	0x2f736569
 8009810:	334d5453 	.word	0x334d5453
 8009814:	78344632 	.word	0x78344632
 8009818:	74535f78 	.word	0x74535f78
 800981c:	72655064 	.word	0x72655064
 8009820:	5f687069 	.word	0x5f687069
 8009824:	76697244 	.word	0x76697244
 8009828:	732f7265 	.word	0x732f7265
 800982c:	732f6372 	.word	0x732f6372
 8009830:	32336d74 	.word	0x32336d74
 8009834:	78783466 	.word	0x78783466
 8009838:	616d645f 	.word	0x616d645f
 800983c:	0000632e 	.word	0x0000632e
 8009840:	2f707041 	.word	0x2f707041
 8009844:	334d5453 	.word	0x334d5453
 8009848:	2d344632 	.word	0x2d344632
 800984c:	63736944 	.word	0x63736944
 8009850:	7265766f 	.word	0x7265766f
 8009854:	694c2f79 	.word	0x694c2f79
 8009858:	72617262 	.word	0x72617262
 800985c:	2f736569 	.word	0x2f736569
 8009860:	334d5453 	.word	0x334d5453
 8009864:	78344632 	.word	0x78344632
 8009868:	74535f78 	.word	0x74535f78
 800986c:	72655064 	.word	0x72655064
 8009870:	5f687069 	.word	0x5f687069
 8009874:	76697244 	.word	0x76697244
 8009878:	732f7265 	.word	0x732f7265
 800987c:	732f6372 	.word	0x732f6372
 8009880:	32336d74 	.word	0x32336d74
 8009884:	78783466 	.word	0x78783466
 8009888:	7478655f 	.word	0x7478655f
 800988c:	00632e69 	.word	0x00632e69
 8009890:	2f707041 	.word	0x2f707041
 8009894:	334d5453 	.word	0x334d5453
 8009898:	2d344632 	.word	0x2d344632
 800989c:	63736944 	.word	0x63736944
 80098a0:	7265766f 	.word	0x7265766f
 80098a4:	694c2f79 	.word	0x694c2f79
 80098a8:	72617262 	.word	0x72617262
 80098ac:	2f736569 	.word	0x2f736569
 80098b0:	334d5453 	.word	0x334d5453
 80098b4:	78344632 	.word	0x78344632
 80098b8:	74535f78 	.word	0x74535f78
 80098bc:	72655064 	.word	0x72655064
 80098c0:	5f687069 	.word	0x5f687069
 80098c4:	76697244 	.word	0x76697244
 80098c8:	732f7265 	.word	0x732f7265
 80098cc:	732f6372 	.word	0x732f6372
 80098d0:	32336d74 	.word	0x32336d74
 80098d4:	78783466 	.word	0x78783466
 80098d8:	6970675f 	.word	0x6970675f
 80098dc:	00632e6f 	.word	0x00632e6f
 80098e0:	2f707041 	.word	0x2f707041
 80098e4:	334d5453 	.word	0x334d5453
 80098e8:	2d344632 	.word	0x2d344632
 80098ec:	63736944 	.word	0x63736944
 80098f0:	7265766f 	.word	0x7265766f
 80098f4:	694c2f79 	.word	0x694c2f79
 80098f8:	72617262 	.word	0x72617262
 80098fc:	2f736569 	.word	0x2f736569
 8009900:	334d5453 	.word	0x334d5453
 8009904:	78344632 	.word	0x78344632
 8009908:	74535f78 	.word	0x74535f78
 800990c:	72655064 	.word	0x72655064
 8009910:	5f687069 	.word	0x5f687069
 8009914:	76697244 	.word	0x76697244
 8009918:	732f7265 	.word	0x732f7265
 800991c:	732f6372 	.word	0x732f6372
 8009920:	32336d74 	.word	0x32336d74
 8009924:	78783466 	.word	0x78783466
 8009928:	6363725f 	.word	0x6363725f
 800992c:	0000632e 	.word	0x0000632e
 8009930:	2f707041 	.word	0x2f707041
 8009934:	334d5453 	.word	0x334d5453
 8009938:	2d344632 	.word	0x2d344632
 800993c:	63736944 	.word	0x63736944
 8009940:	7265766f 	.word	0x7265766f
 8009944:	694c2f79 	.word	0x694c2f79
 8009948:	72617262 	.word	0x72617262
 800994c:	2f736569 	.word	0x2f736569
 8009950:	334d5453 	.word	0x334d5453
 8009954:	78344632 	.word	0x78344632
 8009958:	74535f78 	.word	0x74535f78
 800995c:	72655064 	.word	0x72655064
 8009960:	5f687069 	.word	0x5f687069
 8009964:	76697244 	.word	0x76697244
 8009968:	732f7265 	.word	0x732f7265
 800996c:	732f6372 	.word	0x732f6372
 8009970:	32336d74 	.word	0x32336d74
 8009974:	78783466 	.word	0x78783466
 8009978:	6970735f 	.word	0x6970735f
 800997c:	0000632e 	.word	0x0000632e
 8009980:	2f707041 	.word	0x2f707041
 8009984:	334d5453 	.word	0x334d5453
 8009988:	2d344632 	.word	0x2d344632
 800998c:	63736944 	.word	0x63736944
 8009990:	7265766f 	.word	0x7265766f
 8009994:	694c2f79 	.word	0x694c2f79
 8009998:	72617262 	.word	0x72617262
 800999c:	2f736569 	.word	0x2f736569
 80099a0:	334d5453 	.word	0x334d5453
 80099a4:	78344632 	.word	0x78344632
 80099a8:	74535f78 	.word	0x74535f78
 80099ac:	72655064 	.word	0x72655064
 80099b0:	5f687069 	.word	0x5f687069
 80099b4:	76697244 	.word	0x76697244
 80099b8:	732f7265 	.word	0x732f7265
 80099bc:	732f6372 	.word	0x732f6372
 80099c0:	32336d74 	.word	0x32336d74
 80099c4:	78783466 	.word	0x78783466
 80099c8:	7379735f 	.word	0x7379735f
 80099cc:	2e676663 	.word	0x2e676663
 80099d0:	00000063 	.word	0x00000063
 80099d4:	2f707041 	.word	0x2f707041
 80099d8:	334d5453 	.word	0x334d5453
 80099dc:	2d344632 	.word	0x2d344632
 80099e0:	63736944 	.word	0x63736944
 80099e4:	7265766f 	.word	0x7265766f
 80099e8:	694c2f79 	.word	0x694c2f79
 80099ec:	72617262 	.word	0x72617262
 80099f0:	2f736569 	.word	0x2f736569
 80099f4:	334d5453 	.word	0x334d5453
 80099f8:	78344632 	.word	0x78344632
 80099fc:	74535f78 	.word	0x74535f78
 8009a00:	72655064 	.word	0x72655064
 8009a04:	5f687069 	.word	0x5f687069
 8009a08:	76697244 	.word	0x76697244
 8009a0c:	732f7265 	.word	0x732f7265
 8009a10:	732f6372 	.word	0x732f6372
 8009a14:	32336d74 	.word	0x32336d74
 8009a18:	78783466 	.word	0x78783466
 8009a1c:	6173755f 	.word	0x6173755f
 8009a20:	632e7472 	.word	0x632e7472
 8009a24:	00000000 	.word	0x00000000

08009a28 <table_crc_hi>:
 8009a28:	4081c100 4180c001 4180c001 4081c100     ...@...A...A...@
 8009a38:	4180c001 4081c100 4081c100 4180c001     ...A...@...@...A
 8009a48:	4180c001 4081c100 4081c100 4180c001     ...A...@...@...A
 8009a58:	4081c100 4180c001 4180c001 4081c100     ...@...A...A...@
 8009a68:	4180c001 4081c100 4081c100 4180c001     ...A...@...@...A
 8009a78:	4081c100 4180c001 4180c001 4081c100     ...@...A...A...@
 8009a88:	4081c100 4180c001 4180c001 4081c100     ...@...A...A...@
 8009a98:	4180c001 4081c100 4081c100 4180c001     ...A...@...@...A
 8009aa8:	4180c001 4081c100 4081c100 4180c001     ...A...@...@...A
 8009ab8:	4081c100 4180c001 4180c001 4081c100     ...@...A...A...@
 8009ac8:	4081c100 4180c001 4180c001 4081c100     ...@...A...A...@
 8009ad8:	4180c001 4081c100 4081c100 4180c001     ...A...@...@...A
 8009ae8:	4081c100 4180c001 4180c001 4081c100     ...@...A...A...@
 8009af8:	4180c001 4081c100 4081c100 4180c001     ...A...@...@...A
 8009b08:	4180c001 4081c100 4081c100 4180c001     ...A...@...@...A
 8009b18:	4081c100 4180c001 4180c001 4081c100     ...@...A...A...@

08009b28 <table_crc_lo>:
 8009b28:	01c1c000 c20203c3 c70706c6 04c4c505     ................
 8009b38:	cd0d0ccc 0ececf0f 0bcbca0a c80809c9     ................
 8009b48:	d91918d8 1adadb1b 1fdfde1e dc1c1ddd     ................
 8009b58:	15d5d414 d61617d7 d31312d2 10d0d111     ................
 8009b68:	f13130f0 32f2f333 37f7f636 f43435f5     .01.3..26..7.54.
 8009b78:	3dfdfc3c fe3e3fff fb3b3afa 38f8f939     <..=.?>..:;.9..8
 8009b88:	29e9e828 ea2a2beb ef2f2eee 2ceced2d     (..).+*.../.-..,
 8009b98:	e52524e4 26e6e727 23e3e222 e02021e1     .$%.'..&"..#.! .
 8009ba8:	a16160a0 62a2a363 67a7a666 a46465a5     .`a.c..bf..g.ed.
 8009bb8:	6dadac6c ae6e6faf ab6b6aaa 68a8a969     l..m.on..jk.i..h
 8009bc8:	79b9b878 ba7a7bbb bf7f7ebe 7cbcbd7d     x..y.{z..~..}..|
 8009bd8:	b57574b4 76b6b777 73b3b272 b07071b1     .tu.w..vr..s.qp.
 8009be8:	51919050 92525393 97575696 54949555     P..Q.SR..VW.U..T
 8009bf8:	9d5d5c9c 5e9e9f5f 5b9b9a5a 98585999     .\]._..^Z..[.YX.
 8009c08:	89494888 4a8a8b4b 4f8f8e4e 8c4c4d8d     .HI.K..JN..O.ML.
 8009c18:	45858444 86464787 83434282 40808141     D..E.GF..BC.A..@

08009c28 <xMotorCommand>:
 8009c28:	08009520 08009528 0800287d 000000ff      ...(...}(......

08009c38 <xTaskStatsCommand>:
 8009c38:	0800956c 08009574 08002d69 000000ff     l...t...i-......

08009c48 <ucExpectedStackBytes.9202>:
 8009c48:	a5a5a5a5 a5a5a5a5 a5a5a5a5 a5a5a5a5     ................
 8009c58:	a5a5a5a5                                ....

08009c5c <xHelpCommand>:
 8009c5c:	080096c8 080096d0 08006039 00000000     ........9`......
 8009c6c:	00000043                                C...

08009c70 <_global_impure_ptr>:
 8009c70:	20000040                                @.. 

08009c74 <_ctype_>:
 8009c74:	20202000 20202020 28282020 20282828     .         ((((( 
 8009c84:	20202020 20202020 20202020 20202020                     
 8009c94:	10108820 10101010 10101010 10101010      ...............
 8009ca4:	04040410 04040404 10040404 10101010     ................
 8009cb4:	41411010 41414141 01010101 01010101     ..AAAAAA........
 8009cc4:	01010101 01010101 01010101 10101010     ................
 8009cd4:	42421010 42424242 02020202 02020202     ..BBBBBB........
 8009ce4:	02020202 02020202 02020202 10101010     ................
 8009cf4:	00000020 00000000 00000000 00000000      ...............
 8009d04:	00000000 00000000 00000000 00000000     ................
 8009d14:	00000000 00000000 00000000 00000000     ................
 8009d24:	00000000 00000000 00000000 00000000     ................
 8009d34:	00000000 00000000 00000000 00000000     ................
 8009d44:	00000000 00000000 00000000 00000000     ................
 8009d54:	00000000 00000000 00000000 00000000     ................
 8009d64:	00000000 00000000 00000000 00000000     ................
 8009d74:	00000000                                ....

08009d78 <_init>:
 8009d78:	b5f8      	push	{r3, r4, r5, r6, r7, lr}
 8009d7a:	bf00      	nop
 8009d7c:	bcf8      	pop	{r3, r4, r5, r6, r7}
 8009d7e:	bc08      	pop	{r3}
 8009d80:	469e      	mov	lr, r3
 8009d82:	4770      	bx	lr

08009d84 <_fini>:
 8009d84:	b5f8      	push	{r3, r4, r5, r6, r7, lr}
 8009d86:	bf00      	nop
 8009d88:	bcf8      	pop	{r3, r4, r5, r6, r7}
 8009d8a:	bc08      	pop	{r3}
 8009d8c:	469e      	mov	lr, r3
 8009d8e:	4770      	bx	lr
